  268a28:	0b 00                	or     eax,DWORD PTR [rax]
  268a2a:	02 04 01             	add    al,BYTE PTR [rcx+rax*1]
  268a2d:	67 05 18 5c 05 07    	addr32 add eax,0x7055c18
  268a33:	08 f2                	or     dl,dh
  268a35:	05 1a 85 05 09       	add    eax,0x905851a
  268a3a:	08 f2                	or     dl,dh
  268a3c:	05 11 00 02 04       	add    eax,0x4020011
  268a41:	01 4c 05 0f          	add    DWORD PTR [rbp+rax*1+0xf],ecx
  268a45:	00 02                	add    BYTE PTR [rdx],al
  268a47:	04 01                	add    al,0x1
  268a49:	74 05                	je     268a50 <__abi_tag-0x19794c>
  268a4b:	0b 00                	or     eax,DWORD PTR [rax]
  268a4d:	02 04 01             	add    al,BYTE PTR [rcx+rax*1]
  268a50:	67 05 1a 5c 05 09    	addr32 add eax,0x9055c1a
  268a56:	08 f2                	or     dl,dh
  268a58:	05 11 00 02 04       	add    eax,0x4020011
  268a5d:	01 4c 05 0f          	add    DWORD PTR [rbp+rax*1+0xf],ecx
  268a61:	00 02                	add    BYTE PTR [rdx],al
  268a63:	04 01                	add    al,0x1
  268a65:	74 05                	je     268a6c <__abi_tag-0x197930>
  268a67:	0b 00                	or     eax,DWORD PTR [rax]
  268a69:	02 04 01             	add    al,BYTE PTR [rcx+rax*1]
  268a6c:	67 05 1a 5c 05 09    	addr32 add eax,0x9055c1a
  268a72:	08 f2                	or     dl,dh
  268a74:	05 11 00 02 04       	add    eax,0x4020011
  268a79:	01 4c 05 0f          	add    DWORD PTR [rbp+rax*1+0xf],ecx
  268a7d:	00 02                	add    BYTE PTR [rdx],al
  268a7f:	04 01                	add    al,0x1
  268a81:	74 05                	je     268a88 <__abi_tag-0x197914>
  268a83:	0b 00                	or     eax,DWORD PTR [rax]
  268a85:	02 04 01             	add    al,BYTE PTR [rcx+rax*1]
  268a88:	67 05 1a 5c 05 09    	addr32 add eax,0x9055c1a
  268a8e:	08 f2                	or     dl,dh
  268a90:	05 11 00 02 04       	add    eax,0x4020011
  268a95:	01 4c 05 0f          	add    DWORD PTR [rbp+rax*1+0xf],ecx
  268a99:	00 02                	add    BYTE PTR [rdx],al
  268a9b:	04 01                	add    al,0x1
  268a9d:	74 05                	je     268aa4 <__abi_tag-0x1978f8>
  268a9f:	0b 00                	or     eax,DWORD PTR [rax]
  268aa1:	02 04 01             	add    al,BYTE PTR [rcx+rax*1]
  268aa4:	67 05 1a 5c 05 09    	addr32 add eax,0x9055c1a
  268aaa:	08 f2                	or     dl,dh
  268aac:	05 11 00 02 04       	add    eax,0x4020011
  268ab1:	01 4c 05 0f          	add    DWORD PTR [rbp+rax*1+0xf],ecx
  268ab5:	00 02                	add    BYTE PTR [rdx],al
  268ab7:	04 01                	add    al,0x1
  268ab9:	74 05                	je     268ac0 <__abi_tag-0x1978dc>
  268abb:	0b 00                	or     eax,DWORD PTR [rax]
  268abd:	02 04 01             	add    al,BYTE PTR [rcx+rax*1]
  268ac0:	67 05 1a 5c 05 09    	addr32 add eax,0x9055c1a
  268ac6:	08 f2                	or     dl,dh
  268ac8:	05 11 00 02 04       	add    eax,0x4020011
  268acd:	01 4c 05 0f          	add    DWORD PTR [rbp+rax*1+0xf],ecx
  268ad1:	00 02                	add    BYTE PTR [rdx],al
  268ad3:	04 01                	add    al,0x1
  268ad5:	74 05                	je     268adc <__abi_tag-0x1978c0>
  268ad7:	0b 00                	or     eax,DWORD PTR [rax]
  268ad9:	02 04 01             	add    al,BYTE PTR [rcx+rax*1]
  268adc:	67 05 1a 5c 05 09    	addr32 add eax,0x9055c1a
  268ae2:	08 f2                	or     dl,dh
  268ae4:	05 11 00 02 04       	add    eax,0x4020011
  268ae9:	01 4c 05 0f          	add    DWORD PTR [rbp+rax*1+0xf],ecx
  268aed:	00 02                	add    BYTE PTR [rdx],al
  268aef:	04 01                	add    al,0x1
  268af1:	74 05                	je     268af8 <__abi_tag-0x1978a4>
  268af3:	0b 00                	or     eax,DWORD PTR [rax]
  268af5:	02 04 01             	add    al,BYTE PTR [rcx+rax*1]
  268af8:	67 05 1a 5c 05 09    	addr32 add eax,0x9055c1a
  268afe:	08 f2                	or     dl,dh
  268b00:	05 11 00 02 04       	add    eax,0x4020011
  268b05:	01 4c 05 0f          	add    DWORD PTR [rbp+rax*1+0xf],ecx
  268b09:	00 02                	add    BYTE PTR [rdx],al
  268b0b:	04 01                	add    al,0x1
  268b0d:	74 05                	je     268b14 <__abi_tag-0x197888>
  268b0f:	0b 00                	or     eax,DWORD PTR [rax]
  268b11:	02 04 01             	add    al,BYTE PTR [rcx+rax*1]
  268b14:	67 05 1a 5c 05 09    	addr32 add eax,0x9055c1a
  268b1a:	08 f2                	or     dl,dh
  268b1c:	05 11 00 02 04       	add    eax,0x4020011
  268b21:	01 4c 05 0f          	add    DWORD PTR [rbp+rax*1+0xf],ecx
  268b25:	00 02                	add    BYTE PTR [rdx],al
  268b27:	04 01                	add    al,0x1
  268b29:	74 05                	je     268b30 <__abi_tag-0x19786c>
  268b2b:	0b 00                	or     eax,DWORD PTR [rax]
  268b2d:	02 04 01             	add    al,BYTE PTR [rcx+rax*1]
  268b30:	67 05 1a 5c 05 09    	addr32 add eax,0x9055c1a
  268b36:	08 f2                	or     dl,dh
  268b38:	05 11 00 02 04       	add    eax,0x4020011
  268b3d:	01 4c 05 0f          	add    DWORD PTR [rbp+rax*1+0xf],ecx
  268b41:	00 02                	add    BYTE PTR [rdx],al
  268b43:	04 01                	add    al,0x1
  268b45:	74 05                	je     268b4c <__abi_tag-0x197850>
  268b47:	0b 00                	or     eax,DWORD PTR [rax]
  268b49:	02 04 01             	add    al,BYTE PTR [rcx+rax*1]
  268b4c:	67 05 1a 5c 05 09    	addr32 add eax,0x9055c1a
  268b52:	08 f2                	or     dl,dh
  268b54:	05 11 00 02 04       	add    eax,0x4020011
  268b59:	01 4c 05 0f          	add    DWORD PTR [rbp+rax*1+0xf],ecx
  268b5d:	00 02                	add    BYTE PTR [rdx],al
  268b5f:	04 01                	add    al,0x1
  268b61:	74 05                	je     268b68 <__abi_tag-0x197834>
  268b63:	0b 00                	or     eax,DWORD PTR [rax]
  268b65:	02 04 01             	add    al,BYTE PTR [rcx+rax*1]
  268b68:	67 05 1a 5c 05 09    	addr32 add eax,0x9055c1a
  268b6e:	08 f2                	or     dl,dh
  268b70:	05 11 00 02 04       	add    eax,0x4020011
  268b75:	01 4c 05 0f          	add    DWORD PTR [rbp+rax*1+0xf],ecx
  268b79:	00 02                	add    BYTE PTR [rdx],al
  268b7b:	04 01                	add    al,0x1
  268b7d:	74 05                	je     268b84 <__abi_tag-0x197818>
  268b7f:	0b 00                	or     eax,DWORD PTR [rax]
  268b81:	02 04 01             	add    al,BYTE PTR [rcx+rax*1]
  268b84:	67 05 1a 5c 05 09    	addr32 add eax,0x9055c1a
  268b8a:	08 f2                	or     dl,dh
  268b8c:	05 11 00 02 04       	add    eax,0x4020011
  268b91:	01 4c 05 0f          	add    DWORD PTR [rbp+rax*1+0xf],ecx
  268b95:	00 02                	add    BYTE PTR [rdx],al
  268b97:	04 01                	add    al,0x1
  268b99:	74 05                	je     268ba0 <__abi_tag-0x1977fc>
  268b9b:	0b 00                	or     eax,DWORD PTR [rax]
  268b9d:	02 04 01             	add    al,BYTE PTR [rcx+rax*1]
  268ba0:	67 05 1a 5c 05 09    	addr32 add eax,0x9055c1a
  268ba6:	08 f2                	or     dl,dh
  268ba8:	05 11 00 02 04       	add    eax,0x4020011
  268bad:	01 4c 05 0f          	add    DWORD PTR [rbp+rax*1+0xf],ecx
  268bb1:	00 02                	add    BYTE PTR [rdx],al
  268bb3:	04 01                	add    al,0x1
  268bb5:	74 05                	je     268bbc <__abi_tag-0x1977e0>
  268bb7:	0b 00                	or     eax,DWORD PTR [rax]
  268bb9:	02 04 01             	add    al,BYTE PTR [rcx+rax*1]
  268bbc:	67 05 1a 5c 05 09    	addr32 add eax,0x9055c1a
  268bc2:	08 f2                	or     dl,dh
  268bc4:	05 11 00 02 04       	add    eax,0x4020011
  268bc9:	01 4c 05 0f          	add    DWORD PTR [rbp+rax*1+0xf],ecx
  268bcd:	00 02                	add    BYTE PTR [rdx],al
  268bcf:	04 01                	add    al,0x1
  268bd1:	74 05                	je     268bd8 <__abi_tag-0x1977c4>
  268bd3:	0b 00                	or     eax,DWORD PTR [rax]
  268bd5:	02 04 01             	add    al,BYTE PTR [rcx+rax*1]
  268bd8:	67 05 1a 5c 05 09    	addr32 add eax,0x9055c1a
  268bde:	08 f2                	or     dl,dh
  268be0:	05 11 00 02 04       	add    eax,0x4020011
  268be5:	01 4c 05 0f          	add    DWORD PTR [rbp+rax*1+0xf],ecx
  268be9:	00 02                	add    BYTE PTR [rdx],al
  268beb:	04 01                	add    al,0x1
  268bed:	74 05                	je     268bf4 <__abi_tag-0x1977a8>
  268bef:	0b 00                	or     eax,DWORD PTR [rax]
  268bf1:	02 04 01             	add    al,BYTE PTR [rcx+rax*1]
  268bf4:	67 05 1a 5c 05 09    	addr32 add eax,0x9055c1a
  268bfa:	08 f2                	or     dl,dh
  268bfc:	05 11 00 02 04       	add    eax,0x4020011
  268c01:	01 4c 05 0f          	add    DWORD PTR [rbp+rax*1+0xf],ecx
  268c05:	00 02                	add    BYTE PTR [rdx],al
  268c07:	04 01                	add    al,0x1
  268c09:	74 05                	je     268c10 <__abi_tag-0x19778c>
  268c0b:	0b 00                	or     eax,DWORD PTR [rax]
  268c0d:	02 04 01             	add    al,BYTE PTR [rcx+rax*1]
  268c10:	67 05 18 5c 05 07    	addr32 add eax,0x7055c18
  268c16:	08 f2                	or     dl,dh
  268c18:	05 1a 85 05 09       	add    eax,0x905851a
  268c1d:	08 f2                	or     dl,dh
  268c1f:	05 11 00 02 04       	add    eax,0x4020011
  268c24:	01 4c 05 0f          	add    DWORD PTR [rbp+rax*1+0xf],ecx
  268c28:	00 02                	add    BYTE PTR [rdx],al
  268c2a:	04 01                	add    al,0x1
  268c2c:	74 05                	je     268c33 <__abi_tag-0x197769>
  268c2e:	0b 00                	or     eax,DWORD PTR [rax]
  268c30:	02 04 01             	add    al,BYTE PTR [rcx+rax*1]
  268c33:	67 05 1a 5c 05 09    	addr32 add eax,0x9055c1a
  268c39:	08 f2                	or     dl,dh
  268c3b:	05 11 00 02 04       	add    eax,0x4020011
  268c40:	01 4c 05 0f          	add    DWORD PTR [rbp+rax*1+0xf],ecx
  268c44:	00 02                	add    BYTE PTR [rdx],al
  268c46:	04 01                	add    al,0x1
  268c48:	74 05                	je     268c4f <__abi_tag-0x19774d>
  268c4a:	0b 00                	or     eax,DWORD PTR [rax]
  268c4c:	02 04 01             	add    al,BYTE PTR [rcx+rax*1]
  268c4f:	67 05 1a 5c 05 09    	addr32 add eax,0x9055c1a
  268c55:	08 f2                	or     dl,dh
  268c57:	05 11 00 02 04       	add    eax,0x4020011
  268c5c:	01 4c 05 0f          	add    DWORD PTR [rbp+rax*1+0xf],ecx
  268c60:	00 02                	add    BYTE PTR [rdx],al
  268c62:	04 01                	add    al,0x1
  268c64:	74 05                	je     268c6b <__abi_tag-0x197731>
  268c66:	0b 00                	or     eax,DWORD PTR [rax]
  268c68:	02 04 01             	add    al,BYTE PTR [rcx+rax*1]
  268c6b:	67 05 1a 5c 05 09    	addr32 add eax,0x9055c1a
  268c71:	08 f2                	or     dl,dh
  268c73:	05 11 00 02 04       	add    eax,0x4020011
  268c78:	01 4c 05 0f          	add    DWORD PTR [rbp+rax*1+0xf],ecx
  268c7c:	00 02                	add    BYTE PTR [rdx],al
  268c7e:	04 01                	add    al,0x1
  268c80:	74 05                	je     268c87 <__abi_tag-0x197715>
  268c82:	0b 00                	or     eax,DWORD PTR [rax]
  268c84:	02 04 01             	add    al,BYTE PTR [rcx+rax*1]
  268c87:	67 05 1a 5c 05 09    	addr32 add eax,0x9055c1a
  268c8d:	08 f2                	or     dl,dh
  268c8f:	05 11 00 02 04       	add    eax,0x4020011
  268c94:	01 4c 05 0f          	add    DWORD PTR [rbp+rax*1+0xf],ecx
  268c98:	00 02                	add    BYTE PTR [rdx],al
  268c9a:	04 01                	add    al,0x1
  268c9c:	74 05                	je     268ca3 <__abi_tag-0x1976f9>
  268c9e:	0b 00                	or     eax,DWORD PTR [rax]
  268ca0:	02 04 01             	add    al,BYTE PTR [rcx+rax*1]
  268ca3:	67 05 1a 5c 05 09    	addr32 add eax,0x9055c1a
  268ca9:	08 f2                	or     dl,dh
  268cab:	05 11 00 02 04       	add    eax,0x4020011
  268cb0:	01 4c 05 0f          	add    DWORD PTR [rbp+rax*1+0xf],ecx
  268cb4:	00 02                	add    BYTE PTR [rdx],al
  268cb6:	04 01                	add    al,0x1
  268cb8:	74 05                	je     268cbf <__abi_tag-0x1976dd>
  268cba:	0b 00                	or     eax,DWORD PTR [rax]
  268cbc:	02 04 01             	add    al,BYTE PTR [rcx+rax*1]
  268cbf:	67 05 1a 5c 05 09    	addr32 add eax,0x9055c1a
  268cc5:	08 f2                	or     dl,dh
  268cc7:	05 11 00 02 04       	add    eax,0x4020011
  268ccc:	01 4c 05 0f          	add    DWORD PTR [rbp+rax*1+0xf],ecx
  268cd0:	00 02                	add    BYTE PTR [rdx],al
  268cd2:	04 01                	add    al,0x1
  268cd4:	74 05                	je     268cdb <__abi_tag-0x1976c1>
  268cd6:	0b 00                	or     eax,DWORD PTR [rax]
  268cd8:	02 04 01             	add    al,BYTE PTR [rcx+rax*1]
  268cdb:	67 05 1a 5c 05 09    	addr32 add eax,0x9055c1a
  268ce1:	08 f2                	or     dl,dh
  268ce3:	05 11 00 02 04       	add    eax,0x4020011
  268ce8:	01 4c 05 0f          	add    DWORD PTR [rbp+rax*1+0xf],ecx
  268cec:	00 02                	add    BYTE PTR [rdx],al
  268cee:	04 01                	add    al,0x1
  268cf0:	74 05                	je     268cf7 <__abi_tag-0x1976a5>
  268cf2:	0b 00                	or     eax,DWORD PTR [rax]
  268cf4:	02 04 01             	add    al,BYTE PTR [rcx+rax*1]
  268cf7:	67 05 1a 5c 05 09    	addr32 add eax,0x9055c1a
  268cfd:	08 f2                	or     dl,dh
  268cff:	05 11 00 02 04       	add    eax,0x4020011
  268d04:	01 4c 05 0f          	add    DWORD PTR [rbp+rax*1+0xf],ecx
  268d08:	00 02                	add    BYTE PTR [rdx],al
  268d0a:	04 01                	add    al,0x1
  268d0c:	74 05                	je     268d13 <__abi_tag-0x197689>
  268d0e:	0b 00                	or     eax,DWORD PTR [rax]
  268d10:	02 04 01             	add    al,BYTE PTR [rcx+rax*1]
  268d13:	67 05 1a 5c 05 09    	addr32 add eax,0x9055c1a
  268d19:	08 f2                	or     dl,dh
  268d1b:	05 11 00 02 04       	add    eax,0x4020011
  268d20:	01 4c 05 0f          	add    DWORD PTR [rbp+rax*1+0xf],ecx
  268d24:	00 02                	add    BYTE PTR [rdx],al
  268d26:	04 01                	add    al,0x1
  268d28:	74 05                	je     268d2f <__abi_tag-0x19766d>
  268d2a:	0b 00                	or     eax,DWORD PTR [rax]
  268d2c:	02 04 01             	add    al,BYTE PTR [rcx+rax*1]
  268d2f:	67 05 1a 5c 05 09    	addr32 add eax,0x9055c1a
  268d35:	08 f2                	or     dl,dh
  268d37:	05 11 00 02 04       	add    eax,0x4020011
  268d3c:	01 4c 05 0f          	add    DWORD PTR [rbp+rax*1+0xf],ecx
  268d40:	00 02                	add    BYTE PTR [rdx],al
  268d42:	04 01                	add    al,0x1
  268d44:	74 05                	je     268d4b <__abi_tag-0x197651>
  268d46:	0b 00                	or     eax,DWORD PTR [rax]
  268d48:	02 04 01             	add    al,BYTE PTR [rcx+rax*1]
  268d4b:	67 05 1a 5c 05 09    	addr32 add eax,0x9055c1a
  268d51:	08 f2                	or     dl,dh
  268d53:	05 11 00 02 04       	add    eax,0x4020011
  268d58:	01 4c 05 0f          	add    DWORD PTR [rbp+rax*1+0xf],ecx
  268d5c:	00 02                	add    BYTE PTR [rdx],al
  268d5e:	04 01                	add    al,0x1
  268d60:	74 05                	je     268d67 <__abi_tag-0x197635>
  268d62:	0b 00                	or     eax,DWORD PTR [rax]
  268d64:	02 04 01             	add    al,BYTE PTR [rcx+rax*1]
  268d67:	67 05 1a 5c 05 09    	addr32 add eax,0x9055c1a
  268d6d:	08 f2                	or     dl,dh
  268d6f:	05 11 00 02 04       	add    eax,0x4020011
  268d74:	01 4c 05 0f          	add    DWORD PTR [rbp+rax*1+0xf],ecx
  268d78:	00 02                	add    BYTE PTR [rdx],al
  268d7a:	04 01                	add    al,0x1
  268d7c:	74 05                	je     268d83 <__abi_tag-0x197619>
  268d7e:	0b 00                	or     eax,DWORD PTR [rax]
  268d80:	02 04 01             	add    al,BYTE PTR [rcx+rax*1]
  268d83:	67 05 1a 5c 05 09    	addr32 add eax,0x9055c1a
  268d89:	08 f2                	or     dl,dh
  268d8b:	05 11 00 02 04       	add    eax,0x4020011
  268d90:	01 4c 05 0f          	add    DWORD PTR [rbp+rax*1+0xf],ecx
  268d94:	00 02                	add    BYTE PTR [rdx],al
  268d96:	04 01                	add    al,0x1
  268d98:	74 05                	je     268d9f <__abi_tag-0x1975fd>
  268d9a:	0b 00                	or     eax,DWORD PTR [rax]
  268d9c:	02 04 01             	add    al,BYTE PTR [rcx+rax*1]
  268d9f:	67 05 1a 5c 05 09    	addr32 add eax,0x9055c1a
  268da5:	08 f2                	or     dl,dh
  268da7:	05 11 00 02 04       	add    eax,0x4020011
  268dac:	01 4c 05 0f          	add    DWORD PTR [rbp+rax*1+0xf],ecx
  268db0:	00 02                	add    BYTE PTR [rdx],al
  268db2:	04 01                	add    al,0x1
  268db4:	74 05                	je     268dbb <__abi_tag-0x1975e1>
  268db6:	0b 00                	or     eax,DWORD PTR [rax]
  268db8:	02 04 01             	add    al,BYTE PTR [rcx+rax*1]
  268dbb:	67 05 1a 5c 05 09    	addr32 add eax,0x9055c1a
  268dc1:	08 f2                	or     dl,dh
  268dc3:	05 11 00 02 04       	add    eax,0x4020011
  268dc8:	01 4c 05 0f          	add    DWORD PTR [rbp+rax*1+0xf],ecx
  268dcc:	00 02                	add    BYTE PTR [rdx],al
  268dce:	04 01                	add    al,0x1
  268dd0:	74 05                	je     268dd7 <__abi_tag-0x1975c5>
  268dd2:	0b 00                	or     eax,DWORD PTR [rax]
  268dd4:	02 04 01             	add    al,BYTE PTR [rcx+rax*1]
  268dd7:	67 05 1a 5c 05 09    	addr32 add eax,0x9055c1a
  268ddd:	08 f2                	or     dl,dh
  268ddf:	05 11 00 02 04       	add    eax,0x4020011
  268de4:	01 4c 05 0f          	add    DWORD PTR [rbp+rax*1+0xf],ecx
  268de8:	00 02                	add    BYTE PTR [rdx],al
  268dea:	04 01                	add    al,0x1
  268dec:	74 05                	je     268df3 <__abi_tag-0x1975a9>
  268dee:	0b 00                	or     eax,DWORD PTR [rax]
  268df0:	02 04 01             	add    al,BYTE PTR [rcx+rax*1]
  268df3:	67 05 1a 5c 05 09    	addr32 add eax,0x9055c1a
  268df9:	08 f2                	or     dl,dh
  268dfb:	05 11 00 02 04       	add    eax,0x4020011
  268e00:	01 4c 05 0f          	add    DWORD PTR [rbp+rax*1+0xf],ecx
  268e04:	00 02                	add    BYTE PTR [rdx],al
  268e06:	04 01                	add    al,0x1
  268e08:	74 05                	je     268e0f <__abi_tag-0x19758d>
  268e0a:	0b 00                	or     eax,DWORD PTR [rax]
  268e0c:	02 04 01             	add    al,BYTE PTR [rcx+rax*1]
  268e0f:	67 05 1a 5c 05 09    	addr32 add eax,0x9055c1a
  268e15:	08 f2                	or     dl,dh
  268e17:	05 11 00 02 04       	add    eax,0x4020011
  268e1c:	01 4c 05 0f          	add    DWORD PTR [rbp+rax*1+0xf],ecx
  268e20:	00 02                	add    BYTE PTR [rdx],al
  268e22:	04 01                	add    al,0x1
  268e24:	74 05                	je     268e2b <__abi_tag-0x197571>
  268e26:	0b 00                	or     eax,DWORD PTR [rax]
  268e28:	02 04 01             	add    al,BYTE PTR [rcx+rax*1]
  268e2b:	67 05 1a 5c 05 09    	addr32 add eax,0x9055c1a
  268e31:	08 f2                	or     dl,dh
  268e33:	05 11 00 02 04       	add    eax,0x4020011
  268e38:	01 4c 05 0f          	add    DWORD PTR [rbp+rax*1+0xf],ecx
  268e3c:	00 02                	add    BYTE PTR [rdx],al
  268e3e:	04 01                	add    al,0x1
  268e40:	74 05                	je     268e47 <__abi_tag-0x197555>
  268e42:	0b 00                	or     eax,DWORD PTR [rax]
  268e44:	02 04 01             	add    al,BYTE PTR [rcx+rax*1]
  268e47:	67 05 1a 5c 05 09    	addr32 add eax,0x9055c1a
  268e4d:	08 f2                	or     dl,dh
  268e4f:	05 11 00 02 04       	add    eax,0x4020011
  268e54:	01 4c 05 0f          	add    DWORD PTR [rbp+rax*1+0xf],ecx
  268e58:	00 02                	add    BYTE PTR [rdx],al
  268e5a:	04 01                	add    al,0x1
  268e5c:	74 05                	je     268e63 <__abi_tag-0x197539>
  268e5e:	0b 00                	or     eax,DWORD PTR [rax]
  268e60:	02 04 01             	add    al,BYTE PTR [rcx+rax*1]
  268e63:	67 05 1a 5c 05 09    	addr32 add eax,0x9055c1a
  268e69:	08 f2                	or     dl,dh
  268e6b:	05 11 00 02 04       	add    eax,0x4020011
  268e70:	01 4c 05 0f          	add    DWORD PTR [rbp+rax*1+0xf],ecx
  268e74:	00 02                	add    BYTE PTR [rdx],al
  268e76:	04 01                	add    al,0x1
  268e78:	74 05                	je     268e7f <__abi_tag-0x19751d>
  268e7a:	0b 00                	or     eax,DWORD PTR [rax]
  268e7c:	02 04 01             	add    al,BYTE PTR [rcx+rax*1]
  268e7f:	67 05 1a 5c 05 09    	addr32 add eax,0x9055c1a
  268e85:	08 f2                	or     dl,dh
  268e87:	05 11 00 02 04       	add    eax,0x4020011
  268e8c:	01 4c 05 0f          	add    DWORD PTR [rbp+rax*1+0xf],ecx
  268e90:	00 02                	add    BYTE PTR [rdx],al
  268e92:	04 01                	add    al,0x1
  268e94:	74 05                	je     268e9b <__abi_tag-0x197501>
  268e96:	0b 00                	or     eax,DWORD PTR [rax]
  268e98:	02 04 01             	add    al,BYTE PTR [rcx+rax*1]
  268e9b:	67 05 1a 5c 05 09    	addr32 add eax,0x9055c1a
  268ea1:	08 f2                	or     dl,dh
  268ea3:	05 11 00 02 04       	add    eax,0x4020011
  268ea8:	01 4c 05 0f          	add    DWORD PTR [rbp+rax*1+0xf],ecx
  268eac:	00 02                	add    BYTE PTR [rdx],al
  268eae:	04 01                	add    al,0x1
  268eb0:	74 05                	je     268eb7 <__abi_tag-0x1974e5>
  268eb2:	0b 00                	or     eax,DWORD PTR [rax]
  268eb4:	02 04 01             	add    al,BYTE PTR [rcx+rax*1]
  268eb7:	67 05 1a 5c 05 09    	addr32 add eax,0x9055c1a
  268ebd:	08 f2                	or     dl,dh
  268ebf:	05 11 00 02 04       	add    eax,0x4020011
  268ec4:	01 4c 05 0f          	add    DWORD PTR [rbp+rax*1+0xf],ecx
  268ec8:	00 02                	add    BYTE PTR [rdx],al
  268eca:	04 01                	add    al,0x1
  268ecc:	74 05                	je     268ed3 <__abi_tag-0x1974c9>
  268ece:	0b 00                	or     eax,DWORD PTR [rax]
  268ed0:	02 04 01             	add    al,BYTE PTR [rcx+rax*1]
  268ed3:	67 05 1a 5c 05 09    	addr32 add eax,0x9055c1a
  268ed9:	08 f2                	or     dl,dh
  268edb:	05 11 00 02 04       	add    eax,0x4020011
  268ee0:	01 4c 05 0f          	add    DWORD PTR [rbp+rax*1+0xf],ecx
  268ee4:	00 02                	add    BYTE PTR [rdx],al
  268ee6:	04 01                	add    al,0x1
  268ee8:	74 05                	je     268eef <__abi_tag-0x1974ad>
  268eea:	0b 00                	or     eax,DWORD PTR [rax]
  268eec:	02 04 01             	add    al,BYTE PTR [rcx+rax*1]
  268eef:	67 05 1a 5c 05 09    	addr32 add eax,0x9055c1a
  268ef5:	08 f2                	or     dl,dh
  268ef7:	05 11 00 02 04       	add    eax,0x4020011
  268efc:	01 4c 05 0f          	add    DWORD PTR [rbp+rax*1+0xf],ecx
  268f00:	00 02                	add    BYTE PTR [rdx],al
  268f02:	04 01                	add    al,0x1
  268f04:	74 05                	je     268f0b <__abi_tag-0x197491>
  268f06:	0b 00                	or     eax,DWORD PTR [rax]
  268f08:	02 04 01             	add    al,BYTE PTR [rcx+rax*1]
  268f0b:	67 05 1a 5c 05 09    	addr32 add eax,0x9055c1a
  268f11:	08 f2                	or     dl,dh
  268f13:	05 11 00 02 04       	add    eax,0x4020011
  268f18:	01 4c 05 0f          	add    DWORD PTR [rbp+rax*1+0xf],ecx
  268f1c:	00 02                	add    BYTE PTR [rdx],al
  268f1e:	04 01                	add    al,0x1
  268f20:	74 05                	je     268f27 <__abi_tag-0x197475>
  268f22:	0b 00                	or     eax,DWORD PTR [rax]
  268f24:	02 04 01             	add    al,BYTE PTR [rcx+rax*1]
  268f27:	67 05 1a 5c 05 09    	addr32 add eax,0x9055c1a
  268f2d:	08 f2                	or     dl,dh
  268f2f:	05 11 00 02 04       	add    eax,0x4020011
  268f34:	01 4c 05 0f          	add    DWORD PTR [rbp+rax*1+0xf],ecx
  268f38:	00 02                	add    BYTE PTR [rdx],al
  268f3a:	04 01                	add    al,0x1
  268f3c:	74 05                	je     268f43 <__abi_tag-0x197459>
  268f3e:	0b 00                	or     eax,DWORD PTR [rax]
  268f40:	02 04 01             	add    al,BYTE PTR [rcx+rax*1]
  268f43:	67 05 1a 5c 05 09    	addr32 add eax,0x9055c1a
  268f49:	08 f2                	or     dl,dh
  268f4b:	05 11 00 02 04       	add    eax,0x4020011
  268f50:	01 4c 05 0f          	add    DWORD PTR [rbp+rax*1+0xf],ecx
  268f54:	00 02                	add    BYTE PTR [rdx],al
  268f56:	04 01                	add    al,0x1
  268f58:	74 05                	je     268f5f <__abi_tag-0x19743d>
  268f5a:	0b 00                	or     eax,DWORD PTR [rax]
  268f5c:	02 04 01             	add    al,BYTE PTR [rcx+rax*1]
  268f5f:	67 05 1a 5c 05 09    	addr32 add eax,0x9055c1a
  268f65:	08 f2                	or     dl,dh
  268f67:	05 11 00 02 04       	add    eax,0x4020011
  268f6c:	01 4c 05 0f          	add    DWORD PTR [rbp+rax*1+0xf],ecx
  268f70:	00 02                	add    BYTE PTR [rdx],al
  268f72:	04 01                	add    al,0x1
  268f74:	74 05                	je     268f7b <__abi_tag-0x197421>
  268f76:	0b 00                	or     eax,DWORD PTR [rax]
  268f78:	02 04 01             	add    al,BYTE PTR [rcx+rax*1]
  268f7b:	67 05 1a 5c 05 09    	addr32 add eax,0x9055c1a
  268f81:	08 f2                	or     dl,dh
  268f83:	05 11 00 02 04       	add    eax,0x4020011
  268f88:	01 4c 05 0f          	add    DWORD PTR [rbp+rax*1+0xf],ecx
  268f8c:	00 02                	add    BYTE PTR [rdx],al
  268f8e:	04 01                	add    al,0x1
  268f90:	74 05                	je     268f97 <__abi_tag-0x197405>
  268f92:	0b 00                	or     eax,DWORD PTR [rax]
  268f94:	02 04 01             	add    al,BYTE PTR [rcx+rax*1]
  268f97:	67 05 1a 5c 05 09    	addr32 add eax,0x9055c1a
  268f9d:	08 f2                	or     dl,dh
  268f9f:	05 11 00 02 04       	add    eax,0x4020011
  268fa4:	01 4c 05 0f          	add    DWORD PTR [rbp+rax*1+0xf],ecx
  268fa8:	00 02                	add    BYTE PTR [rdx],al
  268faa:	04 01                	add    al,0x1
  268fac:	74 05                	je     268fb3 <__abi_tag-0x1973e9>
  268fae:	0b 00                	or     eax,DWORD PTR [rax]
  268fb0:	02 04 01             	add    al,BYTE PTR [rcx+rax*1]
  268fb3:	67 05 1a 5c 05 09    	addr32 add eax,0x9055c1a
  268fb9:	08 f2                	or     dl,dh
  268fbb:	05 11 00 02 04       	add    eax,0x4020011
  268fc0:	01 4c 05 0f          	add    DWORD PTR [rbp+rax*1+0xf],ecx
  268fc4:	00 02                	add    BYTE PTR [rdx],al
  268fc6:	04 01                	add    al,0x1
  268fc8:	74 05                	je     268fcf <__abi_tag-0x1973cd>
  268fca:	0b 00                	or     eax,DWORD PTR [rax]
  268fcc:	02 04 01             	add    al,BYTE PTR [rcx+rax*1]
  268fcf:	67 05 1a 5c 05 09    	addr32 add eax,0x9055c1a
  268fd5:	08 f2                	or     dl,dh
  268fd7:	05 11 00 02 04       	add    eax,0x4020011
  268fdc:	01 4c 05 0f          	add    DWORD PTR [rbp+rax*1+0xf],ecx
  268fe0:	00 02                	add    BYTE PTR [rdx],al
  268fe2:	04 01                	add    al,0x1
  268fe4:	74 05                	je     268feb <__abi_tag-0x1973b1>
  268fe6:	0b 00                	or     eax,DWORD PTR [rax]
  268fe8:	02 04 01             	add    al,BYTE PTR [rcx+rax*1]
  268feb:	67 05 1a 5c 05 09    	addr32 add eax,0x9055c1a
  268ff1:	08 f2                	or     dl,dh
  268ff3:	05 11 00 02 04       	add    eax,0x4020011
  268ff8:	01 4c 05 0f          	add    DWORD PTR [rbp+rax*1+0xf],ecx
  268ffc:	00 02                	add    BYTE PTR [rdx],al
  268ffe:	04 01                	add    al,0x1
  269000:	74 05                	je     269007 <__abi_tag-0x197395>
  269002:	0b 00                	or     eax,DWORD PTR [rax]
  269004:	02 04 01             	add    al,BYTE PTR [rcx+rax*1]
  269007:	67 05 1a 5c 05 09    	addr32 add eax,0x9055c1a
  26900d:	08 f2                	or     dl,dh
  26900f:	05 11 00 02 04       	add    eax,0x4020011
  269014:	01 4c 05 0f          	add    DWORD PTR [rbp+rax*1+0xf],ecx
  269018:	00 02                	add    BYTE PTR [rdx],al
  26901a:	04 01                	add    al,0x1
  26901c:	74 05                	je     269023 <__abi_tag-0x197379>
  26901e:	0b 00                	or     eax,DWORD PTR [rax]
  269020:	02 04 01             	add    al,BYTE PTR [rcx+rax*1]
  269023:	67 05 1a 5c 05 09    	addr32 add eax,0x9055c1a
  269029:	08 f2                	or     dl,dh
  26902b:	05 11 00 02 04       	add    eax,0x4020011
  269030:	01 4c 05 0f          	add    DWORD PTR [rbp+rax*1+0xf],ecx
  269034:	00 02                	add    BYTE PTR [rdx],al
  269036:	04 01                	add    al,0x1
  269038:	74 05                	je     26903f <__abi_tag-0x19735d>
  26903a:	0b 00                	or     eax,DWORD PTR [rax]
  26903c:	02 04 01             	add    al,BYTE PTR [rcx+rax*1]
  26903f:	67 05 1a 5c 05 09    	addr32 add eax,0x9055c1a
  269045:	08 f2                	or     dl,dh
  269047:	05 11 00 02 04       	add    eax,0x4020011
  26904c:	01 4c 05 0f          	add    DWORD PTR [rbp+rax*1+0xf],ecx
  269050:	00 02                	add    BYTE PTR [rdx],al
  269052:	04 01                	add    al,0x1
  269054:	74 05                	je     26905b <__abi_tag-0x197341>
  269056:	0b 00                	or     eax,DWORD PTR [rax]
  269058:	02 04 01             	add    al,BYTE PTR [rcx+rax*1]
  26905b:	67 05 1a 5c 05 09    	addr32 add eax,0x9055c1a
  269061:	08 f2                	or     dl,dh
  269063:	05 11 00 02 04       	add    eax,0x4020011
  269068:	01 4c 05 0f          	add    DWORD PTR [rbp+rax*1+0xf],ecx
  26906c:	00 02                	add    BYTE PTR [rdx],al
  26906e:	04 01                	add    al,0x1
  269070:	74 05                	je     269077 <__abi_tag-0x197325>
  269072:	0b 00                	or     eax,DWORD PTR [rax]
  269074:	02 04 01             	add    al,BYTE PTR [rcx+rax*1]
  269077:	67 05 1a 5c 05 09    	addr32 add eax,0x9055c1a
  26907d:	08 f2                	or     dl,dh
  26907f:	05 11 00 02 04       	add    eax,0x4020011
  269084:	01 4c 05 0f          	add    DWORD PTR [rbp+rax*1+0xf],ecx
  269088:	00 02                	add    BYTE PTR [rdx],al
  26908a:	04 01                	add    al,0x1
  26908c:	74 05                	je     269093 <__abi_tag-0x197309>
  26908e:	0b 00                	or     eax,DWORD PTR [rax]
  269090:	02 04 01             	add    al,BYTE PTR [rcx+rax*1]
  269093:	67 05 1a 5c 05 09    	addr32 add eax,0x9055c1a
  269099:	08 f2                	or     dl,dh
  26909b:	05 11 00 02 04       	add    eax,0x4020011
  2690a0:	01 4c 05 0f          	add    DWORD PTR [rbp+rax*1+0xf],ecx
  2690a4:	00 02                	add    BYTE PTR [rdx],al
  2690a6:	04 01                	add    al,0x1
  2690a8:	74 05                	je     2690af <__abi_tag-0x1972ed>
  2690aa:	0b 00                	or     eax,DWORD PTR [rax]
  2690ac:	02 04 01             	add    al,BYTE PTR [rcx+rax*1]
  2690af:	67 05 1a 5c 05 09    	addr32 add eax,0x9055c1a
  2690b5:	08 f2                	or     dl,dh
  2690b7:	05 11 00 02 04       	add    eax,0x4020011
  2690bc:	01 4c 05 0f          	add    DWORD PTR [rbp+rax*1+0xf],ecx
  2690c0:	00 02                	add    BYTE PTR [rdx],al
  2690c2:	04 01                	add    al,0x1
  2690c4:	74 05                	je     2690cb <__abi_tag-0x1972d1>
  2690c6:	0b 00                	or     eax,DWORD PTR [rax]
  2690c8:	02 04 01             	add    al,BYTE PTR [rcx+rax*1]
  2690cb:	67 05 1a 5c 05 09    	addr32 add eax,0x9055c1a
  2690d1:	08 f2                	or     dl,dh
  2690d3:	05 11 00 02 04       	add    eax,0x4020011
  2690d8:	01 4c 05 0f          	add    DWORD PTR [rbp+rax*1+0xf],ecx
  2690dc:	00 02                	add    BYTE PTR [rdx],al
  2690de:	04 01                	add    al,0x1
  2690e0:	74 05                	je     2690e7 <__abi_tag-0x1972b5>
  2690e2:	0b 00                	or     eax,DWORD PTR [rax]
  2690e4:	02 04 01             	add    al,BYTE PTR [rcx+rax*1]
  2690e7:	67 05 1a 5c 05 09    	addr32 add eax,0x9055c1a
  2690ed:	08 f2                	or     dl,dh
  2690ef:	05 11 00 02 04       	add    eax,0x4020011
  2690f4:	01 4c 05 0f          	add    DWORD PTR [rbp+rax*1+0xf],ecx
  2690f8:	00 02                	add    BYTE PTR [rdx],al
  2690fa:	04 01                	add    al,0x1
  2690fc:	74 05                	je     269103 <__abi_tag-0x197299>
  2690fe:	0b 00                	or     eax,DWORD PTR [rax]
  269100:	02 04 01             	add    al,BYTE PTR [rcx+rax*1]
  269103:	67 05 1a 5c 05 09    	addr32 add eax,0x9055c1a
  269109:	08 f2                	or     dl,dh
  26910b:	05 11 00 02 04       	add    eax,0x4020011
  269110:	01 4c 05 0f          	add    DWORD PTR [rbp+rax*1+0xf],ecx
  269114:	00 02                	add    BYTE PTR [rdx],al
  269116:	04 01                	add    al,0x1
  269118:	74 05                	je     26911f <__abi_tag-0x19727d>
  26911a:	0b 00                	or     eax,DWORD PTR [rax]
  26911c:	02 04 01             	add    al,BYTE PTR [rcx+rax*1]
  26911f:	67 05 1a 5c 05 09    	addr32 add eax,0x9055c1a
  269125:	08 f2                	or     dl,dh
  269127:	05 11 00 02 04       	add    eax,0x4020011
  26912c:	01 4c 05 0f          	add    DWORD PTR [rbp+rax*1+0xf],ecx
  269130:	00 02                	add    BYTE PTR [rdx],al
  269132:	04 01                	add    al,0x1
  269134:	74 05                	je     26913b <__abi_tag-0x197261>
  269136:	0b 00                	or     eax,DWORD PTR [rax]
  269138:	02 04 01             	add    al,BYTE PTR [rcx+rax*1]
  26913b:	67 05 1a 5c 05 09    	addr32 add eax,0x9055c1a
  269141:	08 f2                	or     dl,dh
  269143:	05 11 00 02 04       	add    eax,0x4020011
  269148:	01 4c 05 0f          	add    DWORD PTR [rbp+rax*1+0xf],ecx
  26914c:	00 02                	add    BYTE PTR [rdx],al
  26914e:	04 01                	add    al,0x1
  269150:	74 05                	je     269157 <__abi_tag-0x197245>
  269152:	0b 00                	or     eax,DWORD PTR [rax]
  269154:	02 04 01             	add    al,BYTE PTR [rcx+rax*1]
  269157:	67 05 1a 5c 05 09    	addr32 add eax,0x9055c1a
  26915d:	08 f2                	or     dl,dh
  26915f:	05 11 00 02 04       	add    eax,0x4020011
  269164:	01 4c 05 0f          	add    DWORD PTR [rbp+rax*1+0xf],ecx
  269168:	00 02                	add    BYTE PTR [rdx],al
  26916a:	04 01                	add    al,0x1
  26916c:	74 05                	je     269173 <__abi_tag-0x197229>
  26916e:	0b 00                	or     eax,DWORD PTR [rax]
  269170:	02 04 01             	add    al,BYTE PTR [rcx+rax*1]
  269173:	67 05 1a 5c 05 09    	addr32 add eax,0x9055c1a
  269179:	08 f2                	or     dl,dh
  26917b:	05 11 00 02 04       	add    eax,0x4020011
  269180:	01 4c 05 0f          	add    DWORD PTR [rbp+rax*1+0xf],ecx
  269184:	00 02                	add    BYTE PTR [rdx],al
  269186:	04 01                	add    al,0x1
  269188:	74 05                	je     26918f <__abi_tag-0x19720d>
  26918a:	0b 00                	or     eax,DWORD PTR [rax]
  26918c:	02 04 01             	add    al,BYTE PTR [rcx+rax*1]
  26918f:	67 05 1a 5c 05 09    	addr32 add eax,0x9055c1a
  269195:	08 f2                	or     dl,dh
  269197:	05 11 00 02 04       	add    eax,0x4020011
  26919c:	01 4c 05 0f          	add    DWORD PTR [rbp+rax*1+0xf],ecx
  2691a0:	00 02                	add    BYTE PTR [rdx],al
  2691a2:	04 01                	add    al,0x1
  2691a4:	74 05                	je     2691ab <__abi_tag-0x1971f1>
  2691a6:	0b 00                	or     eax,DWORD PTR [rax]
  2691a8:	02 04 01             	add    al,BYTE PTR [rcx+rax*1]
  2691ab:	67 05 1a 5c 05 09    	addr32 add eax,0x9055c1a
  2691b1:	08 f2                	or     dl,dh
  2691b3:	05 11 00 02 04       	add    eax,0x4020011
  2691b8:	01 4c 05 0f          	add    DWORD PTR [rbp+rax*1+0xf],ecx
  2691bc:	00 02                	add    BYTE PTR [rdx],al
  2691be:	04 01                	add    al,0x1
  2691c0:	74 05                	je     2691c7 <__abi_tag-0x1971d5>
  2691c2:	0b 00                	or     eax,DWORD PTR [rax]
  2691c4:	02 04 01             	add    al,BYTE PTR [rcx+rax*1]
  2691c7:	67 05 1a 5c 05 09    	addr32 add eax,0x9055c1a
  2691cd:	08 f2                	or     dl,dh
  2691cf:	05 11 00 02 04       	add    eax,0x4020011
  2691d4:	01 4c 05 0f          	add    DWORD PTR [rbp+rax*1+0xf],ecx
  2691d8:	00 02                	add    BYTE PTR [rdx],al
  2691da:	04 01                	add    al,0x1
  2691dc:	74 05                	je     2691e3 <__abi_tag-0x1971b9>
  2691de:	0b 00                	or     eax,DWORD PTR [rax]
  2691e0:	02 04 01             	add    al,BYTE PTR [rcx+rax*1]
  2691e3:	67 05 1a 5c 05 09    	addr32 add eax,0x9055c1a
  2691e9:	08 f2                	or     dl,dh
  2691eb:	05 11 00 02 04       	add    eax,0x4020011
  2691f0:	01 4c 05 0f          	add    DWORD PTR [rbp+rax*1+0xf],ecx
  2691f4:	00 02                	add    BYTE PTR [rdx],al
  2691f6:	04 01                	add    al,0x1
  2691f8:	74 05                	je     2691ff <__abi_tag-0x19719d>
  2691fa:	0b 00                	or     eax,DWORD PTR [rax]
  2691fc:	02 04 01             	add    al,BYTE PTR [rcx+rax*1]
  2691ff:	67 05 1a 5c 05 09    	addr32 add eax,0x9055c1a
  269205:	08 f2                	or     dl,dh
  269207:	05 11 00 02 04       	add    eax,0x4020011
  26920c:	01 4c 05 0f          	add    DWORD PTR [rbp+rax*1+0xf],ecx
  269210:	00 02                	add    BYTE PTR [rdx],al
  269212:	04 01                	add    al,0x1
  269214:	74 05                	je     26921b <__abi_tag-0x197181>
  269216:	0b 00                	or     eax,DWORD PTR [rax]
  269218:	02 04 01             	add    al,BYTE PTR [rcx+rax*1]
  26921b:	67 05 1a 5c 05 09    	addr32 add eax,0x9055c1a
  269221:	08 f2                	or     dl,dh
  269223:	05 11 00 02 04       	add    eax,0x4020011
  269228:	01 4c 05 0f          	add    DWORD PTR [rbp+rax*1+0xf],ecx
  26922c:	00 02                	add    BYTE PTR [rdx],al
  26922e:	04 01                	add    al,0x1
  269230:	74 05                	je     269237 <__abi_tag-0x197165>
  269232:	0b 00                	or     eax,DWORD PTR [rax]
  269234:	02 04 01             	add    al,BYTE PTR [rcx+rax*1]
  269237:	67 05 1a 5c 05 09    	addr32 add eax,0x9055c1a
  26923d:	08 f2                	or     dl,dh
  26923f:	05 11 00 02 04       	add    eax,0x4020011
  269244:	01 4c 05 0f          	add    DWORD PTR [rbp+rax*1+0xf],ecx
  269248:	00 02                	add    BYTE PTR [rdx],al
  26924a:	04 01                	add    al,0x1
  26924c:	74 05                	je     269253 <__abi_tag-0x197149>
  26924e:	0b 00                	or     eax,DWORD PTR [rax]
  269250:	02 04 01             	add    al,BYTE PTR [rcx+rax*1]
  269253:	67 05 1a 5c 05 09    	addr32 add eax,0x9055c1a
  269259:	08 f2                	or     dl,dh
  26925b:	05 11 00 02 04       	add    eax,0x4020011
  269260:	01 4c 05 0f          	add    DWORD PTR [rbp+rax*1+0xf],ecx
  269264:	00 02                	add    BYTE PTR [rdx],al
  269266:	04 01                	add    al,0x1
  269268:	74 05                	je     26926f <__abi_tag-0x19712d>
  26926a:	0b 00                	or     eax,DWORD PTR [rax]
  26926c:	02 04 01             	add    al,BYTE PTR [rcx+rax*1]
  26926f:	67 05 1a 5c 05 09    	addr32 add eax,0x9055c1a
  269275:	08 f2                	or     dl,dh
  269277:	05 11 00 02 04       	add    eax,0x4020011
  26927c:	01 4c 05 0f          	add    DWORD PTR [rbp+rax*1+0xf],ecx
  269280:	00 02                	add    BYTE PTR [rdx],al
  269282:	04 01                	add    al,0x1
  269284:	74 05                	je     26928b <__abi_tag-0x197111>
  269286:	0b 00                	or     eax,DWORD PTR [rax]
  269288:	02 04 01             	add    al,BYTE PTR [rcx+rax*1]
  26928b:	67 05 1a 5c 05 09    	addr32 add eax,0x9055c1a
  269291:	08 f2                	or     dl,dh
  269293:	05 11 00 02 04       	add    eax,0x4020011
  269298:	01 4c 05 0f          	add    DWORD PTR [rbp+rax*1+0xf],ecx
  26929c:	00 02                	add    BYTE PTR [rdx],al
  26929e:	04 01                	add    al,0x1
  2692a0:	74 05                	je     2692a7 <__abi_tag-0x1970f5>
  2692a2:	0b 00                	or     eax,DWORD PTR [rax]
  2692a4:	02 04 01             	add    al,BYTE PTR [rcx+rax*1]
  2692a7:	67 05 1a 5c 05 09    	addr32 add eax,0x9055c1a
  2692ad:	08 f2                	or     dl,dh
  2692af:	05 11 00 02 04       	add    eax,0x4020011
  2692b4:	01 4c 05 0f          	add    DWORD PTR [rbp+rax*1+0xf],ecx
  2692b8:	00 02                	add    BYTE PTR [rdx],al
  2692ba:	04 01                	add    al,0x1
  2692bc:	74 05                	je     2692c3 <__abi_tag-0x1970d9>
  2692be:	0b 00                	or     eax,DWORD PTR [rax]
  2692c0:	02 04 01             	add    al,BYTE PTR [rcx+rax*1]
  2692c3:	67 05 1a 5c 05 09    	addr32 add eax,0x9055c1a
  2692c9:	08 f2                	or     dl,dh
  2692cb:	05 11 00 02 04       	add    eax,0x4020011
  2692d0:	01 4c 05 0f          	add    DWORD PTR [rbp+rax*1+0xf],ecx
  2692d4:	00 02                	add    BYTE PTR [rdx],al
  2692d6:	04 01                	add    al,0x1
  2692d8:	74 05                	je     2692df <__abi_tag-0x1970bd>
  2692da:	0b 00                	or     eax,DWORD PTR [rax]
  2692dc:	02 04 01             	add    al,BYTE PTR [rcx+rax*1]
  2692df:	67 05 1a 5c 05 09    	addr32 add eax,0x9055c1a
  2692e5:	08 f2                	or     dl,dh
  2692e7:	05 11 00 02 04       	add    eax,0x4020011
  2692ec:	01 4c 05 0f          	add    DWORD PTR [rbp+rax*1+0xf],ecx
  2692f0:	00 02                	add    BYTE PTR [rdx],al
  2692f2:	04 01                	add    al,0x1
  2692f4:	74 05                	je     2692fb <__abi_tag-0x1970a1>
  2692f6:	0b 00                	or     eax,DWORD PTR [rax]
  2692f8:	02 04 01             	add    al,BYTE PTR [rcx+rax*1]
  2692fb:	67 05 1a 5c 05 09    	addr32 add eax,0x9055c1a
  269301:	08 f2                	or     dl,dh
  269303:	05 11 00 02 04       	add    eax,0x4020011
  269308:	01 4c 05 0f          	add    DWORD PTR [rbp+rax*1+0xf],ecx
  26930c:	00 02                	add    BYTE PTR [rdx],al
  26930e:	04 01                	add    al,0x1
  269310:	74 05                	je     269317 <__abi_tag-0x197085>
  269312:	0b 00                	or     eax,DWORD PTR [rax]
  269314:	02 04 01             	add    al,BYTE PTR [rcx+rax*1]
  269317:	67 05 1a 5c 05 09    	addr32 add eax,0x9055c1a
  26931d:	08 f2                	or     dl,dh
  26931f:	05 11 00 02 04       	add    eax,0x4020011
  269324:	01 4c 05 0f          	add    DWORD PTR [rbp+rax*1+0xf],ecx
  269328:	00 02                	add    BYTE PTR [rdx],al
  26932a:	04 01                	add    al,0x1
  26932c:	74 05                	je     269333 <__abi_tag-0x197069>
  26932e:	0b 00                	or     eax,DWORD PTR [rax]
  269330:	02 04 01             	add    al,BYTE PTR [rcx+rax*1]
  269333:	67 05 1a 5c 05 09    	addr32 add eax,0x9055c1a
  269339:	08 f2                	or     dl,dh
  26933b:	05 11 00 02 04       	add    eax,0x4020011
  269340:	01 4c 05 0f          	add    DWORD PTR [rbp+rax*1+0xf],ecx
  269344:	00 02                	add    BYTE PTR [rdx],al
  269346:	04 01                	add    al,0x1
  269348:	74 05                	je     26934f <__abi_tag-0x19704d>
  26934a:	0b 00                	or     eax,DWORD PTR [rax]
  26934c:	02 04 01             	add    al,BYTE PTR [rcx+rax*1]
  26934f:	67 05 1a 5c 05 09    	addr32 add eax,0x9055c1a
  269355:	08 f2                	or     dl,dh
  269357:	05 11 00 02 04       	add    eax,0x4020011
  26935c:	01 4c 05 0f          	add    DWORD PTR [rbp+rax*1+0xf],ecx
  269360:	00 02                	add    BYTE PTR [rdx],al
  269362:	04 01                	add    al,0x1
  269364:	74 05                	je     26936b <__abi_tag-0x197031>
  269366:	0b 00                	or     eax,DWORD PTR [rax]
  269368:	02 04 01             	add    al,BYTE PTR [rcx+rax*1]
  26936b:	67 05 1a 5c 05 09    	addr32 add eax,0x9055c1a
  269371:	08 f2                	or     dl,dh
  269373:	05 11 00 02 04       	add    eax,0x4020011
  269378:	01 4c 05 0f          	add    DWORD PTR [rbp+rax*1+0xf],ecx
  26937c:	00 02                	add    BYTE PTR [rdx],al
  26937e:	04 01                	add    al,0x1
  269380:	74 05                	je     269387 <__abi_tag-0x197015>
  269382:	0b 00                	or     eax,DWORD PTR [rax]
  269384:	02 04 01             	add    al,BYTE PTR [rcx+rax*1]
  269387:	67 05 1a 5c 05 09    	addr32 add eax,0x9055c1a
  26938d:	08 f2                	or     dl,dh
  26938f:	05 11 00 02 04       	add    eax,0x4020011
  269394:	01 4c 05 0f          	add    DWORD PTR [rbp+rax*1+0xf],ecx
  269398:	00 02                	add    BYTE PTR [rdx],al
  26939a:	04 01                	add    al,0x1
  26939c:	74 05                	je     2693a3 <__abi_tag-0x196ff9>
  26939e:	0b 00                	or     eax,DWORD PTR [rax]
  2693a0:	02 04 01             	add    al,BYTE PTR [rcx+rax*1]
  2693a3:	67 05 1a 5c 05 09    	addr32 add eax,0x9055c1a
  2693a9:	08 f2                	or     dl,dh
  2693ab:	05 11 00 02 04       	add    eax,0x4020011
  2693b0:	01 4c 05 0f          	add    DWORD PTR [rbp+rax*1+0xf],ecx
  2693b4:	00 02                	add    BYTE PTR [rdx],al
  2693b6:	04 01                	add    al,0x1
  2693b8:	74 05                	je     2693bf <__abi_tag-0x196fdd>
  2693ba:	0b 00                	or     eax,DWORD PTR [rax]
  2693bc:	02 04 01             	add    al,BYTE PTR [rcx+rax*1]
  2693bf:	67 05 1a 5c 05 09    	addr32 add eax,0x9055c1a
  2693c5:	08 f2                	or     dl,dh
  2693c7:	05 11 00 02 04       	add    eax,0x4020011
  2693cc:	01 4c 05 0f          	add    DWORD PTR [rbp+rax*1+0xf],ecx
  2693d0:	00 02                	add    BYTE PTR [rdx],al
  2693d2:	04 01                	add    al,0x1
  2693d4:	74 05                	je     2693db <__abi_tag-0x196fc1>
  2693d6:	0b 00                	or     eax,DWORD PTR [rax]
  2693d8:	02 04 01             	add    al,BYTE PTR [rcx+rax*1]
  2693db:	67 05 1a 5c 05 09    	addr32 add eax,0x9055c1a
  2693e1:	08 f2                	or     dl,dh
  2693e3:	05 11 00 02 04       	add    eax,0x4020011
  2693e8:	01 4c 05 0f          	add    DWORD PTR [rbp+rax*1+0xf],ecx
  2693ec:	00 02                	add    BYTE PTR [rdx],al
  2693ee:	04 01                	add    al,0x1
  2693f0:	74 05                	je     2693f7 <__abi_tag-0x196fa5>
  2693f2:	0b 00                	or     eax,DWORD PTR [rax]
  2693f4:	02 04 01             	add    al,BYTE PTR [rcx+rax*1]
  2693f7:	67 05 1a 5c 05 09    	addr32 add eax,0x9055c1a
  2693fd:	08 f2                	or     dl,dh
  2693ff:	05 11 00 02 04       	add    eax,0x4020011
  269404:	01 4c 05 0f          	add    DWORD PTR [rbp+rax*1+0xf],ecx
  269408:	00 02                	add    BYTE PTR [rdx],al
  26940a:	04 01                	add    al,0x1
  26940c:	74 05                	je     269413 <__abi_tag-0x196f89>
  26940e:	0b 00                	or     eax,DWORD PTR [rax]
  269410:	02 04 01             	add    al,BYTE PTR [rcx+rax*1]
  269413:	67 05 1a 5c 05 09    	addr32 add eax,0x9055c1a
  269419:	08 f2                	or     dl,dh
  26941b:	05 11 00 02 04       	add    eax,0x4020011
  269420:	01 4c 05 0f          	add    DWORD PTR [rbp+rax*1+0xf],ecx
  269424:	00 02                	add    BYTE PTR [rdx],al
  269426:	04 01                	add    al,0x1
  269428:	74 05                	je     26942f <__abi_tag-0x196f6d>
  26942a:	0b 00                	or     eax,DWORD PTR [rax]
  26942c:	02 04 01             	add    al,BYTE PTR [rcx+rax*1]
  26942f:	67 05 1a 5c 05 09    	addr32 add eax,0x9055c1a
  269435:	08 f2                	or     dl,dh
  269437:	05 11 00 02 04       	add    eax,0x4020011
  26943c:	01 4c 05 0f          	add    DWORD PTR [rbp+rax*1+0xf],ecx
  269440:	00 02                	add    BYTE PTR [rdx],al
  269442:	04 01                	add    al,0x1
  269444:	74 05                	je     26944b <__abi_tag-0x196f51>
  269446:	0b 00                	or     eax,DWORD PTR [rax]
  269448:	02 04 01             	add    al,BYTE PTR [rcx+rax*1]
  26944b:	67 05 1a 5c 05 09    	addr32 add eax,0x9055c1a
  269451:	08 f2                	or     dl,dh
  269453:	05 11 00 02 04       	add    eax,0x4020011
  269458:	01 4c 05 0f          	add    DWORD PTR [rbp+rax*1+0xf],ecx
  26945c:	00 02                	add    BYTE PTR [rdx],al
  26945e:	04 01                	add    al,0x1
  269460:	74 05                	je     269467 <__abi_tag-0x196f35>
  269462:	0b 00                	or     eax,DWORD PTR [rax]
  269464:	02 04 01             	add    al,BYTE PTR [rcx+rax*1]
  269467:	67 05 1a 5c 05 09    	addr32 add eax,0x9055c1a
  26946d:	08 f2                	or     dl,dh
  26946f:	05 11 00 02 04       	add    eax,0x4020011
  269474:	01 4c 05 0f          	add    DWORD PTR [rbp+rax*1+0xf],ecx
  269478:	00 02                	add    BYTE PTR [rdx],al
  26947a:	04 01                	add    al,0x1
  26947c:	74 05                	je     269483 <__abi_tag-0x196f19>
  26947e:	0b 00                	or     eax,DWORD PTR [rax]
  269480:	02 04 01             	add    al,BYTE PTR [rcx+rax*1]
  269483:	67 05 1a 5c 05 09    	addr32 add eax,0x9055c1a
  269489:	08 f2                	or     dl,dh
  26948b:	05 11 00 02 04       	add    eax,0x4020011
  269490:	01 4c 05 0f          	add    DWORD PTR [rbp+rax*1+0xf],ecx
  269494:	00 02                	add    BYTE PTR [rdx],al
  269496:	04 01                	add    al,0x1
  269498:	74 05                	je     26949f <__abi_tag-0x196efd>
  26949a:	0b 00                	or     eax,DWORD PTR [rax]
  26949c:	02 04 01             	add    al,BYTE PTR [rcx+rax*1]
  26949f:	67 05 1a 5c 05 09    	addr32 add eax,0x9055c1a
  2694a5:	08 f2                	or     dl,dh
  2694a7:	05 11 00 02 04       	add    eax,0x4020011
  2694ac:	01 4c 05 0f          	add    DWORD PTR [rbp+rax*1+0xf],ecx
  2694b0:	00 02                	add    BYTE PTR [rdx],al
  2694b2:	04 01                	add    al,0x1
  2694b4:	74 05                	je     2694bb <__abi_tag-0x196ee1>
  2694b6:	0b 00                	or     eax,DWORD PTR [rax]
  2694b8:	02 04 01             	add    al,BYTE PTR [rcx+rax*1]
  2694bb:	67 05 1a 5c 05 09    	addr32 add eax,0x9055c1a
  2694c1:	08 f2                	or     dl,dh
  2694c3:	05 11 00 02 04       	add    eax,0x4020011
  2694c8:	01 4c 05 0f          	add    DWORD PTR [rbp+rax*1+0xf],ecx
  2694cc:	00 02                	add    BYTE PTR [rdx],al
  2694ce:	04 01                	add    al,0x1
  2694d0:	74 05                	je     2694d7 <__abi_tag-0x196ec5>
  2694d2:	0b 00                	or     eax,DWORD PTR [rax]
  2694d4:	02 04 01             	add    al,BYTE PTR [rcx+rax*1]
  2694d7:	67 05 1a 5c 05 09    	addr32 add eax,0x9055c1a
  2694dd:	08 f2                	or     dl,dh
  2694df:	05 11 00 02 04       	add    eax,0x4020011
  2694e4:	01 4c 05 0f          	add    DWORD PTR [rbp+rax*1+0xf],ecx
  2694e8:	00 02                	add    BYTE PTR [rdx],al
  2694ea:	04 01                	add    al,0x1
  2694ec:	74 05                	je     2694f3 <__abi_tag-0x196ea9>
  2694ee:	0b 00                	or     eax,DWORD PTR [rax]
  2694f0:	02 04 01             	add    al,BYTE PTR [rcx+rax*1]
  2694f3:	67 05 1a 5c 05 09    	addr32 add eax,0x9055c1a
  2694f9:	08 f2                	or     dl,dh
  2694fb:	05 11 00 02 04       	add    eax,0x4020011
  269500:	01 4c 05 0f          	add    DWORD PTR [rbp+rax*1+0xf],ecx
  269504:	00 02                	add    BYTE PTR [rdx],al
  269506:	04 01                	add    al,0x1
  269508:	74 05                	je     26950f <__abi_tag-0x196e8d>
  26950a:	0b 00                	or     eax,DWORD PTR [rax]
  26950c:	02 04 01             	add    al,BYTE PTR [rcx+rax*1]
  26950f:	67 05 1a 5c 05 09    	addr32 add eax,0x9055c1a
  269515:	08 f2                	or     dl,dh
  269517:	05 11 00 02 04       	add    eax,0x4020011
  26951c:	01 4c 05 0f          	add    DWORD PTR [rbp+rax*1+0xf],ecx
  269520:	00 02                	add    BYTE PTR [rdx],al
  269522:	04 01                	add    al,0x1
  269524:	74 05                	je     26952b <__abi_tag-0x196e71>
  269526:	0b 00                	or     eax,DWORD PTR [rax]
  269528:	02 04 01             	add    al,BYTE PTR [rcx+rax*1]
  26952b:	67 05 1a 5c 05 09    	addr32 add eax,0x9055c1a
  269531:	08 f2                	or     dl,dh
  269533:	05 11 00 02 04       	add    eax,0x4020011
  269538:	01 4c 05 0f          	add    DWORD PTR [rbp+rax*1+0xf],ecx
  26953c:	00 02                	add    BYTE PTR [rdx],al
  26953e:	04 01                	add    al,0x1
  269540:	74 05                	je     269547 <__abi_tag-0x196e55>
  269542:	0b 00                	or     eax,DWORD PTR [rax]
  269544:	02 04 01             	add    al,BYTE PTR [rcx+rax*1]
  269547:	67 05 1a 5c 05 09    	addr32 add eax,0x9055c1a
  26954d:	08 f2                	or     dl,dh
  26954f:	05 11 00 02 04       	add    eax,0x4020011
  269554:	01 4c 05 0f          	add    DWORD PTR [rbp+rax*1+0xf],ecx
  269558:	00 02                	add    BYTE PTR [rdx],al
  26955a:	04 01                	add    al,0x1
  26955c:	74 05                	je     269563 <__abi_tag-0x196e39>
  26955e:	0b 00                	or     eax,DWORD PTR [rax]
  269560:	02 04 01             	add    al,BYTE PTR [rcx+rax*1]
  269563:	67 05 1a 5c 05 09    	addr32 add eax,0x9055c1a
  269569:	08 f2                	or     dl,dh
  26956b:	05 11 00 02 04       	add    eax,0x4020011
  269570:	01 4c 05 0f          	add    DWORD PTR [rbp+rax*1+0xf],ecx
  269574:	00 02                	add    BYTE PTR [rdx],al
  269576:	04 01                	add    al,0x1
  269578:	74 05                	je     26957f <__abi_tag-0x196e1d>
  26957a:	0b 00                	or     eax,DWORD PTR [rax]
  26957c:	02 04 01             	add    al,BYTE PTR [rcx+rax*1]
  26957f:	67 05 1a 5c 05 09    	addr32 add eax,0x9055c1a
  269585:	08 f2                	or     dl,dh
  269587:	05 11 00 02 04       	add    eax,0x4020011
  26958c:	01 4c 05 0f          	add    DWORD PTR [rbp+rax*1+0xf],ecx
  269590:	00 02                	add    BYTE PTR [rdx],al
  269592:	04 01                	add    al,0x1
  269594:	74 05                	je     26959b <__abi_tag-0x196e01>
  269596:	0b 00                	or     eax,DWORD PTR [rax]
  269598:	02 04 01             	add    al,BYTE PTR [rcx+rax*1]
  26959b:	67 05 1a 5c 05 09    	addr32 add eax,0x9055c1a
  2695a1:	08 f2                	or     dl,dh
  2695a3:	05 11 00 02 04       	add    eax,0x4020011
  2695a8:	01 4c 05 0f          	add    DWORD PTR [rbp+rax*1+0xf],ecx
  2695ac:	00 02                	add    BYTE PTR [rdx],al
  2695ae:	04 01                	add    al,0x1
  2695b0:	74 05                	je     2695b7 <__abi_tag-0x196de5>
  2695b2:	0b 00                	or     eax,DWORD PTR [rax]
  2695b4:	02 04 01             	add    al,BYTE PTR [rcx+rax*1]
  2695b7:	67 05 1a 5c 05 09    	addr32 add eax,0x9055c1a
  2695bd:	08 f2                	or     dl,dh
  2695bf:	05 11 00 02 04       	add    eax,0x4020011
  2695c4:	01 4c 05 0f          	add    DWORD PTR [rbp+rax*1+0xf],ecx
  2695c8:	00 02                	add    BYTE PTR [rdx],al
  2695ca:	04 01                	add    al,0x1
  2695cc:	74 05                	je     2695d3 <__abi_tag-0x196dc9>
  2695ce:	0b 00                	or     eax,DWORD PTR [rax]
  2695d0:	02 04 01             	add    al,BYTE PTR [rcx+rax*1]
  2695d3:	67 05 1a 5c 05 09    	addr32 add eax,0x9055c1a
  2695d9:	08 f2                	or     dl,dh
  2695db:	05 11 00 02 04       	add    eax,0x4020011
  2695e0:	01 4c 05 0f          	add    DWORD PTR [rbp+rax*1+0xf],ecx
  2695e4:	00 02                	add    BYTE PTR [rdx],al
  2695e6:	04 01                	add    al,0x1
  2695e8:	74 05                	je     2695ef <__abi_tag-0x196dad>
  2695ea:	0b 00                	or     eax,DWORD PTR [rax]
  2695ec:	02 04 01             	add    al,BYTE PTR [rcx+rax*1]
  2695ef:	67 05 1a 5c 05 09    	addr32 add eax,0x9055c1a
  2695f5:	08 f2                	or     dl,dh
  2695f7:	05 11 00 02 04       	add    eax,0x4020011
  2695fc:	01 4c 05 0f          	add    DWORD PTR [rbp+rax*1+0xf],ecx
  269600:	00 02                	add    BYTE PTR [rdx],al
  269602:	04 01                	add    al,0x1
  269604:	74 05                	je     26960b <__abi_tag-0x196d91>
  269606:	0b 00                	or     eax,DWORD PTR [rax]
  269608:	02 04 01             	add    al,BYTE PTR [rcx+rax*1]
  26960b:	67 05 1a 5c 05 09    	addr32 add eax,0x9055c1a
  269611:	08 f2                	or     dl,dh
  269613:	05 11 00 02 04       	add    eax,0x4020011
  269618:	01 4c 05 0f          	add    DWORD PTR [rbp+rax*1+0xf],ecx
  26961c:	00 02                	add    BYTE PTR [rdx],al
  26961e:	04 01                	add    al,0x1
  269620:	74 05                	je     269627 <__abi_tag-0x196d75>
  269622:	0b 00                	or     eax,DWORD PTR [rax]
  269624:	02 04 01             	add    al,BYTE PTR [rcx+rax*1]
  269627:	67 05 1a 5c 05 09    	addr32 add eax,0x9055c1a
  26962d:	08 f2                	or     dl,dh
  26962f:	05 11 00 02 04       	add    eax,0x4020011
  269634:	01 4c 05 0f          	add    DWORD PTR [rbp+rax*1+0xf],ecx
  269638:	00 02                	add    BYTE PTR [rdx],al
  26963a:	04 01                	add    al,0x1
  26963c:	74 05                	je     269643 <__abi_tag-0x196d59>
  26963e:	0b 00                	or     eax,DWORD PTR [rax]
  269640:	02 04 01             	add    al,BYTE PTR [rcx+rax*1]
  269643:	67 05 1a 5c 05 09    	addr32 add eax,0x9055c1a
  269649:	08 f2                	or     dl,dh
  26964b:	05 11 00 02 04       	add    eax,0x4020011
  269650:	01 4c 05 0f          	add    DWORD PTR [rbp+rax*1+0xf],ecx
  269654:	00 02                	add    BYTE PTR [rdx],al
  269656:	04 01                	add    al,0x1
  269658:	74 05                	je     26965f <__abi_tag-0x196d3d>
  26965a:	0b 00                	or     eax,DWORD PTR [rax]
  26965c:	02 04 01             	add    al,BYTE PTR [rcx+rax*1]
  26965f:	67 05 1a 5c 05 09    	addr32 add eax,0x9055c1a
  269665:	08 f2                	or     dl,dh
  269667:	05 11 00 02 04       	add    eax,0x4020011
  26966c:	01 4c 05 0f          	add    DWORD PTR [rbp+rax*1+0xf],ecx
  269670:	00 02                	add    BYTE PTR [rdx],al
  269672:	04 01                	add    al,0x1
  269674:	74 05                	je     26967b <__abi_tag-0x196d21>
  269676:	0b 00                	or     eax,DWORD PTR [rax]
  269678:	02 04 01             	add    al,BYTE PTR [rcx+rax*1]
  26967b:	67 05 1a 5c 05 09    	addr32 add eax,0x9055c1a
  269681:	08 f2                	or     dl,dh
  269683:	05 11 00 02 04       	add    eax,0x4020011
  269688:	01 4c 05 0f          	add    DWORD PTR [rbp+rax*1+0xf],ecx
  26968c:	00 02                	add    BYTE PTR [rdx],al
  26968e:	04 01                	add    al,0x1
  269690:	74 05                	je     269697 <__abi_tag-0x196d05>
  269692:	0b 00                	or     eax,DWORD PTR [rax]
  269694:	02 04 01             	add    al,BYTE PTR [rcx+rax*1]
  269697:	67 05 1a 5c 05 09    	addr32 add eax,0x9055c1a
  26969d:	08 f2                	or     dl,dh
  26969f:	05 11 00 02 04       	add    eax,0x4020011
  2696a4:	01 4c 05 0f          	add    DWORD PTR [rbp+rax*1+0xf],ecx
  2696a8:	00 02                	add    BYTE PTR [rdx],al
  2696aa:	04 01                	add    al,0x1
  2696ac:	74 05                	je     2696b3 <__abi_tag-0x196ce9>
  2696ae:	0b 00                	or     eax,DWORD PTR [rax]
  2696b0:	02 04 01             	add    al,BYTE PTR [rcx+rax*1]
  2696b3:	67 05 1a 5c 05 09    	addr32 add eax,0x9055c1a
  2696b9:	08 f2                	or     dl,dh
  2696bb:	05 11 00 02 04       	add    eax,0x4020011
  2696c0:	01 4c 05 0f          	add    DWORD PTR [rbp+rax*1+0xf],ecx
  2696c4:	00 02                	add    BYTE PTR [rdx],al
  2696c6:	04 01                	add    al,0x1
  2696c8:	74 05                	je     2696cf <__abi_tag-0x196ccd>
  2696ca:	0b 00                	or     eax,DWORD PTR [rax]
  2696cc:	02 04 01             	add    al,BYTE PTR [rcx+rax*1]
  2696cf:	67 05 1a 5c 05 09    	addr32 add eax,0x9055c1a
  2696d5:	08 f2                	or     dl,dh
  2696d7:	05 11 00 02 04       	add    eax,0x4020011
  2696dc:	01 4c 05 0f          	add    DWORD PTR [rbp+rax*1+0xf],ecx
  2696e0:	00 02                	add    BYTE PTR [rdx],al
  2696e2:	04 01                	add    al,0x1
  2696e4:	74 05                	je     2696eb <__abi_tag-0x196cb1>
  2696e6:	0b 00                	or     eax,DWORD PTR [rax]
  2696e8:	02 04 01             	add    al,BYTE PTR [rcx+rax*1]
  2696eb:	67 05 1a 5c 05 09    	addr32 add eax,0x9055c1a
  2696f1:	08 f2                	or     dl,dh
  2696f3:	05 11 00 02 04       	add    eax,0x4020011
  2696f8:	01 4c 05 0f          	add    DWORD PTR [rbp+rax*1+0xf],ecx
  2696fc:	00 02                	add    BYTE PTR [rdx],al
  2696fe:	04 01                	add    al,0x1
  269700:	74 05                	je     269707 <__abi_tag-0x196c95>
  269702:	0b 00                	or     eax,DWORD PTR [rax]
  269704:	02 04 01             	add    al,BYTE PTR [rcx+rax*1]
  269707:	67 05 18 5c 05 07    	addr32 add eax,0x7055c18
  26970d:	08 f2                	or     dl,dh
  26970f:	05 1a 4d 05 09       	add    eax,0x9054d1a
  269714:	08 f2                	or     dl,dh
  269716:	05 11 00 02 04       	add    eax,0x4020011
  26971b:	01 4c 05 0f          	add    DWORD PTR [rbp+rax*1+0xf],ecx
  26971f:	00 02                	add    BYTE PTR [rdx],al
  269721:	04 01                	add    al,0x1
  269723:	74 05                	je     26972a <__abi_tag-0x196c72>
  269725:	0b 00                	or     eax,DWORD PTR [rax]
  269727:	02 04 01             	add    al,BYTE PTR [rcx+rax*1]
  26972a:	67 05 1a 5c 05 09    	addr32 add eax,0x9055c1a
  269730:	08 f2                	or     dl,dh
  269732:	05 11 00 02 04       	add    eax,0x4020011
  269737:	01 4c 05 0f          	add    DWORD PTR [rbp+rax*1+0xf],ecx
  26973b:	00 02                	add    BYTE PTR [rdx],al
  26973d:	04 01                	add    al,0x1
  26973f:	74 05                	je     269746 <__abi_tag-0x196c56>
  269741:	0b 00                	or     eax,DWORD PTR [rax]
  269743:	02 04 01             	add    al,BYTE PTR [rcx+rax*1]
  269746:	67 05 18 5c 05 07    	addr32 add eax,0x7055c18
  26974c:	08 f2                	or     dl,dh
  26974e:	05 1a 85 05 09       	add    eax,0x905851a
  269753:	08 f2                	or     dl,dh
  269755:	05 11 00 02 04       	add    eax,0x4020011
  26975a:	01 4c 05 0f          	add    DWORD PTR [rbp+rax*1+0xf],ecx
  26975e:	00 02                	add    BYTE PTR [rdx],al
  269760:	04 01                	add    al,0x1
  269762:	74 05                	je     269769 <__abi_tag-0x196c33>
  269764:	0b 00                	or     eax,DWORD PTR [rax]
  269766:	02 04 01             	add    al,BYTE PTR [rcx+rax*1]
  269769:	67 05 1a 5c 05 09    	addr32 add eax,0x9055c1a
  26976f:	08 f2                	or     dl,dh
  269771:	05 11 00 02 04       	add    eax,0x4020011
  269776:	01 4c 05 0f          	add    DWORD PTR [rbp+rax*1+0xf],ecx
  26977a:	00 02                	add    BYTE PTR [rdx],al
  26977c:	04 01                	add    al,0x1
  26977e:	74 05                	je     269785 <__abi_tag-0x196c17>
  269780:	0b 00                	or     eax,DWORD PTR [rax]
  269782:	02 04 01             	add    al,BYTE PTR [rcx+rax*1]
  269785:	67 05 1a 5c 05 09    	addr32 add eax,0x9055c1a
  26978b:	08 f2                	or     dl,dh
  26978d:	05 11 00 02 04       	add    eax,0x4020011
  269792:	01 4c 05 0f          	add    DWORD PTR [rbp+rax*1+0xf],ecx
  269796:	00 02                	add    BYTE PTR [rdx],al
  269798:	04 01                	add    al,0x1
  26979a:	74 05                	je     2697a1 <__abi_tag-0x196bfb>
  26979c:	0b 00                	or     eax,DWORD PTR [rax]
  26979e:	02 04 01             	add    al,BYTE PTR [rcx+rax*1]
  2697a1:	67 05 1a 5c 05 09    	addr32 add eax,0x9055c1a
  2697a7:	08 f2                	or     dl,dh
  2697a9:	05 11 00 02 04       	add    eax,0x4020011
  2697ae:	01 4c 05 0f          	add    DWORD PTR [rbp+rax*1+0xf],ecx
  2697b2:	00 02                	add    BYTE PTR [rdx],al
  2697b4:	04 01                	add    al,0x1
  2697b6:	74 05                	je     2697bd <__abi_tag-0x196bdf>
  2697b8:	0b 00                	or     eax,DWORD PTR [rax]
  2697ba:	02 04 01             	add    al,BYTE PTR [rcx+rax*1]
  2697bd:	67 05 18 5c 05 07    	addr32 add eax,0x7055c18
  2697c3:	08 f2                	or     dl,dh
  2697c5:	05 1a 85 05 09       	add    eax,0x905851a
  2697ca:	08 f2                	or     dl,dh
  2697cc:	05 11 00 02 04       	add    eax,0x4020011
  2697d1:	01 4c 05 0f          	add    DWORD PTR [rbp+rax*1+0xf],ecx
  2697d5:	00 02                	add    BYTE PTR [rdx],al
  2697d7:	04 01                	add    al,0x1
  2697d9:	74 05                	je     2697e0 <__abi_tag-0x196bbc>
  2697db:	0b 00                	or     eax,DWORD PTR [rax]
  2697dd:	02 04 01             	add    al,BYTE PTR [rcx+rax*1]
  2697e0:	67 05 1a 5c 05 09    	addr32 add eax,0x9055c1a
  2697e6:	08 f2                	or     dl,dh
  2697e8:	05 11 00 02 04       	add    eax,0x4020011
  2697ed:	01 4c 05 0f          	add    DWORD PTR [rbp+rax*1+0xf],ecx
  2697f1:	00 02                	add    BYTE PTR [rdx],al
  2697f3:	04 01                	add    al,0x1
  2697f5:	74 05                	je     2697fc <__abi_tag-0x196ba0>
  2697f7:	0b 00                	or     eax,DWORD PTR [rax]
  2697f9:	02 04 01             	add    al,BYTE PTR [rcx+rax*1]
  2697fc:	67 05 1a 5c 05 09    	addr32 add eax,0x9055c1a
  269802:	08 f2                	or     dl,dh
  269804:	05 11 00 02 04       	add    eax,0x4020011
  269809:	01 4c 05 0f          	add    DWORD PTR [rbp+rax*1+0xf],ecx
  26980d:	00 02                	add    BYTE PTR [rdx],al
  26980f:	04 01                	add    al,0x1
  269811:	74 05                	je     269818 <__abi_tag-0x196b84>
  269813:	0b 00                	or     eax,DWORD PTR [rax]
  269815:	02 04 01             	add    al,BYTE PTR [rcx+rax*1]
  269818:	67 05 1a 5c 05 09    	addr32 add eax,0x9055c1a
  26981e:	08 f2                	or     dl,dh
  269820:	05 11 00 02 04       	add    eax,0x4020011
  269825:	01 4c 05 0f          	add    DWORD PTR [rbp+rax*1+0xf],ecx
  269829:	00 02                	add    BYTE PTR [rdx],al
  26982b:	04 01                	add    al,0x1
  26982d:	74 05                	je     269834 <__abi_tag-0x196b68>
  26982f:	0b 00                	or     eax,DWORD PTR [rax]
  269831:	02 04 01             	add    al,BYTE PTR [rcx+rax*1]
  269834:	67 05 1a 5c 05 09    	addr32 add eax,0x9055c1a
  26983a:	08 f2                	or     dl,dh
  26983c:	05 11 00 02 04       	add    eax,0x4020011
  269841:	01 4c 05 0f          	add    DWORD PTR [rbp+rax*1+0xf],ecx
  269845:	00 02                	add    BYTE PTR [rdx],al
  269847:	04 01                	add    al,0x1
  269849:	74 05                	je     269850 <__abi_tag-0x196b4c>
  26984b:	0b 00                	or     eax,DWORD PTR [rax]
  26984d:	02 04 01             	add    al,BYTE PTR [rcx+rax*1]
  269850:	67 05 1a 5c 05 09    	addr32 add eax,0x9055c1a
  269856:	08 f2                	or     dl,dh
  269858:	05 11 00 02 04       	add    eax,0x4020011
  26985d:	01 4c 05 0f          	add    DWORD PTR [rbp+rax*1+0xf],ecx
  269861:	00 02                	add    BYTE PTR [rdx],al
  269863:	04 01                	add    al,0x1
  269865:	74 05                	je     26986c <__abi_tag-0x196b30>
  269867:	0b 00                	or     eax,DWORD PTR [rax]
  269869:	02 04 01             	add    al,BYTE PTR [rcx+rax*1]
  26986c:	67 05 18 5c 05 07    	addr32 add eax,0x7055c18
  269872:	08 f2                	or     dl,dh
  269874:	05 1a 4d 05 09       	add    eax,0x9054d1a
  269879:	08 f2                	or     dl,dh
  26987b:	05 11 00 02 04       	add    eax,0x4020011
  269880:	01 4c 05 0f          	add    DWORD PTR [rbp+rax*1+0xf],ecx
  269884:	00 02                	add    BYTE PTR [rdx],al
  269886:	04 01                	add    al,0x1
  269888:	74 05                	je     26988f <__abi_tag-0x196b0d>
  26988a:	0b 00                	or     eax,DWORD PTR [rax]
  26988c:	02 04 01             	add    al,BYTE PTR [rcx+rax*1]
  26988f:	67 05 1a 5c 05 09    	addr32 add eax,0x9055c1a
  269895:	08 f2                	or     dl,dh
  269897:	05 11 00 02 04       	add    eax,0x4020011
  26989c:	01 4c 05 0f          	add    DWORD PTR [rbp+rax*1+0xf],ecx
  2698a0:	00 02                	add    BYTE PTR [rdx],al
  2698a2:	04 01                	add    al,0x1
  2698a4:	74 05                	je     2698ab <__abi_tag-0x196af1>
  2698a6:	0b 00                	or     eax,DWORD PTR [rax]
  2698a8:	02 04 01             	add    al,BYTE PTR [rcx+rax*1]
  2698ab:	67 05 18 5c 05 07    	addr32 add eax,0x7055c18
  2698b1:	08 f2                	or     dl,dh
  2698b3:	05 1a 85 05 09       	add    eax,0x905851a
  2698b8:	08 f2                	or     dl,dh
  2698ba:	05 11 00 02 04       	add    eax,0x4020011
  2698bf:	01 4c 05 0f          	add    DWORD PTR [rbp+rax*1+0xf],ecx
  2698c3:	00 02                	add    BYTE PTR [rdx],al
  2698c5:	04 01                	add    al,0x1
  2698c7:	74 05                	je     2698ce <__abi_tag-0x196ace>
  2698c9:	0b 00                	or     eax,DWORD PTR [rax]
  2698cb:	02 04 01             	add    al,BYTE PTR [rcx+rax*1]
  2698ce:	67 05 1a 5c 05 09    	addr32 add eax,0x9055c1a
  2698d4:	08 f2                	or     dl,dh
  2698d6:	05 11 00 02 04       	add    eax,0x4020011
  2698db:	01 4c 05 0f          	add    DWORD PTR [rbp+rax*1+0xf],ecx
  2698df:	00 02                	add    BYTE PTR [rdx],al
  2698e1:	04 01                	add    al,0x1
  2698e3:	74 05                	je     2698ea <__abi_tag-0x196ab2>
  2698e5:	0b 00                	or     eax,DWORD PTR [rax]
  2698e7:	02 04 01             	add    al,BYTE PTR [rcx+rax*1]
  2698ea:	67 05 1a 5c 05 09    	addr32 add eax,0x9055c1a
  2698f0:	08 f2                	or     dl,dh
  2698f2:	05 11 00 02 04       	add    eax,0x4020011
  2698f7:	01 4c 05 0f          	add    DWORD PTR [rbp+rax*1+0xf],ecx
  2698fb:	00 02                	add    BYTE PTR [rdx],al
  2698fd:	04 01                	add    al,0x1
  2698ff:	74 05                	je     269906 <__abi_tag-0x196a96>
  269901:	0b 00                	or     eax,DWORD PTR [rax]
  269903:	02 04 01             	add    al,BYTE PTR [rcx+rax*1]
  269906:	67 05 18 5c 05 07    	addr32 add eax,0x7055c18
  26990c:	08 f2                	or     dl,dh
  26990e:	05 1a 4d 05 09       	add    eax,0x9054d1a
  269913:	08 f2                	or     dl,dh
  269915:	05 11 00 02 04       	add    eax,0x4020011
  26991a:	01 4c 05 0f          	add    DWORD PTR [rbp+rax*1+0xf],ecx
  26991e:	00 02                	add    BYTE PTR [rdx],al
  269920:	04 01                	add    al,0x1
  269922:	74 05                	je     269929 <__abi_tag-0x196a73>
  269924:	0b 00                	or     eax,DWORD PTR [rax]
  269926:	02 04 01             	add    al,BYTE PTR [rcx+rax*1]
  269929:	67 05 1a 5c 05 09    	addr32 add eax,0x9055c1a
  26992f:	08 f2                	or     dl,dh
  269931:	05 11 00 02 04       	add    eax,0x4020011
  269936:	01 4c 05 0f          	add    DWORD PTR [rbp+rax*1+0xf],ecx
  26993a:	00 02                	add    BYTE PTR [rdx],al
  26993c:	04 01                	add    al,0x1
  26993e:	74 05                	je     269945 <__abi_tag-0x196a57>
  269940:	0b 00                	or     eax,DWORD PTR [rax]
  269942:	02 04 01             	add    al,BYTE PTR [rcx+rax*1]
  269945:	67 05 18 5c 05 07    	addr32 add eax,0x7055c18
  26994b:	08 f2                	or     dl,dh
  26994d:	05 1a 4d 05 09       	add    eax,0x9054d1a
  269952:	08 f2                	or     dl,dh
  269954:	05 11 00 02 04       	add    eax,0x4020011
  269959:	01 4c 05 0f          	add    DWORD PTR [rbp+rax*1+0xf],ecx
  26995d:	00 02                	add    BYTE PTR [rdx],al
  26995f:	04 01                	add    al,0x1
  269961:	74 05                	je     269968 <__abi_tag-0x196a34>
  269963:	0b 00                	or     eax,DWORD PTR [rax]
  269965:	02 04 01             	add    al,BYTE PTR [rcx+rax*1]
  269968:	67 05 18 5c 05 07    	addr32 add eax,0x7055c18
  26996e:	08 f2                	or     dl,dh
  269970:	05 1a 4d 05 09       	add    eax,0x9054d1a
  269975:	08 f2                	or     dl,dh
  269977:	05 11 00 02 04       	add    eax,0x4020011
  26997c:	01 4c 05 0f          	add    DWORD PTR [rbp+rax*1+0xf],ecx
  269980:	00 02                	add    BYTE PTR [rdx],al
  269982:	04 01                	add    al,0x1
  269984:	74 05                	je     26998b <__abi_tag-0x196a11>
  269986:	0b 00                	or     eax,DWORD PTR [rax]
  269988:	02 04 01             	add    al,BYTE PTR [rcx+rax*1]
  26998b:	67 05 18 5c 05 07    	addr32 add eax,0x7055c18
  269991:	08 f2                	or     dl,dh
  269993:	05 1a 85 05 09       	add    eax,0x905851a
  269998:	08 f2                	or     dl,dh
  26999a:	05 11 00 02 04       	add    eax,0x4020011
  26999f:	01 4c 05 0f          	add    DWORD PTR [rbp+rax*1+0xf],ecx
  2699a3:	00 02                	add    BYTE PTR [rdx],al
  2699a5:	04 01                	add    al,0x1
  2699a7:	74 05                	je     2699ae <__abi_tag-0x1969ee>
  2699a9:	0b 00                	or     eax,DWORD PTR [rax]
  2699ab:	02 04 01             	add    al,BYTE PTR [rcx+rax*1]
  2699ae:	67 05 1a 5c 05 09    	addr32 add eax,0x9055c1a
  2699b4:	08 f2                	or     dl,dh
  2699b6:	05 11 00 02 04       	add    eax,0x4020011
  2699bb:	01 4c 05 0f          	add    DWORD PTR [rbp+rax*1+0xf],ecx
  2699bf:	00 02                	add    BYTE PTR [rdx],al
  2699c1:	04 01                	add    al,0x1
  2699c3:	74 05                	je     2699ca <__abi_tag-0x1969d2>
  2699c5:	0b 00                	or     eax,DWORD PTR [rax]
  2699c7:	02 04 01             	add    al,BYTE PTR [rcx+rax*1]
  2699ca:	67 05 1a 5c 05 09    	addr32 add eax,0x9055c1a
  2699d0:	08 f2                	or     dl,dh
  2699d2:	05 11 00 02 04       	add    eax,0x4020011
  2699d7:	01 4c 05 0f          	add    DWORD PTR [rbp+rax*1+0xf],ecx
  2699db:	00 02                	add    BYTE PTR [rdx],al
  2699dd:	04 01                	add    al,0x1
  2699df:	74 05                	je     2699e6 <__abi_tag-0x1969b6>
  2699e1:	0b 00                	or     eax,DWORD PTR [rax]
  2699e3:	02 04 01             	add    al,BYTE PTR [rcx+rax*1]
  2699e6:	67 05 1a 5c 05 09    	addr32 add eax,0x9055c1a
  2699ec:	08 f2                	or     dl,dh
  2699ee:	05 11 00 02 04       	add    eax,0x4020011
  2699f3:	01 4c 05 0f          	add    DWORD PTR [rbp+rax*1+0xf],ecx
  2699f7:	00 02                	add    BYTE PTR [rdx],al
  2699f9:	04 01                	add    al,0x1
  2699fb:	74 05                	je     269a02 <__abi_tag-0x19699a>
  2699fd:	0b 00                	or     eax,DWORD PTR [rax]
  2699ff:	02 04 01             	add    al,BYTE PTR [rcx+rax*1]
  269a02:	67 05 18 5c 05 07    	addr32 add eax,0x7055c18
  269a08:	08 f2                	or     dl,dh
  269a0a:	05 1a 4d 05 09       	add    eax,0x9054d1a
  269a0f:	08 f2                	or     dl,dh
  269a11:	05 11 00 02 04       	add    eax,0x4020011
  269a16:	01 4c 05 0f          	add    DWORD PTR [rbp+rax*1+0xf],ecx
  269a1a:	00 02                	add    BYTE PTR [rdx],al
  269a1c:	04 01                	add    al,0x1
  269a1e:	74 05                	je     269a25 <__abi_tag-0x196977>
  269a20:	0b 00                	or     eax,DWORD PTR [rax]
  269a22:	02 04 01             	add    al,BYTE PTR [rcx+rax*1]
  269a25:	67 05 1a 5c 05 09    	addr32 add eax,0x9055c1a
  269a2b:	08 f2                	or     dl,dh
  269a2d:	05 11 00 02 04       	add    eax,0x4020011
  269a32:	01 4c 05 0f          	add    DWORD PTR [rbp+rax*1+0xf],ecx
  269a36:	00 02                	add    BYTE PTR [rdx],al
  269a38:	04 01                	add    al,0x1
  269a3a:	74 05                	je     269a41 <__abi_tag-0x19695b>
  269a3c:	0b 00                	or     eax,DWORD PTR [rax]
  269a3e:	02 04 01             	add    al,BYTE PTR [rcx+rax*1]
  269a41:	67 05 18 5c 05 07    	addr32 add eax,0x7055c18
  269a47:	08 f2                	or     dl,dh
  269a49:	05 1a 85 05 09       	add    eax,0x905851a
  269a4e:	08 f2                	or     dl,dh
  269a50:	05 11 00 02 04       	add    eax,0x4020011
  269a55:	01 4c 05 0f          	add    DWORD PTR [rbp+rax*1+0xf],ecx
  269a59:	00 02                	add    BYTE PTR [rdx],al
  269a5b:	04 01                	add    al,0x1
  269a5d:	74 05                	je     269a64 <__abi_tag-0x196938>
  269a5f:	0b 00                	or     eax,DWORD PTR [rax]
  269a61:	02 04 01             	add    al,BYTE PTR [rcx+rax*1]
  269a64:	67 05 1a 5c 05 09    	addr32 add eax,0x9055c1a
  269a6a:	08 f2                	or     dl,dh
  269a6c:	05 11 00 02 04       	add    eax,0x4020011
  269a71:	01 4c 05 0f          	add    DWORD PTR [rbp+rax*1+0xf],ecx
  269a75:	00 02                	add    BYTE PTR [rdx],al
  269a77:	04 01                	add    al,0x1
  269a79:	74 05                	je     269a80 <__abi_tag-0x19691c>
  269a7b:	0b 00                	or     eax,DWORD PTR [rax]
  269a7d:	02 04 01             	add    al,BYTE PTR [rcx+rax*1]
  269a80:	67 05 1a 5c 05 09    	addr32 add eax,0x9055c1a
  269a86:	08 f2                	or     dl,dh
  269a88:	05 11 00 02 04       	add    eax,0x4020011
  269a8d:	01 4c 05 0f          	add    DWORD PTR [rbp+rax*1+0xf],ecx
  269a91:	00 02                	add    BYTE PTR [rdx],al
  269a93:	04 01                	add    al,0x1
  269a95:	74 05                	je     269a9c <__abi_tag-0x196900>
  269a97:	0b 00                	or     eax,DWORD PTR [rax]
  269a99:	02 04 01             	add    al,BYTE PTR [rcx+rax*1]
  269a9c:	67 05 1a 5c 05 09    	addr32 add eax,0x9055c1a
  269aa2:	08 f2                	or     dl,dh
  269aa4:	05 11 00 02 04       	add    eax,0x4020011
  269aa9:	01 4c 05 0f          	add    DWORD PTR [rbp+rax*1+0xf],ecx
  269aad:	00 02                	add    BYTE PTR [rdx],al
  269aaf:	04 01                	add    al,0x1
  269ab1:	74 05                	je     269ab8 <__abi_tag-0x1968e4>
  269ab3:	0b 00                	or     eax,DWORD PTR [rax]
  269ab5:	02 04 01             	add    al,BYTE PTR [rcx+rax*1]
  269ab8:	67 05 1a 5c 05 09    	addr32 add eax,0x9055c1a
  269abe:	08 f2                	or     dl,dh
  269ac0:	05 11 00 02 04       	add    eax,0x4020011
  269ac5:	01 4c 05 0f          	add    DWORD PTR [rbp+rax*1+0xf],ecx
  269ac9:	00 02                	add    BYTE PTR [rdx],al
  269acb:	04 01                	add    al,0x1
  269acd:	74 05                	je     269ad4 <__abi_tag-0x1968c8>
  269acf:	0b 00                	or     eax,DWORD PTR [rax]
  269ad1:	02 04 01             	add    al,BYTE PTR [rcx+rax*1]
  269ad4:	67 05 1a 5c 05 09    	addr32 add eax,0x9055c1a
  269ada:	08 f2                	or     dl,dh
  269adc:	05 11 00 02 04       	add    eax,0x4020011
  269ae1:	01 4c 05 0f          	add    DWORD PTR [rbp+rax*1+0xf],ecx
  269ae5:	00 02                	add    BYTE PTR [rdx],al
  269ae7:	04 01                	add    al,0x1
  269ae9:	74 05                	je     269af0 <__abi_tag-0x1968ac>
  269aeb:	0b 00                	or     eax,DWORD PTR [rax]
  269aed:	02 04 01             	add    al,BYTE PTR [rcx+rax*1]
  269af0:	67 05 1a 5c 05 09    	addr32 add eax,0x9055c1a
  269af6:	08 f2                	or     dl,dh
  269af8:	05 11 00 02 04       	add    eax,0x4020011
  269afd:	01 4c 05 0f          	add    DWORD PTR [rbp+rax*1+0xf],ecx
  269b01:	00 02                	add    BYTE PTR [rdx],al
  269b03:	04 01                	add    al,0x1
  269b05:	74 05                	je     269b0c <__abi_tag-0x196890>
  269b07:	0b 00                	or     eax,DWORD PTR [rax]
  269b09:	02 04 01             	add    al,BYTE PTR [rcx+rax*1]
  269b0c:	67 05 1a 5c 05 09    	addr32 add eax,0x9055c1a
  269b12:	08 f2                	or     dl,dh
  269b14:	05 11 00 02 04       	add    eax,0x4020011
  269b19:	01 4c 05 0f          	add    DWORD PTR [rbp+rax*1+0xf],ecx
  269b1d:	00 02                	add    BYTE PTR [rdx],al
  269b1f:	04 01                	add    al,0x1
  269b21:	74 05                	je     269b28 <__abi_tag-0x196874>
  269b23:	0b 00                	or     eax,DWORD PTR [rax]
  269b25:	02 04 01             	add    al,BYTE PTR [rcx+rax*1]
  269b28:	67 05 1a 5c 05 09    	addr32 add eax,0x9055c1a
  269b2e:	08 f2                	or     dl,dh
  269b30:	05 11 00 02 04       	add    eax,0x4020011
  269b35:	01 4c 05 0f          	add    DWORD PTR [rbp+rax*1+0xf],ecx
  269b39:	00 02                	add    BYTE PTR [rdx],al
  269b3b:	04 01                	add    al,0x1
  269b3d:	74 05                	je     269b44 <__abi_tag-0x196858>
  269b3f:	0b 00                	or     eax,DWORD PTR [rax]
  269b41:	02 04 01             	add    al,BYTE PTR [rcx+rax*1]
  269b44:	67 05 1a 5c 05 09    	addr32 add eax,0x9055c1a
  269b4a:	08 f2                	or     dl,dh
  269b4c:	05 11 00 02 04       	add    eax,0x4020011
  269b51:	01 4c 05 0f          	add    DWORD PTR [rbp+rax*1+0xf],ecx
  269b55:	00 02                	add    BYTE PTR [rdx],al
  269b57:	04 01                	add    al,0x1
  269b59:	74 05                	je     269b60 <__abi_tag-0x19683c>
  269b5b:	0b 00                	or     eax,DWORD PTR [rax]
  269b5d:	02 04 01             	add    al,BYTE PTR [rcx+rax*1]
  269b60:	67 05 1a 5c 05 09    	addr32 add eax,0x9055c1a
  269b66:	08 f2                	or     dl,dh
  269b68:	05 11 00 02 04       	add    eax,0x4020011
  269b6d:	01 4c 05 0f          	add    DWORD PTR [rbp+rax*1+0xf],ecx
  269b71:	00 02                	add    BYTE PTR [rdx],al
  269b73:	04 01                	add    al,0x1
  269b75:	74 05                	je     269b7c <__abi_tag-0x196820>
  269b77:	0b 00                	or     eax,DWORD PTR [rax]
  269b79:	02 04 01             	add    al,BYTE PTR [rcx+rax*1]
  269b7c:	67 05 1a 5c 05 09    	addr32 add eax,0x9055c1a
  269b82:	08 f2                	or     dl,dh
  269b84:	05 11 00 02 04       	add    eax,0x4020011
  269b89:	01 4c 05 0f          	add    DWORD PTR [rbp+rax*1+0xf],ecx
  269b8d:	00 02                	add    BYTE PTR [rdx],al
  269b8f:	04 01                	add    al,0x1
  269b91:	74 05                	je     269b98 <__abi_tag-0x196804>
  269b93:	0b 00                	or     eax,DWORD PTR [rax]
  269b95:	02 04 01             	add    al,BYTE PTR [rcx+rax*1]
  269b98:	67 05 1a 5c 05 09    	addr32 add eax,0x9055c1a
  269b9e:	08 f2                	or     dl,dh
  269ba0:	05 11 00 02 04       	add    eax,0x4020011
  269ba5:	01 4c 05 0f          	add    DWORD PTR [rbp+rax*1+0xf],ecx
  269ba9:	00 02                	add    BYTE PTR [rdx],al
  269bab:	04 01                	add    al,0x1
  269bad:	74 05                	je     269bb4 <__abi_tag-0x1967e8>
  269baf:	0b 00                	or     eax,DWORD PTR [rax]
  269bb1:	02 04 01             	add    al,BYTE PTR [rcx+rax*1]
  269bb4:	67 05 1a 5c 05 09    	addr32 add eax,0x9055c1a
  269bba:	08 f2                	or     dl,dh
  269bbc:	05 11 00 02 04       	add    eax,0x4020011
  269bc1:	01 4c 05 0f          	add    DWORD PTR [rbp+rax*1+0xf],ecx
  269bc5:	00 02                	add    BYTE PTR [rdx],al
  269bc7:	04 01                	add    al,0x1
  269bc9:	74 05                	je     269bd0 <__abi_tag-0x1967cc>
  269bcb:	0b 00                	or     eax,DWORD PTR [rax]
  269bcd:	02 04 01             	add    al,BYTE PTR [rcx+rax*1]
  269bd0:	67 05 1a 5c 05 09    	addr32 add eax,0x9055c1a
  269bd6:	08 f2                	or     dl,dh
  269bd8:	05 11 00 02 04       	add    eax,0x4020011
  269bdd:	01 4c 05 0f          	add    DWORD PTR [rbp+rax*1+0xf],ecx
  269be1:	00 02                	add    BYTE PTR [rdx],al
  269be3:	04 01                	add    al,0x1
  269be5:	74 05                	je     269bec <__abi_tag-0x1967b0>
  269be7:	0b 00                	or     eax,DWORD PTR [rax]
  269be9:	02 04 01             	add    al,BYTE PTR [rcx+rax*1]
  269bec:	67 05 1a 5c 05 09    	addr32 add eax,0x9055c1a
  269bf2:	08 f2                	or     dl,dh
  269bf4:	05 11 00 02 04       	add    eax,0x4020011
  269bf9:	01 4c 05 0f          	add    DWORD PTR [rbp+rax*1+0xf],ecx
  269bfd:	00 02                	add    BYTE PTR [rdx],al
  269bff:	04 01                	add    al,0x1
  269c01:	74 05                	je     269c08 <__abi_tag-0x196794>
  269c03:	0b 00                	or     eax,DWORD PTR [rax]
  269c05:	02 04 01             	add    al,BYTE PTR [rcx+rax*1]
  269c08:	67 05 1a 5c 05 09    	addr32 add eax,0x9055c1a
  269c0e:	08 f2                	or     dl,dh
  269c10:	05 11 00 02 04       	add    eax,0x4020011
  269c15:	01 4c 05 0f          	add    DWORD PTR [rbp+rax*1+0xf],ecx
  269c19:	00 02                	add    BYTE PTR [rdx],al
  269c1b:	04 01                	add    al,0x1
  269c1d:	74 05                	je     269c24 <__abi_tag-0x196778>
  269c1f:	0b 00                	or     eax,DWORD PTR [rax]
  269c21:	02 04 01             	add    al,BYTE PTR [rcx+rax*1]
  269c24:	67 05 1a 5c 05 09    	addr32 add eax,0x9055c1a
  269c2a:	08 f2                	or     dl,dh
  269c2c:	05 11 00 02 04       	add    eax,0x4020011
  269c31:	01 4c 05 0f          	add    DWORD PTR [rbp+rax*1+0xf],ecx
  269c35:	00 02                	add    BYTE PTR [rdx],al
  269c37:	04 01                	add    al,0x1
  269c39:	74 05                	je     269c40 <__abi_tag-0x19675c>
  269c3b:	0b 00                	or     eax,DWORD PTR [rax]
  269c3d:	02 04 01             	add    al,BYTE PTR [rcx+rax*1]
  269c40:	67 05 1a 5c 05 09    	addr32 add eax,0x9055c1a
  269c46:	08 f2                	or     dl,dh
  269c48:	05 11 00 02 04       	add    eax,0x4020011
  269c4d:	01 4c 05 0f          	add    DWORD PTR [rbp+rax*1+0xf],ecx
  269c51:	00 02                	add    BYTE PTR [rdx],al
  269c53:	04 01                	add    al,0x1
  269c55:	74 05                	je     269c5c <__abi_tag-0x196740>
  269c57:	0b 00                	or     eax,DWORD PTR [rax]
  269c59:	02 04 01             	add    al,BYTE PTR [rcx+rax*1]
  269c5c:	67 05 1a 5c 05 09    	addr32 add eax,0x9055c1a
  269c62:	08 f2                	or     dl,dh
  269c64:	05 11 00 02 04       	add    eax,0x4020011
  269c69:	01 4c 05 0f          	add    DWORD PTR [rbp+rax*1+0xf],ecx
  269c6d:	00 02                	add    BYTE PTR [rdx],al
  269c6f:	04 01                	add    al,0x1
  269c71:	74 05                	je     269c78 <__abi_tag-0x196724>
  269c73:	0b 00                	or     eax,DWORD PTR [rax]
  269c75:	02 04 01             	add    al,BYTE PTR [rcx+rax*1]
  269c78:	67 05 1a 5c 05 09    	addr32 add eax,0x9055c1a
  269c7e:	08 f2                	or     dl,dh
  269c80:	05 11 00 02 04       	add    eax,0x4020011
  269c85:	01 4c 05 0f          	add    DWORD PTR [rbp+rax*1+0xf],ecx
  269c89:	00 02                	add    BYTE PTR [rdx],al
  269c8b:	04 01                	add    al,0x1
  269c8d:	74 05                	je     269c94 <__abi_tag-0x196708>
  269c8f:	0b 00                	or     eax,DWORD PTR [rax]
  269c91:	02 04 01             	add    al,BYTE PTR [rcx+rax*1]
  269c94:	67 05 1a 5c 05 09    	addr32 add eax,0x9055c1a
  269c9a:	08 f2                	or     dl,dh
  269c9c:	05 11 00 02 04       	add    eax,0x4020011
  269ca1:	01 4c 05 0f          	add    DWORD PTR [rbp+rax*1+0xf],ecx
  269ca5:	00 02                	add    BYTE PTR [rdx],al
  269ca7:	04 01                	add    al,0x1
  269ca9:	74 05                	je     269cb0 <__abi_tag-0x1966ec>
  269cab:	0b 00                	or     eax,DWORD PTR [rax]
  269cad:	02 04 01             	add    al,BYTE PTR [rcx+rax*1]
  269cb0:	67 05 1a 5c 05 09    	addr32 add eax,0x9055c1a
  269cb6:	08 f2                	or     dl,dh
  269cb8:	05 11 00 02 04       	add    eax,0x4020011
  269cbd:	01 4c 05 0f          	add    DWORD PTR [rbp+rax*1+0xf],ecx
  269cc1:	00 02                	add    BYTE PTR [rdx],al
  269cc3:	04 01                	add    al,0x1
  269cc5:	74 05                	je     269ccc <__abi_tag-0x1966d0>
  269cc7:	0b 00                	or     eax,DWORD PTR [rax]
  269cc9:	02 04 01             	add    al,BYTE PTR [rcx+rax*1]
  269ccc:	67 05 1a 5c 05 09    	addr32 add eax,0x9055c1a
  269cd2:	08 f2                	or     dl,dh
  269cd4:	05 11 00 02 04       	add    eax,0x4020011
  269cd9:	01 4c 05 0f          	add    DWORD PTR [rbp+rax*1+0xf],ecx
  269cdd:	00 02                	add    BYTE PTR [rdx],al
  269cdf:	04 01                	add    al,0x1
  269ce1:	74 05                	je     269ce8 <__abi_tag-0x1966b4>
  269ce3:	0b 00                	or     eax,DWORD PTR [rax]
  269ce5:	02 04 01             	add    al,BYTE PTR [rcx+rax*1]
  269ce8:	67 05 1a 5c 05 09    	addr32 add eax,0x9055c1a
  269cee:	08 f2                	or     dl,dh
  269cf0:	05 11 00 02 04       	add    eax,0x4020011
  269cf5:	01 4c 05 0f          	add    DWORD PTR [rbp+rax*1+0xf],ecx
  269cf9:	00 02                	add    BYTE PTR [rdx],al
  269cfb:	04 01                	add    al,0x1
  269cfd:	74 05                	je     269d04 <__abi_tag-0x196698>
  269cff:	0b 00                	or     eax,DWORD PTR [rax]
  269d01:	02 04 01             	add    al,BYTE PTR [rcx+rax*1]
  269d04:	67 05 1a 5c 05 09    	addr32 add eax,0x9055c1a
  269d0a:	08 f2                	or     dl,dh
  269d0c:	05 11 00 02 04       	add    eax,0x4020011
  269d11:	01 4c 05 0f          	add    DWORD PTR [rbp+rax*1+0xf],ecx
  269d15:	00 02                	add    BYTE PTR [rdx],al
  269d17:	04 01                	add    al,0x1
  269d19:	74 05                	je     269d20 <__abi_tag-0x19667c>
  269d1b:	0b 00                	or     eax,DWORD PTR [rax]
  269d1d:	02 04 01             	add    al,BYTE PTR [rcx+rax*1]
  269d20:	67 05 1a 5c 05 09    	addr32 add eax,0x9055c1a
  269d26:	08 f2                	or     dl,dh
  269d28:	05 11 00 02 04       	add    eax,0x4020011
  269d2d:	01 4c 05 0f          	add    DWORD PTR [rbp+rax*1+0xf],ecx
  269d31:	00 02                	add    BYTE PTR [rdx],al
  269d33:	04 01                	add    al,0x1
  269d35:	74 05                	je     269d3c <__abi_tag-0x196660>
  269d37:	0b 00                	or     eax,DWORD PTR [rax]
  269d39:	02 04 01             	add    al,BYTE PTR [rcx+rax*1]
  269d3c:	67 05 1a 5c 05 09    	addr32 add eax,0x9055c1a
  269d42:	08 f2                	or     dl,dh
  269d44:	05 11 00 02 04       	add    eax,0x4020011
  269d49:	01 4c 05 0f          	add    DWORD PTR [rbp+rax*1+0xf],ecx
  269d4d:	00 02                	add    BYTE PTR [rdx],al
  269d4f:	04 01                	add    al,0x1
  269d51:	74 05                	je     269d58 <__abi_tag-0x196644>
  269d53:	0b 00                	or     eax,DWORD PTR [rax]
  269d55:	02 04 01             	add    al,BYTE PTR [rcx+rax*1]
  269d58:	67 05 1a 5c 05 09    	addr32 add eax,0x9055c1a
  269d5e:	08 f2                	or     dl,dh
  269d60:	05 11 00 02 04       	add    eax,0x4020011
  269d65:	01 4c 05 0f          	add    DWORD PTR [rbp+rax*1+0xf],ecx
  269d69:	00 02                	add    BYTE PTR [rdx],al
  269d6b:	04 01                	add    al,0x1
  269d6d:	74 05                	je     269d74 <__abi_tag-0x196628>
  269d6f:	0b 00                	or     eax,DWORD PTR [rax]
  269d71:	02 04 01             	add    al,BYTE PTR [rcx+rax*1]
  269d74:	67 05 1a 5c 05 09    	addr32 add eax,0x9055c1a
  269d7a:	08 f2                	or     dl,dh
  269d7c:	05 11 00 02 04       	add    eax,0x4020011
  269d81:	01 4c 05 0f          	add    DWORD PTR [rbp+rax*1+0xf],ecx
  269d85:	00 02                	add    BYTE PTR [rdx],al
  269d87:	04 01                	add    al,0x1
  269d89:	74 05                	je     269d90 <__abi_tag-0x19660c>
  269d8b:	0b 00                	or     eax,DWORD PTR [rax]
  269d8d:	02 04 01             	add    al,BYTE PTR [rcx+rax*1]
  269d90:	67 05 1a 5c 05 09    	addr32 add eax,0x9055c1a
  269d96:	08 f2                	or     dl,dh
  269d98:	05 11 00 02 04       	add    eax,0x4020011
  269d9d:	01 4c 05 0f          	add    DWORD PTR [rbp+rax*1+0xf],ecx
  269da1:	00 02                	add    BYTE PTR [rdx],al
  269da3:	04 01                	add    al,0x1
  269da5:	74 05                	je     269dac <__abi_tag-0x1965f0>
  269da7:	0b 00                	or     eax,DWORD PTR [rax]
  269da9:	02 04 01             	add    al,BYTE PTR [rcx+rax*1]
  269dac:	67 05 1a 5c 05 09    	addr32 add eax,0x9055c1a
  269db2:	08 f2                	or     dl,dh
  269db4:	05 11 00 02 04       	add    eax,0x4020011
  269db9:	01 4c 05 0f          	add    DWORD PTR [rbp+rax*1+0xf],ecx
  269dbd:	00 02                	add    BYTE PTR [rdx],al
  269dbf:	04 01                	add    al,0x1
  269dc1:	74 05                	je     269dc8 <__abi_tag-0x1965d4>
  269dc3:	0b 00                	or     eax,DWORD PTR [rax]
  269dc5:	02 04 01             	add    al,BYTE PTR [rcx+rax*1]
  269dc8:	67 05 1a 5c 05 09    	addr32 add eax,0x9055c1a
  269dce:	08 f2                	or     dl,dh
  269dd0:	05 11 00 02 04       	add    eax,0x4020011
  269dd5:	01 4c 05 0f          	add    DWORD PTR [rbp+rax*1+0xf],ecx
  269dd9:	00 02                	add    BYTE PTR [rdx],al
  269ddb:	04 01                	add    al,0x1
  269ddd:	74 05                	je     269de4 <__abi_tag-0x1965b8>
  269ddf:	0b 00                	or     eax,DWORD PTR [rax]
  269de1:	02 04 01             	add    al,BYTE PTR [rcx+rax*1]
  269de4:	67 05 1a 5c 05 09    	addr32 add eax,0x9055c1a
  269dea:	08 f2                	or     dl,dh
  269dec:	05 11 00 02 04       	add    eax,0x4020011
  269df1:	01 4c 05 0f          	add    DWORD PTR [rbp+rax*1+0xf],ecx
  269df5:	00 02                	add    BYTE PTR [rdx],al
  269df7:	04 01                	add    al,0x1
  269df9:	74 05                	je     269e00 <__abi_tag-0x19659c>
  269dfb:	0b 00                	or     eax,DWORD PTR [rax]
  269dfd:	02 04 01             	add    al,BYTE PTR [rcx+rax*1]
  269e00:	67 05 1a 5c 05 09    	addr32 add eax,0x9055c1a
  269e06:	08 f2                	or     dl,dh
  269e08:	05 11 00 02 04       	add    eax,0x4020011
  269e0d:	01 4c 05 0f          	add    DWORD PTR [rbp+rax*1+0xf],ecx
  269e11:	00 02                	add    BYTE PTR [rdx],al
  269e13:	04 01                	add    al,0x1
  269e15:	74 05                	je     269e1c <__abi_tag-0x196580>
  269e17:	0b 00                	or     eax,DWORD PTR [rax]
  269e19:	02 04 01             	add    al,BYTE PTR [rcx+rax*1]
  269e1c:	67 05 1a 5c 05 09    	addr32 add eax,0x9055c1a
  269e22:	08 f2                	or     dl,dh
  269e24:	05 11 00 02 04       	add    eax,0x4020011
  269e29:	01 4c 05 0f          	add    DWORD PTR [rbp+rax*1+0xf],ecx
  269e2d:	00 02                	add    BYTE PTR [rdx],al
  269e2f:	04 01                	add    al,0x1
  269e31:	74 05                	je     269e38 <__abi_tag-0x196564>
  269e33:	0b 00                	or     eax,DWORD PTR [rax]
  269e35:	02 04 01             	add    al,BYTE PTR [rcx+rax*1]
  269e38:	67 05 1a 5c 05 09    	addr32 add eax,0x9055c1a
  269e3e:	08 f2                	or     dl,dh
  269e40:	05 11 00 02 04       	add    eax,0x4020011
  269e45:	01 4c 05 0f          	add    DWORD PTR [rbp+rax*1+0xf],ecx
  269e49:	00 02                	add    BYTE PTR [rdx],al
  269e4b:	04 01                	add    al,0x1
  269e4d:	74 05                	je     269e54 <__abi_tag-0x196548>
  269e4f:	0b 00                	or     eax,DWORD PTR [rax]
  269e51:	02 04 01             	add    al,BYTE PTR [rcx+rax*1]
  269e54:	67 05 1a 5c 05 09    	addr32 add eax,0x9055c1a
  269e5a:	08 f2                	or     dl,dh
  269e5c:	05 11 00 02 04       	add    eax,0x4020011
  269e61:	01 4c 05 0f          	add    DWORD PTR [rbp+rax*1+0xf],ecx
  269e65:	00 02                	add    BYTE PTR [rdx],al
  269e67:	04 01                	add    al,0x1
  269e69:	74 05                	je     269e70 <__abi_tag-0x19652c>
  269e6b:	0b 00                	or     eax,DWORD PTR [rax]
  269e6d:	02 04 01             	add    al,BYTE PTR [rcx+rax*1]
  269e70:	67 05 1a 5c 05 09    	addr32 add eax,0x9055c1a
  269e76:	08 f2                	or     dl,dh
  269e78:	05 11 00 02 04       	add    eax,0x4020011
  269e7d:	01 4c 05 0f          	add    DWORD PTR [rbp+rax*1+0xf],ecx
  269e81:	00 02                	add    BYTE PTR [rdx],al
  269e83:	04 01                	add    al,0x1
  269e85:	74 05                	je     269e8c <__abi_tag-0x196510>
  269e87:	0b 00                	or     eax,DWORD PTR [rax]
  269e89:	02 04 01             	add    al,BYTE PTR [rcx+rax*1]
  269e8c:	67 05 1a 5c 05 09    	addr32 add eax,0x9055c1a
  269e92:	08 f2                	or     dl,dh
  269e94:	05 11 00 02 04       	add    eax,0x4020011
  269e99:	01 4c 05 0f          	add    DWORD PTR [rbp+rax*1+0xf],ecx
  269e9d:	00 02                	add    BYTE PTR [rdx],al
  269e9f:	04 01                	add    al,0x1
  269ea1:	74 05                	je     269ea8 <__abi_tag-0x1964f4>
  269ea3:	0b 00                	or     eax,DWORD PTR [rax]
  269ea5:	02 04 01             	add    al,BYTE PTR [rcx+rax*1]
  269ea8:	67 05 1a 5c 05 09    	addr32 add eax,0x9055c1a
  269eae:	08 f2                	or     dl,dh
  269eb0:	05 11 00 02 04       	add    eax,0x4020011
  269eb5:	01 4c 05 0f          	add    DWORD PTR [rbp+rax*1+0xf],ecx
  269eb9:	00 02                	add    BYTE PTR [rdx],al
  269ebb:	04 01                	add    al,0x1
  269ebd:	74 05                	je     269ec4 <__abi_tag-0x1964d8>
  269ebf:	0b 00                	or     eax,DWORD PTR [rax]
  269ec1:	02 04 01             	add    al,BYTE PTR [rcx+rax*1]
  269ec4:	67 05 1a 5c 05 09    	addr32 add eax,0x9055c1a
  269eca:	08 f2                	or     dl,dh
  269ecc:	05 11 00 02 04       	add    eax,0x4020011
  269ed1:	01 4c 05 0f          	add    DWORD PTR [rbp+rax*1+0xf],ecx
  269ed5:	00 02                	add    BYTE PTR [rdx],al
  269ed7:	04 01                	add    al,0x1
  269ed9:	74 05                	je     269ee0 <__abi_tag-0x1964bc>
  269edb:	0b 00                	or     eax,DWORD PTR [rax]
  269edd:	02 04 01             	add    al,BYTE PTR [rcx+rax*1]
  269ee0:	67 05 1a 5c 05 09    	addr32 add eax,0x9055c1a
  269ee6:	08 f2                	or     dl,dh
  269ee8:	05 11 00 02 04       	add    eax,0x4020011
  269eed:	01 4c 05 0f          	add    DWORD PTR [rbp+rax*1+0xf],ecx
  269ef1:	00 02                	add    BYTE PTR [rdx],al
  269ef3:	04 01                	add    al,0x1
  269ef5:	74 05                	je     269efc <__abi_tag-0x1964a0>
  269ef7:	0b 00                	or     eax,DWORD PTR [rax]
  269ef9:	02 04 01             	add    al,BYTE PTR [rcx+rax*1]
  269efc:	67 05 1a 5c 05 09    	addr32 add eax,0x9055c1a
  269f02:	08 f2                	or     dl,dh
  269f04:	05 11 00 02 04       	add    eax,0x4020011
  269f09:	01 4c 05 0f          	add    DWORD PTR [rbp+rax*1+0xf],ecx
  269f0d:	00 02                	add    BYTE PTR [rdx],al
  269f0f:	04 01                	add    al,0x1
  269f11:	74 05                	je     269f18 <__abi_tag-0x196484>
  269f13:	0b 00                	or     eax,DWORD PTR [rax]
  269f15:	02 04 01             	add    al,BYTE PTR [rcx+rax*1]
  269f18:	67 05 1a 5c 05 09    	addr32 add eax,0x9055c1a
  269f1e:	08 f2                	or     dl,dh
  269f20:	05 11 00 02 04       	add    eax,0x4020011
  269f25:	01 4c 05 0f          	add    DWORD PTR [rbp+rax*1+0xf],ecx
  269f29:	00 02                	add    BYTE PTR [rdx],al
  269f2b:	04 01                	add    al,0x1
  269f2d:	74 05                	je     269f34 <__abi_tag-0x196468>
  269f2f:	0b 00                	or     eax,DWORD PTR [rax]
  269f31:	02 04 01             	add    al,BYTE PTR [rcx+rax*1]
  269f34:	67 05 1a 5c 05 09    	addr32 add eax,0x9055c1a
  269f3a:	08 f2                	or     dl,dh
  269f3c:	05 11 00 02 04       	add    eax,0x4020011
  269f41:	01 4c 05 0f          	add    DWORD PTR [rbp+rax*1+0xf],ecx
  269f45:	00 02                	add    BYTE PTR [rdx],al
  269f47:	04 01                	add    al,0x1
  269f49:	74 05                	je     269f50 <__abi_tag-0x19644c>
  269f4b:	0b 00                	or     eax,DWORD PTR [rax]
  269f4d:	02 04 01             	add    al,BYTE PTR [rcx+rax*1]
  269f50:	67 05 1a 5c 05 09    	addr32 add eax,0x9055c1a
  269f56:	08 f2                	or     dl,dh
  269f58:	05 11 00 02 04       	add    eax,0x4020011
  269f5d:	01 4c 05 0f          	add    DWORD PTR [rbp+rax*1+0xf],ecx
  269f61:	00 02                	add    BYTE PTR [rdx],al
  269f63:	04 01                	add    al,0x1
  269f65:	74 05                	je     269f6c <__abi_tag-0x196430>
  269f67:	0b 00                	or     eax,DWORD PTR [rax]
  269f69:	02 04 01             	add    al,BYTE PTR [rcx+rax*1]
  269f6c:	67 05 1a 5c 05 09    	addr32 add eax,0x9055c1a
  269f72:	08 f2                	or     dl,dh
  269f74:	05 11 00 02 04       	add    eax,0x4020011
  269f79:	01 4c 05 0f          	add    DWORD PTR [rbp+rax*1+0xf],ecx
  269f7d:	00 02                	add    BYTE PTR [rdx],al
  269f7f:	04 01                	add    al,0x1
  269f81:	74 05                	je     269f88 <__abi_tag-0x196414>
  269f83:	0b 00                	or     eax,DWORD PTR [rax]
  269f85:	02 04 01             	add    al,BYTE PTR [rcx+rax*1]
  269f88:	67 05 1a 5c 05 09    	addr32 add eax,0x9055c1a
  269f8e:	08 f2                	or     dl,dh
  269f90:	05 11 00 02 04       	add    eax,0x4020011
  269f95:	01 4c 05 0f          	add    DWORD PTR [rbp+rax*1+0xf],ecx
  269f99:	00 02                	add    BYTE PTR [rdx],al
  269f9b:	04 01                	add    al,0x1
  269f9d:	74 05                	je     269fa4 <__abi_tag-0x1963f8>
  269f9f:	0b 00                	or     eax,DWORD PTR [rax]
  269fa1:	02 04 01             	add    al,BYTE PTR [rcx+rax*1]
  269fa4:	67 05 1a 5c 05 09    	addr32 add eax,0x9055c1a
  269faa:	08 f2                	or     dl,dh
  269fac:	05 11 00 02 04       	add    eax,0x4020011
  269fb1:	01 4c 05 0f          	add    DWORD PTR [rbp+rax*1+0xf],ecx
  269fb5:	00 02                	add    BYTE PTR [rdx],al
  269fb7:	04 01                	add    al,0x1
  269fb9:	74 05                	je     269fc0 <__abi_tag-0x1963dc>
  269fbb:	0b 00                	or     eax,DWORD PTR [rax]
  269fbd:	02 04 01             	add    al,BYTE PTR [rcx+rax*1]
  269fc0:	67 05 1a 5c 05 09    	addr32 add eax,0x9055c1a
  269fc6:	08 f2                	or     dl,dh
  269fc8:	05 11 00 02 04       	add    eax,0x4020011
  269fcd:	01 4c 05 0f          	add    DWORD PTR [rbp+rax*1+0xf],ecx
  269fd1:	00 02                	add    BYTE PTR [rdx],al
  269fd3:	04 01                	add    al,0x1
  269fd5:	74 05                	je     269fdc <__abi_tag-0x1963c0>
  269fd7:	0b 00                	or     eax,DWORD PTR [rax]
  269fd9:	02 04 01             	add    al,BYTE PTR [rcx+rax*1]
  269fdc:	67 05 1a 5c 05 09    	addr32 add eax,0x9055c1a
  269fe2:	08 f2                	or     dl,dh
  269fe4:	05 11 00 02 04       	add    eax,0x4020011
  269fe9:	01 4c 05 0f          	add    DWORD PTR [rbp+rax*1+0xf],ecx
  269fed:	00 02                	add    BYTE PTR [rdx],al
  269fef:	04 01                	add    al,0x1
  269ff1:	74 05                	je     269ff8 <__abi_tag-0x1963a4>
  269ff3:	0b 00                	or     eax,DWORD PTR [rax]
  269ff5:	02 04 01             	add    al,BYTE PTR [rcx+rax*1]
  269ff8:	67 05 1a 5c 05 09    	addr32 add eax,0x9055c1a
  269ffe:	08 f2                	or     dl,dh
  26a000:	05 11 00 02 04       	add    eax,0x4020011
  26a005:	01 4c 05 0f          	add    DWORD PTR [rbp+rax*1+0xf],ecx
  26a009:	00 02                	add    BYTE PTR [rdx],al
  26a00b:	04 01                	add    al,0x1
  26a00d:	74 05                	je     26a014 <__abi_tag-0x196388>
  26a00f:	0b 00                	or     eax,DWORD PTR [rax]
  26a011:	02 04 01             	add    al,BYTE PTR [rcx+rax*1]
  26a014:	67 05 1a 5c 05 09    	addr32 add eax,0x9055c1a
  26a01a:	08 f2                	or     dl,dh
  26a01c:	05 11 00 02 04       	add    eax,0x4020011
  26a021:	01 4c 05 0f          	add    DWORD PTR [rbp+rax*1+0xf],ecx
  26a025:	00 02                	add    BYTE PTR [rdx],al
  26a027:	04 01                	add    al,0x1
  26a029:	74 05                	je     26a030 <__abi_tag-0x19636c>
  26a02b:	0b 00                	or     eax,DWORD PTR [rax]
  26a02d:	02 04 01             	add    al,BYTE PTR [rcx+rax*1]
  26a030:	67 05 1a 5c 05 09    	addr32 add eax,0x9055c1a
  26a036:	08 f2                	or     dl,dh
  26a038:	05 11 00 02 04       	add    eax,0x4020011
  26a03d:	01 4c 05 0f          	add    DWORD PTR [rbp+rax*1+0xf],ecx
  26a041:	00 02                	add    BYTE PTR [rdx],al
  26a043:	04 01                	add    al,0x1
  26a045:	74 05                	je     26a04c <__abi_tag-0x196350>
  26a047:	0b 00                	or     eax,DWORD PTR [rax]
  26a049:	02 04 01             	add    al,BYTE PTR [rcx+rax*1]
  26a04c:	67 05 1a 5c 05 09    	addr32 add eax,0x9055c1a
  26a052:	08 f2                	or     dl,dh
  26a054:	05 11 00 02 04       	add    eax,0x4020011
  26a059:	01 4c 05 0f          	add    DWORD PTR [rbp+rax*1+0xf],ecx
  26a05d:	00 02                	add    BYTE PTR [rdx],al
  26a05f:	04 01                	add    al,0x1
  26a061:	74 05                	je     26a068 <__abi_tag-0x196334>
  26a063:	0b 00                	or     eax,DWORD PTR [rax]
  26a065:	02 04 01             	add    al,BYTE PTR [rcx+rax*1]
  26a068:	67 05 1a 5c 05 09    	addr32 add eax,0x9055c1a
  26a06e:	08 f2                	or     dl,dh
  26a070:	05 11 00 02 04       	add    eax,0x4020011
  26a075:	01 4c 05 0f          	add    DWORD PTR [rbp+rax*1+0xf],ecx
  26a079:	00 02                	add    BYTE PTR [rdx],al
  26a07b:	04 01                	add    al,0x1
  26a07d:	74 05                	je     26a084 <__abi_tag-0x196318>
  26a07f:	0b 00                	or     eax,DWORD PTR [rax]
  26a081:	02 04 01             	add    al,BYTE PTR [rcx+rax*1]
  26a084:	67 05 1a 5c 05 09    	addr32 add eax,0x9055c1a
  26a08a:	08 f2                	or     dl,dh
  26a08c:	05 11 00 02 04       	add    eax,0x4020011
  26a091:	01 4c 05 0f          	add    DWORD PTR [rbp+rax*1+0xf],ecx
  26a095:	00 02                	add    BYTE PTR [rdx],al
  26a097:	04 01                	add    al,0x1
  26a099:	74 05                	je     26a0a0 <__abi_tag-0x1962fc>
  26a09b:	0b 00                	or     eax,DWORD PTR [rax]
  26a09d:	02 04 01             	add    al,BYTE PTR [rcx+rax*1]
  26a0a0:	67 05 1a 5c 05 09    	addr32 add eax,0x9055c1a
  26a0a6:	08 f2                	or     dl,dh
  26a0a8:	05 11 00 02 04       	add    eax,0x4020011
  26a0ad:	01 4c 05 0f          	add    DWORD PTR [rbp+rax*1+0xf],ecx
  26a0b1:	00 02                	add    BYTE PTR [rdx],al
  26a0b3:	04 01                	add    al,0x1
  26a0b5:	74 05                	je     26a0bc <__abi_tag-0x1962e0>
  26a0b7:	0b 00                	or     eax,DWORD PTR [rax]
  26a0b9:	02 04 01             	add    al,BYTE PTR [rcx+rax*1]
  26a0bc:	67 05 1a 5c 05 09    	addr32 add eax,0x9055c1a
  26a0c2:	08 f2                	or     dl,dh
  26a0c4:	05 11 00 02 04       	add    eax,0x4020011
  26a0c9:	01 4c 05 0f          	add    DWORD PTR [rbp+rax*1+0xf],ecx
  26a0cd:	00 02                	add    BYTE PTR [rdx],al
  26a0cf:	04 01                	add    al,0x1
  26a0d1:	74 05                	je     26a0d8 <__abi_tag-0x1962c4>
  26a0d3:	0b 00                	or     eax,DWORD PTR [rax]
  26a0d5:	02 04 01             	add    al,BYTE PTR [rcx+rax*1]
  26a0d8:	67 05 1a 5c 05 09    	addr32 add eax,0x9055c1a
  26a0de:	08 f2                	or     dl,dh
  26a0e0:	05 11 00 02 04       	add    eax,0x4020011
  26a0e5:	01 4c 05 0f          	add    DWORD PTR [rbp+rax*1+0xf],ecx
  26a0e9:	00 02                	add    BYTE PTR [rdx],al
  26a0eb:	04 01                	add    al,0x1
  26a0ed:	74 05                	je     26a0f4 <__abi_tag-0x1962a8>
  26a0ef:	0b 00                	or     eax,DWORD PTR [rax]
  26a0f1:	02 04 01             	add    al,BYTE PTR [rcx+rax*1]
  26a0f4:	67 05 1a 5c 05 09    	addr32 add eax,0x9055c1a
  26a0fa:	08 f2                	or     dl,dh
  26a0fc:	05 11 00 02 04       	add    eax,0x4020011
  26a101:	01 4c 05 0f          	add    DWORD PTR [rbp+rax*1+0xf],ecx
  26a105:	00 02                	add    BYTE PTR [rdx],al
  26a107:	04 01                	add    al,0x1
  26a109:	74 05                	je     26a110 <__abi_tag-0x19628c>
  26a10b:	0b 00                	or     eax,DWORD PTR [rax]
  26a10d:	02 04 01             	add    al,BYTE PTR [rcx+rax*1]
  26a110:	67 05 1a 5c 05 09    	addr32 add eax,0x9055c1a
  26a116:	08 f2                	or     dl,dh
  26a118:	05 11 00 02 04       	add    eax,0x4020011
  26a11d:	01 4c 05 0f          	add    DWORD PTR [rbp+rax*1+0xf],ecx
  26a121:	00 02                	add    BYTE PTR [rdx],al
  26a123:	04 01                	add    al,0x1
  26a125:	74 05                	je     26a12c <__abi_tag-0x196270>
  26a127:	0b 00                	or     eax,DWORD PTR [rax]
  26a129:	02 04 01             	add    al,BYTE PTR [rcx+rax*1]
  26a12c:	67 05 1a 5c 05 09    	addr32 add eax,0x9055c1a
  26a132:	08 f2                	or     dl,dh
  26a134:	05 11 00 02 04       	add    eax,0x4020011
  26a139:	01 4c 05 0f          	add    DWORD PTR [rbp+rax*1+0xf],ecx
  26a13d:	00 02                	add    BYTE PTR [rdx],al
  26a13f:	04 01                	add    al,0x1
  26a141:	74 05                	je     26a148 <__abi_tag-0x196254>
  26a143:	0b 00                	or     eax,DWORD PTR [rax]
  26a145:	02 04 01             	add    al,BYTE PTR [rcx+rax*1]
  26a148:	67 05 1a 5c 05 09    	addr32 add eax,0x9055c1a
  26a14e:	08 f2                	or     dl,dh
  26a150:	05 11 00 02 04       	add    eax,0x4020011
  26a155:	01 4c 05 0f          	add    DWORD PTR [rbp+rax*1+0xf],ecx
  26a159:	00 02                	add    BYTE PTR [rdx],al
  26a15b:	04 01                	add    al,0x1
  26a15d:	74 05                	je     26a164 <__abi_tag-0x196238>
  26a15f:	0b 00                	or     eax,DWORD PTR [rax]
  26a161:	02 04 01             	add    al,BYTE PTR [rcx+rax*1]
  26a164:	67 05 1a 5c 05 09    	addr32 add eax,0x9055c1a
  26a16a:	08 f2                	or     dl,dh
  26a16c:	05 11 00 02 04       	add    eax,0x4020011
  26a171:	01 4c 05 0f          	add    DWORD PTR [rbp+rax*1+0xf],ecx
  26a175:	00 02                	add    BYTE PTR [rdx],al
  26a177:	04 01                	add    al,0x1
  26a179:	74 05                	je     26a180 <__abi_tag-0x19621c>
  26a17b:	0b 00                	or     eax,DWORD PTR [rax]
  26a17d:	02 04 01             	add    al,BYTE PTR [rcx+rax*1]
  26a180:	67 05 1a 5c 05 09    	addr32 add eax,0x9055c1a
  26a186:	08 f2                	or     dl,dh
  26a188:	05 11 00 02 04       	add    eax,0x4020011
  26a18d:	01 4c 05 0f          	add    DWORD PTR [rbp+rax*1+0xf],ecx
  26a191:	00 02                	add    BYTE PTR [rdx],al
  26a193:	04 01                	add    al,0x1
  26a195:	74 05                	je     26a19c <__abi_tag-0x196200>
  26a197:	0b 00                	or     eax,DWORD PTR [rax]
  26a199:	02 04 01             	add    al,BYTE PTR [rcx+rax*1]
  26a19c:	67 05 1a 5c 05 09    	addr32 add eax,0x9055c1a
  26a1a2:	08 f2                	or     dl,dh
  26a1a4:	05 11 00 02 04       	add    eax,0x4020011
  26a1a9:	01 4c 05 0f          	add    DWORD PTR [rbp+rax*1+0xf],ecx
  26a1ad:	00 02                	add    BYTE PTR [rdx],al
  26a1af:	04 01                	add    al,0x1
  26a1b1:	74 05                	je     26a1b8 <__abi_tag-0x1961e4>
  26a1b3:	0b 00                	or     eax,DWORD PTR [rax]
  26a1b5:	02 04 01             	add    al,BYTE PTR [rcx+rax*1]
  26a1b8:	67 05 1a 5c 05 09    	addr32 add eax,0x9055c1a
  26a1be:	08 f2                	or     dl,dh
  26a1c0:	05 11 00 02 04       	add    eax,0x4020011
  26a1c5:	01 4c 05 0f          	add    DWORD PTR [rbp+rax*1+0xf],ecx
  26a1c9:	00 02                	add    BYTE PTR [rdx],al
  26a1cb:	04 01                	add    al,0x1
  26a1cd:	74 05                	je     26a1d4 <__abi_tag-0x1961c8>
  26a1cf:	0b 00                	or     eax,DWORD PTR [rax]
  26a1d1:	02 04 01             	add    al,BYTE PTR [rcx+rax*1]
  26a1d4:	67 05 1a 5c 05 09    	addr32 add eax,0x9055c1a
  26a1da:	08 f2                	or     dl,dh
  26a1dc:	05 11 00 02 04       	add    eax,0x4020011
  26a1e1:	01 4c 05 0f          	add    DWORD PTR [rbp+rax*1+0xf],ecx
  26a1e5:	00 02                	add    BYTE PTR [rdx],al
  26a1e7:	04 01                	add    al,0x1
  26a1e9:	74 05                	je     26a1f0 <__abi_tag-0x1961ac>
  26a1eb:	0b 00                	or     eax,DWORD PTR [rax]
  26a1ed:	02 04 01             	add    al,BYTE PTR [rcx+rax*1]
  26a1f0:	67 05 1a 5c 05 09    	addr32 add eax,0x9055c1a
  26a1f6:	08 f2                	or     dl,dh
  26a1f8:	05 11 00 02 04       	add    eax,0x4020011
  26a1fd:	01 4c 05 0f          	add    DWORD PTR [rbp+rax*1+0xf],ecx
  26a201:	00 02                	add    BYTE PTR [rdx],al
  26a203:	04 01                	add    al,0x1
  26a205:	74 05                	je     26a20c <__abi_tag-0x196190>
  26a207:	0b 00                	or     eax,DWORD PTR [rax]
  26a209:	02 04 01             	add    al,BYTE PTR [rcx+rax*1]
  26a20c:	67 05 1a 5c 05 09    	addr32 add eax,0x9055c1a
  26a212:	08 f2                	or     dl,dh
  26a214:	05 11 00 02 04       	add    eax,0x4020011
  26a219:	01 4c 05 0f          	add    DWORD PTR [rbp+rax*1+0xf],ecx
  26a21d:	00 02                	add    BYTE PTR [rdx],al
  26a21f:	04 01                	add    al,0x1
  26a221:	74 05                	je     26a228 <__abi_tag-0x196174>
  26a223:	0b 00                	or     eax,DWORD PTR [rax]
  26a225:	02 04 01             	add    al,BYTE PTR [rcx+rax*1]
  26a228:	67 05 1a 5c 05 09    	addr32 add eax,0x9055c1a
  26a22e:	08 f2                	or     dl,dh
  26a230:	05 11 00 02 04       	add    eax,0x4020011
  26a235:	01 4c 05 0f          	add    DWORD PTR [rbp+rax*1+0xf],ecx
  26a239:	00 02                	add    BYTE PTR [rdx],al
  26a23b:	04 01                	add    al,0x1
  26a23d:	74 05                	je     26a244 <__abi_tag-0x196158>
  26a23f:	0b 00                	or     eax,DWORD PTR [rax]
  26a241:	02 04 01             	add    al,BYTE PTR [rcx+rax*1]
  26a244:	67 05 1a 5c 05 09    	addr32 add eax,0x9055c1a
  26a24a:	08 f2                	or     dl,dh
  26a24c:	05 11 00 02 04       	add    eax,0x4020011
  26a251:	01 4c 05 0f          	add    DWORD PTR [rbp+rax*1+0xf],ecx
  26a255:	00 02                	add    BYTE PTR [rdx],al
  26a257:	04 01                	add    al,0x1
  26a259:	74 05                	je     26a260 <__abi_tag-0x19613c>
  26a25b:	0b 00                	or     eax,DWORD PTR [rax]
  26a25d:	02 04 01             	add    al,BYTE PTR [rcx+rax*1]
  26a260:	67 05 1a 5c 05 09    	addr32 add eax,0x9055c1a
  26a266:	08 f2                	or     dl,dh
  26a268:	05 11 00 02 04       	add    eax,0x4020011
  26a26d:	01 4c 05 0f          	add    DWORD PTR [rbp+rax*1+0xf],ecx
  26a271:	00 02                	add    BYTE PTR [rdx],al
  26a273:	04 01                	add    al,0x1
  26a275:	74 05                	je     26a27c <__abi_tag-0x196120>
  26a277:	0b 00                	or     eax,DWORD PTR [rax]
  26a279:	02 04 01             	add    al,BYTE PTR [rcx+rax*1]
  26a27c:	67 05 1a 5c 05 09    	addr32 add eax,0x9055c1a
  26a282:	08 f2                	or     dl,dh
  26a284:	05 11 00 02 04       	add    eax,0x4020011
  26a289:	01 4c 05 0f          	add    DWORD PTR [rbp+rax*1+0xf],ecx
  26a28d:	00 02                	add    BYTE PTR [rdx],al
  26a28f:	04 01                	add    al,0x1
  26a291:	74 05                	je     26a298 <__abi_tag-0x196104>
  26a293:	0b 00                	or     eax,DWORD PTR [rax]
  26a295:	02 04 01             	add    al,BYTE PTR [rcx+rax*1]
  26a298:	67 05 18 5c 05 07    	addr32 add eax,0x7055c18
  26a29e:	08 f2                	or     dl,dh
  26a2a0:	05 1a 85 05 09       	add    eax,0x905851a
  26a2a5:	08 f2                	or     dl,dh
  26a2a7:	05 11 00 02 04       	add    eax,0x4020011
  26a2ac:	01 4c 05 0f          	add    DWORD PTR [rbp+rax*1+0xf],ecx
  26a2b0:	00 02                	add    BYTE PTR [rdx],al
  26a2b2:	04 01                	add    al,0x1
  26a2b4:	74 05                	je     26a2bb <__abi_tag-0x1960e1>
  26a2b6:	0b 00                	or     eax,DWORD PTR [rax]
  26a2b8:	02 04 01             	add    al,BYTE PTR [rcx+rax*1]
  26a2bb:	67 05 1a 5c 05 09    	addr32 add eax,0x9055c1a
  26a2c1:	08 f2                	or     dl,dh
  26a2c3:	05 11 00 02 04       	add    eax,0x4020011
  26a2c8:	01 4c 05 0f          	add    DWORD PTR [rbp+rax*1+0xf],ecx
  26a2cc:	00 02                	add    BYTE PTR [rdx],al
  26a2ce:	04 01                	add    al,0x1
  26a2d0:	74 05                	je     26a2d7 <__abi_tag-0x1960c5>
  26a2d2:	0b 00                	or     eax,DWORD PTR [rax]
  26a2d4:	02 04 01             	add    al,BYTE PTR [rcx+rax*1]
  26a2d7:	67 05 1a 5c 05 09    	addr32 add eax,0x9055c1a
  26a2dd:	08 f2                	or     dl,dh
  26a2df:	05 11 00 02 04       	add    eax,0x4020011
  26a2e4:	01 4c 05 0f          	add    DWORD PTR [rbp+rax*1+0xf],ecx
  26a2e8:	00 02                	add    BYTE PTR [rdx],al
  26a2ea:	04 01                	add    al,0x1
  26a2ec:	74 05                	je     26a2f3 <__abi_tag-0x1960a9>
  26a2ee:	0b 00                	or     eax,DWORD PTR [rax]
  26a2f0:	02 04 01             	add    al,BYTE PTR [rcx+rax*1]
  26a2f3:	67 05 1a 5c 05 09    	addr32 add eax,0x9055c1a
  26a2f9:	08 f2                	or     dl,dh
  26a2fb:	05 11 00 02 04       	add    eax,0x4020011
  26a300:	01 4c 05 0f          	add    DWORD PTR [rbp+rax*1+0xf],ecx
  26a304:	00 02                	add    BYTE PTR [rdx],al
  26a306:	04 01                	add    al,0x1
  26a308:	74 05                	je     26a30f <__abi_tag-0x19608d>
  26a30a:	0b 00                	or     eax,DWORD PTR [rax]
  26a30c:	02 04 01             	add    al,BYTE PTR [rcx+rax*1]
  26a30f:	67 05 18 5c 05 07    	addr32 add eax,0x7055c18
  26a315:	08 f2                	or     dl,dh
  26a317:	05 1a 85 05 09       	add    eax,0x905851a
  26a31c:	08 f2                	or     dl,dh
  26a31e:	05 11 00 02 04       	add    eax,0x4020011
  26a323:	01 4c 05 0f          	add    DWORD PTR [rbp+rax*1+0xf],ecx
  26a327:	00 02                	add    BYTE PTR [rdx],al
  26a329:	04 01                	add    al,0x1
  26a32b:	74 05                	je     26a332 <__abi_tag-0x19606a>
  26a32d:	0b 00                	or     eax,DWORD PTR [rax]
  26a32f:	02 04 01             	add    al,BYTE PTR [rcx+rax*1]
  26a332:	67 05 1a 5c 05 09    	addr32 add eax,0x9055c1a
  26a338:	08 f2                	or     dl,dh
  26a33a:	05 11 00 02 04       	add    eax,0x4020011
  26a33f:	01 4c 05 0f          	add    DWORD PTR [rbp+rax*1+0xf],ecx
  26a343:	00 02                	add    BYTE PTR [rdx],al
  26a345:	04 01                	add    al,0x1
  26a347:	74 05                	je     26a34e <__abi_tag-0x19604e>
  26a349:	0b 00                	or     eax,DWORD PTR [rax]
  26a34b:	02 04 01             	add    al,BYTE PTR [rcx+rax*1]
  26a34e:	67 05 1a 5c 05 09    	addr32 add eax,0x9055c1a
  26a354:	08 f2                	or     dl,dh
  26a356:	05 11 00 02 04       	add    eax,0x4020011
  26a35b:	01 4c 05 0f          	add    DWORD PTR [rbp+rax*1+0xf],ecx
  26a35f:	00 02                	add    BYTE PTR [rdx],al
  26a361:	04 01                	add    al,0x1
  26a363:	74 05                	je     26a36a <__abi_tag-0x196032>
  26a365:	0b 00                	or     eax,DWORD PTR [rax]
  26a367:	02 04 01             	add    al,BYTE PTR [rcx+rax*1]
  26a36a:	67 05 18 5c 05 07    	addr32 add eax,0x7055c18
  26a370:	08 f2                	or     dl,dh
  26a372:	05 1a 4d 05 09       	add    eax,0x9054d1a
  26a377:	08 f2                	or     dl,dh
  26a379:	05 11 00 02 04       	add    eax,0x4020011
  26a37e:	01 4c 05 0f          	add    DWORD PTR [rbp+rax*1+0xf],ecx
  26a382:	00 02                	add    BYTE PTR [rdx],al
  26a384:	04 01                	add    al,0x1
  26a386:	74 05                	je     26a38d <__abi_tag-0x19600f>
  26a388:	0b 00                	or     eax,DWORD PTR [rax]
  26a38a:	02 04 01             	add    al,BYTE PTR [rcx+rax*1]
  26a38d:	67 05 1a 5c 05 09    	addr32 add eax,0x9055c1a
  26a393:	08 f2                	or     dl,dh
  26a395:	05 11 00 02 04       	add    eax,0x4020011
  26a39a:	01 4c 05 0f          	add    DWORD PTR [rbp+rax*1+0xf],ecx
  26a39e:	00 02                	add    BYTE PTR [rdx],al
  26a3a0:	04 01                	add    al,0x1
  26a3a2:	74 05                	je     26a3a9 <__abi_tag-0x195ff3>
  26a3a4:	0b 00                	or     eax,DWORD PTR [rax]
  26a3a6:	02 04 01             	add    al,BYTE PTR [rcx+rax*1]
  26a3a9:	67 05 18 5c 05 07    	addr32 add eax,0x7055c18
  26a3af:	08 f2                	or     dl,dh
  26a3b1:	05 1a 85 05 09       	add    eax,0x905851a
  26a3b6:	08 f2                	or     dl,dh
  26a3b8:	05 11 00 02 04       	add    eax,0x4020011
  26a3bd:	01 4c 05 0f          	add    DWORD PTR [rbp+rax*1+0xf],ecx
  26a3c1:	00 02                	add    BYTE PTR [rdx],al
  26a3c3:	04 01                	add    al,0x1
  26a3c5:	74 05                	je     26a3cc <__abi_tag-0x195fd0>
  26a3c7:	0b 00                	or     eax,DWORD PTR [rax]
  26a3c9:	02 04 01             	add    al,BYTE PTR [rcx+rax*1]
  26a3cc:	67 05 1a 5c 05 09    	addr32 add eax,0x9055c1a
  26a3d2:	08 f2                	or     dl,dh
  26a3d4:	05 11 00 02 04       	add    eax,0x4020011
  26a3d9:	01 4c 05 0f          	add    DWORD PTR [rbp+rax*1+0xf],ecx
  26a3dd:	00 02                	add    BYTE PTR [rdx],al
  26a3df:	04 01                	add    al,0x1
  26a3e1:	74 05                	je     26a3e8 <__abi_tag-0x195fb4>
  26a3e3:	0b 00                	or     eax,DWORD PTR [rax]
  26a3e5:	02 04 01             	add    al,BYTE PTR [rcx+rax*1]
  26a3e8:	67 05 1a 5c 05 09    	addr32 add eax,0x9055c1a
  26a3ee:	08 f2                	or     dl,dh
  26a3f0:	05 11 00 02 04       	add    eax,0x4020011
  26a3f5:	01 4c 05 0f          	add    DWORD PTR [rbp+rax*1+0xf],ecx
  26a3f9:	00 02                	add    BYTE PTR [rdx],al
  26a3fb:	04 01                	add    al,0x1
  26a3fd:	74 05                	je     26a404 <__abi_tag-0x195f98>
  26a3ff:	0b 00                	or     eax,DWORD PTR [rax]
  26a401:	02 04 01             	add    al,BYTE PTR [rcx+rax*1]
  26a404:	67 05 1a 5c 05 09    	addr32 add eax,0x9055c1a
  26a40a:	08 f2                	or     dl,dh
  26a40c:	05 11 00 02 04       	add    eax,0x4020011
  26a411:	01 4c 05 0f          	add    DWORD PTR [rbp+rax*1+0xf],ecx
  26a415:	00 02                	add    BYTE PTR [rdx],al
  26a417:	04 01                	add    al,0x1
  26a419:	74 05                	je     26a420 <__abi_tag-0x195f7c>
  26a41b:	0b 00                	or     eax,DWORD PTR [rax]
  26a41d:	02 04 01             	add    al,BYTE PTR [rcx+rax*1]
  26a420:	67 05 1a 5c 05 09    	addr32 add eax,0x9055c1a
  26a426:	08 f2                	or     dl,dh
  26a428:	05 11 00 02 04       	add    eax,0x4020011
  26a42d:	01 4c 05 0f          	add    DWORD PTR [rbp+rax*1+0xf],ecx
  26a431:	00 02                	add    BYTE PTR [rdx],al
  26a433:	04 01                	add    al,0x1
  26a435:	74 05                	je     26a43c <__abi_tag-0x195f60>
  26a437:	0b 00                	or     eax,DWORD PTR [rax]
  26a439:	02 04 01             	add    al,BYTE PTR [rcx+rax*1]
  26a43c:	67 05 1a 5c 05 09    	addr32 add eax,0x9055c1a
  26a442:	08 f2                	or     dl,dh
  26a444:	05 11 00 02 04       	add    eax,0x4020011
  26a449:	01 4c 05 0f          	add    DWORD PTR [rbp+rax*1+0xf],ecx
  26a44d:	00 02                	add    BYTE PTR [rdx],al
  26a44f:	04 01                	add    al,0x1
  26a451:	74 05                	je     26a458 <__abi_tag-0x195f44>
  26a453:	0b 00                	or     eax,DWORD PTR [rax]
  26a455:	02 04 01             	add    al,BYTE PTR [rcx+rax*1]
  26a458:	67 05 18 5c 05 07    	addr32 add eax,0x7055c18
  26a45e:	08 f2                	or     dl,dh
  26a460:	05 1a 4d 05 09       	add    eax,0x9054d1a
  26a465:	08 f2                	or     dl,dh
  26a467:	05 11 00 02 04       	add    eax,0x4020011
  26a46c:	01 4c 05 0f          	add    DWORD PTR [rbp+rax*1+0xf],ecx
  26a470:	00 02                	add    BYTE PTR [rdx],al
  26a472:	04 01                	add    al,0x1
  26a474:	74 05                	je     26a47b <__abi_tag-0x195f21>
  26a476:	0b 00                	or     eax,DWORD PTR [rax]
  26a478:	02 04 01             	add    al,BYTE PTR [rcx+rax*1]
  26a47b:	67 05 18 5c 05 07    	addr32 add eax,0x7055c18
  26a481:	08 f2                	or     dl,dh
  26a483:	05 1a 4d 05 09       	add    eax,0x9054d1a
  26a488:	08 f2                	or     dl,dh
  26a48a:	05 11 00 02 04       	add    eax,0x4020011
  26a48f:	01 4c 05 0f          	add    DWORD PTR [rbp+rax*1+0xf],ecx
  26a493:	00 02                	add    BYTE PTR [rdx],al
  26a495:	04 01                	add    al,0x1
  26a497:	74 05                	je     26a49e <__abi_tag-0x195efe>
  26a499:	0b 00                	or     eax,DWORD PTR [rax]
  26a49b:	02 04 01             	add    al,BYTE PTR [rcx+rax*1]
  26a49e:	67 05 18 5c 05 07    	addr32 add eax,0x7055c18
  26a4a4:	08 f2                	or     dl,dh
  26a4a6:	05 1a 85 05 09       	add    eax,0x905851a
  26a4ab:	08 f2                	or     dl,dh
  26a4ad:	05 11 00 02 04       	add    eax,0x4020011
  26a4b2:	01 4c 05 0f          	add    DWORD PTR [rbp+rax*1+0xf],ecx
  26a4b6:	00 02                	add    BYTE PTR [rdx],al
  26a4b8:	04 01                	add    al,0x1
  26a4ba:	74 05                	je     26a4c1 <__abi_tag-0x195edb>
  26a4bc:	0b 00                	or     eax,DWORD PTR [rax]
  26a4be:	02 04 01             	add    al,BYTE PTR [rcx+rax*1]
  26a4c1:	67 05 1a 5c 05 09    	addr32 add eax,0x9055c1a
  26a4c7:	08 f2                	or     dl,dh
  26a4c9:	05 11 00 02 04       	add    eax,0x4020011
  26a4ce:	01 4c 05 0f          	add    DWORD PTR [rbp+rax*1+0xf],ecx
  26a4d2:	00 02                	add    BYTE PTR [rdx],al
  26a4d4:	04 01                	add    al,0x1
  26a4d6:	74 05                	je     26a4dd <__abi_tag-0x195ebf>
  26a4d8:	0b 00                	or     eax,DWORD PTR [rax]
  26a4da:	02 04 01             	add    al,BYTE PTR [rcx+rax*1]
  26a4dd:	67 05 1a 5c 05 09    	addr32 add eax,0x9055c1a
  26a4e3:	08 f2                	or     dl,dh
  26a4e5:	05 11 00 02 04       	add    eax,0x4020011
  26a4ea:	01 4c 05 0f          	add    DWORD PTR [rbp+rax*1+0xf],ecx
  26a4ee:	00 02                	add    BYTE PTR [rdx],al
  26a4f0:	04 01                	add    al,0x1
  26a4f2:	74 05                	je     26a4f9 <__abi_tag-0x195ea3>
  26a4f4:	0b 00                	or     eax,DWORD PTR [rax]
  26a4f6:	02 04 01             	add    al,BYTE PTR [rcx+rax*1]
  26a4f9:	67 05 1a 5c 05 09    	addr32 add eax,0x9055c1a
  26a4ff:	08 f2                	or     dl,dh
  26a501:	05 11 00 02 04       	add    eax,0x4020011
  26a506:	01 4c 05 0f          	add    DWORD PTR [rbp+rax*1+0xf],ecx
  26a50a:	00 02                	add    BYTE PTR [rdx],al
  26a50c:	04 01                	add    al,0x1
  26a50e:	74 05                	je     26a515 <__abi_tag-0x195e87>
  26a510:	0b 00                	or     eax,DWORD PTR [rax]
  26a512:	02 04 01             	add    al,BYTE PTR [rcx+rax*1]
  26a515:	67 05 1a 5c 05 09    	addr32 add eax,0x9055c1a
  26a51b:	08 f2                	or     dl,dh
  26a51d:	05 11 00 02 04       	add    eax,0x4020011
  26a522:	01 4c 05 0f          	add    DWORD PTR [rbp+rax*1+0xf],ecx
  26a526:	00 02                	add    BYTE PTR [rdx],al
  26a528:	04 01                	add    al,0x1
  26a52a:	74 05                	je     26a531 <__abi_tag-0x195e6b>
  26a52c:	0b 00                	or     eax,DWORD PTR [rax]
  26a52e:	02 04 01             	add    al,BYTE PTR [rcx+rax*1]
  26a531:	67 05 1a 5c 05 09    	addr32 add eax,0x9055c1a
  26a537:	08 f2                	or     dl,dh
  26a539:	05 11 00 02 04       	add    eax,0x4020011
  26a53e:	01 4c 05 0f          	add    DWORD PTR [rbp+rax*1+0xf],ecx
  26a542:	00 02                	add    BYTE PTR [rdx],al
  26a544:	04 01                	add    al,0x1
  26a546:	74 05                	je     26a54d <__abi_tag-0x195e4f>
  26a548:	0b 00                	or     eax,DWORD PTR [rax]
  26a54a:	02 04 01             	add    al,BYTE PTR [rcx+rax*1]
  26a54d:	67 05 1a 5c 05 09    	addr32 add eax,0x9055c1a
  26a553:	08 f2                	or     dl,dh
  26a555:	05 11 00 02 04       	add    eax,0x4020011
  26a55a:	01 4c 05 0f          	add    DWORD PTR [rbp+rax*1+0xf],ecx
  26a55e:	00 02                	add    BYTE PTR [rdx],al
  26a560:	04 01                	add    al,0x1
  26a562:	74 05                	je     26a569 <__abi_tag-0x195e33>
  26a564:	0b 00                	or     eax,DWORD PTR [rax]
  26a566:	02 04 01             	add    al,BYTE PTR [rcx+rax*1]
  26a569:	67 05 1a 5c 05 09    	addr32 add eax,0x9055c1a
  26a56f:	08 f2                	or     dl,dh
  26a571:	05 11 00 02 04       	add    eax,0x4020011
  26a576:	01 4c 05 0f          	add    DWORD PTR [rbp+rax*1+0xf],ecx
  26a57a:	00 02                	add    BYTE PTR [rdx],al
  26a57c:	04 01                	add    al,0x1
  26a57e:	74 05                	je     26a585 <__abi_tag-0x195e17>
  26a580:	0b 00                	or     eax,DWORD PTR [rax]
  26a582:	02 04 01             	add    al,BYTE PTR [rcx+rax*1]
  26a585:	67 05 1a 5c 05 09    	addr32 add eax,0x9055c1a
  26a58b:	08 f2                	or     dl,dh
  26a58d:	05 11 00 02 04       	add    eax,0x4020011
  26a592:	01 4c 05 0f          	add    DWORD PTR [rbp+rax*1+0xf],ecx
  26a596:	00 02                	add    BYTE PTR [rdx],al
  26a598:	04 01                	add    al,0x1
  26a59a:	74 05                	je     26a5a1 <__abi_tag-0x195dfb>
  26a59c:	0b 00                	or     eax,DWORD PTR [rax]
  26a59e:	02 04 01             	add    al,BYTE PTR [rcx+rax*1]
  26a5a1:	67 05 1a 5c 05 09    	addr32 add eax,0x9055c1a
  26a5a7:	08 f2                	or     dl,dh
  26a5a9:	05 11 00 02 04       	add    eax,0x4020011
  26a5ae:	01 4c 05 0f          	add    DWORD PTR [rbp+rax*1+0xf],ecx
  26a5b2:	00 02                	add    BYTE PTR [rdx],al
  26a5b4:	04 01                	add    al,0x1
  26a5b6:	74 05                	je     26a5bd <__abi_tag-0x195ddf>
  26a5b8:	0b 00                	or     eax,DWORD PTR [rax]
  26a5ba:	02 04 01             	add    al,BYTE PTR [rcx+rax*1]
  26a5bd:	67 05 1a 5c 05 09    	addr32 add eax,0x9055c1a
  26a5c3:	08 f2                	or     dl,dh
  26a5c5:	05 11 00 02 04       	add    eax,0x4020011
  26a5ca:	01 4c 05 0f          	add    DWORD PTR [rbp+rax*1+0xf],ecx
  26a5ce:	00 02                	add    BYTE PTR [rdx],al
  26a5d0:	04 01                	add    al,0x1
  26a5d2:	74 05                	je     26a5d9 <__abi_tag-0x195dc3>
  26a5d4:	0b 00                	or     eax,DWORD PTR [rax]
  26a5d6:	02 04 01             	add    al,BYTE PTR [rcx+rax*1]
  26a5d9:	67 05 1a 5c 05 09    	addr32 add eax,0x9055c1a
  26a5df:	08 f2                	or     dl,dh
  26a5e1:	05 11 00 02 04       	add    eax,0x4020011
  26a5e6:	01 4c 05 0f          	add    DWORD PTR [rbp+rax*1+0xf],ecx
  26a5ea:	00 02                	add    BYTE PTR [rdx],al
  26a5ec:	04 01                	add    al,0x1
  26a5ee:	74 05                	je     26a5f5 <__abi_tag-0x195da7>
  26a5f0:	0b 00                	or     eax,DWORD PTR [rax]
  26a5f2:	02 04 01             	add    al,BYTE PTR [rcx+rax*1]
  26a5f5:	67 05 1a 5c 05 09    	addr32 add eax,0x9055c1a
  26a5fb:	08 f2                	or     dl,dh
  26a5fd:	05 11 00 02 04       	add    eax,0x4020011
  26a602:	01 4c 05 0f          	add    DWORD PTR [rbp+rax*1+0xf],ecx
  26a606:	00 02                	add    BYTE PTR [rdx],al
  26a608:	04 01                	add    al,0x1
  26a60a:	74 05                	je     26a611 <__abi_tag-0x195d8b>
  26a60c:	0b 00                	or     eax,DWORD PTR [rax]
  26a60e:	02 04 01             	add    al,BYTE PTR [rcx+rax*1]
  26a611:	67 05 1a 5c 05 09    	addr32 add eax,0x9055c1a
  26a617:	08 f2                	or     dl,dh
  26a619:	05 11 00 02 04       	add    eax,0x4020011
  26a61e:	01 4c 05 0f          	add    DWORD PTR [rbp+rax*1+0xf],ecx
  26a622:	00 02                	add    BYTE PTR [rdx],al
  26a624:	04 01                	add    al,0x1
  26a626:	74 05                	je     26a62d <__abi_tag-0x195d6f>
  26a628:	0b 00                	or     eax,DWORD PTR [rax]
  26a62a:	02 04 01             	add    al,BYTE PTR [rcx+rax*1]
  26a62d:	67 05 18 5c 05 07    	addr32 add eax,0x7055c18
  26a633:	08 f2                	or     dl,dh
  26a635:	05 1a 85 05 09       	add    eax,0x905851a
  26a63a:	08 f2                	or     dl,dh
  26a63c:	05 11 00 02 04       	add    eax,0x4020011
  26a641:	01 4c 05 0f          	add    DWORD PTR [rbp+rax*1+0xf],ecx
  26a645:	00 02                	add    BYTE PTR [rdx],al
  26a647:	04 01                	add    al,0x1
  26a649:	74 05                	je     26a650 <__abi_tag-0x195d4c>
  26a64b:	0b 00                	or     eax,DWORD PTR [rax]
  26a64d:	02 04 01             	add    al,BYTE PTR [rcx+rax*1]
  26a650:	67 05 1a 5c 05 09    	addr32 add eax,0x9055c1a
  26a656:	08 f2                	or     dl,dh
  26a658:	05 11 00 02 04       	add    eax,0x4020011
  26a65d:	01 4c 05 0f          	add    DWORD PTR [rbp+rax*1+0xf],ecx
  26a661:	00 02                	add    BYTE PTR [rdx],al
  26a663:	04 01                	add    al,0x1
  26a665:	74 05                	je     26a66c <__abi_tag-0x195d30>
  26a667:	0b 00                	or     eax,DWORD PTR [rax]
  26a669:	02 04 01             	add    al,BYTE PTR [rcx+rax*1]
  26a66c:	67 05 1a 5c 05 09    	addr32 add eax,0x9055c1a
  26a672:	08 f2                	or     dl,dh
  26a674:	05 11 00 02 04       	add    eax,0x4020011
  26a679:	01 4c 05 0f          	add    DWORD PTR [rbp+rax*1+0xf],ecx
  26a67d:	00 02                	add    BYTE PTR [rdx],al
  26a67f:	04 01                	add    al,0x1
  26a681:	74 05                	je     26a688 <__abi_tag-0x195d14>
  26a683:	0b 00                	or     eax,DWORD PTR [rax]
  26a685:	02 04 01             	add    al,BYTE PTR [rcx+rax*1]
  26a688:	67 05 1a 5c 05 09    	addr32 add eax,0x9055c1a
  26a68e:	08 f2                	or     dl,dh
  26a690:	05 11 00 02 04       	add    eax,0x4020011
  26a695:	01 4c 05 0f          	add    DWORD PTR [rbp+rax*1+0xf],ecx
  26a699:	00 02                	add    BYTE PTR [rdx],al
  26a69b:	04 01                	add    al,0x1
  26a69d:	74 05                	je     26a6a4 <__abi_tag-0x195cf8>
  26a69f:	0b 00                	or     eax,DWORD PTR [rax]
  26a6a1:	02 04 01             	add    al,BYTE PTR [rcx+rax*1]
  26a6a4:	67 05 1a 5c 05 09    	addr32 add eax,0x9055c1a
  26a6aa:	08 f2                	or     dl,dh
  26a6ac:	05 11 00 02 04       	add    eax,0x4020011
  26a6b1:	01 4c 05 0f          	add    DWORD PTR [rbp+rax*1+0xf],ecx
  26a6b5:	00 02                	add    BYTE PTR [rdx],al
  26a6b7:	04 01                	add    al,0x1
  26a6b9:	74 05                	je     26a6c0 <__abi_tag-0x195cdc>
  26a6bb:	0b 00                	or     eax,DWORD PTR [rax]
  26a6bd:	02 04 01             	add    al,BYTE PTR [rcx+rax*1]
  26a6c0:	67 05 1a 5c 05 09    	addr32 add eax,0x9055c1a
  26a6c6:	08 f2                	or     dl,dh
  26a6c8:	05 11 00 02 04       	add    eax,0x4020011
  26a6cd:	01 4c 05 0f          	add    DWORD PTR [rbp+rax*1+0xf],ecx
  26a6d1:	00 02                	add    BYTE PTR [rdx],al
  26a6d3:	04 01                	add    al,0x1
  26a6d5:	74 05                	je     26a6dc <__abi_tag-0x195cc0>
  26a6d7:	0b 00                	or     eax,DWORD PTR [rax]
  26a6d9:	02 04 01             	add    al,BYTE PTR [rcx+rax*1]
  26a6dc:	67 05 1a 5c 05 09    	addr32 add eax,0x9055c1a
  26a6e2:	08 f2                	or     dl,dh
  26a6e4:	05 11 00 02 04       	add    eax,0x4020011
  26a6e9:	01 4c 05 0f          	add    DWORD PTR [rbp+rax*1+0xf],ecx
  26a6ed:	00 02                	add    BYTE PTR [rdx],al
  26a6ef:	04 01                	add    al,0x1
  26a6f1:	74 05                	je     26a6f8 <__abi_tag-0x195ca4>
  26a6f3:	0b 00                	or     eax,DWORD PTR [rax]
  26a6f5:	02 04 01             	add    al,BYTE PTR [rcx+rax*1]
  26a6f8:	67 05 1a 5c 05 09    	addr32 add eax,0x9055c1a
  26a6fe:	08 f2                	or     dl,dh
  26a700:	05 11 00 02 04       	add    eax,0x4020011
  26a705:	01 4c 05 0f          	add    DWORD PTR [rbp+rax*1+0xf],ecx
  26a709:	00 02                	add    BYTE PTR [rdx],al
  26a70b:	04 01                	add    al,0x1
  26a70d:	74 05                	je     26a714 <__abi_tag-0x195c88>
  26a70f:	0b 00                	or     eax,DWORD PTR [rax]
  26a711:	02 04 01             	add    al,BYTE PTR [rcx+rax*1]
  26a714:	67 05 1a 5c 05 09    	addr32 add eax,0x9055c1a
  26a71a:	08 f2                	or     dl,dh
  26a71c:	05 11 00 02 04       	add    eax,0x4020011
  26a721:	01 4c 05 0f          	add    DWORD PTR [rbp+rax*1+0xf],ecx
  26a725:	00 02                	add    BYTE PTR [rdx],al
  26a727:	04 01                	add    al,0x1
  26a729:	74 05                	je     26a730 <__abi_tag-0x195c6c>
  26a72b:	0b 00                	or     eax,DWORD PTR [rax]
  26a72d:	02 04 01             	add    al,BYTE PTR [rcx+rax*1]
  26a730:	67 05 1a 5c 05 09    	addr32 add eax,0x9055c1a
  26a736:	08 f2                	or     dl,dh
  26a738:	05 11 00 02 04       	add    eax,0x4020011
  26a73d:	01 4c 05 0f          	add    DWORD PTR [rbp+rax*1+0xf],ecx
  26a741:	00 02                	add    BYTE PTR [rdx],al
  26a743:	04 01                	add    al,0x1
  26a745:	74 05                	je     26a74c <__abi_tag-0x195c50>
  26a747:	0b 00                	or     eax,DWORD PTR [rax]
  26a749:	02 04 01             	add    al,BYTE PTR [rcx+rax*1]
  26a74c:	67 05 1a 5c 05 09    	addr32 add eax,0x9055c1a
  26a752:	08 f2                	or     dl,dh
  26a754:	05 11 00 02 04       	add    eax,0x4020011
  26a759:	01 4c 05 0f          	add    DWORD PTR [rbp+rax*1+0xf],ecx
  26a75d:	00 02                	add    BYTE PTR [rdx],al
  26a75f:	04 01                	add    al,0x1
  26a761:	74 05                	je     26a768 <__abi_tag-0x195c34>
  26a763:	0b 00                	or     eax,DWORD PTR [rax]
  26a765:	02 04 01             	add    al,BYTE PTR [rcx+rax*1]
  26a768:	67 05 1a 5c 05 09    	addr32 add eax,0x9055c1a
  26a76e:	08 f2                	or     dl,dh
  26a770:	05 11 00 02 04       	add    eax,0x4020011
  26a775:	01 4c 05 0f          	add    DWORD PTR [rbp+rax*1+0xf],ecx
  26a779:	00 02                	add    BYTE PTR [rdx],al
  26a77b:	04 01                	add    al,0x1
  26a77d:	74 05                	je     26a784 <__abi_tag-0x195c18>
  26a77f:	0b 00                	or     eax,DWORD PTR [rax]
  26a781:	02 04 01             	add    al,BYTE PTR [rcx+rax*1]
  26a784:	67 05 1a 5c 05 09    	addr32 add eax,0x9055c1a
  26a78a:	08 f2                	or     dl,dh
  26a78c:	05 11 00 02 04       	add    eax,0x4020011
  26a791:	01 4c 05 0f          	add    DWORD PTR [rbp+rax*1+0xf],ecx
  26a795:	00 02                	add    BYTE PTR [rdx],al
  26a797:	04 01                	add    al,0x1
  26a799:	74 05                	je     26a7a0 <__abi_tag-0x195bfc>
  26a79b:	0b 00                	or     eax,DWORD PTR [rax]
  26a79d:	02 04 01             	add    al,BYTE PTR [rcx+rax*1]
  26a7a0:	67 05 1a 5c 05 09    	addr32 add eax,0x9055c1a
  26a7a6:	08 f2                	or     dl,dh
  26a7a8:	05 11 00 02 04       	add    eax,0x4020011
  26a7ad:	01 4c 05 0f          	add    DWORD PTR [rbp+rax*1+0xf],ecx
  26a7b1:	00 02                	add    BYTE PTR [rdx],al
  26a7b3:	04 01                	add    al,0x1
  26a7b5:	74 05                	je     26a7bc <__abi_tag-0x195be0>
  26a7b7:	0b 00                	or     eax,DWORD PTR [rax]
  26a7b9:	02 04 01             	add    al,BYTE PTR [rcx+rax*1]
  26a7bc:	67 05 1a 5c 05 09    	addr32 add eax,0x9055c1a
  26a7c2:	08 f2                	or     dl,dh
  26a7c4:	05 11 00 02 04       	add    eax,0x4020011
  26a7c9:	01 4c 05 0f          	add    DWORD PTR [rbp+rax*1+0xf],ecx
  26a7cd:	00 02                	add    BYTE PTR [rdx],al
  26a7cf:	04 01                	add    al,0x1
  26a7d1:	74 05                	je     26a7d8 <__abi_tag-0x195bc4>
  26a7d3:	0b 00                	or     eax,DWORD PTR [rax]
  26a7d5:	02 04 01             	add    al,BYTE PTR [rcx+rax*1]
  26a7d8:	67 05 1a 5c 05 09    	addr32 add eax,0x9055c1a
  26a7de:	08 f2                	or     dl,dh
  26a7e0:	05 11 00 02 04       	add    eax,0x4020011
  26a7e5:	01 4c 05 0f          	add    DWORD PTR [rbp+rax*1+0xf],ecx
  26a7e9:	00 02                	add    BYTE PTR [rdx],al
  26a7eb:	04 01                	add    al,0x1
  26a7ed:	74 05                	je     26a7f4 <__abi_tag-0x195ba8>
  26a7ef:	0b 00                	or     eax,DWORD PTR [rax]
  26a7f1:	02 04 01             	add    al,BYTE PTR [rcx+rax*1]
  26a7f4:	67 05 1a 5c 05 09    	addr32 add eax,0x9055c1a
  26a7fa:	08 f2                	or     dl,dh
  26a7fc:	05 11 00 02 04       	add    eax,0x4020011
  26a801:	01 4c 05 0f          	add    DWORD PTR [rbp+rax*1+0xf],ecx
  26a805:	00 02                	add    BYTE PTR [rdx],al
  26a807:	04 01                	add    al,0x1
  26a809:	74 05                	je     26a810 <__abi_tag-0x195b8c>
  26a80b:	0b 00                	or     eax,DWORD PTR [rax]
  26a80d:	02 04 01             	add    al,BYTE PTR [rcx+rax*1]
  26a810:	67 05 1a 5c 05 09    	addr32 add eax,0x9055c1a
  26a816:	08 f2                	or     dl,dh
  26a818:	05 11 00 02 04       	add    eax,0x4020011
  26a81d:	01 4c 05 0f          	add    DWORD PTR [rbp+rax*1+0xf],ecx
  26a821:	00 02                	add    BYTE PTR [rdx],al
  26a823:	04 01                	add    al,0x1
  26a825:	74 05                	je     26a82c <__abi_tag-0x195b70>
  26a827:	0b 00                	or     eax,DWORD PTR [rax]
  26a829:	02 04 01             	add    al,BYTE PTR [rcx+rax*1]
  26a82c:	67 05 1a 5c 05 09    	addr32 add eax,0x9055c1a
  26a832:	08 f2                	or     dl,dh
  26a834:	05 11 00 02 04       	add    eax,0x4020011
  26a839:	01 4c 05 0f          	add    DWORD PTR [rbp+rax*1+0xf],ecx
  26a83d:	00 02                	add    BYTE PTR [rdx],al
  26a83f:	04 01                	add    al,0x1
  26a841:	74 05                	je     26a848 <__abi_tag-0x195b54>
  26a843:	0b 00                	or     eax,DWORD PTR [rax]
  26a845:	02 04 01             	add    al,BYTE PTR [rcx+rax*1]
  26a848:	67 05 1a 5c 05 09    	addr32 add eax,0x9055c1a
  26a84e:	08 f2                	or     dl,dh
  26a850:	05 11 00 02 04       	add    eax,0x4020011
  26a855:	01 4c 05 0f          	add    DWORD PTR [rbp+rax*1+0xf],ecx
  26a859:	00 02                	add    BYTE PTR [rdx],al
  26a85b:	04 01                	add    al,0x1
  26a85d:	74 05                	je     26a864 <__abi_tag-0x195b38>
  26a85f:	0b 00                	or     eax,DWORD PTR [rax]
  26a861:	02 04 01             	add    al,BYTE PTR [rcx+rax*1]
  26a864:	67 05 1a 5c 05 09    	addr32 add eax,0x9055c1a
  26a86a:	08 f2                	or     dl,dh
  26a86c:	05 11 00 02 04       	add    eax,0x4020011
  26a871:	01 4c 05 0f          	add    DWORD PTR [rbp+rax*1+0xf],ecx
  26a875:	00 02                	add    BYTE PTR [rdx],al
  26a877:	04 01                	add    al,0x1
  26a879:	74 05                	je     26a880 <__abi_tag-0x195b1c>
  26a87b:	0b 00                	or     eax,DWORD PTR [rax]
  26a87d:	02 04 01             	add    al,BYTE PTR [rcx+rax*1]
  26a880:	67 05 1a 5c 05 09    	addr32 add eax,0x9055c1a
  26a886:	08 f2                	or     dl,dh
  26a888:	05 11 00 02 04       	add    eax,0x4020011
  26a88d:	01 4c 05 0f          	add    DWORD PTR [rbp+rax*1+0xf],ecx
  26a891:	00 02                	add    BYTE PTR [rdx],al
  26a893:	04 01                	add    al,0x1
  26a895:	74 05                	je     26a89c <__abi_tag-0x195b00>
  26a897:	0b 00                	or     eax,DWORD PTR [rax]
  26a899:	02 04 01             	add    al,BYTE PTR [rcx+rax*1]
  26a89c:	67 05 1a 5c 05 09    	addr32 add eax,0x9055c1a
  26a8a2:	08 f2                	or     dl,dh
  26a8a4:	05 11 00 02 04       	add    eax,0x4020011
  26a8a9:	01 4c 05 0f          	add    DWORD PTR [rbp+rax*1+0xf],ecx
  26a8ad:	00 02                	add    BYTE PTR [rdx],al
  26a8af:	04 01                	add    al,0x1
  26a8b1:	74 05                	je     26a8b8 <__abi_tag-0x195ae4>
  26a8b3:	0b 00                	or     eax,DWORD PTR [rax]
  26a8b5:	02 04 01             	add    al,BYTE PTR [rcx+rax*1]
  26a8b8:	67 05 1a 5c 05 09    	addr32 add eax,0x9055c1a
  26a8be:	08 f2                	or     dl,dh
  26a8c0:	05 11 00 02 04       	add    eax,0x4020011
  26a8c5:	01 4c 05 0f          	add    DWORD PTR [rbp+rax*1+0xf],ecx
  26a8c9:	00 02                	add    BYTE PTR [rdx],al
  26a8cb:	04 01                	add    al,0x1
  26a8cd:	74 05                	je     26a8d4 <__abi_tag-0x195ac8>
  26a8cf:	0b 00                	or     eax,DWORD PTR [rax]
  26a8d1:	02 04 01             	add    al,BYTE PTR [rcx+rax*1]
  26a8d4:	67 05 1a 5c 05 09    	addr32 add eax,0x9055c1a
  26a8da:	08 f2                	or     dl,dh
  26a8dc:	05 11 00 02 04       	add    eax,0x4020011
  26a8e1:	01 4c 05 0f          	add    DWORD PTR [rbp+rax*1+0xf],ecx
  26a8e5:	00 02                	add    BYTE PTR [rdx],al
  26a8e7:	04 01                	add    al,0x1
  26a8e9:	74 05                	je     26a8f0 <__abi_tag-0x195aac>
  26a8eb:	0b 00                	or     eax,DWORD PTR [rax]
  26a8ed:	02 04 01             	add    al,BYTE PTR [rcx+rax*1]
  26a8f0:	67 05 1a 5c 05 09    	addr32 add eax,0x9055c1a
  26a8f6:	08 f2                	or     dl,dh
  26a8f8:	05 11 00 02 04       	add    eax,0x4020011
  26a8fd:	01 4c 05 0f          	add    DWORD PTR [rbp+rax*1+0xf],ecx
  26a901:	00 02                	add    BYTE PTR [rdx],al
  26a903:	04 01                	add    al,0x1
  26a905:	74 05                	je     26a90c <__abi_tag-0x195a90>
  26a907:	0b 00                	or     eax,DWORD PTR [rax]
  26a909:	02 04 01             	add    al,BYTE PTR [rcx+rax*1]
  26a90c:	67 05 1a 5c 05 09    	addr32 add eax,0x9055c1a
  26a912:	08 f2                	or     dl,dh
  26a914:	05 11 00 02 04       	add    eax,0x4020011
  26a919:	01 4c 05 0f          	add    DWORD PTR [rbp+rax*1+0xf],ecx
  26a91d:	00 02                	add    BYTE PTR [rdx],al
  26a91f:	04 01                	add    al,0x1
  26a921:	74 05                	je     26a928 <__abi_tag-0x195a74>
  26a923:	0b 00                	or     eax,DWORD PTR [rax]
  26a925:	02 04 01             	add    al,BYTE PTR [rcx+rax*1]
  26a928:	67 05 1a 5c 05 09    	addr32 add eax,0x9055c1a
  26a92e:	08 f2                	or     dl,dh
  26a930:	05 11 00 02 04       	add    eax,0x4020011
  26a935:	01 4c 05 0f          	add    DWORD PTR [rbp+rax*1+0xf],ecx
  26a939:	00 02                	add    BYTE PTR [rdx],al
  26a93b:	04 01                	add    al,0x1
  26a93d:	74 05                	je     26a944 <__abi_tag-0x195a58>
  26a93f:	0b 00                	or     eax,DWORD PTR [rax]
  26a941:	02 04 01             	add    al,BYTE PTR [rcx+rax*1]
  26a944:	67 05 1a 5c 05 09    	addr32 add eax,0x9055c1a
  26a94a:	08 f2                	or     dl,dh
  26a94c:	05 11 00 02 04       	add    eax,0x4020011
  26a951:	01 4c 05 0f          	add    DWORD PTR [rbp+rax*1+0xf],ecx
  26a955:	00 02                	add    BYTE PTR [rdx],al
  26a957:	04 01                	add    al,0x1
  26a959:	74 05                	je     26a960 <__abi_tag-0x195a3c>
  26a95b:	0b 00                	or     eax,DWORD PTR [rax]
  26a95d:	02 04 01             	add    al,BYTE PTR [rcx+rax*1]
  26a960:	67 05 1a 5c 05 09    	addr32 add eax,0x9055c1a
  26a966:	08 f2                	or     dl,dh
  26a968:	05 11 00 02 04       	add    eax,0x4020011
  26a96d:	01 4c 05 0f          	add    DWORD PTR [rbp+rax*1+0xf],ecx
  26a971:	00 02                	add    BYTE PTR [rdx],al
  26a973:	04 01                	add    al,0x1
  26a975:	74 05                	je     26a97c <__abi_tag-0x195a20>
  26a977:	0b 00                	or     eax,DWORD PTR [rax]
  26a979:	02 04 01             	add    al,BYTE PTR [rcx+rax*1]
  26a97c:	67 05 1a 5c 05 09    	addr32 add eax,0x9055c1a
  26a982:	08 f2                	or     dl,dh
  26a984:	05 11 00 02 04       	add    eax,0x4020011
  26a989:	01 4c 05 0f          	add    DWORD PTR [rbp+rax*1+0xf],ecx
  26a98d:	00 02                	add    BYTE PTR [rdx],al
  26a98f:	04 01                	add    al,0x1
  26a991:	74 05                	je     26a998 <__abi_tag-0x195a04>
  26a993:	0b 00                	or     eax,DWORD PTR [rax]
  26a995:	02 04 01             	add    al,BYTE PTR [rcx+rax*1]
  26a998:	67 05 1a 5c 05 09    	addr32 add eax,0x9055c1a
  26a99e:	08 f2                	or     dl,dh
  26a9a0:	05 11 00 02 04       	add    eax,0x4020011
  26a9a5:	01 4c 05 0f          	add    DWORD PTR [rbp+rax*1+0xf],ecx
  26a9a9:	00 02                	add    BYTE PTR [rdx],al
  26a9ab:	04 01                	add    al,0x1
  26a9ad:	74 05                	je     26a9b4 <__abi_tag-0x1959e8>
  26a9af:	0b 00                	or     eax,DWORD PTR [rax]
  26a9b1:	02 04 01             	add    al,BYTE PTR [rcx+rax*1]
  26a9b4:	67 05 18 5c 05 07    	addr32 add eax,0x7055c18
  26a9ba:	08 f2                	or     dl,dh
  26a9bc:	05 1a 85 05 09       	add    eax,0x905851a
  26a9c1:	08 f2                	or     dl,dh
  26a9c3:	05 11 00 02 04       	add    eax,0x4020011
  26a9c8:	01 4c 05 0f          	add    DWORD PTR [rbp+rax*1+0xf],ecx
  26a9cc:	00 02                	add    BYTE PTR [rdx],al
  26a9ce:	04 01                	add    al,0x1
  26a9d0:	74 05                	je     26a9d7 <__abi_tag-0x1959c5>
  26a9d2:	0b 00                	or     eax,DWORD PTR [rax]
  26a9d4:	02 04 01             	add    al,BYTE PTR [rcx+rax*1]
  26a9d7:	67 05 1a 5c 05 09    	addr32 add eax,0x9055c1a
  26a9dd:	08 f2                	or     dl,dh
  26a9df:	05 11 00 02 04       	add    eax,0x4020011
  26a9e4:	01 4c 05 0f          	add    DWORD PTR [rbp+rax*1+0xf],ecx
  26a9e8:	00 02                	add    BYTE PTR [rdx],al
  26a9ea:	04 01                	add    al,0x1
  26a9ec:	74 05                	je     26a9f3 <__abi_tag-0x1959a9>
  26a9ee:	0b 00                	or     eax,DWORD PTR [rax]
  26a9f0:	02 04 01             	add    al,BYTE PTR [rcx+rax*1]
  26a9f3:	67 05 1a 5c 05 09    	addr32 add eax,0x9055c1a
  26a9f9:	08 f2                	or     dl,dh
  26a9fb:	05 11 00 02 04       	add    eax,0x4020011
  26aa00:	01 4c 05 0f          	add    DWORD PTR [rbp+rax*1+0xf],ecx
  26aa04:	00 02                	add    BYTE PTR [rdx],al
  26aa06:	04 01                	add    al,0x1
  26aa08:	74 05                	je     26aa0f <__abi_tag-0x19598d>
  26aa0a:	0b 00                	or     eax,DWORD PTR [rax]
  26aa0c:	02 04 01             	add    al,BYTE PTR [rcx+rax*1]
  26aa0f:	67 05 18 5c 05 07    	addr32 add eax,0x7055c18
  26aa15:	08 f2                	or     dl,dh
  26aa17:	05 1a 4d 05 09       	add    eax,0x9054d1a
  26aa1c:	08 f2                	or     dl,dh
  26aa1e:	05 11 00 02 04       	add    eax,0x4020011
  26aa23:	01 4c 05 0f          	add    DWORD PTR [rbp+rax*1+0xf],ecx
  26aa27:	00 02                	add    BYTE PTR [rdx],al
  26aa29:	04 01                	add    al,0x1
  26aa2b:	74 05                	je     26aa32 <__abi_tag-0x19596a>
  26aa2d:	0b 00                	or     eax,DWORD PTR [rax]
  26aa2f:	02 04 01             	add    al,BYTE PTR [rcx+rax*1]
  26aa32:	67 05 18 5c 05 07    	addr32 add eax,0x7055c18
  26aa38:	08 f2                	or     dl,dh
  26aa3a:	05 1a 85 05 09       	add    eax,0x905851a
  26aa3f:	08 f2                	or     dl,dh
  26aa41:	05 11 00 02 04       	add    eax,0x4020011
  26aa46:	01 4c 05 0f          	add    DWORD PTR [rbp+rax*1+0xf],ecx
  26aa4a:	00 02                	add    BYTE PTR [rdx],al
  26aa4c:	04 01                	add    al,0x1
  26aa4e:	74 05                	je     26aa55 <__abi_tag-0x195947>
  26aa50:	0b 00                	or     eax,DWORD PTR [rax]
  26aa52:	02 04 01             	add    al,BYTE PTR [rcx+rax*1]
  26aa55:	67 05 1a 5c 05 09    	addr32 add eax,0x9055c1a
  26aa5b:	08 f2                	or     dl,dh
  26aa5d:	05 11 00 02 04       	add    eax,0x4020011
  26aa62:	01 4c 05 0f          	add    DWORD PTR [rbp+rax*1+0xf],ecx
  26aa66:	00 02                	add    BYTE PTR [rdx],al
  26aa68:	04 01                	add    al,0x1
  26aa6a:	74 05                	je     26aa71 <__abi_tag-0x19592b>
  26aa6c:	0b 00                	or     eax,DWORD PTR [rax]
  26aa6e:	02 04 01             	add    al,BYTE PTR [rcx+rax*1]
  26aa71:	67 05 1a 5c 05 09    	addr32 add eax,0x9055c1a
  26aa77:	08 f2                	or     dl,dh
  26aa79:	05 11 00 02 04       	add    eax,0x4020011
  26aa7e:	01 4c 05 0f          	add    DWORD PTR [rbp+rax*1+0xf],ecx
  26aa82:	00 02                	add    BYTE PTR [rdx],al
  26aa84:	04 01                	add    al,0x1
  26aa86:	74 05                	je     26aa8d <__abi_tag-0x19590f>
  26aa88:	0b 00                	or     eax,DWORD PTR [rax]
  26aa8a:	02 04 01             	add    al,BYTE PTR [rcx+rax*1]
  26aa8d:	67 05 1a 5c 05 09    	addr32 add eax,0x9055c1a
  26aa93:	08 f2                	or     dl,dh
  26aa95:	05 11 00 02 04       	add    eax,0x4020011
  26aa9a:	01 4c 05 0f          	add    DWORD PTR [rbp+rax*1+0xf],ecx
  26aa9e:	00 02                	add    BYTE PTR [rdx],al
  26aaa0:	04 01                	add    al,0x1
  26aaa2:	74 05                	je     26aaa9 <__abi_tag-0x1958f3>
  26aaa4:	0b 00                	or     eax,DWORD PTR [rax]
  26aaa6:	02 04 01             	add    al,BYTE PTR [rcx+rax*1]
  26aaa9:	67 05 1a 5c 05 09    	addr32 add eax,0x9055c1a
  26aaaf:	08 f2                	or     dl,dh
  26aab1:	05 11 00 02 04       	add    eax,0x4020011
  26aab6:	01 4c 05 0f          	add    DWORD PTR [rbp+rax*1+0xf],ecx
  26aaba:	00 02                	add    BYTE PTR [rdx],al
  26aabc:	04 01                	add    al,0x1
  26aabe:	74 05                	je     26aac5 <__abi_tag-0x1958d7>
  26aac0:	0b 00                	or     eax,DWORD PTR [rax]
  26aac2:	02 04 01             	add    al,BYTE PTR [rcx+rax*1]
  26aac5:	67 05 1a 5c 05 09    	addr32 add eax,0x9055c1a
  26aacb:	08 f2                	or     dl,dh
  26aacd:	05 11 00 02 04       	add    eax,0x4020011
  26aad2:	01 4c 05 0f          	add    DWORD PTR [rbp+rax*1+0xf],ecx
  26aad6:	00 02                	add    BYTE PTR [rdx],al
  26aad8:	04 01                	add    al,0x1
  26aada:	74 05                	je     26aae1 <__abi_tag-0x1958bb>
  26aadc:	0b 00                	or     eax,DWORD PTR [rax]
  26aade:	02 04 01             	add    al,BYTE PTR [rcx+rax*1]
  26aae1:	67 05 1a 5c 05 09    	addr32 add eax,0x9055c1a
  26aae7:	08 f2                	or     dl,dh
  26aae9:	05 11 00 02 04       	add    eax,0x4020011
  26aaee:	01 4c 05 0f          	add    DWORD PTR [rbp+rax*1+0xf],ecx
  26aaf2:	00 02                	add    BYTE PTR [rdx],al
  26aaf4:	04 01                	add    al,0x1
  26aaf6:	74 05                	je     26aafd <__abi_tag-0x19589f>
  26aaf8:	0b 00                	or     eax,DWORD PTR [rax]
  26aafa:	02 04 01             	add    al,BYTE PTR [rcx+rax*1]
  26aafd:	67 05 18 5c 05 07    	addr32 add eax,0x7055c18
  26ab03:	08 f2                	or     dl,dh
  26ab05:	05 1a 85 05 09       	add    eax,0x905851a
  26ab0a:	08 f2                	or     dl,dh
  26ab0c:	05 11 00 02 04       	add    eax,0x4020011
  26ab11:	01 4c 05 0f          	add    DWORD PTR [rbp+rax*1+0xf],ecx
  26ab15:	00 02                	add    BYTE PTR [rdx],al
  26ab17:	04 01                	add    al,0x1
  26ab19:	74 05                	je     26ab20 <__abi_tag-0x19587c>
  26ab1b:	0b 00                	or     eax,DWORD PTR [rax]
  26ab1d:	02 04 01             	add    al,BYTE PTR [rcx+rax*1]
  26ab20:	67 05 1a 32 05 09    	addr32 add eax,0x905321a
  26ab26:	08 f2                	or     dl,dh
  26ab28:	05 11 00 02 04       	add    eax,0x4020011
  26ab2d:	01 4c 05 0f          	add    DWORD PTR [rbp+rax*1+0xf],ecx
  26ab31:	00 02                	add    BYTE PTR [rdx],al
  26ab33:	04 01                	add    al,0x1
  26ab35:	74 05                	je     26ab3c <__abi_tag-0x195860>
  26ab37:	0b 00                	or     eax,DWORD PTR [rax]
  26ab39:	02 04 01             	add    al,BYTE PTR [rcx+rax*1]
  26ab3c:	67 05 1a 32 05 09    	addr32 add eax,0x905321a
  26ab42:	08 f2                	or     dl,dh
  26ab44:	05 11 00 02 04       	add    eax,0x4020011
  26ab49:	01 4c 05 0f          	add    DWORD PTR [rbp+rax*1+0xf],ecx
  26ab4d:	00 02                	add    BYTE PTR [rdx],al
  26ab4f:	04 01                	add    al,0x1
  26ab51:	74 05                	je     26ab58 <__abi_tag-0x195844>
  26ab53:	0b 00                	or     eax,DWORD PTR [rax]
  26ab55:	02 04 01             	add    al,BYTE PTR [rcx+rax*1]
  26ab58:	67 05 10 33 05 09    	addr32 add eax,0x9053310
  26ab5e:	82                   	(bad)  
  26ab5f:	05 0e 03 8d 63       	add    eax,0x638d030e
  26ab64:	3c 05                	cmp    al,0x5
  26ab66:	15 00 02 04 01       	adc    eax,0x1040200
  26ab6b:	66 05 0e 00          	add    ax,0xe
  26ab6f:	02 04 01             	add    al,BYTE PTR [rcx+rax*1]
  26ab72:	3c 05                	cmp    al,0x5
  26ab74:	0a 03                	or     al,BYTE PTR [rbx]
  26ab76:	f5                   	cmc    
  26ab77:	1c 82                	sbb    al,0x82
  26ab79:	05 01 4b 03 a5       	add    eax,0xa5034b01
  26ab7e:	03 08                	add    ecx,DWORD PTR [rax]
  26ab80:	58                   	pop    rax
  26ab81:	ba 05 0c e5 05       	mov    edx,0x5e50c05
  26ab86:	1b 83 05 1f ba 05    	sbb    eax,DWORD PTR [rbx+0x5ba1f05]
  26ab8c:	0d 3d 05 03 4b       	or     eax,0x4b03053d
  26ab91:	05 15 5a 05 05       	add    eax,0x5055a15
  26ab96:	08 f2                	or     dl,dh
  26ab98:	05 18 84 05 07       	add    eax,0x7058418
  26ab9d:	08 f2                	or     dl,dh
  26ab9f:	05 1a 85 05 09       	add    eax,0x905851a
  26aba4:	08 f2                	or     dl,dh
  26aba6:	05 11 00 02 04       	add    eax,0x4020011
  26abab:	01 4c 05 0f          	add    DWORD PTR [rbp+rax*1+0xf],ecx
  26abaf:	00 02                	add    BYTE PTR [rdx],al
  26abb1:	04 01                	add    al,0x1
  26abb3:	74 05                	je     26abba <__abi_tag-0x1957e2>
  26abb5:	0b 00                	or     eax,DWORD PTR [rax]
  26abb7:	02 04 01             	add    al,BYTE PTR [rcx+rax*1]
  26abba:	67 05 1a 5c 05 09    	addr32 add eax,0x9055c1a
  26abc0:	08 f2                	or     dl,dh
  26abc2:	05 11 00 02 04       	add    eax,0x4020011
  26abc7:	01 4c 05 0f          	add    DWORD PTR [rbp+rax*1+0xf],ecx
  26abcb:	00 02                	add    BYTE PTR [rdx],al
  26abcd:	04 01                	add    al,0x1
  26abcf:	74 05                	je     26abd6 <__abi_tag-0x1957c6>
  26abd1:	0b 00                	or     eax,DWORD PTR [rax]
  26abd3:	02 04 01             	add    al,BYTE PTR [rcx+rax*1]
  26abd6:	67 05 1a 5c 05 09    	addr32 add eax,0x9055c1a
  26abdc:	08 f2                	or     dl,dh
  26abde:	05 11 00 02 04       	add    eax,0x4020011
  26abe3:	01 4c 05 0f          	add    DWORD PTR [rbp+rax*1+0xf],ecx
  26abe7:	00 02                	add    BYTE PTR [rdx],al
  26abe9:	04 01                	add    al,0x1
  26abeb:	74 05                	je     26abf2 <__abi_tag-0x1957aa>
  26abed:	0b 00                	or     eax,DWORD PTR [rax]
  26abef:	02 04 01             	add    al,BYTE PTR [rcx+rax*1]
  26abf2:	67 05 18 5c 05 07    	addr32 add eax,0x7055c18
  26abf8:	08 f2                	or     dl,dh
  26abfa:	05 1a 4d 05 09       	add    eax,0x9054d1a
  26abff:	08 f2                	or     dl,dh
  26ac01:	05 11 00 02 04       	add    eax,0x4020011
  26ac06:	01 4c 05 0f          	add    DWORD PTR [rbp+rax*1+0xf],ecx
  26ac0a:	00 02                	add    BYTE PTR [rdx],al
  26ac0c:	04 01                	add    al,0x1
  26ac0e:	74 05                	je     26ac15 <__abi_tag-0x195787>
  26ac10:	0b 00                	or     eax,DWORD PTR [rax]
  26ac12:	02 04 01             	add    al,BYTE PTR [rcx+rax*1]
  26ac15:	67 05 18 5c 05 07    	addr32 add eax,0x7055c18
  26ac1b:	08 f2                	or     dl,dh
  26ac1d:	05 1a 4d 05 09       	add    eax,0x9054d1a
  26ac22:	08 f2                	or     dl,dh
  26ac24:	05 11 00 02 04       	add    eax,0x4020011
  26ac29:	01 4c 05 0f          	add    DWORD PTR [rbp+rax*1+0xf],ecx
  26ac2d:	00 02                	add    BYTE PTR [rdx],al
  26ac2f:	04 01                	add    al,0x1
  26ac31:	74 05                	je     26ac38 <__abi_tag-0x195764>
  26ac33:	0b 00                	or     eax,DWORD PTR [rax]
  26ac35:	02 04 01             	add    al,BYTE PTR [rcx+rax*1]
  26ac38:	67 05 18 5c 05 07    	addr32 add eax,0x7055c18
  26ac3e:	08 f2                	or     dl,dh
  26ac40:	05 1a 85 05 09       	add    eax,0x905851a
  26ac45:	08 f2                	or     dl,dh
  26ac47:	05 11 00 02 04       	add    eax,0x4020011
  26ac4c:	01 4c 05 0f          	add    DWORD PTR [rbp+rax*1+0xf],ecx
  26ac50:	00 02                	add    BYTE PTR [rdx],al
  26ac52:	04 01                	add    al,0x1
  26ac54:	74 05                	je     26ac5b <__abi_tag-0x195741>
  26ac56:	0b 00                	or     eax,DWORD PTR [rax]
  26ac58:	02 04 01             	add    al,BYTE PTR [rcx+rax*1]
  26ac5b:	67 05 1a 5c 05 09    	addr32 add eax,0x9055c1a
  26ac61:	08 f2                	or     dl,dh
  26ac63:	05 11 00 02 04       	add    eax,0x4020011
  26ac68:	01 4c 05 0f          	add    DWORD PTR [rbp+rax*1+0xf],ecx
  26ac6c:	00 02                	add    BYTE PTR [rdx],al
  26ac6e:	04 01                	add    al,0x1
  26ac70:	74 05                	je     26ac77 <__abi_tag-0x195725>
  26ac72:	0b 00                	or     eax,DWORD PTR [rax]
  26ac74:	02 04 01             	add    al,BYTE PTR [rcx+rax*1]
  26ac77:	67 05 1a 5c 05 09    	addr32 add eax,0x9055c1a
  26ac7d:	08 f2                	or     dl,dh
  26ac7f:	05 11 00 02 04       	add    eax,0x4020011
  26ac84:	01 4c 05 0f          	add    DWORD PTR [rbp+rax*1+0xf],ecx
  26ac88:	00 02                	add    BYTE PTR [rdx],al
  26ac8a:	04 01                	add    al,0x1
  26ac8c:	74 05                	je     26ac93 <__abi_tag-0x195709>
  26ac8e:	0b 00                	or     eax,DWORD PTR [rax]
  26ac90:	02 04 01             	add    al,BYTE PTR [rcx+rax*1]
  26ac93:	67 05 1a 5c 05 09    	addr32 add eax,0x9055c1a
  26ac99:	08 f2                	or     dl,dh
  26ac9b:	05 11 00 02 04       	add    eax,0x4020011
  26aca0:	01 4c 05 0f          	add    DWORD PTR [rbp+rax*1+0xf],ecx
  26aca4:	00 02                	add    BYTE PTR [rdx],al
  26aca6:	04 01                	add    al,0x1
  26aca8:	74 05                	je     26acaf <__abi_tag-0x1956ed>
  26acaa:	0b 00                	or     eax,DWORD PTR [rax]
  26acac:	02 04 01             	add    al,BYTE PTR [rcx+rax*1]
  26acaf:	67 05 1a 5c 05 09    	addr32 add eax,0x9055c1a
  26acb5:	08 f2                	or     dl,dh
  26acb7:	05 11 00 02 04       	add    eax,0x4020011
  26acbc:	01 4c 05 0f          	add    DWORD PTR [rbp+rax*1+0xf],ecx
  26acc0:	00 02                	add    BYTE PTR [rdx],al
  26acc2:	04 01                	add    al,0x1
  26acc4:	74 05                	je     26accb <__abi_tag-0x1956d1>
  26acc6:	0b 00                	or     eax,DWORD PTR [rax]
  26acc8:	02 04 01             	add    al,BYTE PTR [rcx+rax*1]
  26accb:	67 05 1a 5c 05 09    	addr32 add eax,0x9055c1a
  26acd1:	08 f2                	or     dl,dh
  26acd3:	05 11 00 02 04       	add    eax,0x4020011
  26acd8:	01 4c 05 0f          	add    DWORD PTR [rbp+rax*1+0xf],ecx
  26acdc:	00 02                	add    BYTE PTR [rdx],al
  26acde:	04 01                	add    al,0x1
  26ace0:	74 05                	je     26ace7 <__abi_tag-0x1956b5>
  26ace2:	0b 00                	or     eax,DWORD PTR [rax]
  26ace4:	02 04 01             	add    al,BYTE PTR [rcx+rax*1]
  26ace7:	67 05 1a 5c 05 09    	addr32 add eax,0x9055c1a
  26aced:	08 f2                	or     dl,dh
  26acef:	05 11 00 02 04       	add    eax,0x4020011
  26acf4:	01 4c 05 0f          	add    DWORD PTR [rbp+rax*1+0xf],ecx
  26acf8:	00 02                	add    BYTE PTR [rdx],al
  26acfa:	04 01                	add    al,0x1
  26acfc:	74 05                	je     26ad03 <__abi_tag-0x195699>
  26acfe:	0b 00                	or     eax,DWORD PTR [rax]
  26ad00:	02 04 01             	add    al,BYTE PTR [rcx+rax*1]
  26ad03:	67 05 1a 5c 05 09    	addr32 add eax,0x9055c1a
  26ad09:	08 f2                	or     dl,dh
  26ad0b:	05 11 00 02 04       	add    eax,0x4020011
  26ad10:	01 4c 05 0f          	add    DWORD PTR [rbp+rax*1+0xf],ecx
  26ad14:	00 02                	add    BYTE PTR [rdx],al
  26ad16:	04 01                	add    al,0x1
  26ad18:	74 05                	je     26ad1f <__abi_tag-0x19567d>
  26ad1a:	0b 00                	or     eax,DWORD PTR [rax]
  26ad1c:	02 04 01             	add    al,BYTE PTR [rcx+rax*1]
  26ad1f:	67 05 1a 5c 05 09    	addr32 add eax,0x9055c1a
  26ad25:	08 f2                	or     dl,dh
  26ad27:	05 11 00 02 04       	add    eax,0x4020011
  26ad2c:	01 4c 05 0f          	add    DWORD PTR [rbp+rax*1+0xf],ecx
  26ad30:	00 02                	add    BYTE PTR [rdx],al
  26ad32:	04 01                	add    al,0x1
  26ad34:	74 05                	je     26ad3b <__abi_tag-0x195661>
  26ad36:	0b 00                	or     eax,DWORD PTR [rax]
  26ad38:	02 04 01             	add    al,BYTE PTR [rcx+rax*1]
  26ad3b:	67 05 1a 5c 05 09    	addr32 add eax,0x9055c1a
  26ad41:	08 f2                	or     dl,dh
  26ad43:	05 11 00 02 04       	add    eax,0x4020011
  26ad48:	01 4c 05 0f          	add    DWORD PTR [rbp+rax*1+0xf],ecx
  26ad4c:	00 02                	add    BYTE PTR [rdx],al
  26ad4e:	04 01                	add    al,0x1
  26ad50:	74 05                	je     26ad57 <__abi_tag-0x195645>
  26ad52:	0b 00                	or     eax,DWORD PTR [rax]
  26ad54:	02 04 01             	add    al,BYTE PTR [rcx+rax*1]
  26ad57:	67 05 18 5c 05 07    	addr32 add eax,0x7055c18
  26ad5d:	08 f2                	or     dl,dh
  26ad5f:	05 1a 4d 05 09       	add    eax,0x9054d1a
  26ad64:	08 f2                	or     dl,dh
  26ad66:	05 11 00 02 04       	add    eax,0x4020011
  26ad6b:	01 4c 05 0f          	add    DWORD PTR [rbp+rax*1+0xf],ecx
  26ad6f:	00 02                	add    BYTE PTR [rdx],al
  26ad71:	04 01                	add    al,0x1
  26ad73:	74 05                	je     26ad7a <__abi_tag-0x195622>
  26ad75:	0b 00                	or     eax,DWORD PTR [rax]
  26ad77:	02 04 01             	add    al,BYTE PTR [rcx+rax*1]
  26ad7a:	67 05 1a 5c 05 09    	addr32 add eax,0x9055c1a
  26ad80:	08 f2                	or     dl,dh
  26ad82:	05 11 00 02 04       	add    eax,0x4020011
  26ad87:	01 4c 05 0f          	add    DWORD PTR [rbp+rax*1+0xf],ecx
  26ad8b:	00 02                	add    BYTE PTR [rdx],al
  26ad8d:	04 01                	add    al,0x1
  26ad8f:	74 05                	je     26ad96 <__abi_tag-0x195606>
  26ad91:	0b 00                	or     eax,DWORD PTR [rax]
  26ad93:	02 04 01             	add    al,BYTE PTR [rcx+rax*1]
  26ad96:	67 05 18 5c 05 07    	addr32 add eax,0x7055c18
  26ad9c:	08 f2                	or     dl,dh
  26ad9e:	05 1a 85 05 09       	add    eax,0x905851a
  26ada3:	08 f2                	or     dl,dh
  26ada5:	05 11 00 02 04       	add    eax,0x4020011
  26adaa:	01 4c 05 0f          	add    DWORD PTR [rbp+rax*1+0xf],ecx
  26adae:	00 02                	add    BYTE PTR [rdx],al
  26adb0:	04 01                	add    al,0x1
  26adb2:	74 05                	je     26adb9 <__abi_tag-0x1955e3>
  26adb4:	0b 00                	or     eax,DWORD PTR [rax]
  26adb6:	02 04 01             	add    al,BYTE PTR [rcx+rax*1]
  26adb9:	67 05 1a 5c 05 09    	addr32 add eax,0x9055c1a
  26adbf:	08 f2                	or     dl,dh
  26adc1:	05 11 00 02 04       	add    eax,0x4020011
  26adc6:	01 4c 05 0f          	add    DWORD PTR [rbp+rax*1+0xf],ecx
  26adca:	00 02                	add    BYTE PTR [rdx],al
  26adcc:	04 01                	add    al,0x1
  26adce:	74 05                	je     26add5 <__abi_tag-0x1955c7>
  26add0:	0b 00                	or     eax,DWORD PTR [rax]
  26add2:	02 04 01             	add    al,BYTE PTR [rcx+rax*1]
  26add5:	67 05 1a 5c 05 09    	addr32 add eax,0x9055c1a
  26addb:	08 f2                	or     dl,dh
  26addd:	05 11 00 02 04       	add    eax,0x4020011
  26ade2:	01 4c 05 0f          	add    DWORD PTR [rbp+rax*1+0xf],ecx
  26ade6:	00 02                	add    BYTE PTR [rdx],al
  26ade8:	04 01                	add    al,0x1
  26adea:	74 05                	je     26adf1 <__abi_tag-0x1955ab>
  26adec:	0b 00                	or     eax,DWORD PTR [rax]
  26adee:	02 04 01             	add    al,BYTE PTR [rcx+rax*1]
  26adf1:	67 05 1a 5c 05 09    	addr32 add eax,0x9055c1a
  26adf7:	08 f2                	or     dl,dh
  26adf9:	05 11 00 02 04       	add    eax,0x4020011
  26adfe:	01 4c 05 0f          	add    DWORD PTR [rbp+rax*1+0xf],ecx
  26ae02:	00 02                	add    BYTE PTR [rdx],al
  26ae04:	04 01                	add    al,0x1
  26ae06:	74 05                	je     26ae0d <__abi_tag-0x19558f>
  26ae08:	0b 00                	or     eax,DWORD PTR [rax]
  26ae0a:	02 04 01             	add    al,BYTE PTR [rcx+rax*1]
  26ae0d:	67 05 1a 5c 05 09    	addr32 add eax,0x9055c1a
  26ae13:	08 f2                	or     dl,dh
  26ae15:	05 11 00 02 04       	add    eax,0x4020011
  26ae1a:	01 4c 05 0f          	add    DWORD PTR [rbp+rax*1+0xf],ecx
  26ae1e:	00 02                	add    BYTE PTR [rdx],al
  26ae20:	04 01                	add    al,0x1
  26ae22:	74 05                	je     26ae29 <__abi_tag-0x195573>
  26ae24:	0b 00                	or     eax,DWORD PTR [rax]
  26ae26:	02 04 01             	add    al,BYTE PTR [rcx+rax*1]
  26ae29:	67 05 1a 5c 05 09    	addr32 add eax,0x9055c1a
  26ae2f:	08 f2                	or     dl,dh
  26ae31:	05 11 00 02 04       	add    eax,0x4020011
  26ae36:	01 4c 05 0f          	add    DWORD PTR [rbp+rax*1+0xf],ecx
  26ae3a:	00 02                	add    BYTE PTR [rdx],al
  26ae3c:	04 01                	add    al,0x1
  26ae3e:	74 05                	je     26ae45 <__abi_tag-0x195557>
  26ae40:	0b 00                	or     eax,DWORD PTR [rax]
  26ae42:	02 04 01             	add    al,BYTE PTR [rcx+rax*1]
  26ae45:	67 05 1a 5c 05 09    	addr32 add eax,0x9055c1a
  26ae4b:	08 f2                	or     dl,dh
  26ae4d:	05 11 00 02 04       	add    eax,0x4020011
  26ae52:	01 4c 05 0f          	add    DWORD PTR [rbp+rax*1+0xf],ecx
  26ae56:	00 02                	add    BYTE PTR [rdx],al
  26ae58:	04 01                	add    al,0x1
  26ae5a:	74 05                	je     26ae61 <__abi_tag-0x19553b>
  26ae5c:	0b 00                	or     eax,DWORD PTR [rax]
  26ae5e:	02 04 01             	add    al,BYTE PTR [rcx+rax*1]
  26ae61:	67 05 1a 5c 05 09    	addr32 add eax,0x9055c1a
  26ae67:	08 f2                	or     dl,dh
  26ae69:	05 11 00 02 04       	add    eax,0x4020011
  26ae6e:	01 4c 05 0f          	add    DWORD PTR [rbp+rax*1+0xf],ecx
  26ae72:	00 02                	add    BYTE PTR [rdx],al
  26ae74:	04 01                	add    al,0x1
  26ae76:	74 05                	je     26ae7d <__abi_tag-0x19551f>
  26ae78:	0b 00                	or     eax,DWORD PTR [rax]
  26ae7a:	02 04 01             	add    al,BYTE PTR [rcx+rax*1]
  26ae7d:	67 05 1a 5c 05 09    	addr32 add eax,0x9055c1a
  26ae83:	08 f2                	or     dl,dh
  26ae85:	05 11 00 02 04       	add    eax,0x4020011
  26ae8a:	01 4c 05 0f          	add    DWORD PTR [rbp+rax*1+0xf],ecx
  26ae8e:	00 02                	add    BYTE PTR [rdx],al
  26ae90:	04 01                	add    al,0x1
  26ae92:	74 05                	je     26ae99 <__abi_tag-0x195503>
  26ae94:	0b 00                	or     eax,DWORD PTR [rax]
  26ae96:	02 04 01             	add    al,BYTE PTR [rcx+rax*1]
  26ae99:	67 05 1a 5c 05 09    	addr32 add eax,0x9055c1a
  26ae9f:	08 f2                	or     dl,dh
  26aea1:	05 11 00 02 04       	add    eax,0x4020011
  26aea6:	01 4c 05 0f          	add    DWORD PTR [rbp+rax*1+0xf],ecx
  26aeaa:	00 02                	add    BYTE PTR [rdx],al
  26aeac:	04 01                	add    al,0x1
  26aeae:	74 05                	je     26aeb5 <__abi_tag-0x1954e7>
  26aeb0:	0b 00                	or     eax,DWORD PTR [rax]
  26aeb2:	02 04 01             	add    al,BYTE PTR [rcx+rax*1]
  26aeb5:	67 05 1a 5c 05 09    	addr32 add eax,0x9055c1a
  26aebb:	08 f2                	or     dl,dh
  26aebd:	05 11 00 02 04       	add    eax,0x4020011
  26aec2:	01 4c 05 0f          	add    DWORD PTR [rbp+rax*1+0xf],ecx
  26aec6:	00 02                	add    BYTE PTR [rdx],al
  26aec8:	04 01                	add    al,0x1
  26aeca:	74 05                	je     26aed1 <__abi_tag-0x1954cb>
  26aecc:	0b 00                	or     eax,DWORD PTR [rax]
  26aece:	02 04 01             	add    al,BYTE PTR [rcx+rax*1]
  26aed1:	67 05 1a 5c 05 09    	addr32 add eax,0x9055c1a
  26aed7:	08 f2                	or     dl,dh
  26aed9:	05 11 00 02 04       	add    eax,0x4020011
  26aede:	01 4c 05 0f          	add    DWORD PTR [rbp+rax*1+0xf],ecx
  26aee2:	00 02                	add    BYTE PTR [rdx],al
  26aee4:	04 01                	add    al,0x1
  26aee6:	74 05                	je     26aeed <__abi_tag-0x1954af>
  26aee8:	0b 00                	or     eax,DWORD PTR [rax]
  26aeea:	02 04 01             	add    al,BYTE PTR [rcx+rax*1]
  26aeed:	67 05 18 5c 05 07    	addr32 add eax,0x7055c18
  26aef3:	08 f2                	or     dl,dh
  26aef5:	05 1a 4d 05 09       	add    eax,0x9054d1a
  26aefa:	08 f2                	or     dl,dh
  26aefc:	05 11 00 02 04       	add    eax,0x4020011
  26af01:	01 4c 05 0f          	add    DWORD PTR [rbp+rax*1+0xf],ecx
  26af05:	00 02                	add    BYTE PTR [rdx],al
  26af07:	04 01                	add    al,0x1
  26af09:	74 05                	je     26af10 <__abi_tag-0x19548c>
  26af0b:	0b 00                	or     eax,DWORD PTR [rax]
  26af0d:	02 04 01             	add    al,BYTE PTR [rcx+rax*1]
  26af10:	67 05 18 5c 05 07    	addr32 add eax,0x7055c18
  26af16:	08 f2                	or     dl,dh
  26af18:	05 1a 85 05 09       	add    eax,0x905851a
  26af1d:	08 f2                	or     dl,dh
  26af1f:	05 11 00 02 04       	add    eax,0x4020011
  26af24:	01 4c 05 0f          	add    DWORD PTR [rbp+rax*1+0xf],ecx
  26af28:	00 02                	add    BYTE PTR [rdx],al
  26af2a:	04 01                	add    al,0x1
  26af2c:	74 05                	je     26af33 <__abi_tag-0x195469>
  26af2e:	0b 00                	or     eax,DWORD PTR [rax]
  26af30:	02 04 01             	add    al,BYTE PTR [rcx+rax*1]
  26af33:	67 05 1a 5c 05 09    	addr32 add eax,0x9055c1a
  26af39:	08 f2                	or     dl,dh
  26af3b:	05 11 00 02 04       	add    eax,0x4020011
  26af40:	01 4c 05 0f          	add    DWORD PTR [rbp+rax*1+0xf],ecx
  26af44:	00 02                	add    BYTE PTR [rdx],al
  26af46:	04 01                	add    al,0x1
  26af48:	74 05                	je     26af4f <__abi_tag-0x19544d>
  26af4a:	0b 00                	or     eax,DWORD PTR [rax]
  26af4c:	02 04 01             	add    al,BYTE PTR [rcx+rax*1]
  26af4f:	67 05 1a 5c 05 09    	addr32 add eax,0x9055c1a
  26af55:	08 f2                	or     dl,dh
  26af57:	05 11 00 02 04       	add    eax,0x4020011
  26af5c:	01 4c 05 0f          	add    DWORD PTR [rbp+rax*1+0xf],ecx
  26af60:	00 02                	add    BYTE PTR [rdx],al
  26af62:	04 01                	add    al,0x1
  26af64:	74 05                	je     26af6b <__abi_tag-0x195431>
  26af66:	0b 00                	or     eax,DWORD PTR [rax]
  26af68:	02 04 01             	add    al,BYTE PTR [rcx+rax*1]
  26af6b:	67 05 1a 5c 05 09    	addr32 add eax,0x9055c1a
  26af71:	08 f2                	or     dl,dh
  26af73:	05 11 00 02 04       	add    eax,0x4020011
  26af78:	01 4c 05 0f          	add    DWORD PTR [rbp+rax*1+0xf],ecx
  26af7c:	00 02                	add    BYTE PTR [rdx],al
  26af7e:	04 01                	add    al,0x1
  26af80:	74 05                	je     26af87 <__abi_tag-0x195415>
  26af82:	0b 00                	or     eax,DWORD PTR [rax]
  26af84:	02 04 01             	add    al,BYTE PTR [rcx+rax*1]
  26af87:	67 05 1a 5c 05 09    	addr32 add eax,0x9055c1a
  26af8d:	08 f2                	or     dl,dh
  26af8f:	05 11 00 02 04       	add    eax,0x4020011
  26af94:	01 4c 05 0f          	add    DWORD PTR [rbp+rax*1+0xf],ecx
  26af98:	00 02                	add    BYTE PTR [rdx],al
  26af9a:	04 01                	add    al,0x1
  26af9c:	74 05                	je     26afa3 <__abi_tag-0x1953f9>
  26af9e:	0b 00                	or     eax,DWORD PTR [rax]
  26afa0:	02 04 01             	add    al,BYTE PTR [rcx+rax*1]
  26afa3:	67 05 1a 5c 05 09    	addr32 add eax,0x9055c1a
  26afa9:	08 f2                	or     dl,dh
  26afab:	05 11 00 02 04       	add    eax,0x4020011
  26afb0:	01 4c 05 0f          	add    DWORD PTR [rbp+rax*1+0xf],ecx
  26afb4:	00 02                	add    BYTE PTR [rdx],al
  26afb6:	04 01                	add    al,0x1
  26afb8:	74 05                	je     26afbf <__abi_tag-0x1953dd>
  26afba:	0b 00                	or     eax,DWORD PTR [rax]
  26afbc:	02 04 01             	add    al,BYTE PTR [rcx+rax*1]
  26afbf:	67 05 18 5c 05 07    	addr32 add eax,0x7055c18
  26afc5:	08 f2                	or     dl,dh
  26afc7:	05 1a 85 05 09       	add    eax,0x905851a
  26afcc:	08 f2                	or     dl,dh
  26afce:	05 11 00 02 04       	add    eax,0x4020011
  26afd3:	01 4c 05 0f          	add    DWORD PTR [rbp+rax*1+0xf],ecx
  26afd7:	00 02                	add    BYTE PTR [rdx],al
  26afd9:	04 01                	add    al,0x1
  26afdb:	74 05                	je     26afe2 <__abi_tag-0x1953ba>
  26afdd:	0b 00                	or     eax,DWORD PTR [rax]
  26afdf:	02 04 01             	add    al,BYTE PTR [rcx+rax*1]
  26afe2:	67 05 1a 5c 05 09    	addr32 add eax,0x9055c1a
  26afe8:	08 f2                	or     dl,dh
  26afea:	05 11 00 02 04       	add    eax,0x4020011
  26afef:	01 4c 05 0f          	add    DWORD PTR [rbp+rax*1+0xf],ecx
  26aff3:	00 02                	add    BYTE PTR [rdx],al
  26aff5:	04 01                	add    al,0x1
  26aff7:	74 05                	je     26affe <__abi_tag-0x19539e>
  26aff9:	0b 00                	or     eax,DWORD PTR [rax]
  26affb:	02 04 01             	add    al,BYTE PTR [rcx+rax*1]
  26affe:	67 05 1a 5c 05 09    	addr32 add eax,0x9055c1a
  26b004:	08 f2                	or     dl,dh
  26b006:	05 11 00 02 04       	add    eax,0x4020011
  26b00b:	01 4c 05 0f          	add    DWORD PTR [rbp+rax*1+0xf],ecx
  26b00f:	00 02                	add    BYTE PTR [rdx],al
  26b011:	04 01                	add    al,0x1
  26b013:	74 05                	je     26b01a <__abi_tag-0x195382>
  26b015:	0b 00                	or     eax,DWORD PTR [rax]
  26b017:	02 04 01             	add    al,BYTE PTR [rcx+rax*1]
  26b01a:	67 05 1a 5c 05 09    	addr32 add eax,0x9055c1a
  26b020:	08 f2                	or     dl,dh
  26b022:	05 11 00 02 04       	add    eax,0x4020011
  26b027:	01 4c 05 0f          	add    DWORD PTR [rbp+rax*1+0xf],ecx
  26b02b:	00 02                	add    BYTE PTR [rdx],al
  26b02d:	04 01                	add    al,0x1
  26b02f:	74 05                	je     26b036 <__abi_tag-0x195366>
  26b031:	0b 00                	or     eax,DWORD PTR [rax]
  26b033:	02 04 01             	add    al,BYTE PTR [rcx+rax*1]
  26b036:	67 05 1a 5c 05 09    	addr32 add eax,0x9055c1a
  26b03c:	08 f2                	or     dl,dh
  26b03e:	05 11 00 02 04       	add    eax,0x4020011
  26b043:	01 4c 05 0f          	add    DWORD PTR [rbp+rax*1+0xf],ecx
  26b047:	00 02                	add    BYTE PTR [rdx],al
  26b049:	04 01                	add    al,0x1
  26b04b:	74 05                	je     26b052 <__abi_tag-0x19534a>
  26b04d:	0b 00                	or     eax,DWORD PTR [rax]
  26b04f:	02 04 01             	add    al,BYTE PTR [rcx+rax*1]
  26b052:	67 05 1a 5c 05 09    	addr32 add eax,0x9055c1a
  26b058:	08 f2                	or     dl,dh
  26b05a:	05 11 00 02 04       	add    eax,0x4020011
  26b05f:	01 4c 05 0f          	add    DWORD PTR [rbp+rax*1+0xf],ecx
  26b063:	00 02                	add    BYTE PTR [rdx],al
  26b065:	04 01                	add    al,0x1
  26b067:	74 05                	je     26b06e <__abi_tag-0x19532e>
  26b069:	0b 00                	or     eax,DWORD PTR [rax]
  26b06b:	02 04 01             	add    al,BYTE PTR [rcx+rax*1]
  26b06e:	67 05 1a 5c 05 09    	addr32 add eax,0x9055c1a
  26b074:	08 f2                	or     dl,dh
  26b076:	05 11 00 02 04       	add    eax,0x4020011
  26b07b:	01 4c 05 0f          	add    DWORD PTR [rbp+rax*1+0xf],ecx
  26b07f:	00 02                	add    BYTE PTR [rdx],al
  26b081:	04 01                	add    al,0x1
  26b083:	74 05                	je     26b08a <__abi_tag-0x195312>
  26b085:	0b 00                	or     eax,DWORD PTR [rax]
  26b087:	02 04 01             	add    al,BYTE PTR [rcx+rax*1]
  26b08a:	67 05 1a 5c 05 09    	addr32 add eax,0x9055c1a
  26b090:	08 f2                	or     dl,dh
  26b092:	05 11 00 02 04       	add    eax,0x4020011
  26b097:	01 4c 05 0f          	add    DWORD PTR [rbp+rax*1+0xf],ecx
  26b09b:	00 02                	add    BYTE PTR [rdx],al
  26b09d:	04 01                	add    al,0x1
  26b09f:	74 05                	je     26b0a6 <__abi_tag-0x1952f6>
  26b0a1:	0b 00                	or     eax,DWORD PTR [rax]
  26b0a3:	02 04 01             	add    al,BYTE PTR [rcx+rax*1]
  26b0a6:	67 05 18 5c 05 07    	addr32 add eax,0x7055c18
  26b0ac:	08 f2                	or     dl,dh
  26b0ae:	05 1a 4d 05 09       	add    eax,0x9054d1a
  26b0b3:	08 f2                	or     dl,dh
  26b0b5:	05 11 00 02 04       	add    eax,0x4020011
  26b0ba:	01 4c 05 0f          	add    DWORD PTR [rbp+rax*1+0xf],ecx
  26b0be:	00 02                	add    BYTE PTR [rdx],al
  26b0c0:	04 01                	add    al,0x1
  26b0c2:	74 05                	je     26b0c9 <__abi_tag-0x1952d3>
  26b0c4:	0b 00                	or     eax,DWORD PTR [rax]
  26b0c6:	02 04 01             	add    al,BYTE PTR [rcx+rax*1]
  26b0c9:	67 05 1a 5c 05 09    	addr32 add eax,0x9055c1a
  26b0cf:	08 f2                	or     dl,dh
  26b0d1:	05 11 00 02 04       	add    eax,0x4020011
  26b0d6:	01 4c 05 0f          	add    DWORD PTR [rbp+rax*1+0xf],ecx
  26b0da:	00 02                	add    BYTE PTR [rdx],al
  26b0dc:	04 01                	add    al,0x1
  26b0de:	74 05                	je     26b0e5 <__abi_tag-0x1952b7>
  26b0e0:	0b 00                	or     eax,DWORD PTR [rax]
  26b0e2:	02 04 01             	add    al,BYTE PTR [rcx+rax*1]
  26b0e5:	67 05 18 5c 05 07    	addr32 add eax,0x7055c18
  26b0eb:	08 f2                	or     dl,dh
  26b0ed:	05 1a 85 05 09       	add    eax,0x905851a
  26b0f2:	08 f2                	or     dl,dh
  26b0f4:	05 11 00 02 04       	add    eax,0x4020011
  26b0f9:	01 4c 05 0f          	add    DWORD PTR [rbp+rax*1+0xf],ecx
  26b0fd:	00 02                	add    BYTE PTR [rdx],al
  26b0ff:	04 01                	add    al,0x1
  26b101:	74 05                	je     26b108 <__abi_tag-0x195294>
  26b103:	0b 00                	or     eax,DWORD PTR [rax]
  26b105:	02 04 01             	add    al,BYTE PTR [rcx+rax*1]
  26b108:	67 05 1a 5c 05 09    	addr32 add eax,0x9055c1a
  26b10e:	08 f2                	or     dl,dh
  26b110:	05 11 00 02 04       	add    eax,0x4020011
  26b115:	01 4c 05 0f          	add    DWORD PTR [rbp+rax*1+0xf],ecx
  26b119:	00 02                	add    BYTE PTR [rdx],al
  26b11b:	04 01                	add    al,0x1
  26b11d:	74 05                	je     26b124 <__abi_tag-0x195278>
  26b11f:	0b 00                	or     eax,DWORD PTR [rax]
  26b121:	02 04 01             	add    al,BYTE PTR [rcx+rax*1]
  26b124:	67 05 1a 5c 05 09    	addr32 add eax,0x9055c1a
  26b12a:	08 f2                	or     dl,dh
  26b12c:	05 11 00 02 04       	add    eax,0x4020011
  26b131:	01 4c 05 0f          	add    DWORD PTR [rbp+rax*1+0xf],ecx
  26b135:	00 02                	add    BYTE PTR [rdx],al
  26b137:	04 01                	add    al,0x1
  26b139:	74 05                	je     26b140 <__abi_tag-0x19525c>
  26b13b:	0b 00                	or     eax,DWORD PTR [rax]
  26b13d:	02 04 01             	add    al,BYTE PTR [rcx+rax*1]
  26b140:	67 05 1a 5c 05 09    	addr32 add eax,0x9055c1a
  26b146:	08 f2                	or     dl,dh
  26b148:	05 11 00 02 04       	add    eax,0x4020011
  26b14d:	01 4c 05 0f          	add    DWORD PTR [rbp+rax*1+0xf],ecx
  26b151:	00 02                	add    BYTE PTR [rdx],al
  26b153:	04 01                	add    al,0x1
  26b155:	74 05                	je     26b15c <__abi_tag-0x195240>
  26b157:	0b 00                	or     eax,DWORD PTR [rax]
  26b159:	02 04 01             	add    al,BYTE PTR [rcx+rax*1]
  26b15c:	67 05 18 5c 05 07    	addr32 add eax,0x7055c18
  26b162:	08 f2                	or     dl,dh
  26b164:	05 1a 85 05 09       	add    eax,0x905851a
  26b169:	08 f2                	or     dl,dh
  26b16b:	05 11 00 02 04       	add    eax,0x4020011
  26b170:	01 4c 05 0f          	add    DWORD PTR [rbp+rax*1+0xf],ecx
  26b174:	00 02                	add    BYTE PTR [rdx],al
  26b176:	04 01                	add    al,0x1
  26b178:	74 05                	je     26b17f <__abi_tag-0x19521d>
  26b17a:	0b 00                	or     eax,DWORD PTR [rax]
  26b17c:	02 04 01             	add    al,BYTE PTR [rcx+rax*1]
  26b17f:	67 05 1a 5c 05 09    	addr32 add eax,0x9055c1a
  26b185:	08 f2                	or     dl,dh
  26b187:	05 11 00 02 04       	add    eax,0x4020011
  26b18c:	01 4c 05 0f          	add    DWORD PTR [rbp+rax*1+0xf],ecx
  26b190:	00 02                	add    BYTE PTR [rdx],al
  26b192:	04 01                	add    al,0x1
  26b194:	74 05                	je     26b19b <__abi_tag-0x195201>
  26b196:	0b 00                	or     eax,DWORD PTR [rax]
  26b198:	02 04 01             	add    al,BYTE PTR [rcx+rax*1]
  26b19b:	67 05 1a 5c 05 09    	addr32 add eax,0x9055c1a
  26b1a1:	08 f2                	or     dl,dh
  26b1a3:	05 11 00 02 04       	add    eax,0x4020011
  26b1a8:	01 4c 05 0f          	add    DWORD PTR [rbp+rax*1+0xf],ecx
  26b1ac:	00 02                	add    BYTE PTR [rdx],al
  26b1ae:	04 01                	add    al,0x1
  26b1b0:	74 05                	je     26b1b7 <__abi_tag-0x1951e5>
  26b1b2:	0b 00                	or     eax,DWORD PTR [rax]
  26b1b4:	02 04 01             	add    al,BYTE PTR [rcx+rax*1]
  26b1b7:	67 05 1a 5c 05 09    	addr32 add eax,0x9055c1a
  26b1bd:	08 f2                	or     dl,dh
  26b1bf:	05 11 00 02 04       	add    eax,0x4020011
  26b1c4:	01 4c 05 0f          	add    DWORD PTR [rbp+rax*1+0xf],ecx
  26b1c8:	00 02                	add    BYTE PTR [rdx],al
  26b1ca:	04 01                	add    al,0x1
  26b1cc:	74 05                	je     26b1d3 <__abi_tag-0x1951c9>
  26b1ce:	0b 00                	or     eax,DWORD PTR [rax]
  26b1d0:	02 04 01             	add    al,BYTE PTR [rcx+rax*1]
  26b1d3:	67 05 1a 5c 05 09    	addr32 add eax,0x9055c1a
  26b1d9:	08 f2                	or     dl,dh
  26b1db:	05 11 00 02 04       	add    eax,0x4020011
  26b1e0:	01 4c 05 0f          	add    DWORD PTR [rbp+rax*1+0xf],ecx
  26b1e4:	00 02                	add    BYTE PTR [rdx],al
  26b1e6:	04 01                	add    al,0x1
  26b1e8:	74 05                	je     26b1ef <__abi_tag-0x1951ad>
  26b1ea:	0b 00                	or     eax,DWORD PTR [rax]
  26b1ec:	02 04 01             	add    al,BYTE PTR [rcx+rax*1]
  26b1ef:	67 05 1a 5c 05 09    	addr32 add eax,0x9055c1a
  26b1f5:	08 f2                	or     dl,dh
  26b1f7:	05 11 00 02 04       	add    eax,0x4020011
  26b1fc:	01 4c 05 0f          	add    DWORD PTR [rbp+rax*1+0xf],ecx
  26b200:	00 02                	add    BYTE PTR [rdx],al
  26b202:	04 01                	add    al,0x1
  26b204:	74 05                	je     26b20b <__abi_tag-0x195191>
  26b206:	0b 00                	or     eax,DWORD PTR [rax]
  26b208:	02 04 01             	add    al,BYTE PTR [rcx+rax*1]
  26b20b:	67 05 1a 5c 05 09    	addr32 add eax,0x9055c1a
  26b211:	08 f2                	or     dl,dh
  26b213:	05 11 00 02 04       	add    eax,0x4020011
  26b218:	01 4c 05 0f          	add    DWORD PTR [rbp+rax*1+0xf],ecx
  26b21c:	00 02                	add    BYTE PTR [rdx],al
  26b21e:	04 01                	add    al,0x1
  26b220:	74 05                	je     26b227 <__abi_tag-0x195175>
  26b222:	0b 00                	or     eax,DWORD PTR [rax]
  26b224:	02 04 01             	add    al,BYTE PTR [rcx+rax*1]
  26b227:	67 05 18 5c 05 07    	addr32 add eax,0x7055c18
  26b22d:	08 f2                	or     dl,dh
  26b22f:	05 1a 85 05 09       	add    eax,0x905851a
  26b234:	08 f2                	or     dl,dh
  26b236:	05 11 00 02 04       	add    eax,0x4020011
  26b23b:	01 4c 05 0f          	add    DWORD PTR [rbp+rax*1+0xf],ecx
  26b23f:	00 02                	add    BYTE PTR [rdx],al
  26b241:	04 01                	add    al,0x1
  26b243:	74 05                	je     26b24a <__abi_tag-0x195152>
  26b245:	0b 00                	or     eax,DWORD PTR [rax]
  26b247:	02 04 01             	add    al,BYTE PTR [rcx+rax*1]
  26b24a:	67 05 1a 5c 05 09    	addr32 add eax,0x9055c1a
  26b250:	08 f2                	or     dl,dh
  26b252:	05 11 00 02 04       	add    eax,0x4020011
  26b257:	01 4c 05 0f          	add    DWORD PTR [rbp+rax*1+0xf],ecx
  26b25b:	00 02                	add    BYTE PTR [rdx],al
  26b25d:	04 01                	add    al,0x1
  26b25f:	74 05                	je     26b266 <__abi_tag-0x195136>
  26b261:	0b 00                	or     eax,DWORD PTR [rax]
  26b263:	02 04 01             	add    al,BYTE PTR [rcx+rax*1]
  26b266:	67 05 1a 5c 05 09    	addr32 add eax,0x9055c1a
  26b26c:	08 f2                	or     dl,dh
  26b26e:	05 11 00 02 04       	add    eax,0x4020011
  26b273:	01 4c 05 0f          	add    DWORD PTR [rbp+rax*1+0xf],ecx
  26b277:	00 02                	add    BYTE PTR [rdx],al
  26b279:	04 01                	add    al,0x1
  26b27b:	74 05                	je     26b282 <__abi_tag-0x19511a>
  26b27d:	0b 00                	or     eax,DWORD PTR [rax]
  26b27f:	02 04 01             	add    al,BYTE PTR [rcx+rax*1]
  26b282:	67 05 1a 5c 05 09    	addr32 add eax,0x9055c1a
  26b288:	08 f2                	or     dl,dh
  26b28a:	05 11 00 02 04       	add    eax,0x4020011
  26b28f:	01 4c 05 0f          	add    DWORD PTR [rbp+rax*1+0xf],ecx
  26b293:	00 02                	add    BYTE PTR [rdx],al
  26b295:	04 01                	add    al,0x1
  26b297:	74 05                	je     26b29e <__abi_tag-0x1950fe>
  26b299:	0b 00                	or     eax,DWORD PTR [rax]
  26b29b:	02 04 01             	add    al,BYTE PTR [rcx+rax*1]
  26b29e:	67 05 18 5c 05 07    	addr32 add eax,0x7055c18
  26b2a4:	08 f2                	or     dl,dh
  26b2a6:	05 1a 4d 05 09       	add    eax,0x9054d1a
  26b2ab:	08 f2                	or     dl,dh
  26b2ad:	05 11 00 02 04       	add    eax,0x4020011
  26b2b2:	01 4c 05 0f          	add    DWORD PTR [rbp+rax*1+0xf],ecx
  26b2b6:	00 02                	add    BYTE PTR [rdx],al
  26b2b8:	04 01                	add    al,0x1
  26b2ba:	74 05                	je     26b2c1 <__abi_tag-0x1950db>
  26b2bc:	0b 00                	or     eax,DWORD PTR [rax]
  26b2be:	02 04 01             	add    al,BYTE PTR [rcx+rax*1]
  26b2c1:	67 05 1a 32 05 09    	addr32 add eax,0x905321a
  26b2c7:	08 f2                	or     dl,dh
  26b2c9:	05 11 00 02 04       	add    eax,0x4020011
  26b2ce:	01 4c 05 0f          	add    DWORD PTR [rbp+rax*1+0xf],ecx
  26b2d2:	00 02                	add    BYTE PTR [rdx],al
  26b2d4:	04 01                	add    al,0x1
  26b2d6:	74 05                	je     26b2dd <__abi_tag-0x1950bf>
  26b2d8:	0b 00                	or     eax,DWORD PTR [rax]
  26b2da:	02 04 01             	add    al,BYTE PTR [rcx+rax*1]
  26b2dd:	67 05 10 33 05 09    	addr32 add eax,0x9053310
  26b2e3:	82                   	(bad)  
  26b2e4:	05 0e 03 98 7c       	add    eax,0x7c98030e
  26b2e9:	3c 05                	cmp    al,0x5
  26b2eb:	15 00 02 04 01       	adc    eax,0x1040200
  26b2f0:	66 05 0e 00          	add    ax,0xe
  26b2f4:	02 04 01             	add    al,BYTE PTR [rcx+rax*1]
  26b2f7:	3c 05                	cmp    al,0x5
  26b2f9:	0a 03                	or     al,BYTE PTR [rbx]
  26b2fb:	ea                   	(bad)  
  26b2fc:	03 82 05 01 4b 04    	add    eax,DWORD PTR [rdx+0x44b0105]
  26b302:	05 05 2c 03 dc       	add    eax,0xdc032c05
  26b307:	f2 7e 08             	bnd jle 26b312 <__abi_tag-0x19508a>
  26b30a:	58                   	pop    rax
  26b30b:	05 2f 9f 05 01       	add    eax,0x1059f2f
  26b310:	bb 05 24 31 05       	mov    ebx,0x5312405
  26b315:	19 ae 05 0c 08 4a    	sbb    DWORD PTR [rsi+0x4a080c05],ebp
  26b31b:	05 1b 75 05 21       	add    eax,0x2105751b
  26b320:	08 ba 05 0d 82 05    	or     BYTE PTR [rdx+0x5820d05],bh
  26b326:	15 76 05 13 74       	adc    eax,0x74130576
  26b32b:	05 16 75 05 14       	add    eax,0x14057516
  26b330:	74 05                	je     26b337 <__abi_tag-0x195065>
  26b332:	13 75 05             	adc    esi,DWORD PTR [rbp+0x5]
  26b335:	05 08 3d 05 2b       	add    eax,0x2b053d08
  26b33a:	3e 05 0f f3 05 05    	ds add eax,0x505f30f
  26b340:	08 4b 05             	or     BYTE PTR [rbx+0x5],cl
  26b343:	21 03                	and    DWORD PTR [rbx],eax
  26b345:	36 3c 82             	ss cmp al,0x82
  26b348:	05 1a e5 05 0d       	add    eax,0xd05e51a
  26b34d:	75 05                	jne    26b354 <__abi_tag-0x195048>
  26b34f:	12 66 05             	adc    ah,BYTE PTR [rsi+0x5]
  26b352:	0d 3c 05 2d 00       	or     eax,0x2d053c
  26b357:	02 04 01             	add    al,BYTE PTR [rcx+rax*1]
  26b35a:	66 05 33 00          	add    ax,0x33
  26b35e:	02 04 01             	add    al,BYTE PTR [rcx+rax*1]
  26b361:	74 05                	je     26b368 <__abi_tag-0x195034>
  26b363:	31 00                	xor    DWORD PTR [rax],eax
  26b365:	02 04 01             	add    al,BYTE PTR [rcx+rax*1]
  26b368:	ac                   	lods   al,BYTE PTR ds:[rsi]
  26b369:	05 0d 3d 6c 05       	add    eax,0x56c3d0d
  26b36e:	1e                   	(bad)  
  26b36f:	00 02                	add    BYTE PTR [rdx],al
  26b371:	04 01                	add    al,0x1
  26b373:	66 05 1f 00          	add    ax,0x1f
  26b377:	02 04 01             	add    al,BYTE PTR [rcx+rax*1]
  26b37a:	74 05                	je     26b381 <__abi_tag-0x19501b>
  26b37c:	20 00                	and    BYTE PTR [rax],al
  26b37e:	02 04 01             	add    al,BYTE PTR [rcx+rax*1]
  26b381:	c8 05 14 2f          	enter  0x1405,0x2f
  26b385:	05 09 00 02 04       	add    eax,0x4020009
  26b38a:	01 4b 06             	add    DWORD PTR [rbx+0x6],ecx
  26b38d:	e4 05                	in     al,0x5
  26b38f:	37                   	(bad)  
  26b390:	06                   	(bad)  
  26b391:	75 82                	jne    26b315 <__abi_tag-0x195087>
  26b393:	05 0d e6 05 14       	add    eax,0x1405e60d
  26b398:	6c                   	ins    BYTE PTR es:[rdi],dx
  26b399:	05 09 4b 05 29       	add    eax,0x29054b09
  26b39e:	08 59 c8             	or     BYTE PTR [rcx-0x38],bl
  26b3a1:	05 0d e6 05 14       	add    eax,0x1405e60d
  26b3a6:	6c                   	ins    BYTE PTR es:[rdi],dx
  26b3a7:	05 09 3d 05 2b       	add    eax,0x2b053d09
  26b3ac:	08 59 c8             	or     BYTE PTR [rcx-0x38],bl
  26b3af:	05 0d e6 05 14       	add    eax,0x1405e60d
  26b3b4:	6c                   	ins    BYTE PTR es:[rdi],dx
  26b3b5:	05 09 3d 05 35       	add    eax,0x35053d09
  26b3ba:	08 5c 05 19          	or     BYTE PTR [rbp+rax*1+0x19],bl
  26b3be:	e6 05                	out    0x5,al
  26b3c0:	0a f2                	or     dh,dl
  26b3c2:	05 08 83 05 06       	add    eax,0x6058308
  26b3c7:	3c 05                	cmp    al,0x5
  26b3c9:	20 bb 05 1d ac 05    	and    BYTE PTR [rbx+0x5ac1d05],bh
  26b3cf:	0e                   	(bad)  
  26b3d0:	74 05                	je     26b3d7 <__abi_tag-0x194fc5>
  26b3d2:	2a 3c 05 26 74 05 2f 	sub    bh,BYTE PTR [rax*1+0x2f057426]
  26b3d9:	58                   	pop    rax
  26b3da:	05 01 75 05 33       	add    eax,0x33057501
  26b3df:	2f                   	(bad)  
  26b3e0:	05 19 e6 05 0a       	add    eax,0xa05e619
  26b3e5:	f2 05 08 83 05 06    	repnz add eax,0x6058308
  26b3eb:	3c 05                	cmp    al,0x5
  26b3ed:	20 bb 05 1d ac 05    	and    BYTE PTR [rbx+0x5ac1d05],bh
  26b3f3:	0e                   	(bad)  
  26b3f4:	74 05                	je     26b3fb <__abi_tag-0x194fa1>
  26b3f6:	2a 3c 05 26 74 05 2f 	sub    bh,BYTE PTR [rax*1+0x2f057426]
  26b3fd:	58                   	pop    rax
  26b3fe:	05 2e 4a 05 0b       	add    eax,0xb054a2e
  26b403:	3c 05                	cmp    al,0x5
  26b405:	23 4b 05             	and    ecx,DWORD PTR [rbx+0x5]
  26b408:	0f 66 05 05 e4 05 38 	pcmpgtd mm0,QWORD PTR [rip+0x3805e405]        # 382c9814 <_end+0x371bfc54>
  26b40f:	00 02                	add    BYTE PTR [rdx],al
  26b411:	04 01                	add    al,0x1
  26b413:	58                   	pop    rax
  26b414:	05 3e 00 02 04       	add    eax,0x402003e
  26b419:	01 74 05 0c          	add    DWORD PTR [rbp+rax*1+0xc],esi
  26b41d:	67 05 01 4b 05 3c    	addr32 add eax,0x3c054b01
  26b423:	2f                   	(bad)  
  26b424:	05 17 08 31 05       	add    eax,0x5310817
  26b429:	1f                   	(bad)  
  26b42a:	f2 05 0a 4a 05 08    	repnz add eax,0x8054a0a
  26b430:	4b 05 06 3c 05 1d    	rex.WXB add rax,0x1d053c06
  26b436:	bb 05 0b ac 05       	mov    ebx,0x5ac0b05
  26b43b:	0e                   	(bad)  
  26b43c:	ad                   	lods   eax,DWORD PTR ds:[rsi]
  26b43d:	05 24 74 05 20       	add    eax,0x20057424
  26b442:	74 05                	je     26b449 <__abi_tag-0x194f53>
  26b444:	29 ba 05 15 3c 05    	sub    DWORD PTR [rdx+0x53c1505],edi
  26b44a:	39 3c 05 44 ac 05 40 	cmp    DWORD PTR [rax*1+0x4005ac44],edi
  26b451:	74 05                	je     26b458 <__abi_tag-0x194f44>
  26b453:	32 82 05 0c 66 05    	xor    al,BYTE PTR [rdx+0x5660c05]
  26b459:	01 75 05             	add    DWORD PTR [rbp+0x5],esi
  26b45c:	10 03                	adc    BYTE PTR [rbx],al
  26b45e:	12 3c 05 15 4b 05 19 	adc    bh,BYTE PTR [rax*1+0x19054b15]
  26b465:	9e                   	sahf   
  26b466:	05 34 00 02 04       	add    eax,0x4020034
  26b46b:	03 2e                	add    ebp,DWORD PTR [rsi]
  26b46d:	05 2a 00 02 04       	add    eax,0x402002a
  26b472:	01 9e 05 01 9f 05    	add    DWORD PTR [rsi+0x59f0105],ebx
  26b478:	12 4b 05             	adc    cl,BYTE PTR [rbx+0x5]
  26b47b:	0f 4b 05 01 9f 05 15 	cmovnp eax,DWORD PTR [rip+0x15059f01]        # 152c5383 <_end+0x141bb7c3>
  26b482:	03 10                	add    edx,DWORD PTR [rax]
  26b484:	3c 05                	cmp    al,0x5
  26b486:	18 4b 05             	sbb    BYTE PTR [rbx+0x5],cl
  26b489:	05 66 05 16 4b       	add    eax,0x4b160566
  26b48e:	05 18 02 2a 13       	add    eax,0x132a0218
  26b493:	05 01 a0 05 18       	add    eax,0x1805a001
  26b498:	3d 05 12 bb 05       	cmp    eax,0x5bb1205
  26b49d:	11 59 05             	adc    DWORD PTR [rcx+0x5],ebx
  26b4a0:	01 08                	add    DWORD PTR [rax],ecx
  26b4a2:	59                   	pop    rcx
  26b4a3:	05 18 3d 08 12       	add    eax,0x12083d18
  26b4a8:	05 12 e5 05 0b       	add    eax,0xb05e512
  26b4ad:	5a                   	pop    rdx
  26b4ae:	05 0c 08 83 05       	add    eax,0x583080c
  26b4b3:	17                   	(bad)  
  26b4b4:	02 24 13             	add    ah,BYTE PTR [rbx+rdx*1]
  26b4b7:	05 01 08 83 05       	add    eax,0x5830801
  26b4bc:	31 03                	xor    DWORD PTR [rbx],eax
  26b4be:	16                   	(bad)  
  26b4bf:	08 66 05             	or     BYTE PTR [rsi+0x5],ah
  26b4c2:	1a 83 05 01 b1 05    	sbb    al,BYTE PTR [rbx+0x5b10105]
  26b4c8:	20 03                	and    BYTE PTR [rbx],al
  26b4ca:	3d 3c 05 0c 4b       	cmp    eax,0x4b0c053c
  26b4cf:	05 01 67 03 e3       	add    eax,0xe3036701
  26b4d4:	00 2e                	add    BYTE PTR [rsi],ch
  26b4d6:	05 1a ae 05 16       	add    eax,0x1605ae1a
  26b4db:	59                   	pop    rcx
  26b4dc:	05 01 08 68 05       	add    eax,0x5680801
  26b4e1:	17                   	(bad)  
  26b4e2:	03 3a                	add    edi,DWORD PTR [rdx]
  26b4e4:	3c 05                	cmp    al,0x5
  26b4e6:	20 83 05 1b 08 2f    	and    BYTE PTR [rbx+0x2f081b05],al
  26b4ec:	05 10 08 13 05       	add    eax,0x5130810
  26b4f1:	05 4b 05 22 30       	add    eax,0x3022054b
  26b4f6:	05 05 84 05 1e       	add    eax,0x1e058405
  26b4fb:	3e 05 09 bb 05 1b    	ds add eax,0x1b05bb09
  26b501:	75 05                	jne    26b508 <__abi_tag-0x194e94>
  26b503:	16                   	(bad)  
  26b504:	d5                   	(bad)  
  26b505:	05 05 22 05 20       	add    eax,0x20052205
  26b50a:	30 05 09 bb 05 1d    	xor    BYTE PTR [rip+0x1d05bb09],al        # 1d2c7019 <_end+0x1c1bd459>
  26b510:	75 05                	jne    26b517 <__abi_tag-0x194e85>
  26b512:	16                   	(bad)  
  26b513:	d5                   	(bad)  
  26b514:	05 05 22 05 28       	add    eax,0x28052205
  26b519:	03 21                	add    esp,DWORD PTR [rcx]
  26b51b:	2e 05 14 bc 05 20    	cs add eax,0x2005bc14
  26b521:	08 2f                	or     BYTE PTR [rdi],ch
  26b523:	05 11 c8 05 27       	add    eax,0x2705c811
  26b528:	83 05 19 82 05 17 ad 	add    DWORD PTR [rip+0x17058219],0xffffffad        # 172c3748 <_end+0x161b9b88>
  26b52f:	05 29 e5 05 17       	add    eax,0x1705e529
  26b534:	c8 05 1f 83          	enter  0x1f05,0x83
  26b538:	05 0d c8 05 1b       	add    eax,0x1b05c80d
  26b53d:	ad                   	lods   eax,DWORD PTR ds:[rsi]
  26b53e:	05 20 ad 05 2e       	add    eax,0x2e05ad20
  26b543:	4a 05 1f 74 05 0c    	rex.WX add rax,0xc05741f
  26b549:	83 05 01 4b 05 33 30 	add    DWORD PTR [rip+0x33054b01],0x30        # 332c0051 <_end+0x321b6491>
  26b550:	05 15 bb 05 1a       	add    eax,0x1a05bb15
  26b555:	f3 05 10 58 05 1d    	repz add eax,0x1d055810
  26b55b:	ad                   	lods   eax,DWORD PTR ds:[rsi]
  26b55c:	05 13 58 05 0c       	add    eax,0xc055813
  26b561:	ad                   	lods   eax,DWORD PTR ds:[rsi]
  26b562:	05 01 4b 05 1b       	add    eax,0x1b054b01
  26b567:	30 05 0f bb 05 0b    	xor    BYTE PTR [rip+0xb05bb0f],al        # b2c707c <_end+0xa1bd4bc>
  26b56d:	08 30                	or     BYTE PTR [rax],dh
  26b56f:	05 05 82 05 13       	add    eax,0x13058205
  26b574:	91                   	xchg   ecx,eax
  26b575:	05 0e 08 2f 05       	add    eax,0x52f080e
  26b57a:	21 82 05 31 82 05    	and    DWORD PTR [rdx+0x5823105],eax
  26b580:	33 ba 05 0a 74 05    	xor    edi,DWORD PTR [rdx+0x5740a05]
  26b586:	1e                   	(bad)  
  26b587:	76 05                	jbe    26b58e <__abi_tag-0x194e0e>
  26b589:	24 ac                	and    al,0xac
  26b58b:	05 25 4a 05 12       	add    eax,0x12054a25
  26b590:	9e                   	sahf   
  26b591:	05 1f 4b 05 0f       	add    eax,0xf054b1f
  26b596:	74 05                	je     26b59d <__abi_tag-0x194dff>
  26b598:	23 08                	and    ecx,DWORD PTR [rax]
  26b59a:	3d 05 1f 9e 05       	cmp    eax,0x59e1f05
  26b59f:	37                   	(bad)  
  26b5a0:	74 05                	je     26b5a7 <__abi_tag-0x194df5>
  26b5a2:	15 75 05 11 08       	adc    eax,0x8110575
  26b5a7:	77 05                	ja     26b5ae <__abi_tag-0x194dee>
  26b5a9:	22 82 05 09 82 05    	and    al,BYTE PTR [rdx+0x5820905]
  26b5af:	25 92 05 34 82       	and    eax,0x82340592
  26b5b4:	05 20 3c 05 2e       	add    eax,0x2e053c20
  26b5b9:	84 05 5a 82 05 45    	test   BYTE PTR [rip+0x4505825a],al        # 452c3819 <_end+0x441b9c59>
  26b5bf:	82                   	(bad)  
  26b5c0:	05 28 4a 05 19       	add    eax,0x19054a28
  26b5c5:	f2 05 14 83 05 0d    	repnz add eax,0xd058314
  26b5cb:	82                   	(bad)  
  26b5cc:	05 2b 00 02 04       	add    eax,0x402002b
  26b5d1:	01 58 05             	add    DWORD PTR [rax+0x5],ebx
  26b5d4:	72 00                	jb     26b5d6 <__abi_tag-0x194dc6>
  26b5d6:	02 04 01             	add    al,BYTE PTR [rcx+rax*1]
  26b5d9:	e4 05                	in     al,0x5
  26b5db:	6e                   	outs   dx,BYTE PTR ds:[rsi]
  26b5dc:	00 02                	add    BYTE PTR [rdx],al
  26b5de:	04 01                	add    al,0x1
  26b5e0:	82                   	(bad)  
  26b5e1:	05 1f 75 05 1a       	add    eax,0x1a05751f
  26b5e6:	bb 05 42 bb 05       	mov    ebx,0x5bb4205
  26b5eb:	34 82                	xor    al,0x82
  26b5ed:	05 24 3c 05 1f       	add    eax,0x1f053c24
  26b5f2:	ac                   	lods   al,BYTE PTR ds:[rsi]
  26b5f3:	05 34 4a 05 24       	add    eax,0x24054a34
  26b5f8:	ac                   	lods   al,BYTE PTR ds:[rsi]
  26b5f9:	05 34 ac 05 10       	add    eax,0x1005ac34
  26b5fe:	ca 05 0b             	retf   0xb05
  26b601:	ac                   	lods   al,BYTE PTR ds:[rsi]
  26b602:	05 0a 4a 05 69       	add    eax,0x69054a0a
  26b607:	08 91 05 19 4a 05    	or     BYTE PTR [rcx+0x54a1905],dl
  26b60d:	27                   	(bad)  
  26b60e:	82                   	(bad)  
  26b60f:	05 45 82 05 40       	add    eax,0x40058245
  26b614:	82                   	(bad)  
  26b615:	05 69 4a 05 45       	add    eax,0x45054a69
  26b61a:	82                   	(bad)  
  26b61b:	05 3e 82 05 55       	add    eax,0x5505823e
  26b620:	74 05                	je     26b627 <__abi_tag-0x194d75>
  26b622:	51                   	push   rcx
  26b623:	74 05                	je     26b62a <__abi_tag-0x194d72>
  26b625:	69 66 05 10 3e 05 1b 	imul   esp,DWORD PTR [rsi+0x5],0x1b053e10
  26b62c:	ac                   	lods   al,BYTE PTR ds:[rsi]
  26b62d:	05 09 ac 05 14       	add    eax,0x1405ac09
  26b632:	91                   	xchg   ecx,eax
  26b633:	05 0d ac 05 31       	add    eax,0x3105ac0d
  26b638:	00 02                	add    BYTE PTR [rdx],al
  26b63a:	04 01                	add    al,0x1
  26b63c:	58                   	pop    rax
  26b63d:	05 2d 00 02 04       	add    eax,0x402002d
  26b642:	01 ac 05 21 83 05 1d 	add    DWORD PTR [rbp+rax*1+0x1d058321],ebp
  26b649:	ac                   	lods   al,BYTE PTR ds:[rsi]
  26b64a:	05 28 ad 05 37       	add    eax,0x3705ad28
  26b64f:	ac                   	lods   al,BYTE PTR ds:[rsi]
  26b650:	05 13 58 05 50       	add    eax,0x50055813
  26b655:	3d 05 2d 82 05       	cmp    eax,0x5822d05
  26b65a:	37                   	(bad)  
  26b65b:	f3 05 43 ac 05 13    	repz add eax,0x1305ac43
  26b661:	4a 05 1c 82 05 13    	rex.WX add rax,0x1305821c
  26b667:	ac                   	lods   al,BYTE PTR ds:[rsi]
  26b668:	05 15 e5 05 28       	add    eax,0x2805e515
  26b66d:	e5 05                	in     eax,0x5
  26b66f:	38 82 05 53 82 05    	cmp    BYTE PTR [rdx+0x5825305],al
  26b675:	4f 82                	rex.WRXB (bad) 
  26b677:	05 32 4a 05 10       	add    eax,0x10054a32
  26b67c:	4a 05 16 ac 05 17    	rex.WX add rax,0x1705ac16
  26b682:	4a 05 18 74 05 1d    	rex.WX add rax,0x1d057418
  26b688:	3d 05 1c 66 05       	cmp    eax,0x5661c05
  26b68d:	28 ca                	sub    dl,cl
  26b68f:	05 38 82 05 53       	add    eax,0x53058238
  26b694:	82                   	(bad)  
  26b695:	05 4f 82 05 32       	add    eax,0x3205824f
  26b69a:	4a 05 10 4a 05 16    	rex.WX add rax,0x16054a10
  26b6a0:	ac                   	lods   al,BYTE PTR ds:[rsi]
  26b6a1:	05 17 4a 05 18       	add    eax,0x18054a17
  26b6a6:	74 05                	je     26b6ad <__abi_tag-0x194cef>
  26b6a8:	11 3f                	adc    DWORD PTR [rdi],edi
  26b6aa:	05 0c 08 2f 05       	add    eax,0x52f080c
  26b6af:	01 4b 05             	add    DWORD PTR [rbx+0x5],ecx
  26b6b2:	29 30                	sub    DWORD PTR [rax],esi
  26b6b4:	05 0f f3 05 05       	add    eax,0x505f30f
  26b6b9:	08 2f                	or     BYTE PTR [rdi],ch
  26b6bb:	05 16 00 02 04       	add    eax,0x4020016
  26b6c0:	01 74 05 0e          	add    DWORD PTR [rbp+rax*1+0xe],esi
  26b6c4:	00 02                	add    BYTE PTR [rdx],al
  26b6c6:	04 01                	add    al,0x1
  26b6c8:	ac                   	lods   al,BYTE PTR ds:[rsi]
  26b6c9:	05 15 67 05 10       	add    eax,0x10056715
  26b6ce:	08 2f                	or     BYTE PTR [rdi],ch
  26b6d0:	05 1b a1 05 21       	add    eax,0x2105a11b
  26b6d5:	ac                   	lods   al,BYTE PTR ds:[rsi]
  26b6d6:	05 22 4a 05 0e       	add    eax,0xe054a22
  26b6db:	9e                   	sahf   
  26b6dc:	05 24 4b 05 20       	add    eax,0x20054b24
  26b6e1:	9e                   	sahf   
  26b6e2:	05 0a 74 05 05       	add    eax,0x505740a
  26b6e7:	3c 05                	cmp    al,0x5
  26b6e9:	15 59 05 10 08       	adc    eax,0x8100559
  26b6ee:	2f                   	(bad)  
  26b6ef:	05 0d a1 05 24       	add    eax,0x2405a10d
  26b6f4:	82                   	(bad)  
  26b6f5:	05 05 82 05 27       	add    eax,0x27058205
  26b6fa:	92                   	xchg   edx,eax
  26b6fb:	05 3c 82 05 22       	add    eax,0x2205823c
  26b700:	3c 05                	cmp    al,0x5
  26b702:	55                   	push   rbp
  26b703:	83 05 29 82 05 3f f3 	add    DWORD PTR [rip+0x3f058229],0xfffffff3        # 3f2c3933 <_end+0x3e1b9d73>
  26b70a:	05 4f 82 05 0f       	add    eax,0xf05824f
  26b70f:	4a 05 19 82 05 0f    	rex.WX add rax,0xf058219
  26b715:	82                   	(bad)  
  26b716:	05 10 e5 05 09       	add    eax,0x905e510
  26b71b:	82                   	(bad)  
  26b71c:	05 37 00 02 04       	add    eax,0x4020037
  26b721:	01 58 05             	add    DWORD PTR [rax+0x5],ebx
  26b724:	33 00                	xor    eax,DWORD PTR [rax]
  26b726:	02 04 01             	add    al,BYTE PTR [rcx+rax*1]
  26b729:	82                   	(bad)  
  26b72a:	05 27 83 05 23       	add    eax,0x23058327
  26b72f:	82                   	(bad)  
  26b730:	05 1b 83 05 21       	add    eax,0x2105831b
  26b735:	bb 05 08 bc 05       	mov    ebx,0x5bc0805
  26b73a:	1b 82 05 2d 82 05    	sbb    eax,DWORD PTR [rdx+0x5822d05]
  26b740:	2e ac                	lods   al,BYTE PTR ds:[rsi]
  26b742:	05 1f 75 05 1b       	add    eax,0x1b05751f
  26b747:	9e                   	sahf   
  26b748:	05 33 74 05 08       	add    eax,0x8057433
  26b74d:	75 05                	jne    26b754 <__abi_tag-0x194c48>
  26b74f:	18 82 05 11 bb 05    	sbb    BYTE PTR [rdx+0x5bb1105],al
  26b755:	0d 08 2f 05 01       	or     eax,0x1052f08
  26b75a:	75 05                	jne    26b761 <__abi_tag-0x194c3b>
  26b75c:	1b 30                	sbb    esi,DWORD PTR [rax]
  26b75e:	05 0b bc 05 05       	add    eax,0x505bc0b
  26b763:	82                   	(bad)  
  26b764:	05 28 00 02 04       	add    eax,0x4020028
  26b769:	03 2f                	add    ebp,DWORD PTR [rdi]
  26b76b:	05 0d 00 02 04       	add    eax,0x402000d
  26b770:	03 08                	add    ecx,DWORD PTR [rax]
  26b772:	12 05 05 00 02 04    	adc    al,BYTE PTR [rip+0x4020005]        # 428b77d <_end+0x3181bbd>
  26b778:	03 81 05 14 00 02    	add    eax,DWORD PTR [rcx+0x2001405]
  26b77e:	04 01                	add    al,0x1
  26b780:	58                   	pop    rax
  26b781:	05 0f 00 02 04       	add    eax,0x402000f
  26b786:	01 ac 05 0d 69 05 09 	add    DWORD PTR [rbp+rax*1+0x905690d],ebp
  26b78d:	82                   	(bad)  
  26b78e:	05 0d 83 05 09       	add    eax,0x905830d
  26b793:	82                   	(bad)  
  26b794:	83 05 01 bb 05 24 3e 	add    DWORD PTR [rip+0x2405bb01],0x3e        # 242c729c <_end+0x231bd6dc>
  26b79b:	05 05 bb 05 16       	add    eax,0x1605bb05
  26b7a0:	00 02                	add    BYTE PTR [rdx],al
  26b7a2:	04 01                	add    al,0x1
  26b7a4:	74 05                	je     26b7ab <__abi_tag-0x194bf1>
  26b7a6:	0e                   	(bad)  
  26b7a7:	00 02                	add    BYTE PTR [rdx],al
  26b7a9:	04 01                	add    al,0x1
  26b7ab:	ac                   	lods   al,BYTE PTR ds:[rsi]
  26b7ac:	05 10 67 05 1b       	add    eax,0x1b056710
  26b7b1:	77 05                	ja     26b7b8 <__abi_tag-0x194be4>
  26b7b3:	21 ac 05 22 4a 05 0e 	and    DWORD PTR [rbp+rax*1+0xe054a22],ebp
  26b7ba:	9e                   	sahf   
  26b7bb:	05 24 4b 05 20       	add    eax,0x20054b24
  26b7c0:	9e                   	sahf   
  26b7c1:	05 0a 74 05 05       	add    eax,0x505740a
  26b7c6:	3c 05                	cmp    al,0x5
  26b7c8:	41 00 02             	add    BYTE PTR [r10],al
  26b7cb:	04 01                	add    al,0x1
  26b7cd:	58                   	pop    rax
  26b7ce:	05 13 75 05 01       	add    eax,0x1057513
  26b7d3:	4b 05 31 30 05 38    	rex.WXB add rax,0x38053031
  26b7d9:	bb 05 11 9e 05       	mov    ebx,0x59e1105
  26b7de:	0e                   	(bad)  
  26b7df:	74 05                	je     26b7e6 <__abi_tag-0x194bb6>
  26b7e1:	0c 75                	or     al,0x75
  26b7e3:	05 01 4b 05 24       	add    eax,0x24054b01
  26b7e8:	03 1f                	add    ebx,DWORD PTR [rdi]
  26b7ea:	2e 05 0d bb 05 05    	cs add eax,0x505bb0d
  26b7f0:	82                   	(bad)  
  26b7f1:	05 20 00 02 04       	add    eax,0x4020020
  26b7f6:	01 58 05             	add    DWORD PTR [rax+0x5],ebx
  26b7f9:	1b 00                	sbb    eax,DWORD PTR [rax]
  26b7fb:	02 04 01             	add    al,BYTE PTR [rcx+rax*1]
  26b7fe:	74 05                	je     26b805 <__abi_tag-0x194b97>
  26b800:	10 83 05 01 02 2b    	adc    BYTE PTR [rbx+0x2b020105],al
  26b806:	13 04 06             	adc    eax,DWORD PTR [rsi+rax*1]
  26b809:	05 48 03 92 7b       	add    eax,0x7b920348
  26b80e:	3c 05                	cmp    al,0x5
  26b810:	0f 08                	invd   
  26b812:	3d 91 91 75 05       	cmp    eax,0x5759191
  26b817:	09 77 05             	or     DWORD PTR [rdi+0x5],esi
  26b81a:	0f 2f 3d 05 13 3a 05 	comiss xmm7,DWORD PTR [rip+0x53a1305]        # 560cb26 <_end+0x4502f66>
  26b821:	16                   	(bad)  
  26b822:	66 05 09 4e          	add    ax,0x4e09
  26b826:	05 0d 67 05 13       	add    eax,0x1305670d
  26b82b:	2f                   	(bad)  
  26b82c:	3d 05 16 3a 05       	cmp    eax,0x53a1605
  26b831:	09 00                	or     DWORD PTR [rax],eax
  26b833:	02 04 01             	add    al,BYTE PTR [rcx+rax*1]
  26b836:	6c                   	ins    BYTE PTR es:[rdi],dx
  26b837:	05 0f 2f 3d 05       	add    eax,0x53d2f0f
  26b83c:	13 3a                	adc    edi,DWORD PTR [rdx]
  26b83e:	05 16 66 05 09       	add    eax,0x9056616
  26b843:	4e 05 0d 67 05 13    	rex.WRX add rax,0x1305670d
  26b849:	2f                   	(bad)  
  26b84a:	3d 05 16 3a 05       	cmp    eax,0x53a1605
  26b84f:	0b 6e 91             	or     ebp,DWORD PTR [rsi-0x6f]
  26b852:	05 09 92 05 13       	add    eax,0x13059209
  26b857:	00 02                	add    BYTE PTR [rdx],al
  26b859:	04 01                	add    al,0x1
  26b85b:	82                   	(bad)  
  26b85c:	05 14 83 05 0f       	add    eax,0xf058314
  26b861:	93                   	xchg   ebx,eax
  26b862:	05 1b 9f 05 09       	add    eax,0x9059f1b
  26b867:	66 05 44 59          	add    ax,0x5944
  26b86b:	05 29 66 05 18       	add    eax,0x18056629
  26b870:	08 4a 05             	or     BYTE PTR [rdx+0x5],cl
  26b873:	27                   	(bad)  
  26b874:	75 05                	jne    26b87b <__abi_tag-0x194b21>
  26b876:	09 94 05 29 83 05 2c 	or     DWORD PTR [rbp+rax*1+0x2c058329],edx
  26b87d:	74 05                	je     26b884 <__abi_tag-0x194b18>
  26b87f:	13 3c 05 15 08 a0 ad 	adc    edi,DWORD PTR [rax*1-0x525ff7eb]
  26b886:	05 0d 83 05 3c       	add    eax,0x3c05830d
  26b88b:	2f                   	(bad)  
  26b88c:	05 17 66 05 23       	add    eax,0x23056617
  26b891:	08 59 05             	or     BYTE PTR [rcx+0x5],bl
  26b894:	21 58 05             	and    DWORD PTR [rax+0x5],ebx
  26b897:	23 83 05 21 58 05    	and    eax,DWORD PTR [rbx+0x5582105]
  26b89d:	16                   	(bad)  
  26b89e:	7f 05                	jg     26b8a5 <__abi_tag-0x194af7>
  26b8a0:	0f 08                	invd   
  26b8a2:	25 05 09 95 05       	and    eax,0x5950905
  26b8a7:	16                   	(bad)  
  26b8a8:	83 05 0d 74 05 3b 00 	add    DWORD PTR [rip+0x3b05740d],0x0        # 3b2c2cbc <_end+0x3a1b90fc>
  26b8af:	02 04 03             	add    al,BYTE PTR [rbx+rax*1]
  26b8b2:	2f                   	(bad)  
  26b8b3:	05 37 00 02 04       	add    eax,0x4020037
  26b8b8:	03 74 05 34          	add    esi,DWORD PTR [rbp+rax*1+0x34]
  26b8bc:	00 02                	add    BYTE PTR [rdx],al
  26b8be:	04 03                	add    al,0x3
  26b8c0:	90                   	nop
  26b8c1:	05 3b 00 02 04       	add    eax,0x402003b
  26b8c6:	03 74 05 24          	add    esi,DWORD PTR [rbp+rax*1+0x24]
  26b8ca:	00 02                	add    BYTE PTR [rdx],al
  26b8cc:	04 03                	add    al,0x3
  26b8ce:	ba 05 22 00 02       	mov    edx,0x2002205
  26b8d3:	04 03                	add    al,0x3
  26b8d5:	74 05                	je     26b8dc <__abi_tag-0x194ac0>
  26b8d7:	1f                   	(bad)  
  26b8d8:	00 02                	add    BYTE PTR [rdx],al
  26b8da:	04 03                	add    al,0x3
  26b8dc:	90                   	nop
  26b8dd:	05 24 00 02 04       	add    eax,0x4020024
  26b8e2:	03 74 05 3b          	add    esi,DWORD PTR [rbp+rax*1+0x3b]
  26b8e6:	00 02                	add    BYTE PTR [rdx],al
  26b8e8:	04 03                	add    al,0x3
  26b8ea:	74 05                	je     26b8f1 <__abi_tag-0x194aab>
  26b8ec:	25 00 02 04 03       	and    eax,0x3040200
  26b8f1:	2e 05 0d 00 02 04    	cs add eax,0x402000d
  26b8f7:	03 2d 05 1b 00 02    	add    ebp,DWORD PTR [rip+0x2001b05]        # 226d402 <_end+0x1163842>
  26b8fd:	04 01                	add    al,0x1
  26b8ff:	4a 05 09 87 05 16    	rex.WX add rax,0x16058709
  26b905:	83 05 0d 74 05 3c 00 	add    DWORD PTR [rip+0x3c05740d],0x0        # 3c2c2d19 <_end+0x3b1b9159>
  26b90c:	02 04 03             	add    al,BYTE PTR [rbx+rax*1]
  26b90f:	2f                   	(bad)  
  26b910:	05 34 00 02 04       	add    eax,0x4020034
  26b915:	03 74 05 37          	add    esi,DWORD PTR [rbp+rax*1+0x37]
  26b919:	00 02                	add    BYTE PTR [rdx],al
  26b91b:	04 03                	add    al,0x3
  26b91d:	90                   	nop
  26b91e:	05 39 00 02 04       	add    eax,0x4020039
  26b923:	03 58 05             	add    ebx,DWORD PTR [rax+0x5]
  26b926:	3c 00                	cmp    al,0x0
  26b928:	02 04 03             	add    al,BYTE PTR [rbx+rax*1]
  26b92b:	58                   	pop    rax
  26b92c:	05 24 00 02 04       	add    eax,0x4020024
  26b931:	03 82 05 1f 00 02    	add    eax,DWORD PTR [rdx+0x2001f05]
  26b937:	04 03                	add    al,0x3
  26b939:	74 05                	je     26b940 <__abi_tag-0x194a5c>
  26b93b:	22 00                	and    al,BYTE PTR [rax]
  26b93d:	02 04 03             	add    al,BYTE PTR [rbx+rax*1]
  26b940:	90                   	nop
  26b941:	05 24 00 02 04       	add    eax,0x4020024
  26b946:	03 74 05 3c          	add    esi,DWORD PTR [rbp+rax*1+0x3c]
  26b94a:	00 02                	add    BYTE PTR [rdx],al
  26b94c:	04 03                	add    al,0x3
  26b94e:	74 05                	je     26b955 <__abi_tag-0x194a47>
  26b950:	25 00 02 04 03       	and    eax,0x3040200
  26b955:	2e 05 0d 00 02 04    	cs add eax,0x402000d
  26b95b:	03 2d 05 1b 00 02    	add    ebp,DWORD PTR [rip+0x2001b05]        # 226d466 <_end+0x11638a6>
  26b961:	04 01                	add    al,0x1
  26b963:	4a 05 0c 03 0c 82    	rex.WX add rax,0xffffffff820c030c
  26b969:	91                   	xchg   ecx,eax
  26b96a:	05 10 92 05 05       	add    eax,0x5059210
  26b96f:	76 05                	jbe    26b976 <__abi_tag-0x194a26>
  26b971:	1f                   	(bad)  
  26b972:	31 82 05 10 e5 05    	xor    DWORD PTR [rdx+0x5e51005],eax
  26b978:	16                   	(bad)  
  26b979:	75 05                	jne    26b980 <__abi_tag-0x194a1c>
  26b97b:	10 08                	adc    BYTE PTR [rax],cl
  26b97d:	13 05 05 3d 05 4a    	adc    eax,DWORD PTR [rip+0x4a053d05]        # 4a2bf688 <_end+0x491b5ac8>
  26b983:	08 5b 08             	or     BYTE PTR [rbx+0x8],bl
  26b986:	4a 05 18 ec 05 0f    	rex.WX add rax,0xf05ec18
  26b98c:	e4 05                	in     al,0x5
  26b98e:	34 3d                	xor    al,0x3d
  26b990:	05 18 08 ad 91       	add    eax,0x91ad0818
  26b995:	05 2a 9f 05 29       	add    eax,0x29059f2a
  26b99a:	ad                   	lods   eax,DWORD PTR ds:[rsi]
  26b99b:	05 27 ad 05 1d       	add    eax,0x1d05ad27
  26b9a0:	ad                   	lods   eax,DWORD PTR ds:[rsi]
  26b9a1:	05 25 ad 05 27       	add    eax,0x2705ad25
  26b9a6:	ad                   	lods   eax,DWORD PTR ds:[rsi]
  26b9a7:	05 1c ad 05 2b       	add    eax,0x2b05ad1c
  26b9ac:	ad                   	lods   eax,DWORD PTR ds:[rsi]
  26b9ad:	05 30 ad 05 34       	add    eax,0x3405ad30
  26b9b2:	ad                   	lods   eax,DWORD PTR ds:[rsi]
  26b9b3:	05 31 ad 05 12       	add    eax,0x1205ad31
  26b9b8:	ae                   	scas   al,BYTE PTR es:[rdi]
  26b9b9:	05 09 66 05 29       	add    eax,0x29056609
  26b9be:	4b 05 16 ad 05 0d    	rex.WXB add rax,0xd05ad16
  26b9c4:	66 05 46 4b          	add    ax,0x4b46
  26b9c8:	05 48 74 05 44       	add    eax,0x44057448
  26b9cd:	3c 05                	cmp    al,0x5
  26b9cf:	34 c8                	xor    al,0xc8
  26b9d1:	05 44 83 05 46       	add    eax,0x46058344
  26b9d6:	74 05                	je     26b9dd <__abi_tag-0x1949bf>
  26b9d8:	17                   	(bad)  
  26b9d9:	3c 05                	cmp    al,0x5
  26b9db:	26 3c 05             	es cmp al,0x5
  26b9de:	17                   	(bad)  
  26b9df:	82                   	(bad)  
  26b9e0:	05 34 08 3e 05       	add    eax,0x53e0834
  26b9e5:	30 08                	xor    BYTE PTR [rax],cl
  26b9e7:	15 05 3c bb 05       	adc    eax,0x5bb3c05
  26b9ec:	29 58 05             	sub    DWORD PTR [rax+0x5],ebx
  26b9ef:	39 75 05             	cmp    DWORD PTR [rbp+0x5],esi
  26b9f2:	1b 74 05 23          	sbb    esi,DWORD PTR [rbp+rax*1+0x23]
  26b9f6:	bd 05 18 58 05       	mov    ebp,0x5581805
  26b9fb:	1f                   	(bad)  
  26b9fc:	67 05 0d 66 05 31    	addr32 add eax,0x3105660d
  26ba02:	00 02                	add    BYTE PTR [rdx],al
  26ba04:	04 01                	add    al,0x1
  26ba06:	4a 05 23 02 3a 13    	rex.WX add rax,0x133a0223
  26ba0c:	05 18 58 05 1c       	add    eax,0x1c055818
  26ba11:	67 05 0d 66 05 2f    	addr32 add eax,0x2f05660d
  26ba17:	00 02                	add    BYTE PTR [rdx],al
  26ba19:	04 01                	add    al,0x1
  26ba1b:	4a 05 1f 00 02 04    	rex.WX add rax,0x402001f
  26ba21:	01 66 05             	add    DWORD PTR [rsi+0x5],esp
  26ba24:	17                   	(bad)  
  26ba25:	91                   	xchg   ecx,eax
  26ba26:	05 1c 66 05 36       	add    eax,0x3605661c
  26ba2b:	67 05 1e 08 9f 05    	addr32 add eax,0x59f081e
  26ba31:	33 02                	xor    eax,DWORD PTR [rdx]
  26ba33:	3a 13                	cmp    dl,BYTE PTR [rbx]
  26ba35:	05 24 ad 9f 05       	add    eax,0x59fad24
  26ba3a:	27                   	(bad)  
  26ba3b:	9f                   	lahf   
  26ba3c:	05 1c 58 05 15       	add    eax,0x1505581c
  26ba41:	67 05 11 66 05 26    	addr32 add eax,0x26056611
  26ba47:	83 05 2b 02 30 13 05 	add    DWORD PTR [rip+0x1330022b],0x5        # 1356bc79 <_end+0x124620b9>
  26ba4e:	20 58 05             	and    BYTE PTR [rax+0x5],bl
  26ba51:	19 67 05             	sbb    DWORD PTR [rdi+0x5],esp
  26ba54:	15 66 05 1e 4b       	adc    eax,0x4b1e0566
  26ba59:	e5 05                	in     eax,0x5
  26ba5b:	37                   	(bad)  
  26ba5c:	ca 05 28             	retf   0x2805
  26ba5f:	ad                   	lods   eax,DWORD PTR ds:[rsi]
  26ba60:	9f                   	lahf   
  26ba61:	05 1e a1 05 10       	add    eax,0x1005a11e
  26ba66:	a0 05 05 3d 05 36 08 	movabs al,ds:0xba5a0836053d0505
  26ba6d:	5a ba 
  26ba6f:	05 34 e6 05 15       	add    eax,0x1505e634
  26ba74:	08 74 05 1b          	or     BYTE PTR [rbp+rax*1+0x1b],dh
  26ba78:	75 05                	jne    26ba7f <__abi_tag-0x19491d>
  26ba7a:	09 9e 05 1b 83 05    	or     DWORD PTR [rsi+0x5831b05],ebx
  26ba80:	3c 74                	cmp    al,0x74
  26ba82:	05 29 58 05 39       	add    eax,0x39055829
  26ba87:	3d 05 1b 9e 05       	cmp    eax,0x59e1b05
  26ba8c:	23 bd 05 18 58 05    	and    edi,DWORD PTR [rbp+0x5581805]
  26ba92:	1f                   	(bad)  
  26ba93:	67 05 0d 66 05 31    	addr32 add eax,0x3105660d
  26ba99:	00 02                	add    BYTE PTR [rdx],al
  26ba9b:	04 01                	add    al,0x1
  26ba9d:	4a 05 9b 01 00 02    	rex.WX add rax,0x200019b
  26baa3:	04 01                	add    al,0x1
  26baa5:	74 05                	je     26baac <__abi_tag-0x1948f0>
  26baa7:	31 00                	xor    DWORD PTR [rax],eax
  26baa9:	02 04 01             	add    al,BYTE PTR [rcx+rax*1]
  26baac:	4a 05 23 02 45 13    	rex.WX add rax,0x13450223
  26bab2:	05 18 58 05 1c       	add    eax,0x1c055818
  26bab7:	67 05 0d 66 05 2f    	addr32 add eax,0x2f05660d
  26babd:	00 02                	add    BYTE PTR [rdx],al
  26babf:	04 01                	add    al,0x1
  26bac1:	4a 05 1f 00 02 04    	rex.WX add rax,0x402001f
  26bac7:	01 66 05             	add    DWORD PTR [rsi+0x5],esp
  26baca:	2c 91                	sub    al,0x91
  26bacc:	05 33 74 05 27       	add    eax,0x27057433
  26bad1:	75 05                	jne    26bad8 <__abi_tag-0x1948c4>
  26bad3:	17                   	(bad)  
  26bad4:	90                   	nop
  26bad5:	05 27 3d 05 17       	add    eax,0x17053d27
  26bada:	9e                   	sahf   
  26badb:	05 35 3d 05 1f       	add    eax,0x1f053d35
  26bae0:	02 22                	add    ah,BYTE PTR [rdx]
  26bae2:	13 05 24 74 05 1f    	adc    eax,DWORD PTR [rip+0x1f057424]        # 1f2c2f0c <_end+0x1e1b934c>
  26bae8:	67 05 24 74 05 1e    	addr32 add eax,0x1e057424
  26baee:	67 05 27 02 3a 13    	addr32 add eax,0x133a0227
  26baf4:	05 1c 58 05 15       	add    eax,0x1505581c
  26baf9:	67 05 11 66 05 26    	addr32 add eax,0x26056611
  26baff:	83 05 8a 01 74 05 26 	add    DWORD PTR [rip+0x574018a],0x26        # 59abc90 <_end+0x48a20d0>
  26bb06:	4a 05 2b 02 3b 13    	rex.WX add rax,0x133b022b
  26bb0c:	05 20 58 05 19       	add    eax,0x19055820
  26bb11:	67 05 15 66 05 1e    	addr32 add eax,0x1e056615
  26bb17:	4b e5 05             	rex.WXB in eax,0x5
  26bb1a:	30 ca                	xor    dl,cl
  26bb1c:	05 37 74 75 05       	add    eax,0x5757437
  26bb21:	23 74 05 37          	and    esi,DWORD PTR [rbp+rax*1+0x37]
  26bb25:	74 05                	je     26bb2c <__abi_tag-0x194870>
  26bb27:	28 2e                	sub    BYTE PTR [rsi],ch
  26bb29:	05 37 3d 05 23       	add    eax,0x23053d37
  26bb2e:	74 05                	je     26bb35 <__abi_tag-0x194867>
  26bb30:	37                   	(bad)  
  26bb31:	74 05                	je     26bb38 <__abi_tag-0x194864>
  26bb33:	28 3c 05 11 3f 05 20 	sub    BYTE PTR [rax*1+0x20053f11],bh
  26bb3a:	74 05                	je     26bb41 <__abi_tag-0x19485b>
  26bb3c:	11 4a 05             	adc    DWORD PTR [rdx+0x5],ecx
  26bb3f:	1b 83 05 30 74 05    	sbb    eax,DWORD PTR [rbx+0x5743005]
  26bb45:	1e                   	(bad)  
  26bb46:	83 05 05 a0 05 4e 08 	add    DWORD PTR [rip+0x4e05a005],0x8        # 4e2c5b52 <_end+0x4d1bbf92>
  26bb4d:	a0 05 1b bb 05 09 74 	movabs al,ds:0x1e05740905bb1b05
  26bb54:	05 1e 
  26bb56:	86 08                	xchg   BYTE PTR [rax],cl
  26bb58:	3d 05 20 08 21       	cmp    eax,0x21082005
  26bb5d:	08 3d 08 3d 08 3d    	or     BYTE PTR [rip+0x3d083d08],bh        # 3d2ef86b <_end+0x3c1e5cab>
  26bb63:	08 3d 08 3d 08 3d    	or     BYTE PTR [rip+0x3d083d08],bh        # 3d2ef871 <_end+0x3c1e5cb1>
  26bb69:	05 1d 08 3d 05       	add    eax,0x53d081d
  26bb6e:	2a 02                	sub    al,BYTE PTR [rdx]
  26bb70:	40 13 05 14 02 27 1a 	rex adc eax,DWORD PTR [rip+0x1a270214]        # 1a4dbd8b <_end+0x193d21cb>
  26bb77:	05 2e 9f 05 2d       	add    eax,0x2d059f2e
  26bb7c:	82                   	(bad)  
  26bb7d:	05 1e 75 05 05       	add    eax,0x505751e
  26bb82:	a0 04 05 05 34 03 a3 	movabs al,ds:0x3c04a30334050504
  26bb89:	04 3c 
  26bb8b:	05 0f ae 05 05       	add    eax,0x505ae0f
  26bb90:	66 05 32 00          	add    ax,0x32
  26bb94:	02 04 02             	add    al,BYTE PTR [rdx+rax*1]
  26bb97:	58                   	pop    rax
  26bb98:	05 2a 00 02 04       	add    eax,0x402002a
  26bb9d:	02 66 05             	add    ah,BYTE PTR [rsi+0x5]
  26bba0:	54                   	push   rsp
  26bba1:	00 02                	add    BYTE PTR [rdx],al
  26bba3:	04 03                	add    al,0x3
  26bba5:	58                   	pop    rax
  26bba6:	05 43 75 05 27       	add    eax,0x27057543
  26bbab:	ac                   	lods   al,BYTE PTR ds:[rsi]
  26bbac:	05 05 08 83 05       	add    eax,0x5830805
  26bbb1:	1b 00                	sbb    eax,DWORD PTR [rax]
  26bbb3:	02 04 01             	add    al,BYTE PTR [rcx+rax*1]
  26bbb6:	74 05                	je     26bbbd <__abi_tag-0x1947df>
  26bbb8:	0f 75 05 05 74 05 1d 	pcmpeqw mm0,QWORD PTR [rip+0x1d057405]        # 1d2c2fc4 <_end+0x1c1b9404>
  26bbbf:	00 02                	add    BYTE PTR [rdx],al
  26bbc1:	04 01                	add    al,0x1
  26bbc3:	4a 05 0c 75 05 01    	rex.WX add rax,0x105750c
  26bbc9:	4b 05 2b 2f 05 12    	rex.WXB add rax,0x12052f2b
  26bbcf:	75 05                	jne    26bbd6 <__abi_tag-0x1947c6>
  26bbd1:	13 66 05             	adc    esp,DWORD PTR [rsi+0x5]
  26bbd4:	01 59 04             	add    DWORD PTR [rcx+0x4],ebx
  26bbd7:	07                   	(bad)  
  26bbd8:	05 79 03 e9 79       	add    eax,0x79e90379
  26bbdd:	2e 05 01 08 c1 05    	cs add eax,0x5c10801
  26bbe3:	0b 67 05             	or     esp,DWORD PTR [rdi+0x5]
  26bbe6:	08 ad 05 10 9f 05    	or     BYTE PTR [rbp+0x59f1005],ch
  26bbec:	0f 74 05 10 66 05 12 	pcmpeqb mm0,QWORD PTR [rip+0x12056610]        # 122c2203 <_end+0x111b8643>
  26bbf3:	f2 05 08 3c 05 16    	repnz add eax,0x16053c08
  26bbf9:	67 05 17 9f 05 02    	addr32 add eax,0x2059f17
  26bbff:	9f                   	lahf   
  26bc00:	05 1b 00 02 04       	add    eax,0x402001b
  26bc05:	01 66 05             	add    DWORD PTR [rsi+0x5],esp
  26bc08:	09 9f 05 13 a2 05    	or     DWORD PTR [rdi+0x5a21305],ebx
  26bc0e:	0b 66 05             	or     esp,DWORD PTR [rsi+0x5]
  26bc11:	01 03                	add    DWORD PTR [rbx],eax
  26bc13:	0d 66 05 42 67       	or     eax,0x67420566
  26bc18:	05 25 58 05 08       	add    eax,0x8055825
  26bc1d:	ba 05 0c 77 05       	mov    edx,0x5770c05
  26bc22:	0d 9f 05 11 9f       	or     eax,0x9f11059f
  26bc27:	05 01 9e 05 1b       	add    eax,0x1b059e01
  26bc2c:	59                   	pop    rcx
  26bc2d:	05 26 82 05 10       	add    eax,0x10058226
  26bc32:	08 12                	or     BYTE PTR [rdx],dl
  26bc34:	05 1e 69 05 26       	add    eax,0x2605691e
  26bc39:	82                   	(bad)  
  26bc3a:	05 25 74 05 26       	add    eax,0x26057425
  26bc3f:	66 05 1e f2          	add    ax,0xf21e
  26bc43:	05 0c e4 05 12       	add    eax,0x1205e40c
  26bc48:	6a 05                	push   0x5
  26bc4a:	1a 82 05 19 74 05    	sbb    al,BYTE PTR [rdx+0x5741905]
  26bc50:	1a 66 05             	sbb    ah,BYTE PTR [rsi+0x5]
  26bc53:	12 f2                	adc    dh,dl
  26bc55:	05 05 08 4e 05       	add    eax,0x54e0805
  26bc5a:	01 66 05             	add    DWORD PTR [rsi+0x5],esp
  26bc5d:	1b 4c 05 1a          	sbb    ecx,DWORD PTR [rbp+rax*1+0x1a]
  26bc61:	74 05                	je     26bc68 <__abi_tag-0x194734>
  26bc63:	1b 66 05             	sbb    esp,DWORD PTR [rsi+0x5]
  26bc66:	1d f2 05 13 4a       	sbb    eax,0x4a1305f2
  26bc6b:	05 1b 08 7a 05       	add    eax,0x57a081b
  26bc70:	1a 74 05 1b          	sbb    dh,BYTE PTR [rbp+rax*1+0x1b]
  26bc74:	66 05 1d f2          	add    ax,0xf21d
  26bc78:	05 13 4a 05 0f       	add    eax,0xf054a13
  26bc7d:	08 5f 05             	or     BYTE PTR [rdi+0x5],bl
  26bc80:	0e                   	(bad)  
  26bc81:	74 05                	je     26bc88 <__abi_tag-0x194714>
  26bc83:	0f 66 05 11 f2 05 19 	pcmpgtd mm0,QWORD PTR [rip+0x1905f211]        # 192cae9b <_end+0x181c12db>
  26bc8a:	4a 05 27 74 05 07    	rex.WX add rax,0x7057427
  26bc90:	66 05 0b 68          	add    ax,0x680b
  26bc94:	05 0a 74 05 0b       	add    eax,0xb05740a
  26bc99:	66 05 0d f2          	add    ax,0xf20d
  26bc9d:	05 15 4a 05 1c       	add    eax,0x1c054a15
  26bca2:	74 05                	je     26bca9 <__abi_tag-0x1946f3>
  26bca4:	03 66 67             	add    esp,DWORD PTR [rsi+0x67]
  26bca7:	05 0b 9f 05 0a       	add    eax,0xa059f0b
  26bcac:	74 05                	je     26bcb3 <__abi_tag-0x1946e9>
  26bcae:	0b 66 05             	or     esp,DWORD PTR [rsi+0x5]
  26bcb1:	0d f2 05 15 4a       	or     eax,0x4a1505f2
  26bcb6:	05 23 74 05 03       	add    eax,0x3057423
  26bcbb:	66 05 0b 67          	add    ax,0x670b
  26bcbf:	05 0a 74 05 0b       	add    eax,0xb05740a
  26bcc4:	66 05 0d f2          	add    ax,0xf20d
  26bcc8:	05 15 4a 05 23       	add    eax,0x23054a15
  26bccd:	74 05                	je     26bcd4 <__abi_tag-0x1946c8>
  26bccf:	03 66 05             	add    esp,DWORD PTR [rsi+0x5]
  26bcd2:	16                   	(bad)  
  26bcd3:	67 05 15 74 05 16    	addr32 add eax,0x16057415
  26bcd9:	66 05 18 f2          	add    ax,0xf218
  26bcdd:	05 20 4a 05 2e       	add    eax,0x2e054a20
  26bce2:	74 05                	je     26bce9 <__abi_tag-0x1946b3>
  26bce4:	06                   	(bad)  
  26bce5:	74 05                	je     26bcec <__abi_tag-0x1946b0>
  26bce7:	0b 76 05             	or     esi,DWORD PTR [rsi+0x5]
  26bcea:	0a 74 05 0b          	or     dh,BYTE PTR [rbp+rax*1+0xb]
  26bcee:	66 05 0d f2          	add    ax,0xf20d
  26bcf2:	05 03 3c 05 0b       	add    eax,0xb053c03
  26bcf7:	68 05 0a 74 05       	push   0x5740a05
  26bcfc:	0b 66 05             	or     esp,DWORD PTR [rsi+0x5]
  26bcff:	0d f2 05 15 4a       	or     eax,0x4a1505f2
  26bd04:	05 24 74 05 25       	add    eax,0x25057424
  26bd09:	74 05                	je     26bd10 <__abi_tag-0x19468c>
  26bd0b:	03 e4                	add    esp,esp
  26bd0d:	05 07 67 05 01       	add    eax,0x1056707
  26bd12:	ba 05 0e 00 02       	mov    edx,0x2000e05
  26bd17:	04 01                	add    al,0x1
  26bd19:	4a 05 04 bb 05 07    	rex.WX add rax,0x705bb04
  26bd1f:	9f                   	lahf   
  26bd20:	05 01 66 05 08       	add    eax,0x8056601
  26bd25:	4b 05 0c d6 05 01    	rex.WXB add rax,0x105d60c
  26bd2b:	66 05 16 00          	add    ax,0x16
  26bd2f:	02 04 01             	add    al,BYTE PTR [rcx+rax*1]
  26bd32:	4a 05 13 00 02 04    	rex.WX add rax,0x4020013
  26bd38:	01 d6                	add    esi,edx
  26bd3a:	05 04 67 05 07       	add    eax,0x7056704
  26bd3f:	bc 05 01 66 05       	mov    esp,0x5660105
  26bd44:	06                   	(bad)  
  26bd45:	4b 05 03 d6 05 0c    	rex.WXB add rax,0xc05d603
  26bd4b:	6a 05                	push   0x5
  26bd4d:	0b 74 05 0c          	or     esi,DWORD PTR [rbp+rax*1+0xc]
  26bd51:	66 05 0e f2          	add    ax,0xf20e
  26bd55:	05 01 4a 05 10       	add    eax,0x10054a01
  26bd5a:	83 05 0f 74 05 10 66 	add    DWORD PTR [rip+0x1005740f],0x66        # 102c3170 <_end+0xf1b95b0>
  26bd61:	05 12 f2 05 07       	add    eax,0x705f212
  26bd66:	3c 05                	cmp    al,0x5
  26bd68:	01 66 05             	add    DWORD PTR [rsi+0x5],esp
  26bd6b:	0b 4b 05             	or     ecx,DWORD PTR [rbx+0x5]
  26bd6e:	0a 74 05 0b          	or     dh,BYTE PTR [rbp+rax*1+0xb]
  26bd72:	66 05 0d f2          	add    ax,0xf20d
  26bd76:	05 03 3c 67 05       	add    eax,0x5673c03
  26bd7b:	07                   	(bad)  
  26bd7c:	9f                   	lahf   
  26bd7d:	05 0c 08 12 05       	add    eax,0x512080c
  26bd82:	09 08                	or     DWORD PTR [rax],ecx
  26bd84:	12 05 04 2e 05 18    	adc    al,BYTE PTR [rip+0x18052e04]        # 182beb8e <_end+0x171b4fce>
  26bd8a:	6a 05                	push   0x5
  26bd8c:	15 e4 05 06 e4       	adc    eax,0xe40605e4
  26bd91:	05 0c 76 05 0b       	add    eax,0xb05760c
  26bd96:	74 05                	je     26bd9d <__abi_tag-0x1945ff>
  26bd98:	0c 66                	or     al,0x66
  26bd9a:	05 0e f2 05 20       	add    eax,0x2005f20e
  26bd9f:	3c 05                	cmp    al,0x5
  26bda1:	1f                   	(bad)  
  26bda2:	74 05                	je     26bda9 <__abi_tag-0x1945f3>
  26bda4:	20 66 05             	and    BYTE PTR [rsi+0x5],ah
  26bda7:	22 f2                	and    dh,dl
  26bda9:	05 2a 4a 05 31       	add    eax,0x31054a2a
  26bdae:	74 05                	je     26bdb5 <__abi_tag-0x1945e7>
  26bdb0:	17                   	(bad)  
  26bdb1:	66 05 04 4a          	add    ax,0x4a04
  26bdb5:	05 08 68 05 01       	add    eax,0x1056808
  26bdba:	9e                   	sahf   
  26bdbb:	05 06 59 05 03       	add    eax,0x3055906
  26bdc0:	d6                   	(bad)  
  26bdc1:	05 08 67 05 01       	add    eax,0x1056708
  26bdc6:	66 05 11 00          	add    ax,0x11
  26bdca:	02 04 01             	add    al,BYTE PTR [rcx+rax*1]
  26bdcd:	82                   	(bad)  
  26bdce:	05 0c 00 02 04       	add    eax,0x402000c
  26bdd3:	01 ba 05 08 83 05    	add    DWORD PTR [rdx+0x5830805],edi
  26bdd9:	01 9e 05 06 59 05    	add    DWORD PTR [rsi+0x5590605],ebx
  26bddf:	03 d6                	add    edx,esi
  26bde1:	05 08 67 05 01       	add    eax,0x1056708
  26bde6:	66 05 11 00          	add    ax,0x11
  26bdea:	02 04 01             	add    al,BYTE PTR [rcx+rax*1]
  26bded:	82                   	(bad)  
  26bdee:	05 0c 00 02 04       	add    eax,0x402000c
  26bdf3:	01 ba 05 05 84 05    	add    DWORD PTR [rdx+0x5840505],edi
  26bdf9:	01 66 05             	add    DWORD PTR [rsi+0x5],esp
  26bdfc:	2c 4b                	sub    al,0x4b
  26bdfe:	05 1e 74 05 2a       	add    eax,0x2a05741e
  26be03:	08 12                	or     BYTE PTR [rdx],dl
  26be05:	05 26 08 12 05       	add    eax,0x5120826
  26be0a:	2c 4a                	sub    al,0x4a
  26be0c:	05 33 90 05 2e       	add    eax,0x2e059033
  26be11:	ac                   	lods   al,BYTE PTR ds:[rsi]
  26be12:	05 11 66 05 0f       	add    eax,0xf056611
  26be17:	58                   	pop    rax
  26be18:	05 0c 74 05 09       	add    eax,0x905740c
  26be1d:	e4 05                	in     al,0x5
  26be1f:	0f 9e 05 11 3c 05 23 	setle  BYTE PTR [rip+0x23053c11]        # 232bfa37 <_end+0x221b5e77>
  26be26:	84 05 1c 74 05 19    	test   BYTE PTR [rip+0x1905741c],al        # 192c3248 <_end+0x181b9688>
  26be2c:	e4 05                	in     al,0x5
  26be2e:	23 9e 05 0f 3c 05    	and    ebx,DWORD PTR [rsi+0x53c0f05]
  26be34:	0c 74                	or     al,0x74
  26be36:	05 09 e4 05 0f       	add    eax,0xf05e409
  26be3b:	ac                   	lods   al,BYTE PTR ds:[rsi]
  26be3c:	05 23 3c 05 10       	add    eax,0x10053c23
  26be41:	3c 05                	cmp    al,0x5
  26be43:	01 00                	add    DWORD PTR [rax],eax
  26be45:	02 04 02             	add    al,BYTE PTR [rdx+rax*1]
  26be48:	03 79 2e             	add    edi,DWORD PTR [rcx+0x2e]
  26be4b:	05 0d 00 02 04       	add    eax,0x402000d
  26be50:	01 e4                	add    esp,esp
  26be52:	05 01 00 02 04       	add    eax,0x4020001
  26be57:	02 08                	add    cl,BYTE PTR [rax]
  26be59:	39 05 0d 00 02 04    	cmp    DWORD PTR [rip+0x402000d],eax        # 428be6c <_end+0x31822ac>
  26be5f:	01 e4                	add    esp,esp
  26be61:	05 01 03 13 08       	add    eax,0x8130301
  26be66:	3c 05                	cmp    al,0x5
  26be68:	0b 67 05             	or     esp,DWORD PTR [rdi+0x5]
  26be6b:	08 d7                	or     bh,dl
  26be6d:	bb bb 05 02 66       	mov    ebx,0x660205bb
  26be72:	05 20 00 02 04       	add    eax,0x4020020
  26be77:	01 4a 05             	add    DWORD PTR [rdx+0x5],ecx
  26be7a:	3e 00 02             	ds add BYTE PTR [rdx],al
  26be7d:	04 02                	add    al,0x2
  26be7f:	d6                   	(bad)  
  26be80:	05 17 9f 05 09       	add    eax,0x9059f17
  26be85:	9f                   	lahf   
  26be86:	05 10 a1 05 01       	add    eax,0x105a110
  26be8b:	66 05 08 4b          	add    ax,0x4b08
  26be8f:	05 02 66 05 17       	add    eax,0x17056602
  26be94:	4b d8 05 08 bd 05 02 	rex.WXB fadd DWORD PTR [rip+0x205bd08]        # 22c7ba3 <_end+0x11bdfe3>
  26be9b:	66 05 14 4b          	add    ax,0x4b14
  26be9f:	05 03 d6 05 10       	add    eax,0x1005d603
  26bea4:	4b 08 5a 05          	rex.WXB or BYTE PTR [r10+0x5],bl
  26bea8:	13 a2 05 08 74 05    	adc    esp,DWORD PTR [rdx+0x5740805]
  26beae:	13 82 05 19 74 05    	adc    eax,DWORD PTR [rdx+0x5741905]
  26beb4:	13 9f 05 08 74 05    	adc    ebx,DWORD PTR [rdi+0x5740805]
  26beba:	13 82 05 16 74 05    	adc    eax,DWORD PTR [rdx+0x5741605]
  26bec0:	13 91 05 08 74 05    	adc    edx,DWORD PTR [rcx+0x5740805]
  26bec6:	13 82 05 17 74 05    	adc    eax,DWORD PTR [rdx+0x5741705]
  26becc:	0d 91 05 11 08       	or     eax,0x8110591
  26bed1:	3d 05 01 ba 05       	cmp    eax,0x5ba0105
  26bed6:	2a 00                	sub    al,BYTE PTR [rax]
  26bed8:	02 04 01             	add    al,BYTE PTR [rcx+rax*1]
  26bedb:	4a 05 01 00 02 04    	rex.WX add rax,0x4020001
  26bee1:	02 03                	add    al,BYTE PTR [rbx]
  26bee3:	94                   	xchg   esp,eax
  26bee4:	7f ba                	jg     26bea0 <__abi_tag-0x1944fc>
  26bee6:	05 1f 00 02 04       	add    eax,0x402001f
  26beeb:	01 e4                	add    esp,esp
  26beed:	05 03 03 f1 00       	add    eax,0xf10303
  26bef2:	e4 05                	in     al,0x5
  26bef4:	1b ba 05 1a 74 05    	sbb    edi,DWORD PTR [rdx+0x5741a05]
  26befa:	1b 66 05             	sbb    esp,DWORD PTR [rsi+0x5]
  26befd:	1d f2 05 13 3c       	sbb    eax,0x3c1305f2
  26bf02:	05 18 67 05 15       	add    eax,0x15056718
  26bf07:	e4 05                	in     al,0x5
  26bf09:	06                   	(bad)  
  26bf0a:	e4 05                	in     al,0x5
  26bf0c:	11 75 05             	adc    DWORD PTR [rbp+0x5],esi
  26bf0f:	01 9e 05 19 5a 05    	add    DWORD PTR [rsi+0x55a1905],ebx
  26bf15:	0e                   	(bad)  
  26bf16:	74 05                	je     26bf1d <__abi_tag-0x19447f>
  26bf18:	19 82 05 1b 74 05    	sbb    DWORD PTR [rdx+0x5741b05],eax
  26bf1e:	06                   	(bad)  
  26bf1f:	3c 05                	cmp    al,0x5
  26bf21:	16                   	(bad)  
  26bf22:	75 05                	jne    26bf29 <__abi_tag-0x194473>
  26bf24:	0b 74 05 16          	or     esi,DWORD PTR [rbp+rax*1+0x16]
  26bf28:	82                   	(bad)  
  26bf29:	05 18 74 05 03       	add    eax,0x3057418
  26bf2e:	3c 67                	cmp    al,0x67
  26bf30:	05 17 bc 05 0c       	add    eax,0xc05bc17
  26bf35:	74 05                	je     26bf3c <__abi_tag-0x194460>
  26bf37:	17                   	(bad)  
  26bf38:	82                   	(bad)  
  26bf39:	05 19 74 05 04       	add    eax,0x4057419
  26bf3e:	3c 05                	cmp    al,0x5
  26bf40:	08 68 05             	or     BYTE PTR [rax+0x5],ch
  26bf43:	01 9e 05 03 59 05    	add    DWORD PTR [rsi+0x5590305],ebx
  26bf49:	08 bb 05 01 9e 05    	or     BYTE PTR [rbx+0x59e0105],bh
  26bf4f:	06                   	(bad)  
  26bf50:	59                   	pop    rcx
  26bf51:	05 03 d6 05 15       	add    eax,0x1505d603
  26bf56:	67 05 12 74 05 0f    	addr32 add eax,0xf057412
  26bf5c:	e4 05                	in     al,0x5
  26bf5e:	15 9e 05 06 90       	adc    eax,0x9006059e
  26bf63:	05 19 67 05 16       	add    eax,0x16056719
  26bf68:	74 05                	je     26bf6f <__abi_tag-0x19442d>
  26bf6a:	13 e4                	adc    esp,esp
  26bf6c:	05 19 9e 05 0a       	add    eax,0xa059e19
  26bf71:	90                   	nop
  26bf72:	05 01 66 05 2b       	add    eax,0x2b056601
  26bf77:	00 02                	add    BYTE PTR [rdx],al
  26bf79:	04 01                	add    al,0x1
  26bf7b:	4a 05 2a 00 02 04    	rex.WX add rax,0x402002a
  26bf81:	01 66 05             	add    DWORD PTR [rsi+0x5],esp
  26bf84:	27                   	(bad)  
  26bf85:	00 02                	add    BYTE PTR [rdx],al
  26bf87:	04 01                	add    al,0x1
  26bf89:	74 05                	je     26bf90 <__abi_tag-0x19440c>
  26bf8b:	24 00                	and    al,0x0
  26bf8d:	02 04 01             	add    al,BYTE PTR [rcx+rax*1]
  26bf90:	e4 05                	in     al,0x5
  26bf92:	2a 00                	sub    al,BYTE PTR [rax]
  26bf94:	02 04 01             	add    al,BYTE PTR [rcx+rax*1]
  26bf97:	9e                   	sahf   
  26bf98:	05 2b 00 02 04       	add    eax,0x402002b
  26bf9d:	01 3c 05 01 00 02 04 	add    DWORD PTR [rax*1+0x4020001],edi
  26bfa4:	02 47 05             	add    al,BYTE PTR [rdi+0x5]
  26bfa7:	0d 00 02 04 01       	or     eax,0x1040200
  26bfac:	e4 05                	in     al,0x5
  26bfae:	01 00                	add    DWORD PTR [rax],eax
  26bfb0:	02 04 02             	add    al,BYTE PTR [rdx+rax*1]
  26bfb3:	08 3a                	or     BYTE PTR [rdx],bh
  26bfb5:	05 0d 00 02 04       	add    eax,0x402000d
  26bfba:	01 e4                	add    esp,esp
  26bfbc:	05 05 00 02 04       	add    eax,0x4020005
  26bfc1:	02 08                	add    cl,BYTE PTR [rax]
  26bfc3:	44 05 01 00 02 04    	rex.R add eax,0x4020001
  26bfc9:	02 03                	add    al,BYTE PTR [rbx]
  26bfcb:	70 e4                	jo     26bfb1 <__abi_tag-0x1943eb>
  26bfcd:	05 1f 00 02 04       	add    eax,0x402001f
  26bfd2:	01 e4                	add    esp,esp
  26bfd4:	05 0a 03 14 e4       	add    eax,0xe414030a
  26bfd9:	05 07 d7 bb 05       	add    eax,0x5bbd707
  26bfde:	16                   	(bad)  
  26bfdf:	bc 05 01 9f 05       	mov    esp,0x59f0105
  26bfe4:	19 00                	sbb    DWORD PTR [rax],eax
  26bfe6:	02 04 01             	add    al,BYTE PTR [rcx+rax*1]
  26bfe9:	66 05 08 e5          	add    ax,0xe508
  26bfed:	05 01 59 05 77       	add    eax,0x77055901
  26bff2:	30 08                	xor    BYTE PTR [rax],cl
  26bff4:	82                   	(bad)  
  26bff5:	05 05 e7 05 01       	add    eax,0x105e705
  26bffa:	66 05 10 4b          	add    ax,0x4b10
  26bffe:	05 16 9f 05 02       	add    eax,0x2059f16
  26c003:	08 3c 05 2a 00 02 04 	or     BYTE PTR [rax*1+0x402002a],bh
  26c00a:	01 4a 05             	add    DWORD PTR [rdx+0x5],ecx
  26c00d:	01 a1 05 1f 00 02    	add    DWORD PTR [rcx+0x2001f05],esp
  26c013:	04 01                	add    al,0x1
  26c015:	66 05 07 7a          	add    ax,0x7a07
  26c019:	05 01 9e 05 0d       	add    eax,0xd059e01
  26c01e:	2f                   	(bad)  
  26c01f:	05 0c 74 05 0d       	add    eax,0xd05740c
  26c024:	90                   	nop
  26c025:	05 0f f2 05 01       	add    eax,0x105f20f
  26c02a:	3c 00                	cmp    al,0x0
  26c02c:	02 04 02             	add    al,BYTE PTR [rdx+rax*1]
  26c02f:	81 05 0b 00 02 04 01 	add    DWORD PTR [rip+0x402000b],0x5f7e401        # 428c044 <_end+0x3182484>
  26c036:	e4 f7 05 
  26c039:	02 e5                	add    ah,ch
  26c03b:	05 44 bb 05 1d       	add    eax,0x1d05bb44
  26c040:	ba 05 06 02 22       	mov    edx,0x22020605
  26c045:	12 05 08 75 05 07    	adc    al,BYTE PTR [rip+0x7057508]        # 72c3553 <_end+0x61b9993>
  26c04b:	74 05                	je     26c052 <__abi_tag-0x19434a>
  26c04d:	08 90 05 10 f2 05    	or     BYTE PTR [rax+0x5f21005],dl
  26c053:	06                   	(bad)  
  26c054:	03 7a 58             	add    edi,DWORD PTR [rdx+0x58]
  26c057:	05 07 03 09 20       	add    eax,0x20090307
  26c05c:	05 0f 74 05 10       	add    eax,0x1005740f
  26c061:	90                   	nop
  26c062:	05 08 c8 05 07       	add    eax,0x705c808
  26c067:	3c 05                	cmp    al,0x5
  26c069:	17                   	(bad)  
  26c06a:	08 24 05 08 c8 05 07 	or     BYTE PTR [rax*1+0x705c808],ah
  26c071:	75 05                	jne    26c078 <__abi_tag-0x194324>
  26c073:	08 08                	or     BYTE PTR [rax],cl
  26c075:	ad                   	lods   eax,DWORD PTR ds:[rsi]
  26c076:	05 07 74 05 08       	add    eax,0x8057407
  26c07b:	90                   	nop
  26c07c:	05 12 08 12 05       	add    eax,0x5120812
  26c081:	4c ae                	rex.WR scas al,BYTE PTR es:[rdi]
  26c083:	05 4b 74 05 4c       	add    eax,0x4c05744b
  26c088:	90                   	nop
  26c089:	05 17 f2 05 01       	add    eax,0x105f217
  26c08e:	02 2e                	add    ch,BYTE PTR [rsi]
  26c090:	12 05 5e 00 02 04    	adc    al,BYTE PTR [rip+0x402005e]        # 428c0f4 <_end+0x3182534>
  26c096:	01 4a 05             	add    DWORD PTR [rdx+0x5],ecx
  26c099:	17                   	(bad)  
  26c09a:	a1 05 1f 3c 05 1e 74 	movabs eax,ds:0x1f05741e053c1f05
  26c0a1:	05 1f 
  26c0a3:	90                   	nop
  26c0a4:	05 17 f2 05 01       	add    eax,0x105f217
  26c0a9:	08 58 05             	or     BYTE PTR [rax+0x5],bl
  26c0ac:	55                   	push   rbp
  26c0ad:	00 02                	add    BYTE PTR [rdx],al
  26c0af:	04 01                	add    al,0x1
  26c0b1:	4a 05 54 00 02 04    	rex.WX add rax,0x4020054
  26c0b7:	01 74 05 55          	add    DWORD PTR [rbp+rax*1+0x55],esi
  26c0bb:	00 02                	add    BYTE PTR [rdx],al
  26c0bd:	04 01                	add    al,0x1
  26c0bf:	90                   	nop
  26c0c0:	05 4d 00 02 04       	add    eax,0x402004d
  26c0c5:	01 f2                	add    edx,esi
  26c0c7:	05 67 00 02 04       	add    eax,0x4020067
  26c0cc:	01 ba 05 08 9f 05    	add    DWORD PTR [rdx+0x59f0805],edi
  26c0d2:	07                   	(bad)  
  26c0d3:	74 05                	je     26c0da <__abi_tag-0x1942c2>
  26c0d5:	08 90 05 1e 08 12    	or     BYTE PTR [rax+0x12081e05],dl
  26c0db:	05 30 03 0a 66       	add    eax,0x660a0330
  26c0e0:	05 2f 74 05 30       	add    eax,0x3005742f
  26c0e5:	90                   	nop
  26c0e6:	05 32 f2 05 3a       	add    eax,0x3a05f232
  26c0eb:	4a 05 48 74 05 22    	rex.WX add rax,0x22057448
  26c0f1:	4a 05 4f 90 05 20    	rex.WX add rax,0x2005904f
  26c0f7:	ba 05 28 83 05       	mov    edx,0x5832805
  26c0fc:	27                   	(bad)  
  26c0fd:	74 05                	je     26c104 <__abi_tag-0x194298>
  26c0ff:	28 90 05 2a f2 05    	sub    BYTE PTR [rax+0x5f22a05],dl
  26c105:	32 4a 05             	xor    cl,BYTE PTR [rdx+0x5]
  26c108:	40 74 05             	rex je 26c110 <__abi_tag-0x19428c>
  26c10b:	1a 4a 05             	sbb    cl,BYTE PTR [rdx+0x5]
  26c10e:	49 90                	xchg   r8,rax
  26c110:	05 18 ba 05 16       	add    eax,0x1605ba18
  26c115:	83 05 1c 08 13 05 27 	add    DWORD PTR [rip+0x513081c],0x27        # 539c938 <_end+0x4292d78>
  26c11c:	08 66 05             	or     BYTE PTR [rsi+0x5],ah
  26c11f:	16                   	(bad)  
  26c120:	08 12                	or     BYTE PTR [rdx],dl
  26c122:	05 08 08 66 05       	add    eax,0x5660808
  26c127:	07                   	(bad)  
  26c128:	74 05                	je     26c12f <__abi_tag-0x19426d>
  26c12a:	08 90 05 12 f2 05    	or     BYTE PTR [rax+0x5f21205],dl
  26c130:	0c 3e                	or     al,0x3e
  26c132:	05 01 66 05 03       	add    eax,0x3056601
  26c137:	85 05 14 a1 05 08    	test   DWORD PTR [rip+0x805a114],eax        # 82c6251 <_end+0x71bc691>
  26c13d:	02 43 13             	add    al,BYTE PTR [rbx+0x13]
  26c140:	05 07 74 05 08       	add    eax,0x8057407
  26c145:	90                   	nop
  26c146:	05 19 08 12 05       	add    eax,0x5120819
  26c14b:	05 67 05 08 e5       	add    eax,0xe5080567
  26c150:	05 07 74 05 08       	add    eax,0x8057407
  26c155:	90                   	nop
  26c156:	05 13 f2 05 08       	add    eax,0x805f213
  26c15b:	4f 05 07 74 05 08    	rex.WRXB add rax,0x8057407
  26c161:	90                   	nop
  26c162:	05 10 f2 05 08       	add    eax,0x805f210
  26c167:	3d 05 01 68 05       	cmp    eax,0x5680105
  26c16c:	18 08                	sbb    BYTE PTR [rax],cl
  26c16e:	5a                   	pop    rdx
  26c16f:	05 17 ad 05 16       	add    eax,0x1605ad17
  26c174:	74 05                	je     26c17b <__abi_tag-0x194221>
  26c176:	17                   	(bad)  
  26c177:	66 05 0f f2          	add    ax,0xf20f
  26c17b:	bb 05 0e 74 05       	mov    ebx,0x5740e05
  26c180:	0f 66 05 11 f2 05 07 	pcmpgtd mm0,QWORD PTR [rip+0x705f211]        # 72cb398 <_end+0x61c17d8>
  26c187:	4a 05 0a 83 05 09    	rex.WX add rax,0x905830a
  26c18d:	74 05                	je     26c194 <__abi_tag-0x194208>
  26c18f:	0a 66 05             	or     ah,BYTE PTR [rsi+0x5]
  26c192:	13 f2                	adc    esi,edx
  26c194:	05 01 3d 05 79       	add    eax,0x79053d01
  26c199:	3f                   	(bad)  
  26c19a:	05 01 08 bd 05       	add    eax,0x5bd0801
  26c19f:	2b 9f 05 20 66 05    	sub    ebx,DWORD PTR [rdi+0x5662005]
  26c1a5:	10 9e 05 08 76 05    	adc    BYTE PTR [rsi+0x5760805],bl
  26c1ab:	02 9e 05 39 00 02    	add    bl,BYTE PTR [rsi+0x2003905]
  26c1b1:	04 03                	add    al,0x3
  26c1b3:	2f                   	(bad)  
  26c1b4:	05 3a 00 02 04       	add    eax,0x402003a
  26c1b9:	03 90 05 3b 00 02    	add    edx,DWORD PTR [rax+0x2003b05]
  26c1bf:	04 03                	add    al,0x3
  26c1c1:	c8 05 14 00          	enter  0x1405,0x0
  26c1c5:	02 04 03             	add    al,BYTE PTR [rbx+rax*1]
  26c1c8:	08 12                	or     BYTE PTR [rdx],dl
  26c1ca:	05 13 00 02 04       	add    eax,0x4020013
  26c1cf:	03 74 05 14          	add    esi,DWORD PTR [rbp+rax*1+0x14]
  26c1d3:	00 02                	add    BYTE PTR [rdx],al
  26c1d5:	04 03                	add    al,0x3
  26c1d7:	90                   	nop
  26c1d8:	05 3b 00 02 04       	add    eax,0x402003b
  26c1dd:	03 74 05 15          	add    esi,DWORD PTR [rbp+rax*1+0x15]
  26c1e1:	00 02                	add    BYTE PTR [rdx],al
  26c1e3:	04 03                	add    al,0x3
  26c1e5:	3c 05                	cmp    al,0x5
  26c1e7:	02 00                	add    al,BYTE PTR [rax]
  26c1e9:	02 04 03             	add    al,BYTE PTR [rbx+rax*1]
  26c1ec:	2d 05 0c 00 02       	sub    eax,0x2000c05
  26c1f1:	04 01                	add    al,0x1
  26c1f3:	e4 05                	in     al,0x5
  26c1f5:	1b b0 05 07 02 36    	sbb    esi,DWORD PTR [rax+0x36020705]
  26c1fb:	12 05 01 67 05 17    	adc    al,BYTE PTR [rip+0x17056701]        # 172c2902 <_end+0x161b8d42>
  26c201:	00 02                	add    BYTE PTR [rdx],al
  26c203:	04 01                	add    al,0x1
  26c205:	66 05 08 e5          	add    ax,0xe508
  26c209:	05 01 67 05 19       	add    eax,0x19056701
  26c20e:	30 05 0c 75 05 0b    	xor    BYTE PTR [rip+0xb05750c],al        # b2c3720 <_end+0xa1b9b60>
  26c214:	74 05                	je     26c21b <__abi_tag-0x194181>
  26c216:	0c 66                	or     al,0x66
  26c218:	05 0e f2 05 01       	add    eax,0x105f20e
  26c21d:	4a 05 27 00 02 04    	rex.WX add rax,0x4020027
  26c223:	01 4a 05             	add    DWORD PTR [rdx+0x5],ecx
  26c226:	26 00 02             	es add BYTE PTR [rdx],al
  26c229:	04 01                	add    al,0x1
  26c22b:	74 05                	je     26c232 <__abi_tag-0x19416a>
  26c22d:	27                   	(bad)  
  26c22e:	00 02                	add    BYTE PTR [rdx],al
  26c230:	04 01                	add    al,0x1
  26c232:	66 05 29 00          	add    ax,0x29
  26c236:	02 04 01             	add    al,BYTE PTR [rcx+rax*1]
  26c239:	f2 05 08 59 05 01    	repnz add eax,0x1055908
  26c23f:	59                   	pop    rcx
  26c240:	04 05                	add    al,0x5
  26c242:	05 15 03 cc 04       	add    eax,0x4cc0315
  26c247:	2e 82                	cs (bad) 
  26c249:	05 16 e6 05 13       	add    eax,0x1305e616
  26c24e:	08 13                	or     BYTE PTR [rbx],dl
  26c250:	05 1a 4a 05 26       	add    eax,0x26054a1a
  26c255:	74 05                	je     26c25c <__abi_tag-0x194140>
  26c257:	2e 4a 05 30 08 f2 05 	cs rex.WX add rax,0x5f20830
  26c25e:	05 3d 05 14 03       	add    eax,0x314053d
  26c263:	da 02                	fiadd  DWORD PTR [rdx]
  26c265:	08 58 05             	or     BYTE PTR [rax+0x5],bl
  26c268:	09 4b 05             	or     DWORD PTR [rbx+0x5],ecx
  26c26b:	05 66 05 21 4b       	add    eax,0x4b210566
  26c270:	05 30 74 05 15       	add    eax,0x15057430
  26c275:	90                   	nop
  26c276:	05 30 66 05 42       	add    eax,0x42056630
  26c27b:	82                   	(bad)  
  26c27c:	05 15 9e 05 1a       	add    eax,0x1a059e15
  26c281:	92                   	xchg   edx,eax
  26c282:	05 09 ba 05 5b       	add    eax,0x5b05ba09
  26c287:	00 02                	add    BYTE PTR [rdx],al
  26c289:	04 01                	add    al,0x1
  26c28b:	4a 05 49 00 02 04    	rex.WX add rax,0x4020049
  26c291:	01 90 05 37 00 02    	add    DWORD PTR [rax+0x2003705],edx
  26c297:	04 01                	add    al,0x1
  26c299:	08 4a 05             	or     BYTE PTR [rdx+0x5],cl
  26c29c:	77 00                	ja     26c29e <__abi_tag-0x1940fe>
  26c29e:	02 04 01             	add    al,BYTE PTR [rcx+rax*1]
  26c2a1:	74 05                	je     26c2a8 <__abi_tag-0x1940f4>
  26c2a3:	17                   	(bad)  
  26c2a4:	9f                   	lahf   
  26c2a5:	05 32 74 05 34       	add    eax,0x34057432
  26c2aa:	08 20                	or     BYTE PTR [rax],ah
  26c2ac:	05 15 f2 05 16       	add    eax,0x1605f215
  26c2b1:	76 05                	jbe    26c2b8 <__abi_tag-0x1940e4>
  26c2b3:	15 ac 05 13 74       	adc    eax,0x741305ac
  26c2b8:	05 15 74 05 01       	add    eax,0x1057415
  26c2bd:	9f                   	lahf   
  26c2be:	05 23 3e 05 0d       	add    eax,0xd053e23
  26c2c3:	bb 05 0f ad 05       	mov    ebx,0x5ad0f05
  26c2c8:	05 74 05 1c 00       	add    eax,0x1c0574
  26c2cd:	02 04 01             	add    al,BYTE PTR [rcx+rax*1]
  26c2d0:	58                   	pop    rax
  26c2d1:	05 19 f4 05 05       	add    eax,0x505f419
  26c2d6:	ba 05 41 00 02       	mov    edx,0x2004105
  26c2db:	04 01                	add    al,0x1
  26c2dd:	4a 05 88 01 00 02    	rex.WX add rax,0x2000188
  26c2e3:	04 01                	add    al,0x1
  26c2e5:	d6                   	(bad)  
  26c2e6:	05 67 00 02 04       	add    eax,0x4020067
  26c2eb:	01 82 05 54 00 02    	add    DWORD PTR [rdx+0x2005405],eax
  26c2f1:	04 01                	add    al,0x1
  26c2f3:	08 90 05 27 75 05    	or     BYTE PTR [rax+0x5752705],dl
  26c2f9:	05 4a 05 24 74       	add    eax,0x7424054a
  26c2fe:	05 26 08 12 05       	add    eax,0x5120826
  26c303:	27                   	(bad)  
  26c304:	74 05                	je     26c30b <__abi_tag-0x194091>
  26c306:	01 3d 05 60 03 85    	add    DWORD PTR [rip+0xffffffff85036005],edi        # ffffffff852a2311 <_end+0xffffffff84198751>
  26c30c:	01 3c 05 0e 03 0c 08 	add    DWORD PTR [rax*1+0x80c030e],edi
  26c313:	4a 05 0c a1 05 05    	rex.WX add rax,0x505a10c
  26c319:	83 05 13 67 05 0d 84 	add    DWORD PTR [rip+0xd056713],0xffffff84        # d2c2a33 <_end+0xc1b8e73>
  26c320:	05 05 83 05 14       	add    eax,0x14058305
  26c325:	67 05 11 83 05 0d    	addr32 add eax,0xd058311
  26c32b:	4c 05 05 83 05 14    	rex.WR add rax,0x14058305
  26c331:	67 05 11 83 05 0d    	addr32 add eax,0xd058311
  26c337:	4e 05 05 83 05 15    	rex.WRX add rax,0x15058305
  26c33d:	67 05 0d 84 05 05    	addr32 add eax,0x505840d
  26c343:	83 05 15 9f 05 05 87 	add    DWORD PTR [rip+0x5059f15],0xffffff87        # 52c625f <_end+0x41bc69f>
  26c34a:	05 09 5c 05 1a       	add    eax,0x1a055c09
  26c34f:	67 05 0f ba 05 0e    	addr32 add eax,0xe05ba0f
  26c355:	3c 05                	cmp    al,0x5
  26c357:	15 67 05 29 4b       	adc    eax,0x4b290567
  26c35c:	05 0e 08 20 05       	add    eax,0x520080e
  26c361:	09 68 05             	or     DWORD PTR [rax+0x5],ebp
  26c364:	15 67 05 1b 4b       	adc    eax,0x4b1b0567
  26c369:	05 0f ba 05 0e       	add    eax,0xe05ba0f
  26c36e:	3c 05                	cmp    al,0x5
  26c370:	09 69 05             	or     DWORD PTR [rcx+0x5],ebp
  26c373:	15 67 05 1b 4b       	adc    eax,0x4b1b0567
  26c378:	05 0e ba 05 09       	add    eax,0x905ba0e
  26c37d:	5d                   	pop    rbp
  26c37e:	05 1c 67 05 1a       	add    eax,0x1a05671c
  26c383:	58                   	pop    rax
  26c384:	05 1c ba 05 16       	add    eax,0x1605ba1c
  26c389:	3d 05 09 e7 05       	cmp    eax,0x5e70905
  26c38e:	1c 67                	sbb    al,0x67
  26c390:	05 1a 3c 05 1c       	add    eax,0x1c053c1a
  26c395:	ba 05 16 2f 05       	mov    edx,0x52f1605
  26c39a:	0b 03                	or     eax,DWORD PTR [rbx]
  26c39c:	64 e4 05             	fs in  al,0x5
  26c39f:	05 03 22 9e 05       	add    eax,0x59e2203
  26c3a4:	24 00                	and    al,0x0
  26c3a6:	02 04 01             	add    al,BYTE PTR [rcx+rax*1]
  26c3a9:	66 05 05 91          	add    ax,0x9105
  26c3ad:	05 24 00 02 04       	add    eax,0x4020024
  26c3b2:	01 66 05             	add    DWORD PTR [rsi+0x5],esp
  26c3b5:	0c a0                	or     al,0xa0
  26c3b7:	05 01 67 05 22       	add    eax,0x22056701
  26c3bc:	03 f0                	add    esi,eax
  26c3be:	04 2e                	add    al,0x2e
  26c3c0:	05 0b 76 05 05       	add    eax,0x505760b
  26c3c5:	9e                   	sahf   
  26c3c6:	05 2a 2f 05 09       	add    eax,0x9052f2a
  26c3cb:	08 90 05 34 00 02    	or     BYTE PTR [rax+0x2003405],dl
  26c3d1:	04 01                	add    al,0x1
  26c3d3:	58                   	pop    rax
  26c3d4:	05 05 00 02 04       	add    eax,0x4020005
  26c3d9:	02 81 05 0f 00 02    	add    al,BYTE PTR [rcx+0x2000f05]
  26c3df:	04 01                	add    al,0x1
  26c3e1:	e4 05                	in     al,0x5
  26c3e3:	0c cb                	or     al,0xcb
  26c3e5:	05 01 59 05 18       	add    eax,0x18055901
  26c3ea:	35 05 0b ae 05       	xor    eax,0x5ae0b05
  26c3ef:	05 9e 05 1d 2f       	add    eax,0x2f1d059e
  26c3f4:	05 1c 74 05 1d       	add    eax,0x1d05741c
  26c3f9:	82                   	(bad)  
  26c3fa:	05 09 90 05 2a       	add    eax,0x2a059009
  26c3ff:	00 02                	add    BYTE PTR [rdx],al
  26c401:	04 01                	add    al,0x1
  26c403:	58                   	pop    rax
  26c404:	05 05 00 02 04       	add    eax,0x4020005
  26c409:	02 9d 05 0f 00 02    	add    bl,BYTE PTR [rbp+0x2000f05]
  26c40f:	04 01                	add    al,0x1
  26c411:	e4 05                	in     al,0x5
  26c413:	05 f6 05 10 00       	add    eax,0x1005f6
  26c418:	02 04 01             	add    al,BYTE PTR [rcx+rax*1]
  26c41b:	9e                   	sahf   
  26c41c:	05 09 9f 05 14       	add    eax,0x14059f09
  26c421:	00 02                	add    BYTE PTR [rdx],al
  26c423:	04 01                	add    al,0x1
  26c425:	66 05 2d 00          	add    ax,0x2d
  26c429:	02 04 02             	add    al,BYTE PTR [rdx+rax*1]
  26c42c:	66 05 40 00          	add    ax,0x40
  26c430:	02 04 02             	add    al,BYTE PTR [rdx+rax*1]
  26c433:	e4 05                	in     al,0x5
  26c435:	09 59 05             	or     DWORD PTR [rcx+0x5],ebx
  26c438:	22 00                	and    al,BYTE PTR [rax]
  26c43a:	02 04 01             	add    al,BYTE PTR [rcx+rax*1]
  26c43d:	66 05 34 00          	add    ax,0x34
  26c441:	02 04 01             	add    al,BYTE PTR [rcx+rax*1]
  26c444:	9e                   	sahf   
  26c445:	05 09 59 05 22       	add    eax,0x22055909
  26c44a:	00 02                	add    BYTE PTR [rdx],al
  26c44c:	04 01                	add    al,0x1
  26c44e:	66 05 34 00          	add    ax,0x34
  26c452:	02 04 01             	add    al,BYTE PTR [rcx+rax*1]
  26c455:	9e                   	sahf   
  26c456:	05 09 59 05 22       	add    eax,0x22055909
  26c45b:	00 02                	add    BYTE PTR [rdx],al
  26c45d:	04 01                	add    al,0x1
  26c45f:	66 05 36 00          	add    ax,0x36
  26c463:	02 04 01             	add    al,BYTE PTR [rcx+rax*1]
  26c466:	9e                   	sahf   
  26c467:	05 09 59 05 22       	add    eax,0x22055909
  26c46c:	00 02                	add    BYTE PTR [rdx],al
  26c46e:	04 01                	add    al,0x1
  26c470:	66 05 33 00          	add    ax,0x33
  26c474:	02 04 01             	add    al,BYTE PTR [rcx+rax*1]
  26c477:	9e                   	sahf   
  26c478:	05 09 59 05 22       	add    eax,0x22055909
  26c47d:	00 02                	add    BYTE PTR [rdx],al
  26c47f:	04 01                	add    al,0x1
  26c481:	66 05 32 00          	add    ax,0x32
  26c485:	02 04 01             	add    al,BYTE PTR [rcx+rax*1]
  26c488:	9e                   	sahf   
  26c489:	05 05 5a 05 1e       	add    eax,0x1e055a05
  26c48e:	00 02                	add    BYTE PTR [rdx],al
  26c490:	04 01                	add    al,0x1
  26c492:	66 05 2f 00          	add    ax,0x2f
  26c496:	02 04 01             	add    al,BYTE PTR [rcx+rax*1]
  26c499:	9e                   	sahf   
  26c49a:	05 0a 59 05 05       	add    eax,0x505590a
  26c49f:	82                   	(bad)  
  26c4a0:	05 0e 84 05 12       	add    eax,0x1205840e
  26c4a5:	66 05 0b 3c          	add    ax,0x3c0b
  26c4a9:	05 10 67 05 09       	add    eax,0x9056710
  26c4ae:	66 05 1a 00          	add    ax,0x1a
  26c4b2:	02 04 01             	add    al,BYTE PTR [rcx+rax*1]
  26c4b5:	90                   	nop
  26c4b6:	05 15 00 02 04       	add    eax,0x4020015
  26c4bb:	01 66 05             	add    DWORD PTR [rsi+0x5],esp
  26c4be:	13 91 05 0d 66 05    	adc    edx,DWORD PTR [rcx+0x5660d05]
  26c4c4:	27                   	(bad)  
  26c4c5:	00 02                	add    BYTE PTR [rdx],al
  26c4c7:	04 01                	add    al,0x1
  26c4c9:	58                   	pop    rax
  26c4ca:	05 3d 00 02 04       	add    eax,0x402003d
  26c4cf:	01 9e 05 13 59 05    	add    DWORD PTR [rsi+0x5591305],ebx
  26c4d5:	0d 66 05 27 00       	or     eax,0x270566
  26c4da:	02 04 01             	add    al,BYTE PTR [rcx+rax*1]
  26c4dd:	58                   	pop    rax
  26c4de:	05 3d 00 02 04       	add    eax,0x402003d
  26c4e3:	01 9e 05 13 59 05    	add    DWORD PTR [rsi+0x5591305],ebx
  26c4e9:	0d 66 05 27 00       	or     eax,0x270566
  26c4ee:	02 04 01             	add    al,BYTE PTR [rcx+rax*1]
  26c4f1:	58                   	pop    rax
  26c4f2:	05 3d 00 02 04       	add    eax,0x402003d
  26c4f7:	01 9e 05 13 59 05    	add    DWORD PTR [rsi+0x5591305],ebx
  26c4fd:	0d 66 05 27 00       	or     eax,0x270566
  26c502:	02 04 01             	add    al,BYTE PTR [rcx+rax*1]
  26c505:	58                   	pop    rax
  26c506:	05 3d 00 02 04       	add    eax,0x402003d
  26c50b:	01 9e 05 13 59 05    	add    DWORD PTR [rsi+0x5591305],ebx
  26c511:	0d 66 05 27 00       	or     eax,0x270566
  26c516:	02 04 01             	add    al,BYTE PTR [rcx+rax*1]
  26c519:	58                   	pop    rax
  26c51a:	05 3d 00 02 04       	add    eax,0x402003d
  26c51f:	01 9e 05 13 59 05    	add    DWORD PTR [rsi+0x5591305],ebx
  26c525:	0d 66 05 27 00       	or     eax,0x270566
  26c52a:	02 04 01             	add    al,BYTE PTR [rcx+rax*1]
  26c52d:	58                   	pop    rax
  26c52e:	05 3d 00 02 04       	add    eax,0x402003d
  26c533:	01 9e 05 13 2f 05    	add    DWORD PTR [rsi+0x52f1305],ebx
  26c539:	0d 66 05 27 00       	or     eax,0x270566
  26c53e:	02 04 01             	add    al,BYTE PTR [rcx+rax*1]
  26c541:	58                   	pop    rax
  26c542:	05 3d 00 02 04       	add    eax,0x402003d
  26c547:	01 9e 05 13 2f 05    	add    DWORD PTR [rsi+0x52f1305],ebx
  26c54d:	0d 66 05 27 00       	or     eax,0x270566
  26c552:	02 04 01             	add    al,BYTE PTR [rcx+rax*1]
  26c555:	58                   	pop    rax
  26c556:	05 3d 00 02 04       	add    eax,0x402003d
  26c55b:	01 9e 05 13 2f 05    	add    DWORD PTR [rsi+0x52f1305],ebx
  26c561:	0d 66 05 27 00       	or     eax,0x270566
  26c566:	02 04 01             	add    al,BYTE PTR [rcx+rax*1]
  26c569:	58                   	pop    rax
  26c56a:	05 3d 00 02 04       	add    eax,0x402003d
  26c56f:	01 9e 05 13 2f 05    	add    DWORD PTR [rsi+0x52f1305],ebx
  26c575:	0d 66 05 27 00       	or     eax,0x270566
  26c57a:	02 04 01             	add    al,BYTE PTR [rcx+rax*1]
  26c57d:	58                   	pop    rax
  26c57e:	05 3d 00 02 04       	add    eax,0x402003d
  26c583:	01 9e 05 13 2f 05    	add    DWORD PTR [rsi+0x52f1305],ebx
  26c589:	0d 66 05 27 00       	or     eax,0x270566
  26c58e:	02 04 01             	add    al,BYTE PTR [rcx+rax*1]
  26c591:	58                   	pop    rax
  26c592:	05 43 00 02 04       	add    eax,0x4020043
  26c597:	01 9e 05 0c 31 05    	add    DWORD PTR [rsi+0x5310c05],ebx
  26c59d:	01 59 05             	add    DWORD PTR [rcx+0x5],ebx
  26c5a0:	1b 31                	sbb    esi,DWORD PTR [rcx]
  26c5a2:	ad                   	lods   eax,DWORD PTR ds:[rsi]
  26c5a3:	05 15 9e 05 43       	add    eax,0x43059e15
  26c5a8:	00 02                	add    BYTE PTR [rdx],al
  26c5aa:	04 05                	add    al,0x5
  26c5ac:	2e 05 42 00 02 04    	cs add eax,0x4020042
  26c5b2:	05 74 05 43 00       	add    eax,0x430574
  26c5b7:	02 04 05 82 05 2f 00 	add    al,BYTE PTR [rax*1+0x2f0582]
  26c5be:	02 04 05 90 05 15 00 	add    al,BYTE PTR [rax*1+0x150590]
  26c5c5:	02 04 03             	add    al,BYTE PTR [rbx+rax*1]
  26c5c8:	90                   	nop
  26c5c9:	05 1f 00 02 04       	add    eax,0x402001f
  26c5ce:	04 e4                	add    al,0xe4
  26c5d0:	05 12 f3 05 05       	add    eax,0x505f312
  26c5d5:	ba 05 2e 00 02       	mov    edx,0x2002e05
  26c5da:	04 01                	add    al,0x1
  26c5dc:	4a 05 6d 00 02 04    	rex.WX add rax,0x402006d
  26c5e2:	01 e4                	add    esp,esp
  26c5e4:	05 51 00 02 04       	add    eax,0x4020051
  26c5e9:	01 90 05 40 00 02    	add    DWORD PTR [rax+0x2004005],edx
  26c5ef:	04 01                	add    al,0x1
  26c5f1:	08 4a 05             	or     BYTE PTR [rdx+0x5],cl
  26c5f4:	b7 01                	mov    bh,0x1
  26c5f6:	00 02                	add    BYTE PTR [rdx],al
  26c5f8:	04 01                	add    al,0x1
  26c5fa:	74 05                	je     26c601 <__abi_tag-0x193d9b>
  26c5fc:	96                   	xchg   esi,eax
  26c5fd:	01 00                	add    DWORD PTR [rax],eax
  26c5ff:	02 04 01             	add    al,BYTE PTR [rcx+rax*1]
  26c602:	90                   	nop
  26c603:	05 85 01 00 02       	add    eax,0x2000185
  26c608:	04 01                	add    al,0x1
  26c60a:	08 4a 05             	or     BYTE PTR [rdx+0x5],cl
  26c60d:	1d 75 05 14 74       	sbb    eax,0x74140575
  26c612:	05 1d 82 05 1e       	add    eax,0x1e05821d
  26c617:	74 05                	je     26c61e <__abi_tag-0x193d7e>
  26c619:	22 59 05             	and    bl,BYTE PTR [rcx+0x5]
  26c61c:	19 74 05 22          	sbb    DWORD PTR [rbp+rax*1+0x22],esi
  26c620:	82                   	(bad)  
  26c621:	05 23 74 05 34       	add    eax,0x34057423
  26c626:	82                   	(bad)  
  26c627:	05 0e 9f 05 49       	add    eax,0x49059f0e
  26c62c:	fc                   	cld    
  26c62d:	05 01 25 05 1e       	add    eax,0x1e052501
  26c632:	2f                   	(bad)  
  26c633:	05 0b ae 05 05       	add    eax,0x505ae0b
  26c638:	9e                   	sahf   
  26c639:	05 1d 59 05 1c       	add    eax,0x1c05591d
  26c63e:	74 05                	je     26c645 <__abi_tag-0x193d57>
  26c640:	1d 82 05 09 90       	sbb    eax,0x90090582
  26c645:	05 47 91 05 49       	add    eax,0x49059147
  26c64a:	d6                   	(bad)  
  26c64b:	05 4c 3c 05 14       	add    eax,0x14053c4c
  26c650:	3c 05                	cmp    al,0x5
  26c652:	3b 90 05 28 08 12    	cmp    edx,DWORD PTR [rax+0x12082805]
  26c658:	05 14 4a 05 25       	add    eax,0x25054a14
  26c65d:	74 05                	je     26c664 <__abi_tag-0x193d38>
  26c65f:	26 90                	es nop
  26c661:	05 15 4a 05 14       	add    eax,0x14054a15
  26c666:	3c 05                	cmp    al,0x5
  26c668:	51                   	push   rcx
  26c669:	ad                   	lods   eax,DWORD PTR ds:[rsi]
  26c66a:	05 53 d6 05 56       	add    eax,0x5605d653
  26c66f:	3c 05                	cmp    al,0x5
  26c671:	14 3c                	adc    al,0x3c
  26c673:	05 45 90 05 2d       	add    eax,0x2d059045
  26c678:	08 12                	or     BYTE PTR [rdx],dl
  26c67a:	05 14 4a 05 2a       	add    eax,0x2a054a14
  26c67f:	74 05                	je     26c686 <__abi_tag-0x193d16>
  26c681:	2b 90 05 15 4a 05    	sub    edx,DWORD PTR [rax+0x54a1505]
  26c687:	14 3c                	adc    al,0x3c
  26c689:	05 16 ad 05 0d       	add    eax,0xd05ad16
  26c68e:	e5 05                	in     eax,0x5
  26c690:	05 00 02 04 02       	add    eax,0x2040200
  26c695:	29 05 0f 00 02 04    	sub    DWORD PTR [rip+0x402000f],eax        # 428c6aa <_end+0x3182aea>
  26c69b:	01 e4                	add    esp,esp
  26c69d:	05 01 08 44 05       	add    eax,0x5440801
  26c6a2:	1e                   	(bad)  
  26c6a3:	2f                   	(bad)  
  26c6a4:	05 0b ae 05 05       	add    eax,0x505ae0b
  26c6a9:	9e                   	sahf   
  26c6aa:	05 22 2f 05 21       	add    eax,0x21052f22
  26c6af:	74 05                	je     26c6b6 <__abi_tag-0x193ce6>
  26c6b1:	22 82 05 09 90 05    	and    al,BYTE PTR [rdx+0x5900905]
  26c6b7:	23 59 05             	and    ebx,DWORD PTR [rcx+0x5]
  26c6ba:	22 74 05 23          	and    dh,BYTE PTR [rbp+rax*1+0x23]
  26c6be:	82                   	(bad)  
  26c6bf:	05 12 74 05 0d       	add    eax,0xd057412
  26c6c4:	91                   	xchg   ecx,eax
  26c6c5:	05 05 00 02 04       	add    eax,0x4020005
  26c6ca:	02 2b                	add    ch,BYTE PTR [rbx]
  26c6cc:	05 0f 00 02 04       	add    eax,0x402000f
  26c6d1:	01 e4                	add    esp,esp
  26c6d3:	05 01 f8 05 1d       	add    eax,0x1d05f801
  26c6d8:	31 05 0c ad 05 01    	xor    DWORD PTR [rip+0x105ad0c],eax        # 12c73ea <_end+0x1bd82a>
  26c6de:	9f                   	lahf   
  26c6df:	05 1f 3d 05 12       	add    eax,0x12053d1f
  26c6e4:	ad                   	lods   eax,DWORD PTR ds:[rsi]
  26c6e5:	05 05 a0 05 1e       	add    eax,0x1e05a005
  26c6ea:	00 02                	add    BYTE PTR [rdx],al
  26c6ec:	04 01                	add    al,0x1
  26c6ee:	66 05 23 00          	add    ax,0x23
  26c6f2:	02 04 01             	add    al,BYTE PTR [rcx+rax*1]
  26c6f5:	9e                   	sahf   
  26c6f6:	05 2e 30 05 1d       	add    eax,0x1d05302e
  26c6fb:	9e                   	sahf   
  26c6fc:	05 17 08 12 05       	add    eax,0x5120817
  26c701:	40 00 02             	rex add BYTE PTR [rdx],al
  26c704:	04 01                	add    al,0x1
  26c706:	4a 05 46 00 02 04    	rex.WX add rax,0x4020046
  26c70c:	01 c8                	add    eax,ecx
  26c70e:	05 05 31 05 18       	add    eax,0x18053105
  26c713:	00 02                	add    BYTE PTR [rdx],al
  26c715:	04 01                	add    al,0x1
  26c717:	90                   	nop
  26c718:	05 38 00 02 04       	add    eax,0x4020038
  26c71d:	02 90 05 4d 00 02    	add    dl,BYTE PTR [rax+0x2004d05]
  26c723:	04 02                	add    al,0x2
  26c725:	e4 05                	in     al,0x5
  26c727:	05 2f 05 21 00       	add    eax,0x21052f
  26c72c:	02 04 01             	add    al,BYTE PTR [rcx+rax*1]
  26c72f:	90                   	nop
  26c730:	05 27 00 02 04       	add    eax,0x4020027
  26c735:	01 9e 05 06 2f 05    	add    DWORD PTR [rsi+0x52f0605],ebx
  26c73b:	0c 75                	or     al,0x75
  26c73d:	05 01 9f 05 1a       	add    eax,0x1a059f01
  26c742:	2f                   	(bad)  
  26c743:	05 0c ad 05 01       	add    eax,0x105ad0c
  26c748:	9f                   	lahf   
  26c749:	05 1b 3d 05 0a       	add    eax,0xa053d1b
  26c74e:	ad                   	lods   eax,DWORD PTR ds:[rsi]
  26c74f:	05 01 9f 05 1d       	add    eax,0x1d059f01
  26c754:	3d 05 05 ae 05       	cmp    eax,0x5ae0505
  26c759:	1c 00                	sbb    al,0x0
  26c75b:	02 04 01             	add    al,BYTE PTR [rcx+rax*1]
  26c75e:	66 05 21 00          	add    ax,0x21
  26c762:	02 04 01             	add    al,BYTE PTR [rcx+rax*1]
  26c765:	9e                   	sahf   
  26c766:	05 2e 30 05 1d       	add    eax,0x1d05302e
  26c76b:	9e                   	sahf   
  26c76c:	05 17 08 12 05       	add    eax,0x5120817
  26c771:	3e 00 02             	ds add BYTE PTR [rdx],al
  26c774:	04 01                	add    al,0x1
  26c776:	4a 05 44 00 02 04    	rex.WX add rax,0x4020044
  26c77c:	01 c8                	add    eax,ecx
  26c77e:	05 05 31 05 18       	add    eax,0x18053105
  26c783:	00 02                	add    BYTE PTR [rdx],al
  26c785:	04 01                	add    al,0x1
  26c787:	90                   	nop
  26c788:	05 36 00 02 04       	add    eax,0x4020036
  26c78d:	02 90 05 4b 00 02    	add    dl,BYTE PTR [rax+0x2004b05]
  26c793:	04 02                	add    al,0x2
  26c795:	e4 05                	in     al,0x5
  26c797:	05 2f 05 1f 00       	add    eax,0x1f052f
  26c79c:	02 04 01             	add    al,BYTE PTR [rcx+rax*1]
  26c79f:	90                   	nop
  26c7a0:	05 25 00 02 04       	add    eax,0x4020025
  26c7a5:	01 9e 05 06 2f 05    	add    DWORD PTR [rsi+0x52f0605],ebx
  26c7ab:	0a 75 05             	or     dh,BYTE PTR [rbp+0x5]
  26c7ae:	01 9f 05 18 2f 05    	add    DWORD PTR [rdi+0x52f1805],ebx
  26c7b4:	0a ad 05 01 9f 05    	or     ch,BYTE PTR [rbp+0x59f0105]
  26c7ba:	46 03 ca             	rex.RX add r9d,edx
  26c7bd:	00 3c 05 25 08 59 05 	add    BYTE PTR [rax*1+0x5590825],bh
  26c7c4:	21 74 05 32          	and    DWORD PTR [rbp+rax*1+0x32],esi
  26c7c8:	00 02                	add    BYTE PTR [rdx],al
  26c7ca:	04 01                	add    al,0x1
  26c7cc:	58                   	pop    rax
  26c7cd:	05 2a 00 02 04       	add    eax,0x402002a
  26c7d2:	01 e4                	add    esp,esp
  26c7d4:	05 15 75 05 0d       	add    eax,0xd057515
  26c7d9:	82                   	(bad)  
  26c7da:	05 2a 00 02 04       	add    eax,0x402002a
  26c7df:	01 4a 05             	add    DWORD PTR [rdx+0x5],ecx
  26c7e2:	0d ad 05 18 9f       	or     eax,0x9f1805ad
  26c7e7:	02 24 13             	add    ah,BYTE PTR [rbx+rdx*1]
  26c7ea:	05 3c 02 39 12       	add    eax,0x1239023c
  26c7ef:	05 43 9e 05 48       	add    eax,0x48059e43
  26c7f4:	ba 05 49 74 05       	mov    edx,0x5744905
  26c7f9:	18 3d 02 36 13 05    	sbb    BYTE PTR [rip+0x5133602],bh        # 539fe01 <_end+0x4296241>
  26c7ff:	3c 02                	cmp    al,0x2
  26c801:	39 12                	cmp    DWORD PTR [rdx],edx
  26c803:	05 43 9e 05 48       	add    eax,0x48059e43
  26c808:	ba 05 49 74 05       	mov    edx,0x5744905
  26c80d:	18 3d 02 39 13 05    	sbb    BYTE PTR [rip+0x5133902],bh        # 53a0115 <_end+0x4296555>
  26c813:	3c 02                	cmp    al,0x2
  26c815:	39 12                	cmp    DWORD PTR [rdx],edx
  26c817:	05 43 9e 05 48       	add    eax,0x48059e43
  26c81c:	ba 05 49 74 05       	mov    edx,0x5744905
  26c821:	18 3d 02 36 13 02    	sbb    BYTE PTR [rip+0x2133602],bh        # 239fe29 <_end+0x1296269>
  26c827:	39 13                	cmp    DWORD PTR [rbx],edx
  26c829:	05 3c 02 39 12       	add    eax,0x1239023c
  26c82e:	05 43 9e 05 48       	add    eax,0x48059e43
  26c833:	ba 05 49 74 05       	mov    edx,0x5744905
  26c838:	18 3d 05 3c 02 39    	sbb    BYTE PTR [rip+0x39023c05],bh        # 39290443 <_end+0x38186883>
  26c83e:	12 05 43 9e 05 48    	adc    al,BYTE PTR [rip+0x48059e43]        # 482c6687 <_end+0x471bcac7>
  26c844:	ba 05 49 74 05       	mov    edx,0x5744905
  26c849:	1e                   	(bad)  
  26c84a:	3e 05 29 74 05 1e    	ds add eax,0x1e057429
  26c850:	3c 05                	cmp    al,0x5
  26c852:	17                   	(bad)  
  26c853:	82                   	(bad)  
  26c854:	67 05 11 66 05 17    	addr32 add eax,0x17056611
  26c85a:	5a                   	pop    rdx
  26c85b:	05 16 ba 05 1a       	add    eax,0x1a05ba16
  26c860:	67 05 15 66 05 26    	addr32 add eax,0x26056615
  26c866:	00 02                	add    BYTE PTR [rdx],al
  26c868:	04 01                	add    al,0x1
  26c86a:	58                   	pop    rax
  26c86b:	05 1a 9f 05 15       	add    eax,0x15059f1a
  26c870:	66 05 26 00          	add    ax,0x26
  26c874:	02 04 01             	add    al,BYTE PTR [rcx+rax*1]
  26c877:	58                   	pop    rax
  26c878:	05 18 a0 05 0d       	add    eax,0xd05a018
  26c87d:	a0 05 18 9f 02 24 13 	movabs al,ds:0x3c051324029f1805
  26c884:	05 3c 
  26c886:	02 39                	add    bh,BYTE PTR [rcx]
  26c888:	12 05 43 9e 05 48    	adc    al,BYTE PTR [rip+0x48059e43]        # 482c66d1 <_end+0x471bcb11>
  26c88e:	ba 05 49 74 05       	mov    edx,0x5744905
  26c893:	18 3d 02 36 13 05    	sbb    BYTE PTR [rip+0x5133602],bh        # 539fe9b <_end+0x42962db>
  26c899:	3c 02                	cmp    al,0x2
  26c89b:	39 12                	cmp    DWORD PTR [rdx],edx
  26c89d:	05 43 9e 05 48       	add    eax,0x48059e43
  26c8a2:	ba 05 49 74 05       	mov    edx,0x5744905
  26c8a7:	18 3d 02 39 13 05    	sbb    BYTE PTR [rip+0x5133902],bh        # 53a01af <_end+0x42965ef>
  26c8ad:	3c 02                	cmp    al,0x2
  26c8af:	39 12                	cmp    DWORD PTR [rdx],edx
  26c8b1:	05 43 9e 05 48       	add    eax,0x48059e43
  26c8b6:	ba 05 49 74 05       	mov    edx,0x5744905
  26c8bb:	18 3d 02 36 13 02    	sbb    BYTE PTR [rip+0x2133602],bh        # 239fec3 <_end+0x1296303>
  26c8c1:	39 13                	cmp    DWORD PTR [rbx],edx
  26c8c3:	05 3c 02 39 12       	add    eax,0x1239023c
  26c8c8:	05 43 9e 05 48       	add    eax,0x48059e43
  26c8cd:	ba 05 49 74 05       	mov    edx,0x5744905
  26c8d2:	18 3d 05 3c 02 39    	sbb    BYTE PTR [rip+0x39023c05],bh        # 392904dd <_end+0x3818691d>
  26c8d8:	12 05 43 9e 05 48    	adc    al,BYTE PTR [rip+0x48059e43]        # 482c6721 <_end+0x471bcb61>
  26c8de:	ba 05 49 74 05       	mov    edx,0x5744905
  26c8e3:	17                   	(bad)  
  26c8e4:	3d 05 22 74 05       	cmp    eax,0x5742205
  26c8e9:	17                   	(bad)  
  26c8ea:	3c 05                	cmp    al,0x5
  26c8ec:	18 83 05 14 76 05    	sbb    BYTE PTR [rbx+0x5761405],al
  26c8f2:	09 59 05             	or     DWORD PTR [rcx+0x5],ebx
  26c8f5:	18 31                	sbb    BYTE PTR [rcx],dh
  26c8f7:	05 09 4b 05 05       	add    eax,0x5054b09
  26c8fc:	21 05 17 2f 05 09    	and    DWORD PTR [rip+0x9052f17],eax        # 92bf819 <_end+0x81b5c59>
  26c902:	4b 05 05 21 05 3f    	rex.WXB add rax,0x3f052105
  26c908:	31 05 1a 08 5d 05    	xor    DWORD PTR [rip+0x55d081a],eax        # 583d128 <_end+0x4733568>
  26c90e:	01 08                	add    DWORD PTR [rax],ecx
  26c910:	76 05                	jbe    26c917 <__abi_tag-0x193a85>
  26c912:	14 32                	adc    al,0x32
  26c914:	05 0b ae 05 0c       	add    eax,0xc05ae0b
  26c919:	08 83 05 0f 02 23    	or     BYTE PTR [rbx+0x23020f05],al
  26c91f:	13 05 01 02 23 13    	adc    eax,DWORD PTR [rip+0x13230201]        # 1349cb26 <_end+0x12392f66>
  26c925:	05 14 3e 05 0f       	add    eax,0xf053e14
  26c92a:	bb 05 01 08 bb       	mov    ebx,0xbb080105
  26c92f:	05 42 03 c2 02       	add    eax,0x2c20342
  26c934:	3c 05                	cmp    al,0x5
  26c936:	23 08                	and    ecx,DWORD PTR [rax]
  26c938:	22 05 1b c8 05 05    	and    al,BYTE PTR [rip+0x505c81b]        # 52c9159 <_end+0x41bf599>
  26c93e:	66 05 22 4b          	add    ax,0x4b22
  26c942:	05 1b 90 05 0d       	add    eax,0xd05901b
  26c947:	67 05 26 e5 05 16    	addr32 add eax,0x1605e526
  26c94d:	f2 05 1e 77 05 14    	repnz add eax,0x1405771e
  26c953:	74 05                	je     26c95a <__abi_tag-0x193a42>
  26c955:	1e                   	(bad)  
  26c956:	58                   	pop    rax
  26c957:	05 1f 90 05 05       	add    eax,0x505901f
  26c95c:	3c 05                	cmp    al,0x5
  26c95e:	23 00                	and    eax,DWORD PTR [rax]
  26c960:	02 04 01             	add    al,BYTE PTR [rcx+rax*1]
  26c963:	4a 05 09 67 05 1a    	rex.WX add rax,0x1a056709
  26c969:	00 02                	add    BYTE PTR [rdx],al
  26c96b:	04 01                	add    al,0x1
  26c96d:	66 05 18 75          	add    ax,0x7518
  26c971:	02 25 14 05 01 02    	add    ah,BYTE PTR [rip+0x2010514]        # 227ce8b <_end+0x11732cb>
  26c977:	23 14 05 1c 03 15 4a 	and    edx,DWORD PTR [rax*1+0x4a15031c]
  26c97e:	05 0b 87 05 05       	add    eax,0x505870b
  26c983:	9e                   	sahf   
  26c984:	05 1b 32 05 1f       	add    eax,0x1f05321b
  26c989:	74 05                	je     26c990 <__abi_tag-0x193a0c>
  26c98b:	20 82 05 0d 66 05    	and    BYTE PTR [rdx+0x5660d05],al
  26c991:	31 00                	xor    DWORD PTR [rax],eax
  26c993:	02 04 01             	add    al,BYTE PTR [rcx+rax*1]
  26c996:	4a 05 35 00 02 04    	rex.WX add rax,0x4020035
  26c99c:	01 74 05 36          	add    DWORD PTR [rbp+rax*1+0x36],esi
  26c9a0:	00 02                	add    BYTE PTR [rdx],al
  26c9a2:	04 01                	add    al,0x1
  26c9a4:	82                   	(bad)  
  26c9a5:	05 37 00 02 04       	add    eax,0x4020037
  26c9aa:	01 3c 05 05 00 02 04 	add    DWORD PTR [rax*1+0x4020005],edi
  26c9b1:	02 38                	add    bh,BYTE PTR [rax]
  26c9b3:	05 1a 00 02 04       	add    eax,0x402001a
  26c9b8:	01 e4                	add    esp,esp
  26c9ba:	05 0f 00 02 04       	add    eax,0x402000f
  26c9bf:	01 74 05 1d          	add    DWORD PTR [rbp+rax*1+0x1d],esi
  26c9c3:	a5                   	movs   DWORD PTR es:[rdi],DWORD PTR ds:[rsi]
  26c9c4:	05 01 75 05 12       	add    eax,0x12057501
  26c9c9:	03 30                	add    esi,DWORD PTR [rax]
  26c9cb:	2e 05 1a 86 05 0b    	cs add eax,0xb05861a
  26c9d1:	9e                   	sahf   
  26c9d2:	05 07 75 05 0b       	add    eax,0xb057507
  26c9d7:	ad                   	lods   eax,DWORD PTR ds:[rsi]
  26c9d8:	05 05 74 05 10       	add    eax,0x10057405
  26c9dd:	59                   	pop    rcx
  26c9de:	05 09 74 05 14       	add    eax,0x14057409
  26c9e3:	59                   	pop    rcx
  26c9e4:	05 0d 74 05 12       	add    eax,0x1205740d
  26c9e9:	00 02                	add    BYTE PTR [rdx],al
  26c9eb:	04 03                	add    al,0x3
  26c9ed:	59                   	pop    rcx
  26c9ee:	05 13 00 02 04       	add    eax,0x4020013
  26c9f3:	03 d7                	add    edx,edi
  26c9f5:	00 02                	add    BYTE PTR [rdx],al
  26c9f7:	04 03                	add    al,0x3
  26c9f9:	d7                   	xlat   BYTE PTR ds:[rbx]
  26c9fa:	05 12 00 02 04       	add    eax,0x4020012
  26c9ff:	03 d7                	add    edx,edi
  26ca01:	05 2b 00 02 04       	add    eax,0x402002b
  26ca06:	03 08                	add    ecx,DWORD PTR [rax]
  26ca08:	59                   	pop    rcx
  26ca09:	05 36 00 02 04       	add    eax,0x4020036
  26ca0e:	03 08                	add    ecx,DWORD PTR [rax]
  26ca10:	20 05 35 00 02 04    	and    BYTE PTR [rip+0x4020035],al        # 428ca4b <_end+0x3182e8b>
  26ca16:	03 90 05 39 00 02    	add    edx,DWORD PTR [rax+0x2003905]
  26ca1c:	04 03                	add    al,0x3
  26ca1e:	f2 05 38 00 02 04    	repnz add eax,0x4020038
  26ca24:	03 90 05 2f 00 02    	add    edx,DWORD PTR [rax+0x2002f05]
  26ca2a:	04 03                	add    al,0x3
  26ca2c:	4a 05 28 00 02 04    	rex.WX add rax,0x4020028
  26ca32:	03 4a 05             	add    ecx,DWORD PTR [rdx+0x5]
  26ca35:	16                   	(bad)  
  26ca36:	00 02                	add    BYTE PTR [rdx],al
  26ca38:	04 03                	add    al,0x3
  26ca3a:	08 4a 05             	or     BYTE PTR [rdx+0x5],cl
  26ca3d:	14 00                	adc    al,0x0
  26ca3f:	02 04 03             	add    al,BYTE PTR [rbx+rax*1]
  26ca42:	2e 05 16 00 02 04    	cs add eax,0x4020016
  26ca48:	03 ba 05 0d 00 02    	add    edi,DWORD PTR [rdx+0x2000d05]
  26ca4e:	04 03                	add    al,0x3
  26ca50:	29 05 19 00 02 04    	sub    DWORD PTR [rip+0x4020019],eax        # 428ca6f <_end+0x3182eaf>
  26ca56:	01 4a 05             	add    DWORD PTR [rdx+0x5],ecx
  26ca59:	09 00                	or     DWORD PTR [rax],eax
  26ca5b:	02 04 02             	add    al,BYTE PTR [rdx+rax*1]
  26ca5e:	c7 05 15 00 02 04 01 	mov    DWORD PTR [rip+0x4020015],0x5054a01        # 428ca7d <_end+0x3182ebd>
  26ca65:	4a 05 05 
  26ca68:	00 02                	add    BYTE PTR [rdx],al
  26ca6a:	04 02                	add    al,0x2
  26ca6c:	c7 05 0f 00 02 04 01 	mov    DWORD PTR [rip+0x402000f],0x22054a01        # 428ca85 <_end+0x3182ec5>
  26ca73:	4a 05 22 
  26ca76:	03 17                	add    edx,DWORD PTR [rdi]
  26ca78:	c8 05 13 9e          	enter  0x1305,0x9e
  26ca7c:	05 0f 75 05 13       	add    eax,0x1305750f
  26ca81:	ad                   	lods   eax,DWORD PTR ds:[rsi]
  26ca82:	05 0d 74 05 18       	add    eax,0x1805740d
  26ca87:	59                   	pop    rcx
  26ca88:	05 11 74 05 16       	add    eax,0x16057411
  26ca8d:	00 02                	add    BYTE PTR [rdx],al
  26ca8f:	04 03                	add    al,0x3
  26ca91:	59                   	pop    rcx
  26ca92:	05 1c 00 02 04       	add    eax,0x402001c
  26ca97:	03 d6                	add    edx,esi
  26ca99:	05 16 00 02 04       	add    eax,0x4020016
  26ca9e:	03 d7                	add    edx,edi
  26caa0:	05 21 00 02 04       	add    eax,0x4020021
  26caa5:	03 08                	add    ecx,DWORD PTR [rax]
  26caa7:	58                   	pop    rax
  26caa8:	05 16 00 02 04       	add    eax,0x4020016
  26caad:	03 08                	add    ecx,DWORD PTR [rax]
  26caaf:	59                   	pop    rcx
  26cab0:	05 20 00 02 04       	add    eax,0x4020020
  26cab5:	03 08                	add    ecx,DWORD PTR [rax]
  26cab7:	20 05 17 00 02 04    	and    BYTE PTR [rip+0x4020017],al        # 428cad4 <_end+0x3182f14>
  26cabd:	03 08                	add    ecx,DWORD PTR [rax]
  26cabf:	21 05 2e 00 02 04    	and    DWORD PTR [rip+0x402002e],eax        # 428caf3 <_end+0x3182f33>
  26cac5:	03 e5                	add    esp,ebp
  26cac7:	05 2d 00 02 04       	add    eax,0x402002d
  26cacc:	03 90 05 31 00 02    	add    edx,DWORD PTR [rax+0x2003105]
  26cad2:	04 03                	add    al,0x3
  26cad4:	f2 05 28 00 02 04    	repnz add eax,0x4020028
  26cada:	03 ba 05 1a 00 02    	add    edi,DWORD PTR [rdx+0x2001a05]
  26cae0:	04 03                	add    al,0x3
  26cae2:	08 75 05             	or     BYTE PTR [rbp+0x5],dh
  26cae5:	18 00                	sbb    BYTE PTR [rax],al
  26cae7:	02 04 03             	add    al,BYTE PTR [rbx+rax*1]
  26caea:	58                   	pop    rax
  26caeb:	05 1a 00 02 04       	add    eax,0x402001a
  26caf0:	03 ba 05 11 00 02    	add    edi,DWORD PTR [rdx+0x2001105]
  26caf6:	04 03                	add    al,0x3
  26caf8:	03 7a 2e             	add    edi,DWORD PTR [rdx+0x2e]
  26cafb:	05 1d 00 02 04       	add    eax,0x402001d
  26cb00:	01 4a 05             	add    DWORD PTR [rdx+0x5],ecx
  26cb03:	0d 00 02 04 02       	or     eax,0x2040200
  26cb08:	c7 05 17 00 02 04 01 	mov    DWORD PTR [rip+0x4020017],0x21054a01        # 428cb29 <_end+0x3182f69>
  26cb0f:	4a 05 21 
  26cb12:	03 09                	add    ecx,DWORD PTR [rcx]
  26cb14:	c8 05 1a c8          	enter  0x1a05,0xc8
  26cb18:	05 21 75 05 1a       	add    eax,0x1a057521
  26cb1d:	c8 05 01 75          	enter  0x105,0x75
  26cb21:	05 24 03 0c 3c       	add    eax,0x3c0c0324
  26cb26:	05 0d bc 05 05       	add    eax,0x505bc0d
  26cb2b:	82                   	(bad)  
  26cb2c:	05 0d 83 05 08       	add    eax,0x805830d
  26cb31:	82                   	(bad)  
  26cb32:	05 10 76 05 05       	add    eax,0x5057610
  26cb37:	ac                   	lods   al,BYTE PTR ds:[rsi]
  26cb38:	05 0e 03 14 02       	add    eax,0x214030e
  26cb3d:	48 01 05 1d 74 05 0f 	add    QWORD PTR [rip+0xf05741d],rax        # f2c3f61 <_end+0xe1ba3a1>
  26cb44:	66 05 0e 2f          	add    ax,0x2f0e
  26cb48:	05 1d ac 05 0f       	add    eax,0xf05ac1d
  26cb4d:	66 05 0e 2f          	add    ax,0x2f0e
  26cb51:	05 1d ac 05 0f       	add    eax,0xf05ac1d
  26cb56:	66 05 0e 2f          	add    ax,0x2f0e
  26cb5a:	05 1d ac 05 0f       	add    eax,0xf05ac1d
  26cb5f:	66 05 09 2f          	add    ax,0x2f09
  26cb63:	05 0e 5c 05 0f       	add    eax,0xf055c0e
  26cb68:	74 05                	je     26cb6f <__abi_tag-0x19382d>
  26cb6a:	0e                   	(bad)  
  26cb6b:	67 05 0f ac 05 09    	addr32 add eax,0x905ac0f
  26cb71:	67 05 0e 5c 05 1c    	addr32 add eax,0x1c055c0e
  26cb77:	74 05                	je     26cb7e <__abi_tag-0x19381e>
  26cb79:	0f 66 05 0e 2f 05 1c 	pcmpgtd mm0,QWORD PTR [rip+0x1c052f0e]        # 1c2bfa8e <_end+0x1b1b5ece>
  26cb80:	ac                   	lods   al,BYTE PTR ds:[rsi]
  26cb81:	05 0f 66 05 0e       	add    eax,0xe05660f
  26cb86:	2f                   	(bad)  
  26cb87:	05 1c ac 05 0f       	add    eax,0xf05ac1c
  26cb8c:	66 05 0e 2f          	add    ax,0x2f0e
  26cb90:	05 1c ac 05 0f       	add    eax,0xf05ac1c
  26cb95:	66 05 0e 2f          	add    ax,0x2f0e
  26cb99:	05 1c ac 05 0f       	add    eax,0xf05ac1c
  26cb9e:	66 05 0e 2f          	add    ax,0x2f0e
  26cba2:	05 1c ac 05 0f       	add    eax,0xf05ac1c
  26cba7:	66 05 0e 2f          	add    ax,0x2f0e
  26cbab:	05 1d ac 05 0f       	add    eax,0xf05ac1d
  26cbb0:	66 05 0e 2f          	add    ax,0x2f0e
  26cbb4:	05 1c ac 05 0f       	add    eax,0xf05ac1c
  26cbb9:	66 05 0e 2f          	add    ax,0x2f0e
  26cbbd:	05 1d ac 05 0f       	add    eax,0xf05ac1d
  26cbc2:	66 05 0e 2f          	add    ax,0x2f0e
  26cbc6:	05 1d ac 05 0f       	add    eax,0xf05ac1d
  26cbcb:	66 2f                	data16 (bad) 
  26cbcd:	05 1e ac 05 10       	add    eax,0x1005ac1e
  26cbd2:	66 05 0f 2f          	add    ax,0x2f0f
  26cbd6:	05 1e ac 05 10       	add    eax,0x1005ac1e
  26cbdb:	66 05 0f 2f          	add    ax,0x2f0f
  26cbdf:	05 1e ac 05 10       	add    eax,0x1005ac1e
  26cbe4:	66 05 0f 2f          	add    ax,0x2f0f
  26cbe8:	05 1e ac 05 10       	add    eax,0x1005ac1e
  26cbed:	66 05 0f 2f          	add    ax,0x2f0f
  26cbf1:	05 1e ac 05 10       	add    eax,0x1005ac1e
  26cbf6:	66 05 0f 2f          	add    ax,0x2f0f
  26cbfa:	05 1e ac 05 10       	add    eax,0x1005ac1e
  26cbff:	66 05 09 2f          	add    ax,0x2f09
  26cc03:	05 0e 5c 05 0f       	add    eax,0xf055c0e
  26cc08:	ac                   	lods   al,BYTE PTR ds:[rsi]
  26cc09:	05 0e 67 05 0f       	add    eax,0xf05670e
  26cc0e:	ac                   	lods   al,BYTE PTR ds:[rsi]
  26cc0f:	05 0e 67 05 0f       	add    eax,0xf05670e
  26cc14:	ac                   	lods   al,BYTE PTR ds:[rsi]
  26cc15:	05 0e 67 05 0f       	add    eax,0xf05670e
  26cc1a:	ac                   	lods   al,BYTE PTR ds:[rsi]
  26cc1b:	05 09 67 05 0e       	add    eax,0xe056709
  26cc20:	5c                   	pop    rsp
  26cc21:	05 0f 74 05 0e       	add    eax,0xe05740f
  26cc26:	67 05 0f ac 05 09    	addr32 add eax,0x905ac0f
  26cc2c:	67 05 0f 32 05 09    	addr32 add eax,0x905320f
  26cc32:	08 c9                	or     cl,cl
  26cc34:	05 0f 32 05 09       	add    eax,0x905320f
  26cc39:	08 c9                	or     cl,cl
  26cc3b:	05 0f 33 05 21       	add    eax,0x2105330f
  26cc40:	03 ae 7f 08 e4 05    	add    ebp,DWORD PTR [rsi+0x5e4087f]
  26cc46:	01 03                	add    DWORD PTR [rbx],eax
  26cc48:	d6                   	(bad)  
  26cc49:	00 20                	add    BYTE PTR [rax],ah
  26cc4b:	05 26 33 05 15       	add    eax,0x15053326
  26cc50:	cc                   	int3   
  26cc51:	05 05 ac 05 43       	add    eax,0x4305ac05
  26cc56:	4b 05 36 9e 05 15    	rex.WXB add rax,0x15059e36
  26cc5c:	74 05                	je     26cc63 <__abi_tag-0x193739>
  26cc5e:	2a ac 05 1d d6 05 2f 	sub    ch,BYTE PTR [rbp+rax*1+0x2f05d61d]
  26cc65:	66 05 31 74          	add    ax,0x7431
  26cc69:	05 36 3c 05 32       	add    eax,0x32053c36
  26cc6e:	4a 05 09 2f 05 19    	rex.WX add rax,0x19052f09
  26cc74:	5a                   	pop    rdx
  26cc75:	05 09 ac 05 19       	add    eax,0x1905ac09
  26cc7a:	4b 05 30 ac 05 23    	rex.WXB add rax,0x2305ac30
  26cc80:	d6                   	(bad)  
  26cc81:	05 35 66 05 37       	add    eax,0x37056635
  26cc86:	74 05                	je     26cc8d <__abi_tag-0x19370f>
  26cc88:	38 74 05 0d          	cmp    BYTE PTR [rbp+rax*1+0xd],dh
  26cc8c:	59                   	pop    rcx
  26cc8d:	05 13 5a 05 09       	add    eax,0x9055a13
  26cc92:	82                   	(bad)  
  26cc93:	05 19 02 3c 14       	add    eax,0x143c0219
  26cc98:	05 30 ac 05 23       	add    eax,0x2305ac30
  26cc9d:	d6                   	(bad)  
  26cc9e:	05 35 66 05 37       	add    eax,0x37056635
  26cca3:	74 05                	je     26ccaa <__abi_tag-0x1936f2>
  26cca5:	38 74 05 0d          	cmp    BYTE PTR [rbp+rax*1+0xd],dh
  26cca9:	59                   	pop    rcx
  26ccaa:	05 1d 5f 05 35       	add    eax,0x35055f1d
  26ccaf:	ac                   	lods   al,BYTE PTR ds:[rsi]
  26ccb0:	05 28 d6 05 3a       	add    eax,0x3a05d628
  26ccb5:	66 05 25 74          	add    ax,0x7425
  26ccb9:	05 10 74 05 15       	add    eax,0x15057410
  26ccbe:	75 05                	jne    26ccc5 <__abi_tag-0x1936d7>
  26ccc0:	19 90 05 28 74 05    	sbb    DWORD PTR [rax+0x5742805],edx
  26ccc6:	23 82 05 33 2e 05    	and    eax,DWORD PTR [rdx+0x52e3305]
  26cccc:	4b                   	rex.WXB
  26cccd:	4a 05 43 74 05 47    	rex.WX add rax,0x47057443
  26ccd3:	90                   	nop
  26ccd4:	05 4b 58 05 4c       	add    eax,0x4c05584b
  26ccd9:	90                   	nop
  26ccda:	05 0d 58 05 37       	add    eax,0x3705580d
  26ccdf:	74 05                	je     26cce6 <__abi_tag-0x1936b6>
  26cce1:	11 2e                	adc    DWORD PTR [rsi],ebp
  26cce3:	05 0d 2f 05 1d       	add    eax,0x1d052f0d
  26cce8:	5b                   	pop    rbx
  26cce9:	05 35 ac 05 28       	add    eax,0x2805ac35
  26ccee:	d6                   	(bad)  
  26ccef:	05 3a 66 05 25       	add    eax,0x2505663a
  26ccf4:	74 05                	je     26ccfb <__abi_tag-0x1936a1>
  26ccf6:	10 74 05 15          	adc    BYTE PTR [rbp+rax*1+0x15],dh
  26ccfa:	75 05                	jne    26cd01 <__abi_tag-0x19369b>
  26ccfc:	19 90 05 28 74 05    	sbb    DWORD PTR [rax+0x5742805],edx
  26cd02:	23 82 05 33 2e 05    	and    eax,DWORD PTR [rdx+0x52e3305]
