  DW_CFA_def_cfa_offset: 16
  DW_CFA_offset: r6 (rbp) at cfa-16
  DW_CFA_advance_loc: 3 to 00000000008e6142
  DW_CFA_def_cfa_register: r6 (rbp)
  DW_CFA_advance_loc: 52 to 00000000008e6176
  DW_CFA_def_cfa: r7 (rsp) ofs 8
  DW_CFA_nop
  DW_CFA_nop
  DW_CFA_nop

0000623c 000000000000001c 00006240 FDE cie=00000000 pc=00000000008e6177..00000000008e61b0
  DW_CFA_advance_loc: 1 to 00000000008e6178
  DW_CFA_def_cfa_offset: 16
  DW_CFA_offset: r6 (rbp) at cfa-16
  DW_CFA_advance_loc: 3 to 00000000008e617b
  DW_CFA_def_cfa_register: r6 (rbp)
  DW_CFA_advance_loc: 52 to 00000000008e61af
  DW_CFA_def_cfa: r7 (rsp) ofs 8
  DW_CFA_nop
  DW_CFA_nop
  DW_CFA_nop

0000625c 000000000000001c 00006260 FDE cie=00000000 pc=00000000008e61b0..00000000008e61ec
  DW_CFA_advance_loc: 1 to 00000000008e61b1
  DW_CFA_def_cfa_offset: 16
  DW_CFA_offset: r6 (rbp) at cfa-16
  DW_CFA_advance_loc: 3 to 00000000008e61b4
  DW_CFA_def_cfa_register: r6 (rbp)
  DW_CFA_advance_loc: 55 to 00000000008e61eb
  DW_CFA_def_cfa: r7 (rsp) ofs 8
  DW_CFA_nop
  DW_CFA_nop
  DW_CFA_nop

0000627c 000000000000001c 00006280 FDE cie=00000000 pc=00000000008e61ec..00000000008e6228
  DW_CFA_advance_loc: 1 to 00000000008e61ed
  DW_CFA_def_cfa_offset: 16
  DW_CFA_offset: r6 (rbp) at cfa-16
  DW_CFA_advance_loc: 3 to 00000000008e61f0
  DW_CFA_def_cfa_register: r6 (rbp)
  DW_CFA_advance_loc: 55 to 00000000008e6227
  DW_CFA_def_cfa: r7 (rsp) ofs 8
  DW_CFA_nop
  DW_CFA_nop
  DW_CFA_nop

0000629c 000000000000001c 000062a0 FDE cie=00000000 pc=00000000008e6228..00000000008e6267
  DW_CFA_advance_loc: 1 to 00000000008e6229
  DW_CFA_def_cfa_offset: 16
  DW_CFA_offset: r6 (rbp) at cfa-16
  DW_CFA_advance_loc: 3 to 00000000008e622c
  DW_CFA_def_cfa_register: r6 (rbp)
  DW_CFA_advance_loc: 58 to 00000000008e6266
  DW_CFA_def_cfa: r7 (rsp) ofs 8
  DW_CFA_nop
  DW_CFA_nop
  DW_CFA_nop

000062bc 000000000000001c 000062c0 FDE cie=00000000 pc=00000000008e6267..00000000008e62a6
  DW_CFA_advance_loc: 1 to 00000000008e6268
  DW_CFA_def_cfa_offset: 16
  DW_CFA_offset: r6 (rbp) at cfa-16
  DW_CFA_advance_loc: 3 to 00000000008e626b
  DW_CFA_def_cfa_register: r6 (rbp)
  DW_CFA_advance_loc: 58 to 00000000008e62a5
  DW_CFA_def_cfa: r7 (rsp) ofs 8
  DW_CFA_nop
  DW_CFA_nop
  DW_CFA_nop

000062dc 000000000000001c 000062e0 FDE cie=00000000 pc=00000000008e62a6..00000000008e62f4
  DW_CFA_advance_loc: 1 to 00000000008e62a7
  DW_CFA_def_cfa_offset: 16
  DW_CFA_offset: r6 (rbp) at cfa-16
  DW_CFA_advance_loc: 3 to 00000000008e62aa
  DW_CFA_def_cfa_register: r6 (rbp)
  DW_CFA_advance_loc1: 73 to 00000000008e62f3
  DW_CFA_def_cfa: r7 (rsp) ofs 8
  DW_CFA_nop
  DW_CFA_nop

000062fc 000000000000001c 00006300 FDE cie=00000000 pc=00000000008e62f4..00000000008e6364
  DW_CFA_advance_loc: 1 to 00000000008e62f5
  DW_CFA_def_cfa_offset: 16
  DW_CFA_offset: r6 (rbp) at cfa-16
  DW_CFA_advance_loc: 3 to 00000000008e62f8
  DW_CFA_def_cfa_register: r6 (rbp)
  DW_CFA_advance_loc1: 107 to 00000000008e6363
  DW_CFA_def_cfa: r7 (rsp) ofs 8
  DW_CFA_nop
  DW_CFA_nop

0000631c 000000000000001c 00006320 FDE cie=00000000 pc=00000000008e6364..00000000008e63d4
  DW_CFA_advance_loc: 1 to 00000000008e6365
  DW_CFA_def_cfa_offset: 16
  DW_CFA_offset: r6 (rbp) at cfa-16
  DW_CFA_advance_loc: 3 to 00000000008e6368
  DW_CFA_def_cfa_register: r6 (rbp)
  DW_CFA_advance_loc1: 107 to 00000000008e63d3
  DW_CFA_def_cfa: r7 (rsp) ofs 8
  DW_CFA_nop
  DW_CFA_nop

0000633c 000000000000001c 00006340 FDE cie=00000000 pc=00000000008e63d4..00000000008e6408
  DW_CFA_advance_loc: 1 to 00000000008e63d5
  DW_CFA_def_cfa_offset: 16
  DW_CFA_offset: r6 (rbp) at cfa-16
  DW_CFA_advance_loc: 3 to 00000000008e63d8
  DW_CFA_def_cfa_register: r6 (rbp)
  DW_CFA_advance_loc: 47 to 00000000008e6407
  DW_CFA_def_cfa: r7 (rsp) ofs 8
  DW_CFA_nop
  DW_CFA_nop
  DW_CFA_nop

0000635c 000000000000001c 00006360 FDE cie=00000000 pc=00000000008e6408..00000000008e643c
  DW_CFA_advance_loc: 1 to 00000000008e6409
  DW_CFA_def_cfa_offset: 16
  DW_CFA_offset: r6 (rbp) at cfa-16
  DW_CFA_advance_loc: 3 to 00000000008e640c
  DW_CFA_def_cfa_register: r6 (rbp)
  DW_CFA_advance_loc: 47 to 00000000008e643b
  DW_CFA_def_cfa: r7 (rsp) ofs 8
  DW_CFA_nop
  DW_CFA_nop
  DW_CFA_nop

0000637c 000000000000001c 00006380 FDE cie=00000000 pc=00000000008e643c..00000000008e6471
  DW_CFA_advance_loc: 1 to 00000000008e643d
  DW_CFA_def_cfa_offset: 16
  DW_CFA_offset: r6 (rbp) at cfa-16
  DW_CFA_advance_loc: 3 to 00000000008e6440
  DW_CFA_def_cfa_register: r6 (rbp)
  DW_CFA_advance_loc: 48 to 00000000008e6470
  DW_CFA_def_cfa: r7 (rsp) ofs 8
  DW_CFA_nop
  DW_CFA_nop
  DW_CFA_nop

0000639c 000000000000001c 000063a0 FDE cie=00000000 pc=00000000008e6471..00000000008e64a6
  DW_CFA_advance_loc: 1 to 00000000008e6472
  DW_CFA_def_cfa_offset: 16
  DW_CFA_offset: r6 (rbp) at cfa-16
  DW_CFA_advance_loc: 3 to 00000000008e6475
  DW_CFA_def_cfa_register: r6 (rbp)
  DW_CFA_advance_loc: 48 to 00000000008e64a5
  DW_CFA_def_cfa: r7 (rsp) ofs 8
  DW_CFA_nop
  DW_CFA_nop
  DW_CFA_nop

000063bc 000000000000001c 000063c0 FDE cie=00000000 pc=00000000008e64a6..00000000008e64da
  DW_CFA_advance_loc: 1 to 00000000008e64a7
  DW_CFA_def_cfa_offset: 16
  DW_CFA_offset: r6 (rbp) at cfa-16
  DW_CFA_advance_loc: 3 to 00000000008e64aa
  DW_CFA_def_cfa_register: r6 (rbp)
  DW_CFA_advance_loc: 47 to 00000000008e64d9
  DW_CFA_def_cfa: r7 (rsp) ofs 8
  DW_CFA_nop
  DW_CFA_nop
  DW_CFA_nop

000063dc 000000000000001c 000063e0 FDE cie=00000000 pc=00000000008e64da..00000000008e650e
  DW_CFA_advance_loc: 1 to 00000000008e64db
  DW_CFA_def_cfa_offset: 16
  DW_CFA_offset: r6 (rbp) at cfa-16
  DW_CFA_advance_loc: 3 to 00000000008e64de
  DW_CFA_def_cfa_register: r6 (rbp)
  DW_CFA_advance_loc: 47 to 00000000008e650d
  DW_CFA_def_cfa: r7 (rsp) ofs 8
  DW_CFA_nop
  DW_CFA_nop
  DW_CFA_nop

000063fc 000000000000001c 00006400 FDE cie=00000000 pc=00000000008e650e..00000000008e6543
  DW_CFA_advance_loc: 1 to 00000000008e650f
  DW_CFA_def_cfa_offset: 16
  DW_CFA_offset: r6 (rbp) at cfa-16
  DW_CFA_advance_loc: 3 to 00000000008e6512
  DW_CFA_def_cfa_register: r6 (rbp)
  DW_CFA_advance_loc: 48 to 00000000008e6542
  DW_CFA_def_cfa: r7 (rsp) ofs 8
  DW_CFA_nop
  DW_CFA_nop
  DW_CFA_nop

0000641c 000000000000001c 00006420 FDE cie=00000000 pc=00000000008e6543..00000000008e6578
  DW_CFA_advance_loc: 1 to 00000000008e6544
  DW_CFA_def_cfa_offset: 16
  DW_CFA_offset: r6 (rbp) at cfa-16
  DW_CFA_advance_loc: 3 to 00000000008e6547
  DW_CFA_def_cfa_register: r6 (rbp)
  DW_CFA_advance_loc: 48 to 00000000008e6577
  DW_CFA_def_cfa: r7 (rsp) ofs 8
  DW_CFA_nop
  DW_CFA_nop
  DW_CFA_nop

0000643c 000000000000001c 00006440 FDE cie=00000000 pc=00000000008e6578..00000000008e65ad
  DW_CFA_advance_loc: 1 to 00000000008e6579
  DW_CFA_def_cfa_offset: 16
  DW_CFA_offset: r6 (rbp) at cfa-16
  DW_CFA_advance_loc: 3 to 00000000008e657c
  DW_CFA_def_cfa_register: r6 (rbp)
  DW_CFA_advance_loc: 48 to 00000000008e65ac
  DW_CFA_def_cfa: r7 (rsp) ofs 8
  DW_CFA_nop
  DW_CFA_nop
  DW_CFA_nop

0000645c 000000000000001c 00006460 FDE cie=00000000 pc=00000000008e65ad..00000000008e65ec
  DW_CFA_advance_loc: 1 to 00000000008e65ae
  DW_CFA_def_cfa_offset: 16
  DW_CFA_offset: r6 (rbp) at cfa-16
  DW_CFA_advance_loc: 3 to 00000000008e65b1
  DW_CFA_def_cfa_register: r6 (rbp)
  DW_CFA_advance_loc: 58 to 00000000008e65eb
  DW_CFA_def_cfa: r7 (rsp) ofs 8
  DW_CFA_nop
  DW_CFA_nop
  DW_CFA_nop

0000647c 000000000000001c 00006480 FDE cie=00000000 pc=00000000008e65ec..00000000008e661d
  DW_CFA_advance_loc: 1 to 00000000008e65ed
  DW_CFA_def_cfa_offset: 16
  DW_CFA_offset: r6 (rbp) at cfa-16
  DW_CFA_advance_loc: 3 to 00000000008e65f0
  DW_CFA_def_cfa_register: r6 (rbp)
  DW_CFA_advance_loc: 44 to 00000000008e661c
  DW_CFA_def_cfa: r7 (rsp) ofs 8
  DW_CFA_nop
  DW_CFA_nop
  DW_CFA_nop

0000649c 000000000000001c 000064a0 FDE cie=00000000 pc=00000000008e661d..00000000008e667e
  DW_CFA_advance_loc: 1 to 00000000008e661e
  DW_CFA_def_cfa_offset: 16
  DW_CFA_offset: r6 (rbp) at cfa-16
  DW_CFA_advance_loc: 3 to 00000000008e6621
  DW_CFA_def_cfa_register: r6 (rbp)
  DW_CFA_advance_loc1: 92 to 00000000008e667d
  DW_CFA_def_cfa: r7 (rsp) ofs 8
  DW_CFA_nop
  DW_CFA_nop

000064bc 000000000000001c 000064c0 FDE cie=00000000 pc=00000000008e667e..00000000008e670e
  DW_CFA_advance_loc: 1 to 00000000008e667f
  DW_CFA_def_cfa_offset: 16
  DW_CFA_offset: r6 (rbp) at cfa-16
  DW_CFA_advance_loc: 3 to 00000000008e6682
  DW_CFA_def_cfa_register: r6 (rbp)
  DW_CFA_advance_loc1: 139 to 00000000008e670d
  DW_CFA_def_cfa: r7 (rsp) ofs 8
  DW_CFA_nop
  DW_CFA_nop

000064dc 000000000000001c 000064e0 FDE cie=00000000 pc=00000000008e670e..00000000008e67f9
  DW_CFA_advance_loc: 1 to 00000000008e670f
  DW_CFA_def_cfa_offset: 16
  DW_CFA_offset: r6 (rbp) at cfa-16
  DW_CFA_advance_loc: 3 to 00000000008e6712
  DW_CFA_def_cfa_register: r6 (rbp)
  DW_CFA_advance_loc1: 230 to 00000000008e67f8
  DW_CFA_def_cfa: r7 (rsp) ofs 8
  DW_CFA_nop
  DW_CFA_nop

000064fc 000000000000001c 00006500 FDE cie=00000000 pc=00000000008e67f9..00000000008e68f0
  DW_CFA_advance_loc: 1 to 00000000008e67fa
  DW_CFA_def_cfa_offset: 16
  DW_CFA_offset: r6 (rbp) at cfa-16
  DW_CFA_advance_loc: 3 to 00000000008e67fd
  DW_CFA_def_cfa_register: r6 (rbp)
  DW_CFA_advance_loc1: 242 to 00000000008e68ef
  DW_CFA_def_cfa: r7 (rsp) ofs 8
  DW_CFA_nop
  DW_CFA_nop

0000651c 000000000000001c 00006520 FDE cie=00000000 pc=00000000008e68f0..00000000008e694a
  DW_CFA_advance_loc: 1 to 00000000008e68f1
  DW_CFA_def_cfa_offset: 16
  DW_CFA_offset: r6 (rbp) at cfa-16
  DW_CFA_advance_loc: 3 to 00000000008e68f4
  DW_CFA_def_cfa_register: r6 (rbp)
  DW_CFA_advance_loc1: 85 to 00000000008e6949
  DW_CFA_def_cfa: r7 (rsp) ofs 8
  DW_CFA_nop
  DW_CFA_nop

0000653c 000000000000001c 00006540 FDE cie=00000000 pc=00000000008e694a..00000000008e69aa
  DW_CFA_advance_loc: 1 to 00000000008e694b
  DW_CFA_def_cfa_offset: 16
  DW_CFA_offset: r6 (rbp) at cfa-16
  DW_CFA_advance_loc: 3 to 00000000008e694e
  DW_CFA_def_cfa_register: r6 (rbp)
  DW_CFA_advance_loc1: 91 to 00000000008e69a9
  DW_CFA_def_cfa: r7 (rsp) ofs 8
  DW_CFA_nop
  DW_CFA_nop

0000655c 000000000000001c 00006560 FDE cie=00000000 pc=00000000008e69aa..00000000008e6b83
  DW_CFA_advance_loc: 1 to 00000000008e69ab
  DW_CFA_def_cfa_offset: 16
  DW_CFA_offset: r6 (rbp) at cfa-16
  DW_CFA_advance_loc: 3 to 00000000008e69ae
  DW_CFA_def_cfa_register: r6 (rbp)
  DW_CFA_advance_loc2: 468 to 00000000008e6b82
  DW_CFA_def_cfa: r7 (rsp) ofs 8
  DW_CFA_nop

0000657c 000000000000001c 00006580 FDE cie=00000000 pc=00000000008e6b83..00000000008e6d18
  DW_CFA_advance_loc: 1 to 00000000008e6b84
  DW_CFA_def_cfa_offset: 16
  DW_CFA_offset: r6 (rbp) at cfa-16
  DW_CFA_advance_loc: 3 to 00000000008e6b87
  DW_CFA_def_cfa_register: r6 (rbp)
  DW_CFA_advance_loc2: 400 to 00000000008e6d17
  DW_CFA_def_cfa: r7 (rsp) ofs 8
  DW_CFA_nop

0000659c 000000000000001c 000065a0 FDE cie=00000000 pc=00000000008e6d18..00000000008e6eb0
  DW_CFA_advance_loc: 1 to 00000000008e6d19
  DW_CFA_def_cfa_offset: 16
  DW_CFA_offset: r6 (rbp) at cfa-16
  DW_CFA_advance_loc: 3 to 00000000008e6d1c
  DW_CFA_def_cfa_register: r6 (rbp)
  DW_CFA_advance_loc2: 403 to 00000000008e6eaf
  DW_CFA_def_cfa: r7 (rsp) ofs 8
  DW_CFA_nop

000065bc 000000000000001c 000065c0 FDE cie=00000000 pc=00000000008e6eb0..00000000008e703e
  DW_CFA_advance_loc: 1 to 00000000008e6eb1
  DW_CFA_def_cfa_offset: 16
  DW_CFA_offset: r6 (rbp) at cfa-16
  DW_CFA_advance_loc: 3 to 00000000008e6eb4
  DW_CFA_def_cfa_register: r6 (rbp)
  DW_CFA_advance_loc2: 393 to 00000000008e703d
  DW_CFA_def_cfa: r7 (rsp) ofs 8
  DW_CFA_nop

000065dc 000000000000001c 000065e0 FDE cie=00000000 pc=00000000008e703e..00000000008e718f
  DW_CFA_advance_loc: 1 to 00000000008e703f
  DW_CFA_def_cfa_offset: 16
  DW_CFA_offset: r6 (rbp) at cfa-16
  DW_CFA_advance_loc: 3 to 00000000008e7042
  DW_CFA_def_cfa_register: r6 (rbp)
  DW_CFA_advance_loc2: 332 to 00000000008e718e
  DW_CFA_def_cfa: r7 (rsp) ofs 8
  DW_CFA_nop

000065fc 000000000000001c 00006600 FDE cie=00000000 pc=00000000008e718f..00000000008e72d7
  DW_CFA_advance_loc: 1 to 00000000008e7190
  DW_CFA_def_cfa_offset: 16
  DW_CFA_offset: r6 (rbp) at cfa-16
  DW_CFA_advance_loc: 3 to 00000000008e7193
  DW_CFA_def_cfa_register: r6 (rbp)
  DW_CFA_advance_loc2: 323 to 00000000008e72d6
  DW_CFA_def_cfa: r7 (rsp) ofs 8
  DW_CFA_nop

0000661c 000000000000001c 00006620 FDE cie=00000000 pc=00000000008e72d7..00000000008e72f9
  DW_CFA_advance_loc: 1 to 00000000008e72d8
  DW_CFA_def_cfa_offset: 16
  DW_CFA_offset: r6 (rbp) at cfa-16
  DW_CFA_advance_loc: 3 to 00000000008e72db
  DW_CFA_def_cfa_register: r6 (rbp)
  DW_CFA_advance_loc: 29 to 00000000008e72f8
  DW_CFA_def_cfa: r7 (rsp) ofs 8
  DW_CFA_nop
  DW_CFA_nop
  DW_CFA_nop

0000663c 000000000000001c 00006640 FDE cie=00000000 pc=00000000008e72f9..00000000008e7411
  DW_CFA_advance_loc: 1 to 00000000008e72fa
  DW_CFA_def_cfa_offset: 16
  DW_CFA_offset: r6 (rbp) at cfa-16
  DW_CFA_advance_loc: 3 to 00000000008e72fd
  DW_CFA_def_cfa_register: r6 (rbp)
  DW_CFA_advance_loc2: 275 to 00000000008e7410
  DW_CFA_def_cfa: r7 (rsp) ofs 8
  DW_CFA_nop

0000665c 000000000000001c 00006660 FDE cie=00000000 pc=00000000008e7411..00000000008e74d9
  DW_CFA_advance_loc: 1 to 00000000008e7412
  DW_CFA_def_cfa_offset: 16
  DW_CFA_offset: r6 (rbp) at cfa-16
  DW_CFA_advance_loc: 3 to 00000000008e7415
  DW_CFA_def_cfa_register: r6 (rbp)
  DW_CFA_advance_loc1: 195 to 00000000008e74d8
  DW_CFA_def_cfa: r7 (rsp) ofs 8
  DW_CFA_nop
  DW_CFA_nop

0000667c 000000000000001c 00006680 FDE cie=00000000 pc=00000000008e74d9..00000000008e75f1
  DW_CFA_advance_loc: 1 to 00000000008e74da
  DW_CFA_def_cfa_offset: 16
  DW_CFA_offset: r6 (rbp) at cfa-16
  DW_CFA_advance_loc: 3 to 00000000008e74dd
  DW_CFA_def_cfa_register: r6 (rbp)
  DW_CFA_advance_loc2: 275 to 00000000008e75f0
  DW_CFA_def_cfa: r7 (rsp) ofs 8
  DW_CFA_nop

0000669c 000000000000001c 000066a0 FDE cie=00000000 pc=00000000008e75f1..00000000008e769e
  DW_CFA_advance_loc: 1 to 00000000008e75f2
  DW_CFA_def_cfa_offset: 16
  DW_CFA_offset: r6 (rbp) at cfa-16
  DW_CFA_advance_loc: 3 to 00000000008e75f5
  DW_CFA_def_cfa_register: r6 (rbp)
  DW_CFA_advance_loc1: 168 to 00000000008e769d
  DW_CFA_def_cfa: r7 (rsp) ofs 8
  DW_CFA_nop
  DW_CFA_nop

000066bc 000000000000001c 000066c0 FDE cie=00000000 pc=00000000008e769e..00000000008e76ec
  DW_CFA_advance_loc: 1 to 00000000008e769f
  DW_CFA_def_cfa_offset: 16
  DW_CFA_offset: r6 (rbp) at cfa-16
  DW_CFA_advance_loc: 3 to 00000000008e76a2
  DW_CFA_def_cfa_register: r6 (rbp)
  DW_CFA_advance_loc1: 73 to 00000000008e76eb
  DW_CFA_def_cfa: r7 (rsp) ofs 8
  DW_CFA_nop
  DW_CFA_nop

000066dc 000000000000001c 000066e0 FDE cie=00000000 pc=00000000008e76ec..00000000008e7738
  DW_CFA_advance_loc: 1 to 00000000008e76ed
  DW_CFA_def_cfa_offset: 16
  DW_CFA_offset: r6 (rbp) at cfa-16
  DW_CFA_advance_loc: 3 to 00000000008e76f0
  DW_CFA_def_cfa_register: r6 (rbp)
  DW_CFA_advance_loc1: 71 to 00000000008e7737
  DW_CFA_def_cfa: r7 (rsp) ofs 8
  DW_CFA_nop
  DW_CFA_nop

000066fc 000000000000001c 00006700 FDE cie=00000000 pc=00000000008e7738..00000000008e7788
  DW_CFA_advance_loc: 1 to 00000000008e7739
  DW_CFA_def_cfa_offset: 16
  DW_CFA_offset: r6 (rbp) at cfa-16
  DW_CFA_advance_loc: 3 to 00000000008e773c
  DW_CFA_def_cfa_register: r6 (rbp)
  DW_CFA_advance_loc1: 75 to 00000000008e7787
  DW_CFA_def_cfa: r7 (rsp) ofs 8
  DW_CFA_nop
  DW_CFA_nop

0000671c 000000000000001c 00006720 FDE cie=00000000 pc=00000000008e7788..00000000008e77d7
  DW_CFA_advance_loc: 1 to 00000000008e7789
  DW_CFA_def_cfa_offset: 16
  DW_CFA_offset: r6 (rbp) at cfa-16
  DW_CFA_advance_loc: 3 to 00000000008e778c
  DW_CFA_def_cfa_register: r6 (rbp)
  DW_CFA_advance_loc1: 74 to 00000000008e77d6
  DW_CFA_def_cfa: r7 (rsp) ofs 8
  DW_CFA_nop
  DW_CFA_nop

0000673c 000000000000001c 00006740 FDE cie=00000000 pc=00000000008e77d7..00000000008e7825
  DW_CFA_advance_loc: 1 to 00000000008e77d8
  DW_CFA_def_cfa_offset: 16
  DW_CFA_offset: r6 (rbp) at cfa-16
  DW_CFA_advance_loc: 3 to 00000000008e77db
  DW_CFA_def_cfa_register: r6 (rbp)
  DW_CFA_advance_loc1: 73 to 00000000008e7824
  DW_CFA_def_cfa: r7 (rsp) ofs 8
  DW_CFA_nop
  DW_CFA_nop

0000675c 000000000000001c 00006760 FDE cie=00000000 pc=00000000008e7825..00000000008e7871
  DW_CFA_advance_loc: 1 to 00000000008e7826
  DW_CFA_def_cfa_offset: 16
  DW_CFA_offset: r6 (rbp) at cfa-16
  DW_CFA_advance_loc: 3 to 00000000008e7829
  DW_CFA_def_cfa_register: r6 (rbp)
  DW_CFA_advance_loc1: 71 to 00000000008e7870
  DW_CFA_def_cfa: r7 (rsp) ofs 8
  DW_CFA_nop
  DW_CFA_nop

0000677c 000000000000001c 00006780 FDE cie=00000000 pc=00000000008e7871..00000000008e78c1
  DW_CFA_advance_loc: 1 to 00000000008e7872
  DW_CFA_def_cfa_offset: 16
  DW_CFA_offset: r6 (rbp) at cfa-16
  DW_CFA_advance_loc: 3 to 00000000008e7875
  DW_CFA_def_cfa_register: r6 (rbp)
  DW_CFA_advance_loc1: 75 to 00000000008e78c0
  DW_CFA_def_cfa: r7 (rsp) ofs 8
  DW_CFA_nop
  DW_CFA_nop

0000679c 000000000000001c 000067a0 FDE cie=00000000 pc=00000000008e78c1..00000000008e7910
  DW_CFA_advance_loc: 1 to 00000000008e78c2
  DW_CFA_def_cfa_offset: 16
  DW_CFA_offset: r6 (rbp) at cfa-16
  DW_CFA_advance_loc: 3 to 00000000008e78c5
  DW_CFA_def_cfa_register: r6 (rbp)
  DW_CFA_advance_loc1: 74 to 00000000008e790f
  DW_CFA_def_cfa: r7 (rsp) ofs 8
  DW_CFA_nop
  DW_CFA_nop

000067bc 0000000000000020 000067c0 FDE cie=00000000 pc=00000000008e7910..00000000008e7d6e
  DW_CFA_advance_loc: 1 to 00000000008e7911
  DW_CFA_def_cfa_offset: 16
  DW_CFA_offset: r6 (rbp) at cfa-16
  DW_CFA_advance_loc: 3 to 00000000008e7914
  DW_CFA_def_cfa_register: r6 (rbp)
  DW_CFA_advance_loc: 5 to 00000000008e7919
  DW_CFA_offset: r3 (rbx) at cfa-24
  DW_CFA_advance_loc2: 1108 to 00000000008e7d6d
  DW_CFA_def_cfa: r7 (rsp) ofs 8
  DW_CFA_nop
  DW_CFA_nop

000067e0 0000000000000020 000067e4 FDE cie=00000000 pc=00000000008e7d6e..00000000008e824b
  DW_CFA_advance_loc: 1 to 00000000008e7d6f
  DW_CFA_def_cfa_offset: 16
  DW_CFA_offset: r6 (rbp) at cfa-16
  DW_CFA_advance_loc: 3 to 00000000008e7d72
  DW_CFA_def_cfa_register: r6 (rbp)
  DW_CFA_advance_loc: 5 to 00000000008e7d77
  DW_CFA_offset: r3 (rbx) at cfa-24
  DW_CFA_advance_loc2: 1235 to 00000000008e824a
  DW_CFA_def_cfa: r7 (rsp) ofs 8
  DW_CFA_nop
  DW_CFA_nop

00006804 000000000000001c 00006808 FDE cie=00000000 pc=00000000008e824b..00000000008e8265
  DW_CFA_advance_loc: 1 to 00000000008e824c
  DW_CFA_def_cfa_offset: 16
  DW_CFA_offset: r6 (rbp) at cfa-16
  DW_CFA_advance_loc: 3 to 00000000008e824f
  DW_CFA_def_cfa_register: r6 (rbp)
  DW_CFA_advance_loc: 21 to 00000000008e8264
  DW_CFA_def_cfa: r7 (rsp) ofs 8
  DW_CFA_nop
  DW_CFA_nop
  DW_CFA_nop

00006824 000000000000001c 00006828 FDE cie=00000000 pc=00000000008e8265..00000000008e82c3
  DW_CFA_advance_loc: 1 to 00000000008e8266
  DW_CFA_def_cfa_offset: 16
  DW_CFA_offset: r6 (rbp) at cfa-16
  DW_CFA_advance_loc: 3 to 00000000008e8269
  DW_CFA_def_cfa_register: r6 (rbp)
  DW_CFA_advance_loc1: 89 to 00000000008e82c2
  DW_CFA_def_cfa: r7 (rsp) ofs 8
  DW_CFA_nop
  DW_CFA_nop

00006844 000000000000001c 00006848 FDE cie=00000000 pc=00000000008e82c3..00000000008e8321
  DW_CFA_advance_loc: 1 to 00000000008e82c4
  DW_CFA_def_cfa_offset: 16
  DW_CFA_offset: r6 (rbp) at cfa-16
  DW_CFA_advance_loc: 3 to 00000000008e82c7
  DW_CFA_def_cfa_register: r6 (rbp)
  DW_CFA_advance_loc1: 89 to 00000000008e8320
  DW_CFA_def_cfa: r7 (rsp) ofs 8
  DW_CFA_nop
  DW_CFA_nop

00006864 000000000000001c 00006868 FDE cie=00000000 pc=00000000008e8321..00000000008e83c7
  DW_CFA_advance_loc: 1 to 00000000008e8322
  DW_CFA_def_cfa_offset: 16
  DW_CFA_offset: r6 (rbp) at cfa-16
  DW_CFA_advance_loc: 3 to 00000000008e8325
  DW_CFA_def_cfa_register: r6 (rbp)
  DW_CFA_advance_loc1: 161 to 00000000008e83c6
  DW_CFA_def_cfa: r7 (rsp) ofs 8
  DW_CFA_nop
  DW_CFA_nop

00006884 000000000000001c 00006888 FDE cie=00000000 pc=00000000008e83c7..00000000008e846d
  DW_CFA_advance_loc: 1 to 00000000008e83c8
  DW_CFA_def_cfa_offset: 16
  DW_CFA_offset: r6 (rbp) at cfa-16
  DW_CFA_advance_loc: 3 to 00000000008e83cb
  DW_CFA_def_cfa_register: r6 (rbp)
  DW_CFA_advance_loc1: 161 to 00000000008e846c
  DW_CFA_def_cfa: r7 (rsp) ofs 8
  DW_CFA_nop
  DW_CFA_nop

000068a4 000000000000001c 000068a8 FDE cie=00000000 pc=00000000008e846d..00000000008e8506
  DW_CFA_advance_loc: 1 to 00000000008e846e
  DW_CFA_def_cfa_offset: 16
  DW_CFA_offset: r6 (rbp) at cfa-16
  DW_CFA_advance_loc: 3 to 00000000008e8471
  DW_CFA_def_cfa_register: r6 (rbp)
  DW_CFA_advance_loc1: 148 to 00000000008e8505
  DW_CFA_def_cfa: r7 (rsp) ofs 8
  DW_CFA_nop
  DW_CFA_nop

000068c4 000000000000001c 000068c8 FDE cie=00000000 pc=00000000008e8506..00000000008e859f
  DW_CFA_advance_loc: 1 to 00000000008e8507
  DW_CFA_def_cfa_offset: 16
  DW_CFA_offset: r6 (rbp) at cfa-16
  DW_CFA_advance_loc: 3 to 00000000008e850a
  DW_CFA_def_cfa_register: r6 (rbp)
  DW_CFA_advance_loc1: 148 to 00000000008e859e
  DW_CFA_def_cfa: r7 (rsp) ofs 8
  DW_CFA_nop
  DW_CFA_nop

000068e4 000000000000001c 000068e8 FDE cie=00000000 pc=00000000008e859f..00000000008e85e4
  DW_CFA_advance_loc: 1 to 00000000008e85a0
  DW_CFA_def_cfa_offset: 16
  DW_CFA_offset: r6 (rbp) at cfa-16
  DW_CFA_advance_loc: 3 to 00000000008e85a3
  DW_CFA_def_cfa_register: r6 (rbp)
  DW_CFA_advance_loc1: 64 to 00000000008e85e3
  DW_CFA_def_cfa: r7 (rsp) ofs 8
  DW_CFA_nop
  DW_CFA_nop

00006904 000000000000001c 00006908 FDE cie=00000000 pc=00000000008e85e4..00000000008e861b
  DW_CFA_advance_loc: 1 to 00000000008e85e5
  DW_CFA_def_cfa_offset: 16
  DW_CFA_offset: r6 (rbp) at cfa-16
  DW_CFA_advance_loc: 3 to 00000000008e85e8
  DW_CFA_def_cfa_register: r6 (rbp)
  DW_CFA_advance_loc: 50 to 00000000008e861a
  DW_CFA_def_cfa: r7 (rsp) ofs 8
  DW_CFA_nop
  DW_CFA_nop
  DW_CFA_nop

00006924 000000000000001c 00006928 FDE cie=00000000 pc=00000000008e861b..00000000008e862c
  DW_CFA_advance_loc: 1 to 00000000008e861c
  DW_CFA_def_cfa_offset: 16
  DW_CFA_offset: r6 (rbp) at cfa-16
  DW_CFA_advance_loc: 3 to 00000000008e861f
  DW_CFA_def_cfa_register: r6 (rbp)
  DW_CFA_advance_loc: 12 to 00000000008e862b
  DW_CFA_def_cfa: r7 (rsp) ofs 8
  DW_CFA_nop
  DW_CFA_nop
  DW_CFA_nop

00006944 000000000000001c 00006948 FDE cie=00000000 pc=00000000008e862c..00000000008e8fdf
  DW_CFA_advance_loc: 1 to 00000000008e862d
  DW_CFA_def_cfa_offset: 16
  DW_CFA_offset: r6 (rbp) at cfa-16
  DW_CFA_advance_loc: 3 to 00000000008e8630
  DW_CFA_def_cfa_register: r6 (rbp)
  DW_CFA_advance_loc2: 2478 to 00000000008e8fde
  DW_CFA_def_cfa: r7 (rsp) ofs 8
  DW_CFA_nop

00006964 000000000000001c 00006968 FDE cie=00000000 pc=00000000008e8fdf..00000000008e96ec
  DW_CFA_advance_loc: 1 to 00000000008e8fe0
  DW_CFA_def_cfa_offset: 16
  DW_CFA_offset: r6 (rbp) at cfa-16
  DW_CFA_advance_loc: 3 to 00000000008e8fe3
  DW_CFA_def_cfa_register: r6 (rbp)
  DW_CFA_advance_loc2: 1800 to 00000000008e96eb
  DW_CFA_def_cfa: r7 (rsp) ofs 8
  DW_CFA_nop

00006984 000000000000001c 00006988 FDE cie=00000000 pc=00000000008e96ec..00000000008e9ef7
  DW_CFA_advance_loc: 1 to 00000000008e96ed
  DW_CFA_def_cfa_offset: 16
  DW_CFA_offset: r6 (rbp) at cfa-16
  DW_CFA_advance_loc: 3 to 00000000008e96f0
  DW_CFA_def_cfa_register: r6 (rbp)
  DW_CFA_advance_loc2: 2054 to 00000000008e9ef6
  DW_CFA_def_cfa: r7 (rsp) ofs 8
  DW_CFA_nop

000069a4 000000000000001c 000069a8 FDE cie=00000000 pc=00000000008e9ef7..00000000008ea03b
  DW_CFA_advance_loc: 1 to 00000000008e9ef8
  DW_CFA_def_cfa_offset: 16
  DW_CFA_offset: r6 (rbp) at cfa-16
  DW_CFA_advance_loc: 3 to 00000000008e9efb
  DW_CFA_def_cfa_register: r6 (rbp)
  DW_CFA_advance_loc2: 319 to 00000000008ea03a
  DW_CFA_def_cfa: r7 (rsp) ofs 8
  DW_CFA_nop

000069c4 000000000000001c 000069c8 FDE cie=00000000 pc=00000000008ea03b..00000000008ea31c
  DW_CFA_advance_loc: 1 to 00000000008ea03c
  DW_CFA_def_cfa_offset: 16
  DW_CFA_offset: r6 (rbp) at cfa-16
  DW_CFA_advance_loc: 3 to 00000000008ea03f
  DW_CFA_def_cfa_register: r6 (rbp)
  DW_CFA_advance_loc2: 732 to 00000000008ea31b
  DW_CFA_def_cfa: r7 (rsp) ofs 8
  DW_CFA_nop

000069e4 000000000000001c 000069e8 FDE cie=00000000 pc=00000000008ea31c..00000000008ebfe2
  DW_CFA_advance_loc: 1 to 00000000008ea31d
  DW_CFA_def_cfa_offset: 16
  DW_CFA_offset: r6 (rbp) at cfa-16
  DW_CFA_advance_loc: 3 to 00000000008ea320
  DW_CFA_def_cfa_register: r6 (rbp)
  DW_CFA_advance_loc2: 7361 to 00000000008ebfe1
  DW_CFA_def_cfa: r7 (rsp) ofs 8
  DW_CFA_nop

00006a04 000000000000001c 00006a08 FDE cie=00000000 pc=00000000008ebfe2..00000000008ec235
  DW_CFA_advance_loc: 1 to 00000000008ebfe3
  DW_CFA_def_cfa_offset: 16
  DW_CFA_offset: r6 (rbp) at cfa-16
  DW_CFA_advance_loc: 3 to 00000000008ebfe6
  DW_CFA_def_cfa_register: r6 (rbp)
  DW_CFA_advance_loc2: 590 to 00000000008ec234
  DW_CFA_def_cfa: r7 (rsp) ofs 8
  DW_CFA_nop

00006a24 0000000000000020 00006a28 FDE cie=00000000 pc=00000000008ec235..00000000008ee686
  DW_CFA_advance_loc: 1 to 00000000008ec236
  DW_CFA_def_cfa_offset: 16
  DW_CFA_offset: r6 (rbp) at cfa-16
  DW_CFA_advance_loc: 3 to 00000000008ec239
  DW_CFA_def_cfa_register: r6 (rbp)
  DW_CFA_advance_loc: 5 to 00000000008ec23e
  DW_CFA_offset: r3 (rbx) at cfa-24
  DW_CFA_advance_loc2: 9287 to 00000000008ee685
  DW_CFA_def_cfa: r7 (rsp) ofs 8
  DW_CFA_nop
  DW_CFA_nop

00006a48 000000000000001c 00006a4c FDE cie=00000000 pc=00000000008ee686..00000000008eea24
  DW_CFA_advance_loc: 1 to 00000000008ee687
  DW_CFA_def_cfa_offset: 16
  DW_CFA_offset: r6 (rbp) at cfa-16
  DW_CFA_advance_loc: 3 to 00000000008ee68a
  DW_CFA_def_cfa_register: r6 (rbp)
  DW_CFA_advance_loc2: 921 to 00000000008eea23
  DW_CFA_def_cfa: r7 (rsp) ofs 8
  DW_CFA_nop

00006a68 000000000000001c 00006a6c FDE cie=00000000 pc=00000000008eea24..00000000008ef4df
  DW_CFA_advance_loc: 1 to 00000000008eea25
  DW_CFA_def_cfa_offset: 16
  DW_CFA_offset: r6 (rbp) at cfa-16
  DW_CFA_advance_loc: 3 to 00000000008eea28
  DW_CFA_def_cfa_register: r6 (rbp)
  DW_CFA_advance_loc2: 2742 to 00000000008ef4de
  DW_CFA_def_cfa: r7 (rsp) ofs 8
  DW_CFA_nop

00006a88 000000000000001c 00006a8c FDE cie=00000000 pc=00000000008ef4df..00000000008efb20
  DW_CFA_advance_loc: 1 to 00000000008ef4e0
  DW_CFA_def_cfa_offset: 16
  DW_CFA_offset: r6 (rbp) at cfa-16
  DW_CFA_advance_loc: 3 to 00000000008ef4e3
  DW_CFA_def_cfa_register: r6 (rbp)
  DW_CFA_advance_loc2: 1596 to 00000000008efb1f
  DW_CFA_def_cfa: r7 (rsp) ofs 8
  DW_CFA_nop

00006aa8 000000000000001c 00006aac FDE cie=00000000 pc=00000000008efb20..00000000008efe6f
  DW_CFA_advance_loc: 1 to 00000000008efb21
  DW_CFA_def_cfa_offset: 16
  DW_CFA_offset: r6 (rbp) at cfa-16
  DW_CFA_advance_loc: 3 to 00000000008efb24
  DW_CFA_def_cfa_register: r6 (rbp)
  DW_CFA_advance_loc2: 842 to 00000000008efe6e
  DW_CFA_def_cfa: r7 (rsp) ofs 8
  DW_CFA_nop

00006ac8 000000000000001c 00006acc FDE cie=00000000 pc=00000000008efe6f..00000000008f0448
  DW_CFA_advance_loc: 1 to 00000000008efe70
  DW_CFA_def_cfa_offset: 16
  DW_CFA_offset: r6 (rbp) at cfa-16
  DW_CFA_advance_loc: 3 to 00000000008efe73
  DW_CFA_def_cfa_register: r6 (rbp)
  DW_CFA_advance_loc2: 1492 to 00000000008f0447
  DW_CFA_def_cfa: r7 (rsp) ofs 8
  DW_CFA_nop

00006ae8 000000000000001c 00006aec FDE cie=00000000 pc=00000000008f0448..00000000008f0749
  DW_CFA_advance_loc: 1 to 00000000008f0449
  DW_CFA_def_cfa_offset: 16
  DW_CFA_offset: r6 (rbp) at cfa-16
  DW_CFA_advance_loc: 3 to 00000000008f044c
  DW_CFA_def_cfa_register: r6 (rbp)
  DW_CFA_advance_loc2: 764 to 00000000008f0748
  DW_CFA_def_cfa: r7 (rsp) ofs 8
  DW_CFA_nop

00006b08 000000000000001c 00006b0c FDE cie=00000000 pc=00000000008f0749..00000000008f1cd8
  DW_CFA_advance_loc: 1 to 00000000008f074a
  DW_CFA_def_cfa_offset: 16
  DW_CFA_offset: r6 (rbp) at cfa-16
  DW_CFA_advance_loc: 3 to 00000000008f074d
  DW_CFA_def_cfa_register: r6 (rbp)
  DW_CFA_advance_loc2: 5514 to 00000000008f1cd7
  DW_CFA_def_cfa: r7 (rsp) ofs 8
  DW_CFA_nop

00006b28 000000000000001c 00006b2c FDE cie=00000000 pc=00000000008f1cd8..00000000008f28d8
  DW_CFA_advance_loc: 1 to 00000000008f1cd9
  DW_CFA_def_cfa_offset: 16
  DW_CFA_offset: r6 (rbp) at cfa-16
  DW_CFA_advance_loc: 3 to 00000000008f1cdc
  DW_CFA_def_cfa_register: r6 (rbp)
  DW_CFA_advance_loc2: 3067 to 00000000008f28d7
  DW_CFA_def_cfa: r7 (rsp) ofs 8
  DW_CFA_nop

00006b48 000000000000001c 00006b4c FDE cie=00000000 pc=00000000008f28d8..00000000008f358f
  DW_CFA_advance_loc: 1 to 00000000008f28d9
  DW_CFA_def_cfa_offset: 16
  DW_CFA_offset: r6 (rbp) at cfa-16
  DW_CFA_advance_loc: 3 to 00000000008f28dc
  DW_CFA_def_cfa_register: r6 (rbp)
  DW_CFA_advance_loc2: 3250 to 00000000008f358e
  DW_CFA_def_cfa: r7 (rsp) ofs 8
  DW_CFA_nop

00006b68 000000000000001c 00006b6c FDE cie=00000000 pc=00000000008f358f..00000000008f35b9
  DW_CFA_advance_loc: 1 to 00000000008f3590
  DW_CFA_def_cfa_offset: 16
  DW_CFA_offset: r6 (rbp) at cfa-16
  DW_CFA_advance_loc: 3 to 00000000008f3593
  DW_CFA_def_cfa_register: r6 (rbp)
  DW_CFA_advance_loc: 37 to 00000000008f35b8
  DW_CFA_def_cfa: r7 (rsp) ofs 8
  DW_CFA_nop
  DW_CFA_nop
  DW_CFA_nop

00006b88 000000000000001c 00006b8c FDE cie=00000000 pc=00000000008f35b9..00000000008f35ef
  DW_CFA_advance_loc: 1 to 00000000008f35ba
  DW_CFA_def_cfa_offset: 16
  DW_CFA_offset: r6 (rbp) at cfa-16
  DW_CFA_advance_loc: 3 to 00000000008f35bd
  DW_CFA_def_cfa_register: r6 (rbp)
  DW_CFA_advance_loc: 49 to 00000000008f35ee
  DW_CFA_def_cfa: r7 (rsp) ofs 8
  DW_CFA_nop
  DW_CFA_nop
  DW_CFA_nop

00006ba8 000000000000001c 00006bac FDE cie=00000000 pc=00000000008f35ef..00000000008f3619
  DW_CFA_advance_loc: 1 to 00000000008f35f0
  DW_CFA_def_cfa_offset: 16
  DW_CFA_offset: r6 (rbp) at cfa-16
  DW_CFA_advance_loc: 3 to 00000000008f35f3
  DW_CFA_def_cfa_register: r6 (rbp)
  DW_CFA_advance_loc: 37 to 00000000008f3618
  DW_CFA_def_cfa: r7 (rsp) ofs 8
  DW_CFA_nop
  DW_CFA_nop
  DW_CFA_nop

00006bc8 000000000000001c 00006bcc FDE cie=00000000 pc=00000000008f3619..00000000008f3651
  DW_CFA_advance_loc: 1 to 00000000008f361a
  DW_CFA_def_cfa_offset: 16
  DW_CFA_offset: r6 (rbp) at cfa-16
  DW_CFA_advance_loc: 3 to 00000000008f361d
  DW_CFA_def_cfa_register: r6 (rbp)
  DW_CFA_advance_loc: 51 to 00000000008f3650
  DW_CFA_def_cfa: r7 (rsp) ofs 8
  DW_CFA_nop
  DW_CFA_nop
  DW_CFA_nop

00006be8 000000000000001c 00006bec FDE cie=00000000 pc=00000000008f3651..00000000008f36a7
  DW_CFA_advance_loc: 1 to 00000000008f3652
  DW_CFA_def_cfa_offset: 16
  DW_CFA_offset: r6 (rbp) at cfa-16
  DW_CFA_advance_loc: 3 to 00000000008f3655
  DW_CFA_def_cfa_register: r6 (rbp)
  DW_CFA_advance_loc1: 81 to 00000000008f36a6
  DW_CFA_def_cfa: r7 (rsp) ofs 8
  DW_CFA_nop
  DW_CFA_nop

00006c08 000000000000001c 00006c0c FDE cie=00000000 pc=00000000008f36a7..00000000008f373b
  DW_CFA_advance_loc: 1 to 00000000008f36a8
  DW_CFA_def_cfa_offset: 16
  DW_CFA_offset: r6 (rbp) at cfa-16
  DW_CFA_advance_loc: 3 to 00000000008f36ab
  DW_CFA_def_cfa_register: r6 (rbp)
  DW_CFA_advance_loc1: 143 to 00000000008f373a
  DW_CFA_def_cfa: r7 (rsp) ofs 8
  DW_CFA_nop
  DW_CFA_nop

00006c28 000000000000001c 00006c2c FDE cie=00000000 pc=00000000008f373b..00000000008f3765
  DW_CFA_advance_loc: 1 to 00000000008f373c
  DW_CFA_def_cfa_offset: 16
  DW_CFA_offset: r6 (rbp) at cfa-16
  DW_CFA_advance_loc: 3 to 00000000008f373f
  DW_CFA_def_cfa_register: r6 (rbp)
  DW_CFA_advance_loc: 37 to 00000000008f3764
  DW_CFA_def_cfa: r7 (rsp) ofs 8
  DW_CFA_nop
  DW_CFA_nop
  DW_CFA_nop

00006c48 000000000000001c 00006c4c FDE cie=00000000 pc=00000000008f3765..00000000008f378a
  DW_CFA_advance_loc: 1 to 00000000008f3766
  DW_CFA_def_cfa_offset: 16
  DW_CFA_offset: r6 (rbp) at cfa-16
  DW_CFA_advance_loc: 3 to 00000000008f3769
  DW_CFA_def_cfa_register: r6 (rbp)
  DW_CFA_advance_loc: 32 to 00000000008f3789
  DW_CFA_def_cfa: r7 (rsp) ofs 8
  DW_CFA_nop
  DW_CFA_nop
  DW_CFA_nop

00006c68 000000000000001c 00006c6c FDE cie=00000000 pc=00000000008f378a..00000000008f460d
  DW_CFA_advance_loc: 1 to 00000000008f378b
  DW_CFA_def_cfa_offset: 16
  DW_CFA_offset: r6 (rbp) at cfa-16
  DW_CFA_advance_loc: 3 to 00000000008f378e
  DW_CFA_def_cfa_register: r6 (rbp)
  DW_CFA_advance_loc2: 3710 to 00000000008f460c
  DW_CFA_def_cfa: r7 (rsp) ofs 8
  DW_CFA_nop

00006c88 000000000000001c 00006c8c FDE cie=00000000 pc=00000000008f460d..00000000008f5496
  DW_CFA_advance_loc: 1 to 00000000008f460e
  DW_CFA_def_cfa_offset: 16
  DW_CFA_offset: r6 (rbp) at cfa-16
  DW_CFA_advance_loc: 3 to 00000000008f4611
  DW_CFA_def_cfa_register: r6 (rbp)
  DW_CFA_advance_loc2: 3716 to 00000000008f5495
  DW_CFA_def_cfa: r7 (rsp) ofs 8
  DW_CFA_nop

00006ca8 000000000000001c 00006cac FDE cie=00000000 pc=00000000008f5496..00000000008f551d
  DW_CFA_advance_loc: 1 to 00000000008f5497
  DW_CFA_def_cfa_offset: 16
  DW_CFA_offset: r6 (rbp) at cfa-16
  DW_CFA_advance_loc: 3 to 00000000008f549a
  DW_CFA_def_cfa_register: r6 (rbp)
  DW_CFA_advance_loc1: 130 to 00000000008f551c
  DW_CFA_def_cfa: r7 (rsp) ofs 8
  DW_CFA_nop
  DW_CFA_nop

00006cc8 000000000000001c 00006ccc FDE cie=00000000 pc=00000000008f551d..00000000008f58ff
  DW_CFA_advance_loc: 1 to 00000000008f551e
  DW_CFA_def_cfa_offset: 16
  DW_CFA_offset: r6 (rbp) at cfa-16
  DW_CFA_advance_loc: 3 to 00000000008f5521
  DW_CFA_def_cfa_register: r6 (rbp)
  DW_CFA_advance_loc2: 989 to 00000000008f58fe
  DW_CFA_def_cfa: r7 (rsp) ofs 8
  DW_CFA_nop

00006ce8 000000000000001c 00006cec FDE cie=00000000 pc=00000000008f58ff..00000000008f5c6c
  DW_CFA_advance_loc: 1 to 00000000008f5900
  DW_CFA_def_cfa_offset: 16
  DW_CFA_offset: r6 (rbp) at cfa-16
  DW_CFA_advance_loc: 3 to 00000000008f5903
  DW_CFA_def_cfa_register: r6 (rbp)
  DW_CFA_advance_loc2: 872 to 00000000008f5c6b
  DW_CFA_def_cfa: r7 (rsp) ofs 8
  DW_CFA_nop

00006d08 000000000000001c 00006d0c FDE cie=00000000 pc=00000000008f5c6c..00000000008f5ccc
  DW_CFA_advance_loc: 1 to 00000000008f5c6d
  DW_CFA_def_cfa_offset: 16
  DW_CFA_offset: r6 (rbp) at cfa-16
  DW_CFA_advance_loc: 3 to 00000000008f5c70
  DW_CFA_def_cfa_register: r6 (rbp)
  DW_CFA_advance_loc1: 91 to 00000000008f5ccb
  DW_CFA_def_cfa: r7 (rsp) ofs 8
  DW_CFA_nop
  DW_CFA_nop

00006d28 000000000000001c 00006d2c FDE cie=00000000 pc=00000000008f5ccc..00000000008f6d96
  DW_CFA_advance_loc: 1 to 00000000008f5ccd
  DW_CFA_def_cfa_offset: 16
  DW_CFA_offset: r6 (rbp) at cfa-16
  DW_CFA_advance_loc: 3 to 00000000008f5cd0
  DW_CFA_def_cfa_register: r6 (rbp)
  DW_CFA_advance_loc2: 4293 to 00000000008f6d95
  DW_CFA_def_cfa: r7 (rsp) ofs 8
  DW_CFA_nop

00006d48 000000000000001c 00006d4c FDE cie=00000000 pc=00000000008f6d96..00000000008f6f75
  DW_CFA_advance_loc: 1 to 00000000008f6d97
  DW_CFA_def_cfa_offset: 16
  DW_CFA_offset: r6 (rbp) at cfa-16
  DW_CFA_advance_loc: 3 to 00000000008f6d9a
  DW_CFA_def_cfa_register: r6 (rbp)
  DW_CFA_advance_loc2: 474 to 00000000008f6f74
  DW_CFA_def_cfa: r7 (rsp) ofs 8
  DW_CFA_nop

00006d68 000000000000001c 00006d6c FDE cie=00000000 pc=00000000008f6f75..00000000008f7453
  DW_CFA_advance_loc: 1 to 00000000008f6f76
  DW_CFA_def_cfa_offset: 16
  DW_CFA_offset: r6 (rbp) at cfa-16
  DW_CFA_advance_loc: 3 to 00000000008f6f79
  DW_CFA_def_cfa_register: r6 (rbp)
  DW_CFA_advance_loc2: 1241 to 00000000008f7452
  DW_CFA_def_cfa: r7 (rsp) ofs 8
  DW_CFA_nop

00006d88 000000000000001c 00006d8c FDE cie=00000000 pc=00000000008f7453..00000000008f756a
  DW_CFA_advance_loc: 1 to 00000000008f7454
  DW_CFA_def_cfa_offset: 16
  DW_CFA_offset: r6 (rbp) at cfa-16
  DW_CFA_advance_loc: 3 to 00000000008f7457
  DW_CFA_def_cfa_register: r6 (rbp)
  DW_CFA_advance_loc2: 274 to 00000000008f7569
  DW_CFA_def_cfa: r7 (rsp) ofs 8
  DW_CFA_nop

00006da8 000000000000001c 00006dac FDE cie=00000000 pc=00000000008f756a..00000000008f7575
  DW_CFA_advance_loc: 1 to 00000000008f756b
  DW_CFA_def_cfa_offset: 16
  DW_CFA_offset: r6 (rbp) at cfa-16
  DW_CFA_advance_loc: 3 to 00000000008f756e
  DW_CFA_def_cfa_register: r6 (rbp)
  DW_CFA_advance_loc: 6 to 00000000008f7574
  DW_CFA_def_cfa: r7 (rsp) ofs 8
  DW_CFA_nop
  DW_CFA_nop
  DW_CFA_nop

00006dc8 000000000000001c 00006dcc FDE cie=00000000 pc=00000000008f7575..00000000008f78f2
  DW_CFA_advance_loc: 1 to 00000000008f7576
  DW_CFA_def_cfa_offset: 16
  DW_CFA_offset: r6 (rbp) at cfa-16
  DW_CFA_advance_loc: 3 to 00000000008f7579
  DW_CFA_def_cfa_register: r6 (rbp)
  DW_CFA_advance_loc2: 888 to 00000000008f78f1
  DW_CFA_def_cfa: r7 (rsp) ofs 8
  DW_CFA_nop

00006de8 000000000000001c 00006dec FDE cie=00000000 pc=00000000008f78f2..00000000008f7922
  DW_CFA_advance_loc: 1 to 00000000008f78f3
  DW_CFA_def_cfa_offset: 16
  DW_CFA_offset: r6 (rbp) at cfa-16
  DW_CFA_advance_loc: 3 to 00000000008f78f6
  DW_CFA_def_cfa_register: r6 (rbp)
  DW_CFA_advance_loc: 43 to 00000000008f7921
  DW_CFA_def_cfa: r7 (rsp) ofs 8
  DW_CFA_nop
  DW_CFA_nop
  DW_CFA_nop

00006e08 000000000000001c 00006e0c FDE cie=00000000 pc=00000000008f7922..00000000008f7a51
  DW_CFA_advance_loc: 1 to 00000000008f7923
  DW_CFA_def_cfa_offset: 16
  DW_CFA_offset: r6 (rbp) at cfa-16
  DW_CFA_advance_loc: 3 to 00000000008f7926
  DW_CFA_def_cfa_register: r6 (rbp)
  DW_CFA_advance_loc2: 298 to 00000000008f7a50
  DW_CFA_def_cfa: r7 (rsp) ofs 8
  DW_CFA_nop

00006e28 000000000000001c 00006e2c FDE cie=00000000 pc=00000000008f7a51..00000000008f7a77
  DW_CFA_advance_loc: 1 to 00000000008f7a52
  DW_CFA_def_cfa_offset: 16
  DW_CFA_offset: r6 (rbp) at cfa-16
  DW_CFA_advance_loc: 3 to 00000000008f7a55
  DW_CFA_def_cfa_register: r6 (rbp)
  DW_CFA_advance_loc: 33 to 00000000008f7a76
  DW_CFA_def_cfa: r7 (rsp) ofs 8
  DW_CFA_nop
  DW_CFA_nop
  DW_CFA_nop

00006e48 000000000000001c 00006e4c FDE cie=00000000 pc=00000000008f7a77..00000000008f7a85
  DW_CFA_advance_loc: 1 to 00000000008f7a78
  DW_CFA_def_cfa_offset: 16
  DW_CFA_offset: r6 (rbp) at cfa-16
  DW_CFA_advance_loc: 3 to 00000000008f7a7b
  DW_CFA_def_cfa_register: r6 (rbp)
  DW_CFA_advance_loc: 9 to 00000000008f7a84
  DW_CFA_def_cfa: r7 (rsp) ofs 8
  DW_CFA_nop
  DW_CFA_nop
  DW_CFA_nop

00006e68 000000000000001c 00006e6c FDE cie=00000000 pc=00000000008f7a85..00000000008f8607
  DW_CFA_advance_loc: 1 to 00000000008f7a86
  DW_CFA_def_cfa_offset: 16
  DW_CFA_offset: r6 (rbp) at cfa-16
  DW_CFA_advance_loc: 3 to 00000000008f7a89
  DW_CFA_def_cfa_register: r6 (rbp)
  DW_CFA_advance_loc2: 2941 to 00000000008f8606
  DW_CFA_def_cfa: r7 (rsp) ofs 8
  DW_CFA_nop

00006e88 000000000000001c 00006e8c FDE cie=00000000 pc=00000000008f8607..00000000008f8cb5
  DW_CFA_advance_loc: 1 to 00000000008f8608
  DW_CFA_def_cfa_offset: 16
  DW_CFA_offset: r6 (rbp) at cfa-16
  DW_CFA_advance_loc: 3 to 00000000008f860b
  DW_CFA_def_cfa_register: r6 (rbp)
  DW_CFA_advance_loc2: 1705 to 00000000008f8cb4
  DW_CFA_def_cfa: r7 (rsp) ofs 8
  DW_CFA_nop

00006ea8 000000000000001c 00006eac FDE cie=00000000 pc=00000000008f8cb5..00000000008f8df9
  DW_CFA_advance_loc: 1 to 00000000008f8cb6
  DW_CFA_def_cfa_offset: 16
  DW_CFA_offset: r6 (rbp) at cfa-16
  DW_CFA_advance_loc: 3 to 00000000008f8cb9
  DW_CFA_def_cfa_register: r6 (rbp)
  DW_CFA_advance_loc2: 319 to 00000000008f8df8
  DW_CFA_def_cfa: r7 (rsp) ofs 8
  DW_CFA_nop

00006ec8 000000000000001c 00006ecc FDE cie=00000000 pc=00000000008f8df9..00000000008f956e
  DW_CFA_advance_loc: 1 to 00000000008f8dfa
  DW_CFA_def_cfa_offset: 16
  DW_CFA_offset: r6 (rbp) at cfa-16
  DW_CFA_advance_loc: 3 to 00000000008f8dfd
  DW_CFA_def_cfa_register: r6 (rbp)
  DW_CFA_advance_loc2: 1904 to 00000000008f956d
  DW_CFA_def_cfa: r7 (rsp) ofs 8
  DW_CFA_nop

00006ee8 000000000000001c 00006eec FDE cie=00000000 pc=00000000008f956e..00000000008fa3dd
  DW_CFA_advance_loc: 1 to 00000000008f956f
  DW_CFA_def_cfa_offset: 16
  DW_CFA_offset: r6 (rbp) at cfa-16
  DW_CFA_advance_loc: 3 to 00000000008f9572
  DW_CFA_def_cfa_register: r6 (rbp)
  DW_CFA_advance_loc2: 3690 to 00000000008fa3dc
  DW_CFA_def_cfa: r7 (rsp) ofs 8
  DW_CFA_nop

00006f08 000000000000001c 00006f0c FDE cie=00000000 pc=00000000008fa3dd..00000000008fa939
  DW_CFA_advance_loc: 1 to 00000000008fa3de
  DW_CFA_def_cfa_offset: 16
  DW_CFA_offset: r6 (rbp) at cfa-16
  DW_CFA_advance_loc: 3 to 00000000008fa3e1
  DW_CFA_def_cfa_register: r6 (rbp)
  DW_CFA_advance_loc2: 1367 to 00000000008fa938
  DW_CFA_def_cfa: r7 (rsp) ofs 8
  DW_CFA_nop

00006f28 000000000000001c 00006f2c FDE cie=00000000 pc=00000000008fa939..00000000008fad9c
  DW_CFA_advance_loc: 1 to 00000000008fa93a
  DW_CFA_def_cfa_offset: 16
  DW_CFA_offset: r6 (rbp) at cfa-16
  DW_CFA_advance_loc: 3 to 00000000008fa93d
  DW_CFA_def_cfa_register: r6 (rbp)
  DW_CFA_advance_loc2: 1118 to 00000000008fad9b
  DW_CFA_def_cfa: r7 (rsp) ofs 8
  DW_CFA_nop

00006f48 000000000000001c 00006f4c FDE cie=00000000 pc=00000000008fad9c..00000000008fd899
  DW_CFA_advance_loc: 1 to 00000000008fad9d
  DW_CFA_def_cfa_offset: 16
  DW_CFA_offset: r6 (rbp) at cfa-16
  DW_CFA_advance_loc: 3 to 00000000008fada0
  DW_CFA_def_cfa_register: r6 (rbp)
  DW_CFA_advance_loc2: 11000 to 00000000008fd898
  DW_CFA_def_cfa: r7 (rsp) ofs 8
  DW_CFA_nop

00006f68 000000000000001c 00006f6c FDE cie=00000000 pc=00000000008fd899..00000000008fe1f6
  DW_CFA_advance_loc: 1 to 00000000008fd89a
  DW_CFA_def_cfa_offset: 16
  DW_CFA_offset: r6 (rbp) at cfa-16
  DW_CFA_advance_loc: 3 to 00000000008fd89d
  DW_CFA_def_cfa_register: r6 (rbp)
  DW_CFA_advance_loc2: 2392 to 00000000008fe1f5
  DW_CFA_def_cfa: r7 (rsp) ofs 8
  DW_CFA_nop

00006f88 000000000000001c 00006f8c FDE cie=00000000 pc=00000000008fe1f6..00000000008fe21c
  DW_CFA_advance_loc: 1 to 00000000008fe1f7
  DW_CFA_def_cfa_offset: 16
  DW_CFA_offset: r6 (rbp) at cfa-16
  DW_CFA_advance_loc: 3 to 00000000008fe1fa
  DW_CFA_def_cfa_register: r6 (rbp)
  DW_CFA_advance_loc: 33 to 00000000008fe21b
  DW_CFA_def_cfa: r7 (rsp) ofs 8
  DW_CFA_nop
  DW_CFA_nop
  DW_CFA_nop

00006fa8 000000000000001c 00006fac FDE cie=00000000 pc=00000000008fe21c..00000000008fe22a
  DW_CFA_advance_loc: 1 to 00000000008fe21d
  DW_CFA_def_cfa_offset: 16
  DW_CFA_offset: r6 (rbp) at cfa-16
  DW_CFA_advance_loc: 3 to 00000000008fe220
  DW_CFA_def_cfa_register: r6 (rbp)
  DW_CFA_advance_loc: 9 to 00000000008fe229
  DW_CFA_def_cfa: r7 (rsp) ofs 8
  DW_CFA_nop
  DW_CFA_nop
  DW_CFA_nop

00006fc8 000000000000001c 00006fcc FDE cie=00000000 pc=00000000008fe22a..00000000008fe235
  DW_CFA_advance_loc: 1 to 00000000008fe22b
  DW_CFA_def_cfa_offset: 16
  DW_CFA_offset: r6 (rbp) at cfa-16
  DW_CFA_advance_loc: 3 to 00000000008fe22e
  DW_CFA_def_cfa_register: r6 (rbp)
  DW_CFA_advance_loc: 6 to 00000000008fe234
  DW_CFA_def_cfa: r7 (rsp) ofs 8
  DW_CFA_nop
  DW_CFA_nop
  DW_CFA_nop

00006fe8 000000000000001c 00006fec FDE cie=00000000 pc=00000000008fe235..00000000008fe268
  DW_CFA_advance_loc: 1 to 00000000008fe236
  DW_CFA_def_cfa_offset: 16
  DW_CFA_offset: r6 (rbp) at cfa-16
  DW_CFA_advance_loc: 3 to 00000000008fe239
  DW_CFA_def_cfa_register: r6 (rbp)
  DW_CFA_advance_loc: 46 to 00000000008fe267
  DW_CFA_def_cfa: r7 (rsp) ofs 8
  DW_CFA_nop
  DW_CFA_nop
  DW_CFA_nop

00007008 000000000000001c 0000700c FDE cie=00000000 pc=00000000008fe268..00000000008fe274
  DW_CFA_advance_loc: 1 to 00000000008fe269
  DW_CFA_def_cfa_offset: 16
  DW_CFA_offset: r6 (rbp) at cfa-16
  DW_CFA_advance_loc: 3 to 00000000008fe26c
  DW_CFA_def_cfa_register: r6 (rbp)
  DW_CFA_advance_loc: 7 to 00000000008fe273
  DW_CFA_def_cfa: r7 (rsp) ofs 8
  DW_CFA_nop
  DW_CFA_nop
  DW_CFA_nop

00007028 000000000000001c 0000702c FDE cie=00000000 pc=00000000008fe274..00000000008fe5d0
  DW_CFA_advance_loc: 1 to 00000000008fe275
  DW_CFA_def_cfa_offset: 16
  DW_CFA_offset: r6 (rbp) at cfa-16
  DW_CFA_advance_loc: 3 to 00000000008fe278
  DW_CFA_def_cfa_register: r6 (rbp)
  DW_CFA_advance_loc2: 855 to 00000000008fe5cf
  DW_CFA_def_cfa: r7 (rsp) ofs 8
  DW_CFA_nop

00007048 000000000000001c 0000704c FDE cie=00000000 pc=00000000008fe5d0..00000000008fe6f2
  DW_CFA_advance_loc: 1 to 00000000008fe5d1
  DW_CFA_def_cfa_offset: 16
  DW_CFA_offset: r6 (rbp) at cfa-16
  DW_CFA_advance_loc: 3 to 00000000008fe5d4
  DW_CFA_def_cfa_register: r6 (rbp)
  DW_CFA_advance_loc2: 285 to 00000000008fe6f1
  DW_CFA_def_cfa: r7 (rsp) ofs 8
  DW_CFA_nop

00007068 000000000000001c 0000706c FDE cie=00000000 pc=00000000008fe6f2..00000000008fe7d2
  DW_CFA_advance_loc: 1 to 00000000008fe6f3
  DW_CFA_def_cfa_offset: 16
  DW_CFA_offset: r6 (rbp) at cfa-16
  DW_CFA_advance_loc: 3 to 00000000008fe6f6
  DW_CFA_def_cfa_register: r6 (rbp)
  DW_CFA_advance_loc1: 219 to 00000000008fe7d1
  DW_CFA_def_cfa: r7 (rsp) ofs 8
  DW_CFA_nop
  DW_CFA_nop

00007088 000000000000001c 0000708c FDE cie=00000000 pc=00000000008fe7d2..00000000008fe986
  DW_CFA_advance_loc: 1 to 00000000008fe7d3
  DW_CFA_def_cfa_offset: 16
  DW_CFA_offset: r6 (rbp) at cfa-16
  DW_CFA_advance_loc: 3 to 00000000008fe7d6
  DW_CFA_def_cfa_register: r6 (rbp)
  DW_CFA_advance_loc2: 431 to 00000000008fe985
  DW_CFA_def_cfa: r7 (rsp) ofs 8
  DW_CFA_nop

000070a8 000000000000001c 000070ac FDE cie=00000000 pc=00000000008fe986..00000000008feac7
  DW_CFA_advance_loc: 1 to 00000000008fe987
  DW_CFA_def_cfa_offset: 16
  DW_CFA_offset: r6 (rbp) at cfa-16
  DW_CFA_advance_loc: 3 to 00000000008fe98a
  DW_CFA_def_cfa_register: r6 (rbp)
  DW_CFA_advance_loc2: 316 to 00000000008feac6
  DW_CFA_def_cfa: r7 (rsp) ofs 8
  DW_CFA_nop

000070c8 000000000000001c 000070cc FDE cie=00000000 pc=00000000008feac7..00000000008feb62
  DW_CFA_advance_loc: 1 to 00000000008feac8
  DW_CFA_def_cfa_offset: 16
  DW_CFA_offset: r6 (rbp) at cfa-16
  DW_CFA_advance_loc: 3 to 00000000008feacb
  DW_CFA_def_cfa_register: r6 (rbp)
  DW_CFA_advance_loc1: 150 to 00000000008feb61
  DW_CFA_def_cfa: r7 (rsp) ofs 8
  DW_CFA_nop
  DW_CFA_nop

000070e8 000000000000001c 000070ec FDE cie=00000000 pc=00000000008feb62..00000000008fed1c
  DW_CFA_advance_loc: 1 to 00000000008feb63
  DW_CFA_def_cfa_offset: 16
  DW_CFA_offset: r6 (rbp) at cfa-16
  DW_CFA_advance_loc: 3 to 00000000008feb66
  DW_CFA_def_cfa_register: r6 (rbp)
  DW_CFA_advance_loc2: 437 to 00000000008fed1b
  DW_CFA_def_cfa: r7 (rsp) ofs 8
  DW_CFA_nop

00007108 000000000000001c 0000710c FDE cie=00000000 pc=00000000008fed1c..00000000008fee83
  DW_CFA_advance_loc: 1 to 00000000008fed1d
  DW_CFA_def_cfa_offset: 16
  DW_CFA_offset: r6 (rbp) at cfa-16
  DW_CFA_advance_loc: 3 to 00000000008fed20
  DW_CFA_def_cfa_register: r6 (rbp)
  DW_CFA_advance_loc2: 354 to 00000000008fee82
  DW_CFA_def_cfa: r7 (rsp) ofs 8
  DW_CFA_nop

00007128 000000000000001c 0000712c FDE cie=00000000 pc=00000000008fee83..00000000008ff00e
  DW_CFA_advance_loc: 1 to 00000000008fee84
  DW_CFA_def_cfa_offset: 16
  DW_CFA_offset: r6 (rbp) at cfa-16
  DW_CFA_advance_loc: 3 to 00000000008fee87
  DW_CFA_def_cfa_register: r6 (rbp)
  DW_CFA_advance_loc2: 390 to 00000000008ff00d
  DW_CFA_def_cfa: r7 (rsp) ofs 8
  DW_CFA_nop

00007148 0000000000000020 0000714c FDE cie=00000000 pc=00000000008ff00e..00000000008ff46f
  DW_CFA_advance_loc: 1 to 00000000008ff00f
  DW_CFA_def_cfa_offset: 16
  DW_CFA_offset: r6 (rbp) at cfa-16
  DW_CFA_advance_loc: 3 to 00000000008ff012
  DW_CFA_def_cfa_register: r6 (rbp)
  DW_CFA_advance_loc: 5 to 00000000008ff017
  DW_CFA_offset: r3 (rbx) at cfa-24
  DW_CFA_advance_loc2: 1111 to 00000000008ff46e
  DW_CFA_def_cfa: r7 (rsp) ofs 8
  DW_CFA_nop
  DW_CFA_nop

0000716c 000000000000001c 00007170 FDE cie=00000000 pc=00000000008ff46f..00000000008ff5c5
  DW_CFA_advance_loc: 1 to 00000000008ff470
  DW_CFA_def_cfa_offset: 16
  DW_CFA_offset: r6 (rbp) at cfa-16
  DW_CFA_advance_loc: 3 to 00000000008ff473
  DW_CFA_def_cfa_register: r6 (rbp)
  DW_CFA_advance_loc2: 337 to 00000000008ff5c4
  DW_CFA_def_cfa: r7 (rsp) ofs 8
  DW_CFA_nop

0000718c 000000000000001c 00007190 FDE cie=00000000 pc=00000000008ff5c5..00000000008ff752
  DW_CFA_advance_loc: 1 to 00000000008ff5c6
  DW_CFA_def_cfa_offset: 16
  DW_CFA_offset: r6 (rbp) at cfa-16
  DW_CFA_advance_loc: 3 to 00000000008ff5c9
  DW_CFA_def_cfa_register: r6 (rbp)
  DW_CFA_advance_loc2: 392 to 00000000008ff751
  DW_CFA_def_cfa: r7 (rsp) ofs 8
  DW_CFA_nop

000071ac 000000000000001c 000071b0 FDE cie=00000000 pc=00000000008ff752..00000000008ff88d
  DW_CFA_advance_loc: 1 to 00000000008ff753
  DW_CFA_def_cfa_offset: 16
  DW_CFA_offset: r6 (rbp) at cfa-16
  DW_CFA_advance_loc: 3 to 00000000008ff756
  DW_CFA_def_cfa_register: r6 (rbp)
  DW_CFA_advance_loc2: 310 to 00000000008ff88c
  DW_CFA_def_cfa: r7 (rsp) ofs 8
  DW_CFA_nop

000071cc 000000000000001c 000071d0 FDE cie=00000000 pc=00000000008ff88d..00000000008ff957
  DW_CFA_advance_loc: 1 to 00000000008ff88e
  DW_CFA_def_cfa_offset: 16
  DW_CFA_offset: r6 (rbp) at cfa-16
  DW_CFA_advance_loc: 3 to 00000000008ff891
  DW_CFA_def_cfa_register: r6 (rbp)
  DW_CFA_advance_loc1: 197 to 00000000008ff956
  DW_CFA_def_cfa: r7 (rsp) ofs 8
  DW_CFA_nop
  DW_CFA_nop

000071ec 000000000000001c 000071f0 FDE cie=00000000 pc=00000000008ff957..00000000008ffa30
  DW_CFA_advance_loc: 1 to 00000000008ff958
  DW_CFA_def_cfa_offset: 16
  DW_CFA_offset: r6 (rbp) at cfa-16
  DW_CFA_advance_loc: 3 to 00000000008ff95b
  DW_CFA_def_cfa_register: r6 (rbp)
  DW_CFA_advance_loc1: 212 to 00000000008ffa2f
  DW_CFA_def_cfa: r7 (rsp) ofs 8
  DW_CFA_nop
  DW_CFA_nop

0000720c 000000000000001c 00007210 FDE cie=00000000 pc=00000000008ffa30..00000000008ffed4
  DW_CFA_advance_loc: 1 to 00000000008ffa31
  DW_CFA_def_cfa_offset: 16
  DW_CFA_offset: r6 (rbp) at cfa-16
  DW_CFA_advance_loc: 3 to 00000000008ffa34
  DW_CFA_def_cfa_register: r6 (rbp)
  DW_CFA_advance_loc2: 1183 to 00000000008ffed3
  DW_CFA_def_cfa: r7 (rsp) ofs 8
  DW_CFA_nop

0000722c 000000000000001c 00007230 FDE cie=00000000 pc=00000000008ffed4..00000000008fff40
  DW_CFA_advance_loc: 1 to 00000000008ffed5
  DW_CFA_def_cfa_offset: 16
  DW_CFA_offset: r6 (rbp) at cfa-16
  DW_CFA_advance_loc: 3 to 00000000008ffed8
  DW_CFA_def_cfa_register: r6 (rbp)
  DW_CFA_advance_loc1: 103 to 00000000008fff3f
  DW_CFA_def_cfa: r7 (rsp) ofs 8
  DW_CFA_nop
  DW_CFA_nop

0000724c 000000000000001c 00007250 FDE cie=00000000 pc=00000000008fff40..000000000090054b
  DW_CFA_advance_loc: 1 to 00000000008fff41
  DW_CFA_def_cfa_offset: 16
  DW_CFA_offset: r6 (rbp) at cfa-16
  DW_CFA_advance_loc: 3 to 00000000008fff44
  DW_CFA_def_cfa_register: r6 (rbp)
  DW_CFA_advance_loc2: 1542 to 000000000090054a
  DW_CFA_def_cfa: r7 (rsp) ofs 8
  DW_CFA_nop

0000726c 000000000000001c 00007270 FDE cie=00000000 pc=000000000090054b..0000000000900b9f
  DW_CFA_advance_loc: 1 to 000000000090054c
  DW_CFA_def_cfa_offset: 16
  DW_CFA_offset: r6 (rbp) at cfa-16
  DW_CFA_advance_loc: 3 to 000000000090054f
  DW_CFA_def_cfa_register: r6 (rbp)
  DW_CFA_advance_loc2: 1615 to 0000000000900b9e
  DW_CFA_def_cfa: r7 (rsp) ofs 8
  DW_CFA_nop

0000728c 000000000000001c 00007290 FDE cie=00000000 pc=0000000000900b9f..0000000000901087
  DW_CFA_advance_loc: 1 to 0000000000900ba0
  DW_CFA_def_cfa_offset: 16
  DW_CFA_offset: r6 (rbp) at cfa-16
  DW_CFA_advance_loc: 3 to 0000000000900ba3
  DW_CFA_def_cfa_register: r6 (rbp)
  DW_CFA_advance_loc2: 1251 to 0000000000901086
  DW_CFA_def_cfa: r7 (rsp) ofs 8
  DW_CFA_nop

000072ac 000000000000001c 000072b0 FDE cie=00000000 pc=0000000000901087..0000000000901a6f
  DW_CFA_advance_loc: 1 to 0000000000901088
  DW_CFA_def_cfa_offset: 16
  DW_CFA_offset: r6 (rbp) at cfa-16
  DW_CFA_advance_loc: 3 to 000000000090108b
  DW_CFA_def_cfa_register: r6 (rbp)
  DW_CFA_advance_loc2: 2531 to 0000000000901a6e
  DW_CFA_def_cfa: r7 (rsp) ofs 8
  DW_CFA_nop

000072cc 000000000000001c 000072d0 FDE cie=00000000 pc=0000000000901a6f..0000000000902205
  DW_CFA_advance_loc: 1 to 0000000000901a70
  DW_CFA_def_cfa_offset: 16
  DW_CFA_offset: r6 (rbp) at cfa-16
  DW_CFA_advance_loc: 3 to 0000000000901a73
  DW_CFA_def_cfa_register: r6 (rbp)
  DW_CFA_advance_loc2: 1937 to 0000000000902204
  DW_CFA_def_cfa: r7 (rsp) ofs 8
  DW_CFA_nop

000072ec 000000000000001c 000072f0 FDE cie=00000000 pc=0000000000902205..000000000090220c
  DW_CFA_advance_loc: 1 to 0000000000902206
  DW_CFA_def_cfa_offset: 16
  DW_CFA_offset: r6 (rbp) at cfa-16
  DW_CFA_advance_loc: 3 to 0000000000902209
  DW_CFA_def_cfa_register: r6 (rbp)
  DW_CFA_advance_loc: 2 to 000000000090220b
  DW_CFA_def_cfa: r7 (rsp) ofs 8
  DW_CFA_nop
  DW_CFA_nop
  DW_CFA_nop

0000730c 000000000000001c 00007310 FDE cie=00000000 pc=000000000090220c..00000000009024f6
  DW_CFA_advance_loc: 1 to 000000000090220d
  DW_CFA_def_cfa_offset: 16
  DW_CFA_offset: r6 (rbp) at cfa-16
  DW_CFA_advance_loc: 3 to 0000000000902210
  DW_CFA_def_cfa_register: r6 (rbp)
  DW_CFA_advance_loc2: 741 to 00000000009024f5
  DW_CFA_def_cfa: r7 (rsp) ofs 8
  DW_CFA_nop

0000732c 000000000000001c 00007330 FDE cie=00000000 pc=00000000009024f6..0000000000902597
  DW_CFA_advance_loc: 1 to 00000000009024f7
  DW_CFA_def_cfa_offset: 16
  DW_CFA_offset: r6 (rbp) at cfa-16
  DW_CFA_advance_loc: 3 to 00000000009024fa
  DW_CFA_def_cfa_register: r6 (rbp)
  DW_CFA_advance_loc1: 156 to 0000000000902596
  DW_CFA_def_cfa: r7 (rsp) ofs 8
  DW_CFA_nop
  DW_CFA_nop

0000734c 000000000000001c 00007350 FDE cie=00000000 pc=0000000000902597..0000000000902638
  DW_CFA_advance_loc: 1 to 0000000000902598
  DW_CFA_def_cfa_offset: 16
  DW_CFA_offset: r6 (rbp) at cfa-16
  DW_CFA_advance_loc: 3 to 000000000090259b
  DW_CFA_def_cfa_register: r6 (rbp)
  DW_CFA_advance_loc1: 156 to 0000000000902637
  DW_CFA_def_cfa: r7 (rsp) ofs 8
  DW_CFA_nop
  DW_CFA_nop

0000736c 000000000000001c 00007370 FDE cie=00000000 pc=0000000000902638..0000000000902818
  DW_CFA_advance_loc: 1 to 0000000000902639
  DW_CFA_def_cfa_offset: 16
  DW_CFA_offset: r6 (rbp) at cfa-16
  DW_CFA_advance_loc: 3 to 000000000090263c
  DW_CFA_def_cfa_register: r6 (rbp)
  DW_CFA_advance_loc2: 475 to 0000000000902817
  DW_CFA_def_cfa: r7 (rsp) ofs 8
  DW_CFA_nop

0000738c 000000000000001c 00007390 FDE cie=00000000 pc=0000000000902818..0000000000902aa6
  DW_CFA_advance_loc: 1 to 0000000000902819
  DW_CFA_def_cfa_offset: 16
  DW_CFA_offset: r6 (rbp) at cfa-16
  DW_CFA_advance_loc: 3 to 000000000090281c
  DW_CFA_def_cfa_register: r6 (rbp)
  DW_CFA_advance_loc2: 649 to 0000000000902aa5
  DW_CFA_def_cfa: r7 (rsp) ofs 8
  DW_CFA_nop

000073ac 000000000000001c 000073b0 FDE cie=00000000 pc=0000000000902aa6..0000000000902b84
  DW_CFA_advance_loc: 1 to 0000000000902aa7
  DW_CFA_def_cfa_offset: 16
  DW_CFA_offset: r6 (rbp) at cfa-16
  DW_CFA_advance_loc: 3 to 0000000000902aaa
  DW_CFA_def_cfa_register: r6 (rbp)
  DW_CFA_advance_loc1: 217 to 0000000000902b83
  DW_CFA_def_cfa: r7 (rsp) ofs 8
  DW_CFA_nop
  DW_CFA_nop

000073cc 000000000000001c 000073d0 FDE cie=00000000 pc=0000000000902b84..0000000000902c62
  DW_CFA_advance_loc: 1 to 0000000000902b85
  DW_CFA_def_cfa_offset: 16
  DW_CFA_offset: r6 (rbp) at cfa-16
  DW_CFA_advance_loc: 3 to 0000000000902b88
  DW_CFA_def_cfa_register: r6 (rbp)
  DW_CFA_advance_loc1: 217 to 0000000000902c61
  DW_CFA_def_cfa: r7 (rsp) ofs 8
  DW_CFA_nop
  DW_CFA_nop

000073ec 000000000000001c 000073f0 FDE cie=00000000 pc=0000000000902c62..0000000000902ec8
  DW_CFA_advance_loc: 1 to 0000000000902c63
  DW_CFA_def_cfa_offset: 16
  DW_CFA_offset: r6 (rbp) at cfa-16
  DW_CFA_advance_loc: 3 to 0000000000902c66
  DW_CFA_def_cfa_register: r6 (rbp)
  DW_CFA_advance_loc2: 609 to 0000000000902ec7
  DW_CFA_def_cfa: r7 (rsp) ofs 8
  DW_CFA_nop

0000740c 000000000000001c 00007410 FDE cie=00000000 pc=0000000000902ec8..0000000000902f4b
  DW_CFA_advance_loc: 1 to 0000000000902ec9
  DW_CFA_def_cfa_offset: 16
  DW_CFA_offset: r6 (rbp) at cfa-16
  DW_CFA_advance_loc: 3 to 0000000000902ecc
  DW_CFA_def_cfa_register: r6 (rbp)
  DW_CFA_advance_loc1: 126 to 0000000000902f4a
  DW_CFA_def_cfa: r7 (rsp) ofs 8
  DW_CFA_nop
  DW_CFA_nop

0000742c 000000000000001c 00007430 FDE cie=00000000 pc=0000000000902f4b..0000000000902f82
  DW_CFA_advance_loc: 1 to 0000000000902f4c
  DW_CFA_def_cfa_offset: 16
  DW_CFA_offset: r6 (rbp) at cfa-16
  DW_CFA_advance_loc: 3 to 0000000000902f4f
  DW_CFA_def_cfa_register: r6 (rbp)
  DW_CFA_advance_loc: 50 to 0000000000902f81
  DW_CFA_def_cfa: r7 (rsp) ofs 8
  DW_CFA_nop
  DW_CFA_nop
  DW_CFA_nop

0000744c 000000000000001c 00007450 FDE cie=00000000 pc=0000000000902f82..000000000090313d
  DW_CFA_advance_loc: 1 to 0000000000902f83
  DW_CFA_def_cfa_offset: 16
  DW_CFA_offset: r6 (rbp) at cfa-16
  DW_CFA_advance_loc: 3 to 0000000000902f86
  DW_CFA_def_cfa_register: r6 (rbp)
  DW_CFA_advance_loc2: 438 to 000000000090313c
  DW_CFA_def_cfa: r7 (rsp) ofs 8
  DW_CFA_nop

0000746c 000000000000001c 00007470 FDE cie=00000000 pc=000000000090313d..0000000000903346
  DW_CFA_advance_loc: 1 to 000000000090313e
  DW_CFA_def_cfa_offset: 16
  DW_CFA_offset: r6 (rbp) at cfa-16
  DW_CFA_advance_loc: 3 to 0000000000903141
  DW_CFA_def_cfa_register: r6 (rbp)
  DW_CFA_advance_loc2: 516 to 0000000000903345
  DW_CFA_def_cfa: r7 (rsp) ofs 8
  DW_CFA_nop

0000748c 000000000000001c 00007490 FDE cie=00000000 pc=0000000000903346..00000000009037d7
  DW_CFA_advance_loc: 1 to 0000000000903347
  DW_CFA_def_cfa_offset: 16
  DW_CFA_offset: r6 (rbp) at cfa-16
  DW_CFA_advance_loc: 3 to 000000000090334a
  DW_CFA_def_cfa_register: r6 (rbp)
  DW_CFA_advance_loc2: 1164 to 00000000009037d6
  DW_CFA_def_cfa: r7 (rsp) ofs 8
  DW_CFA_nop

000074ac 000000000000001c 000074b0 FDE cie=00000000 pc=00000000009037d7..0000000000903e4a
  DW_CFA_advance_loc: 1 to 00000000009037d8
  DW_CFA_def_cfa_offset: 16
  DW_CFA_offset: r6 (rbp) at cfa-16
  DW_CFA_advance_loc: 3 to 00000000009037db
  DW_CFA_def_cfa_register: r6 (rbp)
  DW_CFA_advance_loc2: 1646 to 0000000000903e49
  DW_CFA_def_cfa: r7 (rsp) ofs 8
  DW_CFA_nop

000074cc 000000000000001c 000074d0 FDE cie=00000000 pc=0000000000903e4a..00000000009041ec
  DW_CFA_advance_loc: 1 to 0000000000903e4b
  DW_CFA_def_cfa_offset: 16
  DW_CFA_offset: r6 (rbp) at cfa-16
  DW_CFA_advance_loc: 3 to 0000000000903e4e
  DW_CFA_def_cfa_register: r6 (rbp)
  DW_CFA_advance_loc2: 925 to 00000000009041eb
  DW_CFA_def_cfa: r7 (rsp) ofs 8
  DW_CFA_nop

000074ec 000000000000001c 000074f0 FDE cie=00000000 pc=00000000009041ec..00000000009044c3
  DW_CFA_advance_loc: 1 to 00000000009041ed
  DW_CFA_def_cfa_offset: 16
  DW_CFA_offset: r6 (rbp) at cfa-16
  DW_CFA_advance_loc: 3 to 00000000009041f0
  DW_CFA_def_cfa_register: r6 (rbp)
  DW_CFA_advance_loc2: 722 to 00000000009044c2
  DW_CFA_def_cfa: r7 (rsp) ofs 8
  DW_CFA_nop

0000750c 000000000000001c 00007510 FDE cie=00000000 pc=00000000009044c3..00000000009054d3
  DW_CFA_advance_loc: 1 to 00000000009044c4
  DW_CFA_def_cfa_offset: 16
  DW_CFA_offset: r6 (rbp) at cfa-16
  DW_CFA_advance_loc: 3 to 00000000009044c7
  DW_CFA_def_cfa_register: r6 (rbp)
  DW_CFA_advance_loc2: 4107 to 00000000009054d2
  DW_CFA_def_cfa: r7 (rsp) ofs 8
  DW_CFA_nop

0000752c 000000000000001c 00007530 FDE cie=00000000 pc=00000000009054d3..0000000000906621
  DW_CFA_advance_loc: 1 to 00000000009054d4
  DW_CFA_def_cfa_offset: 16
  DW_CFA_offset: r6 (rbp) at cfa-16
  DW_CFA_advance_loc: 3 to 00000000009054d7
  DW_CFA_def_cfa_register: r6 (rbp)
  DW_CFA_advance_loc2: 4425 to 0000000000906620
  DW_CFA_def_cfa: r7 (rsp) ofs 8
  DW_CFA_nop

0000754c 000000000000001c 00007550 FDE cie=00000000 pc=0000000000906621..0000000000906634
  DW_CFA_advance_loc: 1 to 0000000000906622
  DW_CFA_def_cfa_offset: 16
  DW_CFA_offset: r6 (rbp) at cfa-16
  DW_CFA_advance_loc: 3 to 0000000000906625
  DW_CFA_def_cfa_register: r6 (rbp)
  DW_CFA_advance_loc: 14 to 0000000000906633
  DW_CFA_def_cfa: r7 (rsp) ofs 8
  DW_CFA_nop
  DW_CFA_nop
  DW_CFA_nop

0000756c 000000000000001c 00007570 FDE cie=00000000 pc=0000000000906634..00000000009069ea
  DW_CFA_advance_loc: 1 to 0000000000906635
  DW_CFA_def_cfa_offset: 16
  DW_CFA_offset: r6 (rbp) at cfa-16
  DW_CFA_advance_loc: 3 to 0000000000906638
  DW_CFA_def_cfa_register: r6 (rbp)
  DW_CFA_advance_loc2: 945 to 00000000009069e9
  DW_CFA_def_cfa: r7 (rsp) ofs 8
  DW_CFA_nop

0000758c 000000000000001c 00007590 FDE cie=00000000 pc=00000000009069ea..00000000009069fd
  DW_CFA_advance_loc: 1 to 00000000009069eb
  DW_CFA_def_cfa_offset: 16
  DW_CFA_offset: r6 (rbp) at cfa-16
  DW_CFA_advance_loc: 3 to 00000000009069ee
  DW_CFA_def_cfa_register: r6 (rbp)
  DW_CFA_advance_loc: 14 to 00000000009069fc
  DW_CFA_def_cfa: r7 (rsp) ofs 8
  DW_CFA_nop
  DW_CFA_nop
  DW_CFA_nop

000075ac 000000000000001c 000075b0 FDE cie=00000000 pc=00000000009069fd..0000000000906caa
  DW_CFA_advance_loc: 1 to 00000000009069fe
  DW_CFA_def_cfa_offset: 16
  DW_CFA_offset: r6 (rbp) at cfa-16
  DW_CFA_advance_loc: 3 to 0000000000906a01
  DW_CFA_def_cfa_register: r6 (rbp)
  DW_CFA_advance_loc2: 680 to 0000000000906ca9
  DW_CFA_def_cfa: r7 (rsp) ofs 8
  DW_CFA_nop

000075cc 000000000000001c 000075d0 FDE cie=00000000 pc=0000000000906caa..0000000000906d05
  DW_CFA_advance_loc: 1 to 0000000000906cab
  DW_CFA_def_cfa_offset: 16
  DW_CFA_offset: r6 (rbp) at cfa-16
  DW_CFA_advance_loc: 3 to 0000000000906cae
  DW_CFA_def_cfa_register: r6 (rbp)
  DW_CFA_advance_loc1: 86 to 0000000000906d04
  DW_CFA_def_cfa: r7 (rsp) ofs 8
  DW_CFA_nop
  DW_CFA_nop

000075ec 000000000000001c 000075f0 FDE cie=00000000 pc=0000000000906d05..0000000000906d30
  DW_CFA_advance_loc: 1 to 0000000000906d06
  DW_CFA_def_cfa_offset: 16
  DW_CFA_offset: r6 (rbp) at cfa-16
  DW_CFA_advance_loc: 3 to 0000000000906d09
  DW_CFA_def_cfa_register: r6 (rbp)
  DW_CFA_advance_loc: 38 to 0000000000906d2f
  DW_CFA_def_cfa: r7 (rsp) ofs 8
  DW_CFA_nop
  DW_CFA_nop
  DW_CFA_nop

0000760c 000000000000001c 00007610 FDE cie=00000000 pc=0000000000906d30..0000000000906d76
  DW_CFA_advance_loc: 1 to 0000000000906d31
  DW_CFA_def_cfa_offset: 16
  DW_CFA_offset: r6 (rbp) at cfa-16
  DW_CFA_advance_loc: 3 to 0000000000906d34
  DW_CFA_def_cfa_register: r6 (rbp)
  DW_CFA_advance_loc1: 65 to 0000000000906d75
  DW_CFA_def_cfa: r7 (rsp) ofs 8
  DW_CFA_nop
  DW_CFA_nop

0000762c 000000000000001c 00007630 FDE cie=00000000 pc=0000000000906d76..0000000000906dbe
  DW_CFA_advance_loc: 1 to 0000000000906d77
  DW_CFA_def_cfa_offset: 16
  DW_CFA_offset: r6 (rbp) at cfa-16
  DW_CFA_advance_loc: 3 to 0000000000906d7a
  DW_CFA_def_cfa_register: r6 (rbp)
  DW_CFA_advance_loc1: 67 to 0000000000906dbd
  DW_CFA_def_cfa: r7 (rsp) ofs 8
  DW_CFA_nop
  DW_CFA_nop

0000764c 000000000000001c 00007650 FDE cie=00000000 pc=0000000000906dbe..0000000000906df0
  DW_CFA_advance_loc: 1 to 0000000000906dbf
  DW_CFA_def_cfa_offset: 16
  DW_CFA_offset: r6 (rbp) at cfa-16
  DW_CFA_advance_loc: 3 to 0000000000906dc2
  DW_CFA_def_cfa_register: r6 (rbp)
  DW_CFA_advance_loc: 45 to 0000000000906def
  DW_CFA_def_cfa: r7 (rsp) ofs 8
  DW_CFA_nop
  DW_CFA_nop
  DW_CFA_nop

0000766c 000000000000001c 00007670 FDE cie=00000000 pc=0000000000906df0..0000000000906e39
  DW_CFA_advance_loc: 1 to 0000000000906df1
  DW_CFA_def_cfa_offset: 16
  DW_CFA_offset: r6 (rbp) at cfa-16
  DW_CFA_advance_loc: 3 to 0000000000906df4
  DW_CFA_def_cfa_register: r6 (rbp)
  DW_CFA_advance_loc1: 68 to 0000000000906e38
  DW_CFA_def_cfa: r7 (rsp) ofs 8
  DW_CFA_nop
  DW_CFA_nop

0000768c 000000000000001c 00007690 FDE cie=00000000 pc=0000000000906e39..0000000000906e8b
  DW_CFA_advance_loc: 1 to 0000000000906e3a
  DW_CFA_def_cfa_offset: 16
  DW_CFA_offset: r6 (rbp) at cfa-16
  DW_CFA_advance_loc: 3 to 0000000000906e3d
  DW_CFA_def_cfa_register: r6 (rbp)
  DW_CFA_advance_loc1: 77 to 0000000000906e8a
  DW_CFA_def_cfa: r7 (rsp) ofs 8
  DW_CFA_nop
  DW_CFA_nop

000076ac 000000000000001c 000076b0 FDE cie=00000000 pc=0000000000906e8b..0000000000906fb3
  DW_CFA_advance_loc: 1 to 0000000000906e8c
  DW_CFA_def_cfa_offset: 16
  DW_CFA_offset: r6 (rbp) at cfa-16
  DW_CFA_advance_loc: 3 to 0000000000906e8f
  DW_CFA_def_cfa_register: r6 (rbp)
  DW_CFA_advance_loc2: 291 to 0000000000906fb2
  DW_CFA_def_cfa: r7 (rsp) ofs 8
  DW_CFA_nop

000076cc 000000000000001c 000076d0 FDE cie=00000000 pc=0000000000906fb3..00000000009072ab
  DW_CFA_advance_loc: 1 to 0000000000906fb4
  DW_CFA_def_cfa_offset: 16
  DW_CFA_offset: r6 (rbp) at cfa-16
  DW_CFA_advance_loc: 3 to 0000000000906fb7
  DW_CFA_def_cfa_register: r6 (rbp)
  DW_CFA_advance_loc2: 755 to 00000000009072aa
  DW_CFA_def_cfa: r7 (rsp) ofs 8
  DW_CFA_nop

000076ec 000000000000001c 000076f0 FDE cie=00000000 pc=00000000009072ab..0000000000907354
  DW_CFA_advance_loc: 1 to 00000000009072ac
  DW_CFA_def_cfa_offset: 16
  DW_CFA_offset: r6 (rbp) at cfa-16
  DW_CFA_advance_loc: 3 to 00000000009072af
  DW_CFA_def_cfa_register: r6 (rbp)
  DW_CFA_advance_loc1: 164 to 0000000000907353
  DW_CFA_def_cfa: r7 (rsp) ofs 8
  DW_CFA_nop
  DW_CFA_nop

0000770c 000000000000001c 00007710 FDE cie=00000000 pc=0000000000907354..0000000000907596
  DW_CFA_advance_loc: 1 to 0000000000907355
  DW_CFA_def_cfa_offset: 16
  DW_CFA_offset: r6 (rbp) at cfa-16
  DW_CFA_advance_loc: 3 to 0000000000907358
  DW_CFA_def_cfa_register: r6 (rbp)
  DW_CFA_advance_loc2: 573 to 0000000000907595
  DW_CFA_def_cfa: r7 (rsp) ofs 8
  DW_CFA_nop

0000772c 000000000000001c 00007730 FDE cie=00000000 pc=0000000000907596..000000000090763f
  DW_CFA_advance_loc: 1 to 0000000000907597
  DW_CFA_def_cfa_offset: 16
  DW_CFA_offset: r6 (rbp) at cfa-16
  DW_CFA_advance_loc: 3 to 000000000090759a
  DW_CFA_def_cfa_register: r6 (rbp)
  DW_CFA_advance_loc1: 164 to 000000000090763e
  DW_CFA_def_cfa: r7 (rsp) ofs 8
  DW_CFA_nop
  DW_CFA_nop

0000774c 000000000000001c 00007750 FDE cie=00000000 pc=000000000090763f..00000000009076ab
  DW_CFA_advance_loc: 1 to 0000000000907640
  DW_CFA_def_cfa_offset: 16
  DW_CFA_offset: r6 (rbp) at cfa-16
  DW_CFA_advance_loc: 3 to 0000000000907643
  DW_CFA_def_cfa_register: r6 (rbp)
  DW_CFA_advance_loc1: 103 to 00000000009076aa
  DW_CFA_def_cfa: r7 (rsp) ofs 8
  DW_CFA_nop
  DW_CFA_nop

0000776c 000000000000001c 00007770 FDE cie=00000000 pc=00000000009076ab..000000000090773c
  DW_CFA_advance_loc: 1 to 00000000009076ac
  DW_CFA_def_cfa_offset: 16
  DW_CFA_offset: r6 (rbp) at cfa-16
  DW_CFA_advance_loc: 3 to 00000000009076af
  DW_CFA_def_cfa_register: r6 (rbp)
  DW_CFA_advance_loc1: 140 to 000000000090773b
  DW_CFA_def_cfa: r7 (rsp) ofs 8
  DW_CFA_nop
  DW_CFA_nop

0000778c 000000000000001c 00007790 FDE cie=00000000 pc=000000000090773c..0000000000907a46
  DW_CFA_advance_loc: 1 to 000000000090773d
  DW_CFA_def_cfa_offset: 16
  DW_CFA_offset: r6 (rbp) at cfa-16
  DW_CFA_advance_loc: 3 to 0000000000907740
  DW_CFA_def_cfa_register: r6 (rbp)
  DW_CFA_advance_loc2: 773 to 0000000000907a45
  DW_CFA_def_cfa: r7 (rsp) ofs 8
  DW_CFA_nop

000077ac 000000000000001c 000077b0 FDE cie=00000000 pc=0000000000907a46..0000000000907b48
  DW_CFA_advance_loc: 1 to 0000000000907a47
  DW_CFA_def_cfa_offset: 16
  DW_CFA_offset: r6 (rbp) at cfa-16
  DW_CFA_advance_loc: 3 to 0000000000907a4a
  DW_CFA_def_cfa_register: r6 (rbp)
  DW_CFA_advance_loc1: 253 to 0000000000907b47
  DW_CFA_def_cfa: r7 (rsp) ofs 8
  DW_CFA_nop
  DW_CFA_nop

000077cc 000000000000001c 000077d0 FDE cie=00000000 pc=0000000000907b48..0000000000907fb1
  DW_CFA_advance_loc: 1 to 0000000000907b49
  DW_CFA_def_cfa_offset: 16
  DW_CFA_offset: r6 (rbp) at cfa-16
  DW_CFA_advance_loc: 3 to 0000000000907b4c
  DW_CFA_def_cfa_register: r6 (rbp)
  DW_CFA_advance_loc2: 1124 to 0000000000907fb0
  DW_CFA_def_cfa: r7 (rsp) ofs 8
  DW_CFA_nop

000077ec 000000000000001c 000077f0 FDE cie=00000000 pc=0000000000907fb1..00000000009082e6
  DW_CFA_advance_loc: 1 to 0000000000907fb2
  DW_CFA_def_cfa_offset: 16
  DW_CFA_offset: r6 (rbp) at cfa-16
  DW_CFA_advance_loc: 3 to 0000000000907fb5
  DW_CFA_def_cfa_register: r6 (rbp)
  DW_CFA_advance_loc2: 816 to 00000000009082e5
  DW_CFA_def_cfa: r7 (rsp) ofs 8
  DW_CFA_nop

0000780c 000000000000001c 00007810 FDE cie=00000000 pc=00000000009082e6..0000000000908474
  DW_CFA_advance_loc: 1 to 00000000009082e7
  DW_CFA_def_cfa_offset: 16
  DW_CFA_offset: r6 (rbp) at cfa-16
  DW_CFA_advance_loc: 3 to 00000000009082ea
  DW_CFA_def_cfa_register: r6 (rbp)
  DW_CFA_advance_loc2: 393 to 0000000000908473
  DW_CFA_def_cfa: r7 (rsp) ofs 8
  DW_CFA_nop

0000782c 000000000000001c 00007830 FDE cie=00000000 pc=0000000000908474..0000000000908940
  DW_CFA_advance_loc: 1 to 0000000000908475
  DW_CFA_def_cfa_offset: 16
  DW_CFA_offset: r6 (rbp) at cfa-16
  DW_CFA_advance_loc: 3 to 0000000000908478
  DW_CFA_def_cfa_register: r6 (rbp)
  DW_CFA_advance_loc2: 1223 to 000000000090893f
  DW_CFA_def_cfa: r7 (rsp) ofs 8
  DW_CFA_nop

0000784c 0000000000000024 00006ec8 FDE cie=00000988 pc=0000000000908940..0000000000908c3e
  Augmentation data:     b7 1b 01 00
  DW_CFA_advance_loc: 1 to 0000000000908941
  DW_CFA_def_cfa_offset: 16
  DW_CFA_offset: r6 (rbp) at cfa-16
  DW_CFA_advance_loc: 3 to 0000000000908944
  DW_CFA_def_cfa_register: r6 (rbp)
  DW_CFA_advance_loc: 7 to 000000000090894b
  DW_CFA_offset: r12 (r12) at cfa-24
  DW_CFA_offset: r3 (rbx) at cfa-32
  DW_CFA_advance_loc2: 754 to 0000000000908c3d
  DW_CFA_def_cfa: r7 (rsp) ofs 8

00007874 0000000000000024 00006ef0 FDE cie=00000988 pc=0000000000908c3e..0000000000909028
  Augmentation data:     9e 1b 01 00
  DW_CFA_advance_loc: 1 to 0000000000908c3f
  DW_CFA_def_cfa_offset: 16
  DW_CFA_offset: r6 (rbp) at cfa-16
  DW_CFA_advance_loc: 3 to 0000000000908c42
  DW_CFA_def_cfa_register: r6 (rbp)
  DW_CFA_advance_loc: 7 to 0000000000908c49
  DW_CFA_offset: r12 (r12) at cfa-24
  DW_CFA_offset: r3 (rbx) at cfa-32
  DW_CFA_advance_loc2: 990 to 0000000000909027
  DW_CFA_def_cfa: r7 (rsp) ofs 8

0000789c 000000000000001c 000078a0 FDE cie=00000000 pc=0000000000909028..00000000009091a2
  DW_CFA_advance_loc: 1 to 0000000000909029
  DW_CFA_def_cfa_offset: 16
  DW_CFA_offset: r6 (rbp) at cfa-16
  DW_CFA_advance_loc: 3 to 000000000090902c
  DW_CFA_def_cfa_register: r6 (rbp)
  DW_CFA_advance_loc2: 373 to 00000000009091a1
  DW_CFA_def_cfa: r7 (rsp) ofs 8
  DW_CFA_nop

000078bc 000000000000001c 000078c0 FDE cie=00000000 pc=00000000009091a2..000000000090934a
  DW_CFA_advance_loc: 1 to 00000000009091a3
  DW_CFA_def_cfa_offset: 16
  DW_CFA_offset: r6 (rbp) at cfa-16
  DW_CFA_advance_loc: 3 to 00000000009091a6
  DW_CFA_def_cfa_register: r6 (rbp)
  DW_CFA_advance_loc2: 419 to 0000000000909349
  DW_CFA_def_cfa: r7 (rsp) ofs 8
  DW_CFA_nop

000078dc 000000000000001c 000078e0 FDE cie=00000000 pc=000000000090934a..0000000000909484
  DW_CFA_advance_loc: 1 to 000000000090934b
  DW_CFA_def_cfa_offset: 16
  DW_CFA_offset: r6 (rbp) at cfa-16
  DW_CFA_advance_loc: 3 to 000000000090934e
  DW_CFA_def_cfa_register: r6 (rbp)
  DW_CFA_advance_loc2: 309 to 0000000000909483
  DW_CFA_def_cfa: r7 (rsp) ofs 8
  DW_CFA_nop

000078fc 000000000000001c 00007900 FDE cie=00000000 pc=0000000000909484..000000000090954c
  DW_CFA_advance_loc: 1 to 0000000000909485
  DW_CFA_def_cfa_offset: 16
  DW_CFA_offset: r6 (rbp) at cfa-16
  DW_CFA_advance_loc: 3 to 0000000000909488
  DW_CFA_def_cfa_register: r6 (rbp)
  DW_CFA_advance_loc1: 195 to 000000000090954b
  DW_CFA_def_cfa: r7 (rsp) ofs 8
  DW_CFA_nop
  DW_CFA_nop

0000791c 000000000000001c 00007920 FDE cie=00000000 pc=000000000090954c..000000000090966f
  DW_CFA_advance_loc: 1 to 000000000090954d
  DW_CFA_def_cfa_offset: 16
  DW_CFA_offset: r6 (rbp) at cfa-16
  DW_CFA_advance_loc: 3 to 0000000000909550
  DW_CFA_def_cfa_register: r6 (rbp)
  DW_CFA_advance_loc2: 286 to 000000000090966e
  DW_CFA_def_cfa: r7 (rsp) ofs 8
  DW_CFA_nop

0000793c 000000000000001c 00007940 FDE cie=00000000 pc=000000000090966f..0000000000909af6
  DW_CFA_advance_loc: 1 to 0000000000909670
  DW_CFA_def_cfa_offset: 16
  DW_CFA_offset: r6 (rbp) at cfa-16
  DW_CFA_advance_loc: 3 to 0000000000909673
  DW_CFA_def_cfa_register: r6 (rbp)
  DW_CFA_advance_loc2: 1154 to 0000000000909af5
  DW_CFA_def_cfa: r7 (rsp) ofs 8
  DW_CFA_nop

0000795c 000000000000001c 00007960 FDE cie=00000000 pc=0000000000909af6..0000000000909c65
  DW_CFA_advance_loc: 1 to 0000000000909af7
  DW_CFA_def_cfa_offset: 16
  DW_CFA_offset: r6 (rbp) at cfa-16
  DW_CFA_advance_loc: 3 to 0000000000909afa
  DW_CFA_def_cfa_register: r6 (rbp)
  DW_CFA_advance_loc2: 362 to 0000000000909c64
  DW_CFA_def_cfa: r7 (rsp) ofs 8
  DW_CFA_nop

0000797c 000000000000001c 00007980 FDE cie=00000000 pc=0000000000909c65..0000000000909f84
  DW_CFA_advance_loc: 1 to 0000000000909c66
  DW_CFA_def_cfa_offset: 16
  DW_CFA_offset: r6 (rbp) at cfa-16
  DW_CFA_advance_loc: 3 to 0000000000909c69
  DW_CFA_def_cfa_register: r6 (rbp)
  DW_CFA_advance_loc2: 794 to 0000000000909f83
  DW_CFA_def_cfa: r7 (rsp) ofs 8
  DW_CFA_nop

0000799c 000000000000001c 000079a0 FDE cie=00000000 pc=0000000000909f84..000000000090a06f
  DW_CFA_advance_loc: 1 to 0000000000909f85
  DW_CFA_def_cfa_offset: 16
  DW_CFA_offset: r6 (rbp) at cfa-16
  DW_CFA_advance_loc: 3 to 0000000000909f88
  DW_CFA_def_cfa_register: r6 (rbp)
  DW_CFA_advance_loc1: 230 to 000000000090a06e
  DW_CFA_def_cfa: r7 (rsp) ofs 8
  DW_CFA_nop
  DW_CFA_nop

000079bc 000000000000001c 000079c0 FDE cie=00000000 pc=000000000090a06f..000000000090a0b5
  DW_CFA_advance_loc: 1 to 000000000090a070
  DW_CFA_def_cfa_offset: 16
  DW_CFA_offset: r6 (rbp) at cfa-16
  DW_CFA_advance_loc: 3 to 000000000090a073
  DW_CFA_def_cfa_register: r6 (rbp)
  DW_CFA_advance_loc1: 65 to 000000000090a0b4
  DW_CFA_def_cfa: r7 (rsp) ofs 8
  DW_CFA_nop
  DW_CFA_nop

000079dc 000000000000001c 000079e0 FDE cie=00000000 pc=000000000090a0b5..000000000090a0bc
  DW_CFA_advance_loc: 1 to 000000000090a0b6
  DW_CFA_def_cfa_offset: 16
  DW_CFA_offset: r6 (rbp) at cfa-16
  DW_CFA_advance_loc: 3 to 000000000090a0b9
  DW_CFA_def_cfa_register: r6 (rbp)
  DW_CFA_advance_loc: 2 to 000000000090a0bb
  DW_CFA_def_cfa: r7 (rsp) ofs 8
  DW_CFA_nop
  DW_CFA_nop
  DW_CFA_nop

000079fc 000000000000001c 00007a00 FDE cie=00000000 pc=000000000090a0bc..000000000090a0c3
  DW_CFA_advance_loc: 1 to 000000000090a0bd
  DW_CFA_def_cfa_offset: 16
  DW_CFA_offset: r6 (rbp) at cfa-16
  DW_CFA_advance_loc: 3 to 000000000090a0c0
  DW_CFA_def_cfa_register: r6 (rbp)
  DW_CFA_advance_loc: 2 to 000000000090a0c2
  DW_CFA_def_cfa: r7 (rsp) ofs 8
  DW_CFA_nop
  DW_CFA_nop
  DW_CFA_nop

00007a1c 000000000000001c 00007a20 FDE cie=00000000 pc=000000000090a0c3..000000000090a0ca
  DW_CFA_advance_loc: 1 to 000000000090a0c4
  DW_CFA_def_cfa_offset: 16
  DW_CFA_offset: r6 (rbp) at cfa-16
  DW_CFA_advance_loc: 3 to 000000000090a0c7
  DW_CFA_def_cfa_register: r6 (rbp)
  DW_CFA_advance_loc: 2 to 000000000090a0c9
  DW_CFA_def_cfa: r7 (rsp) ofs 8
  DW_CFA_nop
  DW_CFA_nop
  DW_CFA_nop

00007a3c 000000000000001c 00007a40 FDE cie=00000000 pc=000000000090a0ca..000000000090a1dd
  DW_CFA_advance_loc: 1 to 000000000090a0cb
  DW_CFA_def_cfa_offset: 16
  DW_CFA_offset: r6 (rbp) at cfa-16
  DW_CFA_advance_loc: 3 to 000000000090a0ce
  DW_CFA_def_cfa_register: r6 (rbp)
  DW_CFA_advance_loc2: 270 to 000000000090a1dc
  DW_CFA_def_cfa: r7 (rsp) ofs 8
  DW_CFA_nop

00007a5c 000000000000001c 00007a60 FDE cie=00000000 pc=000000000090a1dd..000000000090a1ec
  DW_CFA_advance_loc: 1 to 000000000090a1de
  DW_CFA_def_cfa_offset: 16
  DW_CFA_offset: r6 (rbp) at cfa-16
  DW_CFA_advance_loc: 3 to 000000000090a1e1
  DW_CFA_def_cfa_register: r6 (rbp)
  DW_CFA_advance_loc: 10 to 000000000090a1eb
  DW_CFA_def_cfa: r7 (rsp) ofs 8
  DW_CFA_nop
  DW_CFA_nop
  DW_CFA_nop

00007a7c 000000000000001c 00007a80 FDE cie=00000000 pc=000000000090a1ec..000000000090ac2f
  DW_CFA_advance_loc: 1 to 000000000090a1ed
  DW_CFA_def_cfa_offset: 16
  DW_CFA_offset: r6 (rbp) at cfa-16
  DW_CFA_advance_loc: 3 to 000000000090a1f0
  DW_CFA_def_cfa_register: r6 (rbp)
  DW_CFA_advance_loc2: 2622 to 000000000090ac2e
  DW_CFA_def_cfa: r7 (rsp) ofs 8
  DW_CFA_nop

00007a9c 000000000000001c 00007aa0 FDE cie=00000000 pc=000000000090ac2f..000000000090ae16
  DW_CFA_advance_loc: 1 to 000000000090ac30
  DW_CFA_def_cfa_offset: 16
  DW_CFA_offset: r6 (rbp) at cfa-16
  DW_CFA_advance_loc: 3 to 000000000090ac33
  DW_CFA_def_cfa_register: r6 (rbp)
  DW_CFA_advance_loc2: 482 to 000000000090ae15
  DW_CFA_def_cfa: r7 (rsp) ofs 8
  DW_CFA_nop

00007abc 000000000000001c 00007ac0 FDE cie=00000000 pc=000000000090ae16..000000000090af7d
  DW_CFA_advance_loc: 1 to 000000000090ae17
  DW_CFA_def_cfa_offset: 16
  DW_CFA_offset: r6 (rbp) at cfa-16
  DW_CFA_advance_loc: 3 to 000000000090ae1a
  DW_CFA_def_cfa_register: r6 (rbp)
  DW_CFA_advance_loc2: 354 to 000000000090af7c
  DW_CFA_def_cfa: r7 (rsp) ofs 8
  DW_CFA_nop

00007adc 000000000000001c 00007ae0 FDE cie=00000000 pc=000000000090af7d..000000000090b151
  DW_CFA_advance_loc: 1 to 000000000090af7e
  DW_CFA_def_cfa_offset: 16
  DW_CFA_offset: r6 (rbp) at cfa-16
  DW_CFA_advance_loc: 3 to 000000000090af81
  DW_CFA_def_cfa_register: r6 (rbp)
  DW_CFA_advance_loc2: 463 to 000000000090b150
  DW_CFA_def_cfa: r7 (rsp) ofs 8
  DW_CFA_nop

00007afc 000000000000001c 00007b00 FDE cie=00000000 pc=000000000090b151..000000000090b2d6
  DW_CFA_advance_loc: 1 to 000000000090b152
  DW_CFA_def_cfa_offset: 16
  DW_CFA_offset: r6 (rbp) at cfa-16
  DW_CFA_advance_loc: 3 to 000000000090b155
  DW_CFA_def_cfa_register: r6 (rbp)
  DW_CFA_advance_loc2: 384 to 000000000090b2d5
  DW_CFA_def_cfa: r7 (rsp) ofs 8
  DW_CFA_nop

00007b1c 000000000000001c 00007b20 FDE cie=00000000 pc=000000000090b2d6..000000000090b42a
  DW_CFA_advance_loc: 1 to 000000000090b2d7
  DW_CFA_def_cfa_offset: 16
  DW_CFA_offset: r6 (rbp) at cfa-16
  DW_CFA_advance_loc: 3 to 000000000090b2da
  DW_CFA_def_cfa_register: r6 (rbp)
  DW_CFA_advance_loc2: 335 to 000000000090b429
  DW_CFA_def_cfa: r7 (rsp) ofs 8
  DW_CFA_nop

00007b3c 000000000000001c 00007b40 FDE cie=00000000 pc=000000000090b42a..000000000090b578
  DW_CFA_advance_loc: 1 to 000000000090b42b
  DW_CFA_def_cfa_offset: 16
  DW_CFA_offset: r6 (rbp) at cfa-16
  DW_CFA_advance_loc: 3 to 000000000090b42e
  DW_CFA_def_cfa_register: r6 (rbp)
  DW_CFA_advance_loc2: 329 to 000000000090b577
  DW_CFA_def_cfa: r7 (rsp) ofs 8
  DW_CFA_nop

00007b5c 000000000000001c 00007b60 FDE cie=00000000 pc=000000000090b578..000000000090b659
  DW_CFA_advance_loc: 1 to 000000000090b579
  DW_CFA_def_cfa_offset: 16
  DW_CFA_offset: r6 (rbp) at cfa-16
  DW_CFA_advance_loc: 3 to 000000000090b57c
  DW_CFA_def_cfa_register: r6 (rbp)
  DW_CFA_advance_loc1: 220 to 000000000090b658
  DW_CFA_def_cfa: r7 (rsp) ofs 8
  DW_CFA_nop
  DW_CFA_nop

00007b7c 0000000000000020 00007b80 FDE cie=00000000 pc=000000000090b659..000000000090b7cc
  DW_CFA_advance_loc: 1 to 000000000090b65a
  DW_CFA_def_cfa_offset: 16
  DW_CFA_offset: r6 (rbp) at cfa-16
  DW_CFA_advance_loc: 3 to 000000000090b65d
  DW_CFA_def_cfa_register: r6 (rbp)
  DW_CFA_advance_loc: 5 to 000000000090b662
  DW_CFA_offset: r3 (rbx) at cfa-24
  DW_CFA_advance_loc2: 361 to 000000000090b7cb
  DW_CFA_def_cfa: r7 (rsp) ofs 8
  DW_CFA_nop
  DW_CFA_nop

00007ba0 000000000000001c 00007ba4 FDE cie=00000000 pc=000000000090b7cc..000000000090b873
  DW_CFA_advance_loc: 1 to 000000000090b7cd
  DW_CFA_def_cfa_offset: 16
  DW_CFA_offset: r6 (rbp) at cfa-16
  DW_CFA_advance_loc: 3 to 000000000090b7d0
  DW_CFA_def_cfa_register: r6 (rbp)
  DW_CFA_advance_loc1: 162 to 000000000090b872
  DW_CFA_def_cfa: r7 (rsp) ofs 8
  DW_CFA_nop
  DW_CFA_nop

00007bc0 000000000000001c 00007bc4 FDE cie=00000000 pc=000000000090b873..000000000090b937
  DW_CFA_advance_loc: 1 to 000000000090b874
  DW_CFA_def_cfa_offset: 16
  DW_CFA_offset: r6 (rbp) at cfa-16
  DW_CFA_advance_loc: 3 to 000000000090b877
  DW_CFA_def_cfa_register: r6 (rbp)
  DW_CFA_advance_loc1: 191 to 000000000090b936
  DW_CFA_def_cfa: r7 (rsp) ofs 8
  DW_CFA_nop
  DW_CFA_nop

00007be0 000000000000001c 00007be4 FDE cie=00000000 pc=000000000090b937..000000000090b9f6
  DW_CFA_advance_loc: 1 to 000000000090b938
  DW_CFA_def_cfa_offset: 16
  DW_CFA_offset: r6 (rbp) at cfa-16
  DW_CFA_advance_loc: 3 to 000000000090b93b
  DW_CFA_def_cfa_register: r6 (rbp)
  DW_CFA_advance_loc1: 186 to 000000000090b9f5
  DW_CFA_def_cfa: r7 (rsp) ofs 8
  DW_CFA_nop
  DW_CFA_nop

00007c00 000000000000001c 00007c04 FDE cie=00000000 pc=000000000090b9f6..000000000090ba75
  DW_CFA_advance_loc: 1 to 000000000090b9f7
  DW_CFA_def_cfa_offset: 16
  DW_CFA_offset: r6 (rbp) at cfa-16
  DW_CFA_advance_loc: 3 to 000000000090b9fa
  DW_CFA_def_cfa_register: r6 (rbp)
  DW_CFA_advance_loc1: 122 to 000000000090ba74
  DW_CFA_def_cfa: r7 (rsp) ofs 8
  DW_CFA_nop
  DW_CFA_nop

00007c20 000000000000001c 00007c24 FDE cie=00000000 pc=000000000090ba75..000000000090ba80
  DW_CFA_advance_loc: 1 to 000000000090ba76
  DW_CFA_def_cfa_offset: 16
  DW_CFA_offset: r6 (rbp) at cfa-16
  DW_CFA_advance_loc: 3 to 000000000090ba79
  DW_CFA_def_cfa_register: r6 (rbp)
  DW_CFA_advance_loc: 6 to 000000000090ba7f
  DW_CFA_def_cfa: r7 (rsp) ofs 8
  DW_CFA_nop
  DW_CFA_nop
  DW_CFA_nop

00007c40 000000000000001c 00007c44 FDE cie=00000000 pc=000000000090ba80..000000000090bab1
  DW_CFA_advance_loc: 1 to 000000000090ba81
  DW_CFA_def_cfa_offset: 16
  DW_CFA_offset: r6 (rbp) at cfa-16
  DW_CFA_advance_loc: 3 to 000000000090ba84
  DW_CFA_def_cfa_register: r6 (rbp)
  DW_CFA_advance_loc: 44 to 000000000090bab0
  DW_CFA_def_cfa: r7 (rsp) ofs 8
  DW_CFA_nop
  DW_CFA_nop
  DW_CFA_nop

00007c60 000000000000001c 00007c64 FDE cie=00000000 pc=000000000090bab1..000000000090bda9
  DW_CFA_advance_loc: 1 to 000000000090bab2
  DW_CFA_def_cfa_offset: 16
  DW_CFA_offset: r6 (rbp) at cfa-16
  DW_CFA_advance_loc: 3 to 000000000090bab5
  DW_CFA_def_cfa_register: r6 (rbp)
  DW_CFA_advance_loc2: 755 to 000000000090bda8
  DW_CFA_def_cfa: r7 (rsp) ofs 8
  DW_CFA_nop

00007c80 000000000000001c 00007c84 FDE cie=00000000 pc=000000000090bda9..000000000090be2f
  DW_CFA_advance_loc: 1 to 000000000090bdaa
  DW_CFA_def_cfa_offset: 16
  DW_CFA_offset: r6 (rbp) at cfa-16
  DW_CFA_advance_loc: 3 to 000000000090bdad
  DW_CFA_def_cfa_register: r6 (rbp)
  DW_CFA_advance_loc1: 129 to 000000000090be2e
  DW_CFA_def_cfa: r7 (rsp) ofs 8
  DW_CFA_nop
  DW_CFA_nop

00007ca0 000000000000001c 00007ca4 FDE cie=00000000 pc=000000000090be2f..000000000090beb5
  DW_CFA_advance_loc: 1 to 000000000090be30
  DW_CFA_def_cfa_offset: 16
  DW_CFA_offset: r6 (rbp) at cfa-16
  DW_CFA_advance_loc: 3 to 000000000090be33
  DW_CFA_def_cfa_register: r6 (rbp)
  DW_CFA_advance_loc1: 129 to 000000000090beb4
  DW_CFA_def_cfa: r7 (rsp) ofs 8
  DW_CFA_nop
  DW_CFA_nop

00007cc0 000000000000001c 00007cc4 FDE cie=00000000 pc=000000000090beb5..000000000090c1c3
  DW_CFA_advance_loc: 1 to 000000000090beb6
  DW_CFA_def_cfa_offset: 16
  DW_CFA_offset: r6 (rbp) at cfa-16
  DW_CFA_advance_loc: 3 to 000000000090beb9
  DW_CFA_def_cfa_register: r6 (rbp)
  DW_CFA_advance_loc2: 777 to 000000000090c1c2
  DW_CFA_def_cfa: r7 (rsp) ofs 8
  DW_CFA_nop

00007ce0 000000000000001c 00007ce4 FDE cie=00000000 pc=000000000090c1c3..000000000090c46a
  DW_CFA_advance_loc: 1 to 000000000090c1c4
  DW_CFA_def_cfa_offset: 16
  DW_CFA_offset: r6 (rbp) at cfa-16
  DW_CFA_advance_loc: 3 to 000000000090c1c7
  DW_CFA_def_cfa_register: r6 (rbp)
  DW_CFA_advance_loc2: 674 to 000000000090c469
  DW_CFA_def_cfa: r7 (rsp) ofs 8
  DW_CFA_nop

00007d00 000000000000001c 00007d04 FDE cie=00000000 pc=000000000090c46a..000000000090c712
  DW_CFA_advance_loc: 1 to 000000000090c46b
  DW_CFA_def_cfa_offset: 16
  DW_CFA_offset: r6 (rbp) at cfa-16
  DW_CFA_advance_loc: 3 to 000000000090c46e
  DW_CFA_def_cfa_register: r6 (rbp)
  DW_CFA_advance_loc2: 675 to 000000000090c711
  DW_CFA_def_cfa: r7 (rsp) ofs 8
  DW_CFA_nop

00007d20 000000000000001c 00007d24 FDE cie=00000000 pc=000000000090c712..000000000090c7cb
  DW_CFA_advance_loc: 1 to 000000000090c713
  DW_CFA_def_cfa_offset: 16
  DW_CFA_offset: r6 (rbp) at cfa-16
  DW_CFA_advance_loc: 3 to 000000000090c716
  DW_CFA_def_cfa_register: r6 (rbp)
  DW_CFA_advance_loc1: 180 to 000000000090c7ca
  DW_CFA_def_cfa: r7 (rsp) ofs 8
  DW_CFA_nop
  DW_CFA_nop

00007d40 000000000000001c 00007d44 FDE cie=00000000 pc=000000000090c7cb..000000000090c9ff
  DW_CFA_advance_loc: 1 to 000000000090c7cc
  DW_CFA_def_cfa_offset: 16
  DW_CFA_offset: r6 (rbp) at cfa-16
  DW_CFA_advance_loc: 3 to 000000000090c7cf
  DW_CFA_def_cfa_register: r6 (rbp)
  DW_CFA_advance_loc2: 559 to 000000000090c9fe
  DW_CFA_def_cfa: r7 (rsp) ofs 8
  DW_CFA_nop

00007d60 000000000000001c 00007d64 FDE cie=00000000 pc=000000000090c9ff..000000000090ca51
  DW_CFA_advance_loc: 1 to 000000000090ca00
  DW_CFA_def_cfa_offset: 16
  DW_CFA_offset: r6 (rbp) at cfa-16
  DW_CFA_advance_loc: 3 to 000000000090ca03
  DW_CFA_def_cfa_register: r6 (rbp)
  DW_CFA_advance_loc1: 77 to 000000000090ca50
  DW_CFA_def_cfa: r7 (rsp) ofs 8
  DW_CFA_nop
  DW_CFA_nop

00007d80 000000000000001c 00007d84 FDE cie=00000000 pc=000000000090ca51..000000000090caf2
  DW_CFA_advance_loc: 1 to 000000000090ca52
  DW_CFA_def_cfa_offset: 16
  DW_CFA_offset: r6 (rbp) at cfa-16
  DW_CFA_advance_loc: 3 to 000000000090ca55
  DW_CFA_def_cfa_register: r6 (rbp)
  DW_CFA_advance_loc1: 156 to 000000000090caf1
  DW_CFA_def_cfa: r7 (rsp) ofs 8
  DW_CFA_nop
  DW_CFA_nop

00007da0 000000000000001c 00007da4 FDE cie=00000000 pc=000000000090caf2..000000000090cbdb
  DW_CFA_advance_loc: 1 to 000000000090caf3
  DW_CFA_def_cfa_offset: 16
  DW_CFA_offset: r6 (rbp) at cfa-16
  DW_CFA_advance_loc: 3 to 000000000090caf6
  DW_CFA_def_cfa_register: r6 (rbp)
  DW_CFA_advance_loc1: 228 to 000000000090cbda
  DW_CFA_def_cfa: r7 (rsp) ofs 8
  DW_CFA_nop
  DW_CFA_nop

00007dc0 000000000000001c 00007dc4 FDE cie=00000000 pc=000000000090cbdb..000000000090cca0
  DW_CFA_advance_loc: 1 to 000000000090cbdc
  DW_CFA_def_cfa_offset: 16
  DW_CFA_offset: r6 (rbp) at cfa-16
  DW_CFA_advance_loc: 3 to 000000000090cbdf
  DW_CFA_def_cfa_register: r6 (rbp)
  DW_CFA_advance_loc1: 192 to 000000000090cc9f
  DW_CFA_def_cfa: r7 (rsp) ofs 8
  DW_CFA_nop
  DW_CFA_nop

00007de0 000000000000001c 00007de4 FDE cie=00000000 pc=000000000090cca0..000000000090cdca
  DW_CFA_advance_loc: 1 to 000000000090cca1
  DW_CFA_def_cfa_offset: 16
  DW_CFA_offset: r6 (rbp) at cfa-16
  DW_CFA_advance_loc: 3 to 000000000090cca4
  DW_CFA_def_cfa_register: r6 (rbp)
  DW_CFA_advance_loc2: 293 to 000000000090cdc9
  DW_CFA_def_cfa: r7 (rsp) ofs 8
  DW_CFA_nop

00007e00 000000000000001c 00007e04 FDE cie=00000000 pc=000000000090cdca..000000000090d0a6
  DW_CFA_advance_loc: 1 to 000000000090cdcb
  DW_CFA_def_cfa_offset: 16
  DW_CFA_offset: r6 (rbp) at cfa-16
  DW_CFA_advance_loc: 3 to 000000000090cdce
  DW_CFA_def_cfa_register: r6 (rbp)
  DW_CFA_advance_loc2: 727 to 000000000090d0a5
  DW_CFA_def_cfa: r7 (rsp) ofs 8
  DW_CFA_nop

00007e20 000000000000001c 00007e24 FDE cie=00000000 pc=000000000090d0a6..000000000090d317
  DW_CFA_advance_loc: 1 to 000000000090d0a7
  DW_CFA_def_cfa_offset: 16
  DW_CFA_offset: r6 (rbp) at cfa-16
  DW_CFA_advance_loc: 3 to 000000000090d0aa
  DW_CFA_def_cfa_register: r6 (rbp)
  DW_CFA_advance_loc2: 620 to 000000000090d316
  DW_CFA_def_cfa: r7 (rsp) ofs 8
  DW_CFA_nop

00007e40 0000000000000020 00007e44 FDE cie=00000000 pc=000000000090d317..000000000090d6a9
  DW_CFA_advance_loc: 1 to 000000000090d318
  DW_CFA_def_cfa_offset: 16
  DW_CFA_offset: r6 (rbp) at cfa-16
  DW_CFA_advance_loc: 3 to 000000000090d31b
  DW_CFA_def_cfa_register: r6 (rbp)
  DW_CFA_advance_loc: 5 to 000000000090d320
  DW_CFA_offset: r3 (rbx) at cfa-24
  DW_CFA_advance_loc2: 904 to 000000000090d6a8
  DW_CFA_def_cfa: r7 (rsp) ofs 8
  DW_CFA_nop
  DW_CFA_nop

00007e64 000000000000001c 00007e68 FDE cie=00000000 pc=000000000090d6a9..000000000090d95e
  DW_CFA_advance_loc: 1 to 000000000090d6aa
  DW_CFA_def_cfa_offset: 16
  DW_CFA_offset: r6 (rbp) at cfa-16
  DW_CFA_advance_loc: 3 to 000000000090d6ad
  DW_CFA_def_cfa_register: r6 (rbp)
  DW_CFA_advance_loc2: 688 to 000000000090d95d
  DW_CFA_def_cfa: r7 (rsp) ofs 8
  DW_CFA_nop

00007e84 000000000000001c 00007e88 FDE cie=00000000 pc=000000000090d95e..000000000090da15
  DW_CFA_advance_loc: 1 to 000000000090d95f
  DW_CFA_def_cfa_offset: 16
  DW_CFA_offset: r6 (rbp) at cfa-16
  DW_CFA_advance_loc: 3 to 000000000090d962
  DW_CFA_def_cfa_register: r6 (rbp)
  DW_CFA_advance_loc1: 178 to 000000000090da14
  DW_CFA_def_cfa: r7 (rsp) ofs 8
  DW_CFA_nop
  DW_CFA_nop

00007ea4 000000000000001c 00007ea8 FDE cie=00000000 pc=000000000090da15..000000000090dad5
  DW_CFA_advance_loc: 1 to 000000000090da16
  DW_CFA_def_cfa_offset: 16
  DW_CFA_offset: r6 (rbp) at cfa-16
  DW_CFA_advance_loc: 3 to 000000000090da19
  DW_CFA_def_cfa_register: r6 (rbp)
  DW_CFA_advance_loc1: 187 to 000000000090dad4
  DW_CFA_def_cfa: r7 (rsp) ofs 8
  DW_CFA_nop
  DW_CFA_nop

00007ec4 000000000000001c 00007ec8 FDE cie=00000000 pc=000000000090dad5..000000000090db95
  DW_CFA_advance_loc: 1 to 000000000090dad6
  DW_CFA_def_cfa_offset: 16
  DW_CFA_offset: r6 (rbp) at cfa-16
  DW_CFA_advance_loc: 3 to 000000000090dad9
  DW_CFA_def_cfa_register: r6 (rbp)
  DW_CFA_advance_loc1: 187 to 000000000090db94
  DW_CFA_def_cfa: r7 (rsp) ofs 8
  DW_CFA_nop
  DW_CFA_nop

00007ee4 000000000000001c 00007ee8 FDE cie=00000000 pc=000000000090db95..000000000090dba3
  DW_CFA_advance_loc: 1 to 000000000090db96
  DW_CFA_def_cfa_offset: 16
  DW_CFA_offset: r6 (rbp) at cfa-16
  DW_CFA_advance_loc: 3 to 000000000090db99
  DW_CFA_def_cfa_register: r6 (rbp)
  DW_CFA_advance_loc: 9 to 000000000090dba2
  DW_CFA_def_cfa: r7 (rsp) ofs 8
  DW_CFA_nop
  DW_CFA_nop
  DW_CFA_nop

00007f04 000000000000001c 00007f08 FDE cie=00000000 pc=000000000090dba3..000000000090dbb1
  DW_CFA_advance_loc: 1 to 000000000090dba4
  DW_CFA_def_cfa_offset: 16
  DW_CFA_offset: r6 (rbp) at cfa-16
  DW_CFA_advance_loc: 3 to 000000000090dba7
  DW_CFA_def_cfa_register: r6 (rbp)
  DW_CFA_advance_loc: 9 to 000000000090dbb0
  DW_CFA_def_cfa: r7 (rsp) ofs 8
  DW_CFA_nop
  DW_CFA_nop
  DW_CFA_nop

00007f24 000000000000001c 00007f28 FDE cie=00000000 pc=000000000090dbb1..000000000090dbbf
  DW_CFA_advance_loc: 1 to 000000000090dbb2
  DW_CFA_def_cfa_offset: 16
  DW_CFA_offset: r6 (rbp) at cfa-16
  DW_CFA_advance_loc: 3 to 000000000090dbb5
  DW_CFA_def_cfa_register: r6 (rbp)
  DW_CFA_advance_loc: 9 to 000000000090dbbe
  DW_CFA_def_cfa: r7 (rsp) ofs 8
  DW_CFA_nop
  DW_CFA_nop
  DW_CFA_nop

00007f44 000000000000001c 00007f48 FDE cie=00000000 pc=000000000090dbbf..000000000090dcf5
  DW_CFA_advance_loc: 1 to 000000000090dbc0
  DW_CFA_def_cfa_offset: 16
  DW_CFA_offset: r6 (rbp) at cfa-16
  DW_CFA_advance_loc: 3 to 000000000090dbc3
  DW_CFA_def_cfa_register: r6 (rbp)
  DW_CFA_advance_loc2: 305 to 000000000090dcf4
  DW_CFA_def_cfa: r7 (rsp) ofs 8
  DW_CFA_nop

00007f64 000000000000001c 00007f68 FDE cie=00000000 pc=000000000090dcf5..000000000090de22
  DW_CFA_advance_loc: 1 to 000000000090dcf6
  DW_CFA_def_cfa_offset: 16
  DW_CFA_offset: r6 (rbp) at cfa-16
  DW_CFA_advance_loc: 3 to 000000000090dcf9
  DW_CFA_def_cfa_register: r6 (rbp)
  DW_CFA_advance_loc2: 296 to 000000000090de21
  DW_CFA_def_cfa: r7 (rsp) ofs 8
  DW_CFA_nop

00007f84 000000000000001c 00007f88 FDE cie=00000000 pc=000000000090de22..000000000090e096
  DW_CFA_advance_loc: 1 to 000000000090de23
  DW_CFA_def_cfa_offset: 16
  DW_CFA_offset: r6 (rbp) at cfa-16
  DW_CFA_advance_loc: 3 to 000000000090de26
  DW_CFA_def_cfa_register: r6 (rbp)
  DW_CFA_advance_loc2: 623 to 000000000090e095
  DW_CFA_def_cfa: r7 (rsp) ofs 8
  DW_CFA_nop

00007fa4 000000000000001c 00007fa8 FDE cie=00000000 pc=000000000090e096..000000000090e57d
  DW_CFA_advance_loc: 1 to 000000000090e097
  DW_CFA_def_cfa_offset: 16
  DW_CFA_offset: r6 (rbp) at cfa-16
  DW_CFA_advance_loc: 3 to 000000000090e09a
  DW_CFA_def_cfa_register: r6 (rbp)
  DW_CFA_advance_loc2: 1250 to 000000000090e57c
  DW_CFA_def_cfa: r7 (rsp) ofs 8
  DW_CFA_nop

00007fc4 000000000000001c 00007fc8 FDE cie=00000000 pc=000000000090e57d..000000000090e68a
  DW_CFA_advance_loc: 1 to 000000000090e57e
  DW_CFA_def_cfa_offset: 16
  DW_CFA_offset: r6 (rbp) at cfa-16
  DW_CFA_advance_loc: 3 to 000000000090e581
  DW_CFA_def_cfa_register: r6 (rbp)
  DW_CFA_advance_loc2: 264 to 000000000090e689
  DW_CFA_def_cfa: r7 (rsp) ofs 8
  DW_CFA_nop

00007fe4 000000000000001c 00007fe8 FDE cie=00000000 pc=000000000090e68a..000000000090e798
  DW_CFA_advance_loc: 1 to 000000000090e68b
  DW_CFA_def_cfa_offset: 16
  DW_CFA_offset: r6 (rbp) at cfa-16
  DW_CFA_advance_loc: 3 to 000000000090e68e
  DW_CFA_def_cfa_register: r6 (rbp)
  DW_CFA_advance_loc2: 265 to 000000000090e797
  DW_CFA_def_cfa: r7 (rsp) ofs 8
  DW_CFA_nop

00008004 000000000000001c 00008008 FDE cie=00000000 pc=000000000090e798..000000000090e897
  DW_CFA_advance_loc: 1 to 000000000090e799
  DW_CFA_def_cfa_offset: 16
  DW_CFA_offset: r6 (rbp) at cfa-16
  DW_CFA_advance_loc: 3 to 000000000090e79c
  DW_CFA_def_cfa_register: r6 (rbp)
  DW_CFA_advance_loc1: 250 to 000000000090e896
  DW_CFA_def_cfa: r7 (rsp) ofs 8
  DW_CFA_nop
  DW_CFA_nop

00008024 000000000000001c 00008028 FDE cie=00000000 pc=000000000090e897..000000000090e9cd
  DW_CFA_advance_loc: 1 to 000000000090e898
  DW_CFA_def_cfa_offset: 16
  DW_CFA_offset: r6 (rbp) at cfa-16
  DW_CFA_advance_loc: 3 to 000000000090e89b
  DW_CFA_def_cfa_register: r6 (rbp)
  DW_CFA_advance_loc2: 305 to 000000000090e9cc
  DW_CFA_def_cfa: r7 (rsp) ofs 8
  DW_CFA_nop

00008044 000000000000001c 00008048 FDE cie=00000000 pc=000000000090e9cd..000000000090eade
  DW_CFA_advance_loc: 1 to 000000000090e9ce
  DW_CFA_def_cfa_offset: 16
  DW_CFA_offset: r6 (rbp) at cfa-16
  DW_CFA_advance_loc: 3 to 000000000090e9d1
  DW_CFA_def_cfa_register: r6 (rbp)
  DW_CFA_advance_loc2: 268 to 000000000090eadd
  DW_CFA_def_cfa: r7 (rsp) ofs 8
  DW_CFA_nop

00008064 000000000000001c 00008068 FDE cie=00000000 pc=000000000090eade..000000000090ebb0
  DW_CFA_advance_loc: 1 to 000000000090eadf
  DW_CFA_def_cfa_offset: 16
  DW_CFA_offset: r6 (rbp) at cfa-16
  DW_CFA_advance_loc: 3 to 000000000090eae2
  DW_CFA_def_cfa_register: r6 (rbp)
  DW_CFA_advance_loc1: 205 to 000000000090ebaf
  DW_CFA_def_cfa: r7 (rsp) ofs 8
  DW_CFA_nop
  DW_CFA_nop

00008084 000000000000001c 00008088 FDE cie=00000000 pc=000000000090ebb0..000000000090ec82
  DW_CFA_advance_loc: 1 to 000000000090ebb1
  DW_CFA_def_cfa_offset: 16
  DW_CFA_offset: r6 (rbp) at cfa-16
  DW_CFA_advance_loc: 3 to 000000000090ebb4
  DW_CFA_def_cfa_register: r6 (rbp)
  DW_CFA_advance_loc1: 205 to 000000000090ec81
  DW_CFA_def_cfa: r7 (rsp) ofs 8
  DW_CFA_nop
  DW_CFA_nop

000080a4 000000000000001c 000080a8 FDE cie=00000000 pc=000000000090ec82..000000000090edcc
  DW_CFA_advance_loc: 1 to 000000000090ec83
  DW_CFA_def_cfa_offset: 16
  DW_CFA_offset: r6 (rbp) at cfa-16
  DW_CFA_advance_loc: 3 to 000000000090ec86
  DW_CFA_def_cfa_register: r6 (rbp)
  DW_CFA_advance_loc2: 325 to 000000000090edcb
  DW_CFA_def_cfa: r7 (rsp) ofs 8
  DW_CFA_nop

000080c4 000000000000001c 000080c8 FDE cie=00000000 pc=000000000090edcc..000000000090eefc
  DW_CFA_advance_loc: 1 to 000000000090edcd
  DW_CFA_def_cfa_offset: 16
  DW_CFA_offset: r6 (rbp) at cfa-16
  DW_CFA_advance_loc: 3 to 000000000090edd0
  DW_CFA_def_cfa_register: r6 (rbp)
  DW_CFA_advance_loc2: 299 to 000000000090eefb
  DW_CFA_def_cfa: r7 (rsp) ofs 8
  DW_CFA_nop

000080e4 000000000000001c 000080e8 FDE cie=00000000 pc=000000000090eefc..000000000090f133
  DW_CFA_advance_loc: 1 to 000000000090eefd
  DW_CFA_def_cfa_offset: 16
  DW_CFA_offset: r6 (rbp) at cfa-16
  DW_CFA_advance_loc: 3 to 000000000090ef00
  DW_CFA_def_cfa_register: r6 (rbp)
  DW_CFA_advance_loc2: 562 to 000000000090f132
  DW_CFA_def_cfa: r7 (rsp) ofs 8
  DW_CFA_nop

00008104 000000000000001c 00008108 FDE cie=00000000 pc=000000000090f133..000000000091052a
  DW_CFA_advance_loc: 1 to 000000000090f134
  DW_CFA_def_cfa_offset: 16
  DW_CFA_offset: r6 (rbp) at cfa-16
  DW_CFA_advance_loc: 3 to 000000000090f137
  DW_CFA_def_cfa_register: r6 (rbp)
  DW_CFA_advance_loc2: 5106 to 0000000000910529
  DW_CFA_def_cfa: r7 (rsp) ofs 8
  DW_CFA_nop

00008124 000000000000001c 00008128 FDE cie=00000000 pc=000000000091052a..0000000000910767
  DW_CFA_advance_loc: 1 to 000000000091052b
  DW_CFA_def_cfa_offset: 16
  DW_CFA_offset: r6 (rbp) at cfa-16
  DW_CFA_advance_loc: 3 to 000000000091052e
  DW_CFA_def_cfa_register: r6 (rbp)
  DW_CFA_advance_loc2: 568 to 0000000000910766
  DW_CFA_def_cfa: r7 (rsp) ofs 8
  DW_CFA_nop

00008144 0000000000000020 00008148 FDE cie=00000000 pc=0000000000910767..0000000000910dfd
  DW_CFA_advance_loc: 1 to 0000000000910768
  DW_CFA_def_cfa_offset: 16
  DW_CFA_offset: r6 (rbp) at cfa-16
  DW_CFA_advance_loc: 3 to 000000000091076b
  DW_CFA_def_cfa_register: r6 (rbp)
  DW_CFA_advance_loc: 8 to 0000000000910773
  DW_CFA_offset: r3 (rbx) at cfa-24
  DW_CFA_advance_loc2: 1673 to 0000000000910dfc
  DW_CFA_def_cfa: r7 (rsp) ofs 8
  DW_CFA_nop
  DW_CFA_nop

00008168 0000000000000020 0000816c FDE cie=00000000 pc=0000000000910dfd..00000000009110fa
  DW_CFA_advance_loc: 1 to 0000000000910dfe
  DW_CFA_def_cfa_offset: 16
  DW_CFA_offset: r6 (rbp) at cfa-16
  DW_CFA_advance_loc: 3 to 0000000000910e01
  DW_CFA_def_cfa_register: r6 (rbp)
  DW_CFA_advance_loc: 5 to 0000000000910e06
  DW_CFA_offset: r3 (rbx) at cfa-24
  DW_CFA_advance_loc2: 755 to 00000000009110f9
  DW_CFA_def_cfa: r7 (rsp) ofs 8
  DW_CFA_nop
  DW_CFA_nop

0000818c 000000000000001c 00008190 FDE cie=00000000 pc=00000000009110fa..000000000091148c
  DW_CFA_advance_loc: 1 to 00000000009110fb
  DW_CFA_def_cfa_offset: 16
  DW_CFA_offset: r6 (rbp) at cfa-16
  DW_CFA_advance_loc: 3 to 00000000009110fe
  DW_CFA_def_cfa_register: r6 (rbp)
  DW_CFA_advance_loc2: 909 to 000000000091148b
  DW_CFA_def_cfa: r7 (rsp) ofs 8
  DW_CFA_nop

000081ac 000000000000001c 000081b0 FDE cie=00000000 pc=000000000091148c..0000000000911565
  DW_CFA_advance_loc: 1 to 000000000091148d
  DW_CFA_def_cfa_offset: 16
  DW_CFA_offset: r6 (rbp) at cfa-16
  DW_CFA_advance_loc: 3 to 0000000000911490
  DW_CFA_def_cfa_register: r6 (rbp)
  DW_CFA_advance_loc1: 212 to 0000000000911564
  DW_CFA_def_cfa: r7 (rsp) ofs 8
  DW_CFA_nop
  DW_CFA_nop

000081cc 000000000000001c 000081d0 FDE cie=00000000 pc=0000000000911565..000000000091163e
  DW_CFA_advance_loc: 1 to 0000000000911566
  DW_CFA_def_cfa_offset: 16
  DW_CFA_offset: r6 (rbp) at cfa-16
  DW_CFA_advance_loc: 3 to 0000000000911569
  DW_CFA_def_cfa_register: r6 (rbp)
  DW_CFA_advance_loc1: 212 to 000000000091163d
  DW_CFA_def_cfa: r7 (rsp) ofs 8
  DW_CFA_nop
  DW_CFA_nop

000081ec 000000000000001c 000081f0 FDE cie=00000000 pc=000000000091163e..0000000000911710
  DW_CFA_advance_loc: 1 to 000000000091163f
  DW_CFA_def_cfa_offset: 16
  DW_CFA_offset: r6 (rbp) at cfa-16
  DW_CFA_advance_loc: 3 to 0000000000911642
  DW_CFA_def_cfa_register: r6 (rbp)
  DW_CFA_advance_loc1: 205 to 000000000091170f
  DW_CFA_def_cfa: r7 (rsp) ofs 8
  DW_CFA_nop
  DW_CFA_nop

0000820c 000000000000001c 00008210 FDE cie=00000000 pc=0000000000911710..0000000000911843
  DW_CFA_advance_loc: 1 to 0000000000911711
  DW_CFA_def_cfa_offset: 16
  DW_CFA_offset: r6 (rbp) at cfa-16
  DW_CFA_advance_loc: 3 to 0000000000911714
  DW_CFA_def_cfa_register: r6 (rbp)
  DW_CFA_advance_loc2: 302 to 0000000000911842
  DW_CFA_def_cfa: r7 (rsp) ofs 8
  DW_CFA_nop

0000822c 000000000000001c 00008230 FDE cie=00000000 pc=0000000000911843..000000000091199d
  DW_CFA_advance_loc: 1 to 0000000000911844
  DW_CFA_def_cfa_offset: 16
  DW_CFA_offset: r6 (rbp) at cfa-16
  DW_CFA_advance_loc: 3 to 0000000000911847
  DW_CFA_def_cfa_register: r6 (rbp)
  DW_CFA_advance_loc2: 341 to 000000000091199c
  DW_CFA_def_cfa: r7 (rsp) ofs 8
  DW_CFA_nop

0000824c 000000000000001c 00008250 FDE cie=00000000 pc=000000000091199d..0000000000911a73
  DW_CFA_advance_loc: 1 to 000000000091199e
  DW_CFA_def_cfa_offset: 16
  DW_CFA_offset: r6 (rbp) at cfa-16
  DW_CFA_advance_loc: 3 to 00000000009119a1
  DW_CFA_def_cfa_register: r6 (rbp)
  DW_CFA_advance_loc1: 209 to 0000000000911a72
  DW_CFA_def_cfa: r7 (rsp) ofs 8
  DW_CFA_nop
  DW_CFA_nop

0000826c 000000000000001c 00008270 FDE cie=00000000 pc=0000000000911a73..0000000000911bb3
  DW_CFA_advance_loc: 1 to 0000000000911a74
  DW_CFA_def_cfa_offset: 16
  DW_CFA_offset: r6 (rbp) at cfa-16
  DW_CFA_advance_loc: 3 to 0000000000911a77
  DW_CFA_def_cfa_register: r6 (rbp)
  DW_CFA_advance_loc2: 315 to 0000000000911bb2
  DW_CFA_def_cfa: r7 (rsp) ofs 8
  DW_CFA_nop

0000828c 000000000000001c 00008290 FDE cie=00000000 pc=0000000000911bb3..0000000000911d38
  DW_CFA_advance_loc: 1 to 0000000000911bb4
  DW_CFA_def_cfa_offset: 16
  DW_CFA_offset: r6 (rbp) at cfa-16
  DW_CFA_advance_loc: 3 to 0000000000911bb7
  DW_CFA_def_cfa_register: r6 (rbp)
  DW_CFA_advance_loc2: 384 to 0000000000911d37
  DW_CFA_def_cfa: r7 (rsp) ofs 8
  DW_CFA_nop

000082ac 000000000000001c 000082b0 FDE cie=00000000 pc=0000000000911d38..0000000000911ee0
  DW_CFA_advance_loc: 1 to 0000000000911d39
  DW_CFA_def_cfa_offset: 16
  DW_CFA_offset: r6 (rbp) at cfa-16
  DW_CFA_advance_loc: 3 to 0000000000911d3c
  DW_CFA_def_cfa_register: r6 (rbp)
  DW_CFA_advance_loc2: 419 to 0000000000911edf
  DW_CFA_def_cfa: r7 (rsp) ofs 8
  DW_CFA_nop

000082cc 000000000000001c 000082d0 FDE cie=00000000 pc=0000000000911ee0..0000000000912120
  DW_CFA_advance_loc: 1 to 0000000000911ee1
  DW_CFA_def_cfa_offset: 16
  DW_CFA_offset: r6 (rbp) at cfa-16
  DW_CFA_advance_loc: 3 to 0000000000911ee4
  DW_CFA_def_cfa_register: r6 (rbp)
  DW_CFA_advance_loc2: 571 to 000000000091211f
  DW_CFA_def_cfa: r7 (rsp) ofs 8
  DW_CFA_nop

000082ec 000000000000001c 000082f0 FDE cie=00000000 pc=0000000000912120..00000000009122c4
  DW_CFA_advance_loc: 1 to 0000000000912121
  DW_CFA_def_cfa_offset: 16
  DW_CFA_offset: r6 (rbp) at cfa-16
  DW_CFA_advance_loc: 3 to 0000000000912124
  DW_CFA_def_cfa_register: r6 (rbp)
  DW_CFA_advance_loc2: 415 to 00000000009122c3
  DW_CFA_def_cfa: r7 (rsp) ofs 8
  DW_CFA_nop

0000830c 000000000000001c 00008310 FDE cie=00000000 pc=00000000009122c4..0000000000912472
  DW_CFA_advance_loc: 1 to 00000000009122c5
  DW_CFA_def_cfa_offset: 16
  DW_CFA_offset: r6 (rbp) at cfa-16
  DW_CFA_advance_loc: 3 to 00000000009122c8
  DW_CFA_def_cfa_register: r6 (rbp)
  DW_CFA_advance_loc2: 425 to 0000000000912471
  DW_CFA_def_cfa: r7 (rsp) ofs 8
  DW_CFA_nop

0000832c 000000000000001c 00008330 FDE cie=00000000 pc=0000000000912472..0000000000912620
  DW_CFA_advance_loc: 1 to 0000000000912473
  DW_CFA_def_cfa_offset: 16
  DW_CFA_offset: r6 (rbp) at cfa-16
  DW_CFA_advance_loc: 3 to 0000000000912476
  DW_CFA_def_cfa_register: r6 (rbp)
  DW_CFA_advance_loc2: 425 to 000000000091261f
  DW_CFA_def_cfa: r7 (rsp) ofs 8
  DW_CFA_nop

0000834c 000000000000001c 00008350 FDE cie=00000000 pc=0000000000912620..00000000009127c2
  DW_CFA_advance_loc: 1 to 0000000000912621
  DW_CFA_def_cfa_offset: 16
  DW_CFA_offset: r6 (rbp) at cfa-16
  DW_CFA_advance_loc: 3 to 0000000000912624
  DW_CFA_def_cfa_register: r6 (rbp)
  DW_CFA_advance_loc2: 413 to 00000000009127c1
  DW_CFA_def_cfa: r7 (rsp) ofs 8
  DW_CFA_nop

0000836c 0000000000000018 00008370 FDE cie=00000000 pc=00000000009127c2..00000000009129c2
  DW_CFA_advance_loc: 1 to 00000000009127c3
  DW_CFA_def_cfa_offset: 16
  DW_CFA_offset: r6 (rbp) at cfa-16
  DW_CFA_advance_loc: 3 to 00000000009127c6
  DW_CFA_def_cfa_register: r6 (rbp)
  DW_CFA_advance_loc: 5 to 00000000009127cb
  DW_CFA_offset: r3 (rbx) at cfa-24

00008388 000000000000001c 0000838c FDE cie=00000000 pc=00000000009129c2..00000000009141da
  DW_CFA_advance_loc: 1 to 00000000009129c3
  DW_CFA_def_cfa_offset: 16
  DW_CFA_offset: r6 (rbp) at cfa-16
  DW_CFA_advance_loc: 3 to 00000000009129c6
  DW_CFA_def_cfa_register: r6 (rbp)
  DW_CFA_advance_loc2: 6163 to 00000000009141d9
  DW_CFA_def_cfa: r7 (rsp) ofs 8
  DW_CFA_nop

000083a8 000000000000001c 000083ac FDE cie=00000000 pc=00000000009141da..00000000009142ae
  DW_CFA_advance_loc: 1 to 00000000009141db
  DW_CFA_def_cfa_offset: 16
  DW_CFA_offset: r6 (rbp) at cfa-16
  DW_CFA_advance_loc: 3 to 00000000009141de
  DW_CFA_def_cfa_register: r6 (rbp)
  DW_CFA_advance_loc1: 207 to 00000000009142ad
  DW_CFA_def_cfa: r7 (rsp) ofs 8
  DW_CFA_nop
  DW_CFA_nop

000083c8 000000000000001c 000083cc FDE cie=00000000 pc=00000000009142ae..0000000000914335
  DW_CFA_advance_loc: 1 to 00000000009142af
  DW_CFA_def_cfa_offset: 16
  DW_CFA_offset: r6 (rbp) at cfa-16
  DW_CFA_advance_loc: 3 to 00000000009142b2
  DW_CFA_def_cfa_register: r6 (rbp)
  DW_CFA_advance_loc1: 130 to 0000000000914334
  DW_CFA_def_cfa: r7 (rsp) ofs 8
  DW_CFA_nop
  DW_CFA_nop

000083e8 000000000000001c 000083ec FDE cie=00000000 pc=0000000000914335..00000000009146bc
  DW_CFA_advance_loc: 1 to 0000000000914336
  DW_CFA_def_cfa_offset: 16
  DW_CFA_offset: r6 (rbp) at cfa-16
  DW_CFA_advance_loc: 3 to 0000000000914339
  DW_CFA_def_cfa_register: r6 (rbp)
  DW_CFA_advance_loc2: 898 to 00000000009146bb
  DW_CFA_def_cfa: r7 (rsp) ofs 8
  DW_CFA_nop

00008408 000000000000001c 0000840c FDE cie=00000000 pc=00000000009146bc..0000000000914a47
  DW_CFA_advance_loc: 1 to 00000000009146bd
  DW_CFA_def_cfa_offset: 16
  DW_CFA_offset: r6 (rbp) at cfa-16
  DW_CFA_advance_loc: 3 to 00000000009146c0
  DW_CFA_def_cfa_register: r6 (rbp)
  DW_CFA_advance_loc2: 902 to 0000000000914a46
  DW_CFA_def_cfa: r7 (rsp) ofs 8
  DW_CFA_nop

00008428 000000000000001c 0000842c FDE cie=00000000 pc=0000000000914a47..0000000000914dd4
  DW_CFA_advance_loc: 1 to 0000000000914a48
  DW_CFA_def_cfa_offset: 16
  DW_CFA_offset: r6 (rbp) at cfa-16
  DW_CFA_advance_loc: 3 to 0000000000914a4b
  DW_CFA_def_cfa_register: r6 (rbp)
  DW_CFA_advance_loc2: 904 to 0000000000914dd3
  DW_CFA_def_cfa: r7 (rsp) ofs 8
  DW_CFA_nop

00008448 000000000000001c 0000844c FDE cie=00000000 pc=0000000000914dd4..0000000000914f2f
  DW_CFA_advance_loc: 1 to 0000000000914dd5
  DW_CFA_def_cfa_offset: 16
  DW_CFA_offset: r6 (rbp) at cfa-16
  DW_CFA_advance_loc: 3 to 0000000000914dd8
  DW_CFA_def_cfa_register: r6 (rbp)
  DW_CFA_advance_loc2: 342 to 0000000000914f2e
  DW_CFA_def_cfa: r7 (rsp) ofs 8
  DW_CFA_nop

00008468 000000000000001c 0000846c FDE cie=00000000 pc=0000000000914f2f..000000000091501c
  DW_CFA_advance_loc: 1 to 0000000000914f30
  DW_CFA_def_cfa_offset: 16
  DW_CFA_offset: r6 (rbp) at cfa-16
  DW_CFA_advance_loc: 3 to 0000000000914f33
  DW_CFA_def_cfa_register: r6 (rbp)
  DW_CFA_advance_loc1: 232 to 000000000091501b
  DW_CFA_def_cfa: r7 (rsp) ofs 8
  DW_CFA_nop
  DW_CFA_nop

00008488 000000000000001c 0000848c FDE cie=00000000 pc=000000000091501c..00000000009151d8
  DW_CFA_advance_loc: 1 to 000000000091501d
  DW_CFA_def_cfa_offset: 16
  DW_CFA_offset: r6 (rbp) at cfa-16
  DW_CFA_advance_loc: 3 to 0000000000915020
  DW_CFA_def_cfa_register: r6 (rbp)
  DW_CFA_advance_loc2: 439 to 00000000009151d7
  DW_CFA_def_cfa: r7 (rsp) ofs 8
  DW_CFA_nop

000084a8 000000000000001c 000084ac FDE cie=00000000 pc=00000000009151d8..00000000009151fe
  DW_CFA_advance_loc: 1 to 00000000009151d9
  DW_CFA_def_cfa_offset: 16
  DW_CFA_offset: r6 (rbp) at cfa-16
  DW_CFA_advance_loc: 3 to 00000000009151dc
  DW_CFA_def_cfa_register: r6 (rbp)
  DW_CFA_advance_loc: 33 to 00000000009151fd
  DW_CFA_def_cfa: r7 (rsp) ofs 8
  DW_CFA_nop
  DW_CFA_nop
  DW_CFA_nop

000084c8 000000000000001c 000084cc FDE cie=00000000 pc=00000000009151fe..0000000000915224
  DW_CFA_advance_loc: 1 to 00000000009151ff
  DW_CFA_def_cfa_offset: 16
  DW_CFA_offset: r6 (rbp) at cfa-16
  DW_CFA_advance_loc: 3 to 0000000000915202
  DW_CFA_def_cfa_register: r6 (rbp)
  DW_CFA_advance_loc: 33 to 0000000000915223
  DW_CFA_def_cfa: r7 (rsp) ofs 8
  DW_CFA_nop
  DW_CFA_nop
  DW_CFA_nop

000084e8 000000000000001c 000084ec FDE cie=00000000 pc=0000000000915224..0000000000915246
  DW_CFA_advance_loc: 1 to 0000000000915225
  DW_CFA_def_cfa_offset: 16
  DW_CFA_offset: r6 (rbp) at cfa-16
  DW_CFA_advance_loc: 3 to 0000000000915228
  DW_CFA_def_cfa_register: r6 (rbp)
  DW_CFA_advance_loc: 29 to 0000000000915245
  DW_CFA_def_cfa: r7 (rsp) ofs 8
  DW_CFA_nop
  DW_CFA_nop
  DW_CFA_nop

00008508 000000000000001c 0000850c FDE cie=00000000 pc=0000000000915246..0000000000915254
  DW_CFA_advance_loc: 1 to 0000000000915247
  DW_CFA_def_cfa_offset: 16
  DW_CFA_offset: r6 (rbp) at cfa-16
  DW_CFA_advance_loc: 3 to 000000000091524a
  DW_CFA_def_cfa_register: r6 (rbp)
  DW_CFA_advance_loc: 9 to 0000000000915253
  DW_CFA_def_cfa: r7 (rsp) ofs 8
  DW_CFA_nop
  DW_CFA_nop
  DW_CFA_nop

00008528 000000000000001c 0000852c FDE cie=00000000 pc=0000000000915254..0000000000915290
  DW_CFA_advance_loc: 1 to 0000000000915255
  DW_CFA_def_cfa_offset: 16
  DW_CFA_offset: r6 (rbp) at cfa-16
  DW_CFA_advance_loc: 3 to 0000000000915258
  DW_CFA_def_cfa_register: r6 (rbp)
  DW_CFA_advance_loc: 55 to 000000000091528f
  DW_CFA_def_cfa: r7 (rsp) ofs 8
  DW_CFA_nop
  DW_CFA_nop
  DW_CFA_nop

00008548 000000000000001c 0000854c FDE cie=00000000 pc=0000000000915290..00000000009152ac
  DW_CFA_advance_loc: 1 to 0000000000915291
  DW_CFA_def_cfa_offset: 16
  DW_CFA_offset: r6 (rbp) at cfa-16
  DW_CFA_advance_loc: 3 to 0000000000915294
  DW_CFA_def_cfa_register: r6 (rbp)
  DW_CFA_advance_loc: 23 to 00000000009152ab
  DW_CFA_def_cfa: r7 (rsp) ofs 8
  DW_CFA_nop
  DW_CFA_nop
  DW_CFA_nop

00008568 000000000000001c 0000856c FDE cie=00000000 pc=00000000009152ac..00000000009152bd
  DW_CFA_advance_loc: 1 to 00000000009152ad
  DW_CFA_def_cfa_offset: 16
  DW_CFA_offset: r6 (rbp) at cfa-16
  DW_CFA_advance_loc: 3 to 00000000009152b0
  DW_CFA_def_cfa_register: r6 (rbp)
  DW_CFA_advance_loc: 12 to 00000000009152bc
  DW_CFA_def_cfa: r7 (rsp) ofs 8
  DW_CFA_nop
  DW_CFA_nop
  DW_CFA_nop

00008588 000000000000001c 0000858c FDE cie=00000000 pc=00000000009152bd..0000000000915301
  DW_CFA_advance_loc: 1 to 00000000009152be
  DW_CFA_def_cfa_offset: 16
  DW_CFA_offset: r6 (rbp) at cfa-16
  DW_CFA_advance_loc: 3 to 00000000009152c1
  DW_CFA_def_cfa_register: r6 (rbp)
  DW_CFA_advance_loc: 63 to 0000000000915300
  DW_CFA_def_cfa: r7 (rsp) ofs 8
  DW_CFA_nop
  DW_CFA_nop
  DW_CFA_nop

000085a8 000000000000001c 000085ac FDE cie=00000000 pc=0000000000915301..00000000009159c8
  DW_CFA_advance_loc: 1 to 0000000000915302
  DW_CFA_def_cfa_offset: 16
  DW_CFA_offset: r6 (rbp) at cfa-16
  DW_CFA_advance_loc: 3 to 0000000000915305
  DW_CFA_def_cfa_register: r6 (rbp)
  DW_CFA_advance_loc2: 1730 to 00000000009159c7
  DW_CFA_def_cfa: r7 (rsp) ofs 8
  DW_CFA_nop

000085c8 0000000000000024 000085cc FDE cie=00000000 pc=00000000009159c8..000000000091764b
  DW_CFA_advance_loc: 1 to 00000000009159c9
  DW_CFA_def_cfa_offset: 16
  DW_CFA_offset: r6 (rbp) at cfa-16
  DW_CFA_advance_loc: 3 to 00000000009159cc
  DW_CFA_def_cfa_register: r6 (rbp)
  DW_CFA_advance_loc: 11 to 00000000009159d7
  DW_CFA_offset: r14 (r14) at cfa-24
  DW_CFA_offset: r13 (r13) at cfa-32
  DW_CFA_offset: r12 (r12) at cfa-40
  DW_CFA_offset: r3 (rbx) at cfa-48
  DW_CFA_advance_loc2: 7283 to 000000000091764a
  DW_CFA_def_cfa: r7 (rsp) ofs 8

000085f0 000000000000001c 000085f4 FDE cie=00000000 pc=000000000091764b..0000000000917741
  DW_CFA_advance_loc: 1 to 000000000091764c
  DW_CFA_def_cfa_offset: 16
  DW_CFA_offset: r6 (rbp) at cfa-16
  DW_CFA_advance_loc: 3 to 000000000091764f
  DW_CFA_def_cfa_register: r6 (rbp)
  DW_CFA_advance_loc1: 241 to 0000000000917740
  DW_CFA_def_cfa: r7 (rsp) ofs 8
  DW_CFA_nop
  DW_CFA_nop

00008610 000000000000001c 00008614 FDE cie=00000000 pc=0000000000917741..000000000091782c
  DW_CFA_advance_loc: 1 to 0000000000917742
  DW_CFA_def_cfa_offset: 16
  DW_CFA_offset: r6 (rbp) at cfa-16
  DW_CFA_advance_loc: 3 to 0000000000917745
  DW_CFA_def_cfa_register: r6 (rbp)
  DW_CFA_advance_loc1: 230 to 000000000091782b
  DW_CFA_def_cfa: r7 (rsp) ofs 8
  DW_CFA_nop
  DW_CFA_nop

00008630 000000000000001c 00008634 FDE cie=00000000 pc=000000000091782c..00000000009178bf
  DW_CFA_advance_loc: 1 to 000000000091782d
  DW_CFA_def_cfa_offset: 16
  DW_CFA_offset: r6 (rbp) at cfa-16
  DW_CFA_advance_loc: 3 to 0000000000917830
  DW_CFA_def_cfa_register: r6 (rbp)
  DW_CFA_advance_loc1: 142 to 00000000009178be
  DW_CFA_def_cfa: r7 (rsp) ofs 8
  DW_CFA_nop
  DW_CFA_nop

00008650 000000000000001c 00008654 FDE cie=00000000 pc=00000000009178bf..00000000009178da
  DW_CFA_advance_loc: 1 to 00000000009178c0
  DW_CFA_def_cfa_offset: 16
  DW_CFA_offset: r6 (rbp) at cfa-16
  DW_CFA_advance_loc: 3 to 00000000009178c3
  DW_CFA_def_cfa_register: r6 (rbp)
  DW_CFA_advance_loc: 22 to 00000000009178d9
  DW_CFA_def_cfa: r7 (rsp) ofs 8
  DW_CFA_nop
  DW_CFA_nop
  DW_CFA_nop

00008670 000000000000001c 00008674 FDE cie=00000000 pc=00000000009178da..00000000009178e1
  DW_CFA_advance_loc: 1 to 00000000009178db
  DW_CFA_def_cfa_offset: 16
  DW_CFA_offset: r6 (rbp) at cfa-16
  DW_CFA_advance_loc: 3 to 00000000009178de
  DW_CFA_def_cfa_register: r6 (rbp)
  DW_CFA_advance_loc: 2 to 00000000009178e0
  DW_CFA_def_cfa: r7 (rsp) ofs 8
  DW_CFA_nop
  DW_CFA_nop
  DW_CFA_nop

00008690 000000000000001c 00008694 FDE cie=00000000 pc=00000000009178e1..0000000000917ade
  DW_CFA_advance_loc: 1 to 00000000009178e2
  DW_CFA_def_cfa_offset: 16
  DW_CFA_offset: r6 (rbp) at cfa-16
  DW_CFA_advance_loc: 3 to 00000000009178e5
  DW_CFA_def_cfa_register: r6 (rbp)
  DW_CFA_advance_loc2: 504 to 0000000000917add
  DW_CFA_def_cfa: r7 (rsp) ofs 8
  DW_CFA_nop

000086b0 000000000000001c 000086b4 FDE cie=00000000 pc=0000000000917ade..0000000000917cd8
  DW_CFA_advance_loc: 1 to 0000000000917adf
  DW_CFA_def_cfa_offset: 16
  DW_CFA_offset: r6 (rbp) at cfa-16
  DW_CFA_advance_loc: 3 to 0000000000917ae2
  DW_CFA_def_cfa_register: r6 (rbp)
  DW_CFA_advance_loc2: 501 to 0000000000917cd7
  DW_CFA_def_cfa: r7 (rsp) ofs 8
  DW_CFA_nop

000086d0 000000000000001c 000086d4 FDE cie=00000000 pc=0000000000917cd8..0000000000917db1
  DW_CFA_advance_loc: 1 to 0000000000917cd9
  DW_CFA_def_cfa_offset: 16
  DW_CFA_offset: r6 (rbp) at cfa-16
  DW_CFA_advance_loc: 3 to 0000000000917cdc
  DW_CFA_def_cfa_register: r6 (rbp)
  DW_CFA_advance_loc1: 212 to 0000000000917db0
  DW_CFA_def_cfa: r7 (rsp) ofs 8
  DW_CFA_nop
  DW_CFA_nop

000086f0 000000000000001c 000086f4 FDE cie=00000000 pc=0000000000917db1..0000000000917e1a
  DW_CFA_advance_loc: 1 to 0000000000917db2
  DW_CFA_def_cfa_offset: 16
  DW_CFA_offset: r6 (rbp) at cfa-16
  DW_CFA_advance_loc: 3 to 0000000000917db5
  DW_CFA_def_cfa_register: r6 (rbp)
  DW_CFA_advance_loc1: 100 to 0000000000917e19
  DW_CFA_def_cfa: r7 (rsp) ofs 8
  DW_CFA_nop
  DW_CFA_nop

00008710 000000000000001c 00008714 FDE cie=00000000 pc=0000000000917e1a..0000000000917e9b
  DW_CFA_advance_loc: 1 to 0000000000917e1b
  DW_CFA_def_cfa_offset: 16
  DW_CFA_offset: r6 (rbp) at cfa-16
  DW_CFA_advance_loc: 3 to 0000000000917e1e
  DW_CFA_def_cfa_register: r6 (rbp)
  DW_CFA_advance_loc1: 124 to 0000000000917e9a
  DW_CFA_def_cfa: r7 (rsp) ofs 8
  DW_CFA_nop
  DW_CFA_nop

00008730 000000000000001c 00008734 FDE cie=00000000 pc=0000000000917e9b..0000000000917f18
  DW_CFA_advance_loc: 1 to 0000000000917e9c
  DW_CFA_def_cfa_offset: 16
  DW_CFA_offset: r6 (rbp) at cfa-16
  DW_CFA_advance_loc: 3 to 0000000000917e9f
  DW_CFA_def_cfa_register: r6 (rbp)
  DW_CFA_advance_loc1: 120 to 0000000000917f17
  DW_CFA_def_cfa: r7 (rsp) ofs 8
  DW_CFA_nop
  DW_CFA_nop

00008750 000000000000001c 00008754 FDE cie=00000000 pc=0000000000917f18..000000000091809d
  DW_CFA_advance_loc: 1 to 0000000000917f19
  DW_CFA_def_cfa_offset: 16
  DW_CFA_offset: r6 (rbp) at cfa-16
  DW_CFA_advance_loc: 3 to 0000000000917f1c
  DW_CFA_def_cfa_register: r6 (rbp)
  DW_CFA_advance_loc2: 384 to 000000000091809c
  DW_CFA_def_cfa: r7 (rsp) ofs 8
  DW_CFA_nop

00008770 000000000000001c 00008774 FDE cie=00000000 pc=000000000091809d..0000000000918246
  DW_CFA_advance_loc: 1 to 000000000091809e
  DW_CFA_def_cfa_offset: 16
  DW_CFA_offset: r6 (rbp) at cfa-16
  DW_CFA_advance_loc: 3 to 00000000009180a1
  DW_CFA_def_cfa_register: r6 (rbp)
  DW_CFA_advance_loc2: 420 to 0000000000918245
  DW_CFA_def_cfa: r7 (rsp) ofs 8
  DW_CFA_nop

00008790 0000000000000020 00008794 FDE cie=00000000 pc=0000000000918246..00000000009189dd
  DW_CFA_advance_loc: 1 to 0000000000918247
  DW_CFA_def_cfa_offset: 16
  DW_CFA_offset: r6 (rbp) at cfa-16
  DW_CFA_advance_loc: 3 to 000000000091824a
  DW_CFA_def_cfa_register: r6 (rbp)
  DW_CFA_advance_loc: 5 to 000000000091824f
  DW_CFA_offset: r3 (rbx) at cfa-24
  DW_CFA_advance_loc2: 1933 to 00000000009189dc
  DW_CFA_def_cfa: r7 (rsp) ofs 8
  DW_CFA_nop
  DW_CFA_nop

000087b4 000000000000001c 000087b8 FDE cie=00000000 pc=00000000009189dd..0000000000918a4d
  DW_CFA_advance_loc: 1 to 00000000009189de
  DW_CFA_def_cfa_offset: 16
  DW_CFA_offset: r6 (rbp) at cfa-16
  DW_CFA_advance_loc: 3 to 00000000009189e1
  DW_CFA_def_cfa_register: r6 (rbp)
  DW_CFA_advance_loc1: 107 to 0000000000918a4c
  DW_CFA_def_cfa: r7 (rsp) ofs 8
  DW_CFA_nop
  DW_CFA_nop

000087d4 000000000000001c 000087d8 FDE cie=00000000 pc=0000000000918a4d..0000000000918abd
  DW_CFA_advance_loc: 1 to 0000000000918a4e
  DW_CFA_def_cfa_offset: 16
  DW_CFA_offset: r6 (rbp) at cfa-16
  DW_CFA_advance_loc: 3 to 0000000000918a51
  DW_CFA_def_cfa_register: r6 (rbp)
  DW_CFA_advance_loc1: 107 to 0000000000918abc
  DW_CFA_def_cfa: r7 (rsp) ofs 8
  DW_CFA_nop
  DW_CFA_nop

000087f4 000000000000001c 000087f8 FDE cie=00000000 pc=0000000000918abd..0000000000918b1e
  DW_CFA_advance_loc: 1 to 0000000000918abe
  DW_CFA_def_cfa_offset: 16
  DW_CFA_offset: r6 (rbp) at cfa-16
  DW_CFA_advance_loc: 3 to 0000000000918ac1
  DW_CFA_def_cfa_register: r6 (rbp)
  DW_CFA_advance_loc1: 92 to 0000000000918b1d
  DW_CFA_def_cfa: r7 (rsp) ofs 8
  DW_CFA_nop
  DW_CFA_nop

00008814 000000000000001c 00008818 FDE cie=00000000 pc=0000000000918b1e..00000000009190b1
  DW_CFA_advance_loc: 1 to 0000000000918b1f
  DW_CFA_def_cfa_offset: 16
  DW_CFA_offset: r6 (rbp) at cfa-16
  DW_CFA_advance_loc: 3 to 0000000000918b22
  DW_CFA_def_cfa_register: r6 (rbp)
  DW_CFA_advance_loc2: 1422 to 00000000009190b0
  DW_CFA_def_cfa: r7 (rsp) ofs 8
  DW_CFA_nop

00008834 000000000000001c 00008838 FDE cie=00000000 pc=00000000009190b1..00000000009190ca
  DW_CFA_advance_loc: 1 to 00000000009190b2
  DW_CFA_def_cfa_offset: 16
  DW_CFA_offset: r6 (rbp) at cfa-16
  DW_CFA_advance_loc: 3 to 00000000009190b5
  DW_CFA_def_cfa_register: r6 (rbp)
  DW_CFA_advance_loc: 20 to 00000000009190c9
  DW_CFA_def_cfa: r7 (rsp) ofs 8
  DW_CFA_nop
  DW_CFA_nop
  DW_CFA_nop

00008854 000000000000001c 00008858 FDE cie=00000000 pc=00000000009190ca..00000000009191e0
  DW_CFA_advance_loc: 1 to 00000000009190cb
  DW_CFA_def_cfa_offset: 16
  DW_CFA_offset: r6 (rbp) at cfa-16
  DW_CFA_advance_loc: 3 to 00000000009190ce
  DW_CFA_def_cfa_register: r6 (rbp)
  DW_CFA_advance_loc2: 273 to 00000000009191df
  DW_CFA_def_cfa: r7 (rsp) ofs 8
  DW_CFA_nop

00008874 000000000000001c 00008878 FDE cie=00000000 pc=00000000009191e0..0000000000919216
  DW_CFA_advance_loc: 1 to 00000000009191e1
  DW_CFA_def_cfa_offset: 16
  DW_CFA_offset: r6 (rbp) at cfa-16
  DW_CFA_advance_loc: 3 to 00000000009191e4
  DW_CFA_def_cfa_register: r6 (rbp)
  DW_CFA_advance_loc: 49 to 0000000000919215
  DW_CFA_def_cfa: r7 (rsp) ofs 8
  DW_CFA_nop
  DW_CFA_nop
  DW_CFA_nop

00008894 000000000000001c 00008898 FDE cie=00000000 pc=0000000000919216..000000000091948e
  DW_CFA_advance_loc: 1 to 0000000000919217
  DW_CFA_def_cfa_offset: 16
  DW_CFA_offset: r6 (rbp) at cfa-16
  DW_CFA_advance_loc: 3 to 000000000091921a
  DW_CFA_def_cfa_register: r6 (rbp)
  DW_CFA_advance_loc2: 627 to 000000000091948d
  DW_CFA_def_cfa: r7 (rsp) ofs 8
  DW_CFA_nop

000088b4 000000000000001c 000088b8 FDE cie=00000000 pc=000000000091948e..000000000091954b
  DW_CFA_advance_loc: 1 to 000000000091948f
  DW_CFA_def_cfa_offset: 16
  DW_CFA_offset: r6 (rbp) at cfa-16
  DW_CFA_advance_loc: 3 to 0000000000919492
  DW_CFA_def_cfa_register: r6 (rbp)
  DW_CFA_advance_loc1: 184 to 000000000091954a
  DW_CFA_def_cfa: r7 (rsp) ofs 8
  DW_CFA_nop
  DW_CFA_nop

000088d4 000000000000001c 000088d8 FDE cie=00000000 pc=000000000091954b..00000000009195b2
  DW_CFA_advance_loc: 1 to 000000000091954c
  DW_CFA_def_cfa_offset: 16
  DW_CFA_offset: r6 (rbp) at cfa-16
  DW_CFA_advance_loc: 3 to 000000000091954f
  DW_CFA_def_cfa_register: r6 (rbp)
  DW_CFA_advance_loc1: 98 to 00000000009195b1
  DW_CFA_def_cfa: r7 (rsp) ofs 8
  DW_CFA_nop
  DW_CFA_nop

000088f4 000000000000001c 000088f8 FDE cie=00000000 pc=00000000009195b2..00000000009198af
  DW_CFA_advance_loc: 1 to 00000000009195b3
  DW_CFA_def_cfa_offset: 16
  DW_CFA_offset: r6 (rbp) at cfa-16
  DW_CFA_advance_loc: 3 to 00000000009195b6
  DW_CFA_def_cfa_register: r6 (rbp)
  DW_CFA_advance_loc2: 760 to 00000000009198ae
  DW_CFA_def_cfa: r7 (rsp) ofs 8
  DW_CFA_nop

00008914 000000000000001c 00008918 FDE cie=00000000 pc=00000000009198af..000000000091992d
  DW_CFA_advance_loc: 1 to 00000000009198b0
  DW_CFA_def_cfa_offset: 16
  DW_CFA_offset: r6 (rbp) at cfa-16
  DW_CFA_advance_loc: 3 to 00000000009198b3
  DW_CFA_def_cfa_register: r6 (rbp)
  DW_CFA_advance_loc1: 121 to 000000000091992c
  DW_CFA_def_cfa: r7 (rsp) ofs 8
  DW_CFA_nop
  DW_CFA_nop

00008934 000000000000001c 00008938 FDE cie=00000000 pc=000000000091992d..0000000000919937
  DW_CFA_advance_loc: 1 to 000000000091992e
  DW_CFA_def_cfa_offset: 16
  DW_CFA_offset: r6 (rbp) at cfa-16
  DW_CFA_advance_loc: 3 to 0000000000919931
  DW_CFA_def_cfa_register: r6 (rbp)
  DW_CFA_advance_loc: 5 to 0000000000919936
  DW_CFA_def_cfa: r7 (rsp) ofs 8
  DW_CFA_nop
  DW_CFA_nop
  DW_CFA_nop

00008954 000000000000001c 00008958 FDE cie=00000000 pc=0000000000919937..0000000000919942
  DW_CFA_advance_loc: 1 to 0000000000919938
  DW_CFA_def_cfa_offset: 16
  DW_CFA_offset: r6 (rbp) at cfa-16
  DW_CFA_advance_loc: 3 to 000000000091993b
  DW_CFA_def_cfa_register: r6 (rbp)
  DW_CFA_advance_loc: 6 to 0000000000919941
  DW_CFA_def_cfa: r7 (rsp) ofs 8
  DW_CFA_nop
  DW_CFA_nop
  DW_CFA_nop

00008974 000000000000001c 00008978 FDE cie=00000000 pc=0000000000919942..00000000009199c6
  DW_CFA_advance_loc: 1 to 0000000000919943
  DW_CFA_def_cfa_offset: 16
  DW_CFA_offset: r6 (rbp) at cfa-16
  DW_CFA_advance_loc: 3 to 0000000000919946
  DW_CFA_def_cfa_register: r6 (rbp)
  DW_CFA_advance_loc1: 127 to 00000000009199c5
  DW_CFA_def_cfa: r7 (rsp) ofs 8
  DW_CFA_nop
  DW_CFA_nop

00008994 000000000000001c 00008998 FDE cie=00000000 pc=00000000009199c6..00000000009199fe
  DW_CFA_advance_loc: 1 to 00000000009199c7
  DW_CFA_def_cfa_offset: 16
  DW_CFA_offset: r6 (rbp) at cfa-16
  DW_CFA_advance_loc: 3 to 00000000009199ca
  DW_CFA_def_cfa_register: r6 (rbp)
  DW_CFA_advance_loc: 51 to 00000000009199fd
  DW_CFA_def_cfa: r7 (rsp) ofs 8
  DW_CFA_nop
  DW_CFA_nop
  DW_CFA_nop

000089b4 000000000000001c 000089b8 FDE cie=00000000 pc=00000000009199fe..0000000000919a83
  DW_CFA_advance_loc: 1 to 00000000009199ff
  DW_CFA_def_cfa_offset: 16
  DW_CFA_offset: r6 (rbp) at cfa-16
  DW_CFA_advance_loc: 3 to 0000000000919a02
  DW_CFA_def_cfa_register: r6 (rbp)
  DW_CFA_advance_loc1: 128 to 0000000000919a82
  DW_CFA_def_cfa: r7 (rsp) ofs 8
  DW_CFA_nop
  DW_CFA_nop

000089d4 000000000000001c 000089d8 FDE cie=00000000 pc=0000000000919a83..0000000000919afa
  DW_CFA_advance_loc: 1 to 0000000000919a84
  DW_CFA_def_cfa_offset: 16
  DW_CFA_offset: r6 (rbp) at cfa-16
  DW_CFA_advance_loc: 3 to 0000000000919a87
  DW_CFA_def_cfa_register: r6 (rbp)
  DW_CFA_advance_loc1: 114 to 0000000000919af9
  DW_CFA_def_cfa: r7 (rsp) ofs 8
  DW_CFA_nop
  DW_CFA_nop

000089f4 000000000000001c 000089f8 FDE cie=00000000 pc=0000000000919afa..0000000000919b25
  DW_CFA_advance_loc: 1 to 0000000000919afb
  DW_CFA_def_cfa_offset: 16
  DW_CFA_offset: r6 (rbp) at cfa-16
  DW_CFA_advance_loc: 3 to 0000000000919afe
  DW_CFA_def_cfa_register: r6 (rbp)
  DW_CFA_advance_loc: 38 to 0000000000919b24
  DW_CFA_def_cfa: r7 (rsp) ofs 8
  DW_CFA_nop
  DW_CFA_nop
  DW_CFA_nop

00008a14 000000000000001c 00008a18 FDE cie=00000000 pc=0000000000919b25..0000000000919b33
  DW_CFA_advance_loc: 1 to 0000000000919b26
  DW_CFA_def_cfa_offset: 16
  DW_CFA_offset: r6 (rbp) at cfa-16
  DW_CFA_advance_loc: 3 to 0000000000919b29
  DW_CFA_def_cfa_register: r6 (rbp)
  DW_CFA_advance_loc: 9 to 0000000000919b32
  DW_CFA_def_cfa: r7 (rsp) ofs 8
  DW_CFA_nop
  DW_CFA_nop
  DW_CFA_nop

00008a34 0000000000000020 00008a38 FDE cie=00000000 pc=0000000000919b33..000000000091a150
  DW_CFA_advance_loc: 1 to 0000000000919b34
  DW_CFA_def_cfa_offset: 16
  DW_CFA_offset: r6 (rbp) at cfa-16
  DW_CFA_advance_loc: 3 to 0000000000919b37
  DW_CFA_def_cfa_register: r6 (rbp)
  DW_CFA_advance_loc: 5 to 0000000000919b3c
  DW_CFA_offset: r3 (rbx) at cfa-24
  DW_CFA_advance_loc2: 1555 to 000000000091a14f
  DW_CFA_def_cfa: r7 (rsp) ofs 8
  DW_CFA_nop
  DW_CFA_nop

00008a58 000000000000001c 00008a5c FDE cie=00000000 pc=000000000091a150..000000000091a75f
  DW_CFA_advance_loc: 1 to 000000000091a151
  DW_CFA_def_cfa_offset: 16
  DW_CFA_offset: r6 (rbp) at cfa-16
  DW_CFA_advance_loc: 3 to 000000000091a154
  DW_CFA_def_cfa_register: r6 (rbp)
  DW_CFA_advance_loc2: 1546 to 000000000091a75e
  DW_CFA_def_cfa: r7 (rsp) ofs 8
  DW_CFA_nop

00008a78 000000000000001c 00008a7c FDE cie=00000000 pc=000000000091a75f..000000000091a85b
  DW_CFA_advance_loc: 1 to 000000000091a760
  DW_CFA_def_cfa_offset: 16
  DW_CFA_offset: r6 (rbp) at cfa-16
  DW_CFA_advance_loc: 3 to 000000000091a763
  DW_CFA_def_cfa_register: r6 (rbp)
  DW_CFA_advance_loc1: 247 to 000000000091a85a
  DW_CFA_def_cfa: r7 (rsp) ofs 8
  DW_CFA_nop
  DW_CFA_nop

00008a98 000000000000001c 00008a9c FDE cie=00000000 pc=000000000091a85b..000000000091a8de
  DW_CFA_advance_loc: 1 to 000000000091a85c
  DW_CFA_def_cfa_offset: 16
  DW_CFA_offset: r6 (rbp) at cfa-16
  DW_CFA_advance_loc: 3 to 000000000091a85f
  DW_CFA_def_cfa_register: r6 (rbp)
  DW_CFA_advance_loc1: 126 to 000000000091a8dd
  DW_CFA_def_cfa: r7 (rsp) ofs 8
  DW_CFA_nop
  DW_CFA_nop

00008ab8 000000000000001c 00008abc FDE cie=00000000 pc=000000000091a8de..000000000091a99c
  DW_CFA_advance_loc: 1 to 000000000091a8df
  DW_CFA_def_cfa_offset: 16
  DW_CFA_offset: r6 (rbp) at cfa-16
  DW_CFA_advance_loc: 3 to 000000000091a8e2
  DW_CFA_def_cfa_register: r6 (rbp)
  DW_CFA_advance_loc1: 185 to 000000000091a99b
  DW_CFA_def_cfa: r7 (rsp) ofs 8
  DW_CFA_nop
  DW_CFA_nop

00008ad8 000000000000001c 00008adc FDE cie=00000000 pc=000000000091a99c..000000000091a9fb
  DW_CFA_advance_loc: 1 to 000000000091a99d
  DW_CFA_def_cfa_offset: 16
  DW_CFA_offset: r6 (rbp) at cfa-16
  DW_CFA_advance_loc: 3 to 000000000091a9a0
  DW_CFA_def_cfa_register: r6 (rbp)
  DW_CFA_advance_loc1: 90 to 000000000091a9fa
  DW_CFA_def_cfa: r7 (rsp) ofs 8
  DW_CFA_nop
  DW_CFA_nop

00008af8 000000000000001c 00008afc FDE cie=00000000 pc=000000000091a9fb..000000000091aa45
  DW_CFA_advance_loc: 1 to 000000000091a9fc
  DW_CFA_def_cfa_offset: 16
  DW_CFA_offset: r6 (rbp) at cfa-16
  DW_CFA_advance_loc: 3 to 000000000091a9ff
  DW_CFA_def_cfa_register: r6 (rbp)
  DW_CFA_advance_loc1: 69 to 000000000091aa44
  DW_CFA_def_cfa: r7 (rsp) ofs 8
  DW_CFA_nop
  DW_CFA_nop

00008b18 000000000000001c 00008b1c FDE cie=00000000 pc=000000000091aa45..000000000091aa68
  DW_CFA_advance_loc: 1 to 000000000091aa46
  DW_CFA_def_cfa_offset: 16
  DW_CFA_offset: r6 (rbp) at cfa-16
  DW_CFA_advance_loc: 3 to 000000000091aa49
  DW_CFA_def_cfa_register: r6 (rbp)
  DW_CFA_advance_loc: 30 to 000000000091aa67
  DW_CFA_def_cfa: r7 (rsp) ofs 8
  DW_CFA_nop
  DW_CFA_nop
  DW_CFA_nop

00008b38 000000000000001c 00008b3c FDE cie=00000000 pc=000000000091aa68..000000000091ab6e
  DW_CFA_advance_loc: 1 to 000000000091aa69
  DW_CFA_def_cfa_offset: 16
  DW_CFA_offset: r6 (rbp) at cfa-16
  DW_CFA_advance_loc: 3 to 000000000091aa6c
  DW_CFA_def_cfa_register: r6 (rbp)
  DW_CFA_advance_loc2: 257 to 000000000091ab6d
  DW_CFA_def_cfa: r7 (rsp) ofs 8
  DW_CFA_nop

00008b58 000000000000001c 00008b5c FDE cie=00000000 pc=000000000091ab6e..000000000091ad22
  DW_CFA_advance_loc: 1 to 000000000091ab6f
  DW_CFA_def_cfa_offset: 16
  DW_CFA_offset: r6 (rbp) at cfa-16
  DW_CFA_advance_loc: 3 to 000000000091ab72
  DW_CFA_def_cfa_register: r6 (rbp)
  DW_CFA_advance_loc2: 431 to 000000000091ad21
  DW_CFA_def_cfa: r7 (rsp) ofs 8
  DW_CFA_nop

00008b78 0000000000000020 00008b7c FDE cie=00000000 pc=000000000091ad22..000000000091af46
  DW_CFA_advance_loc: 1 to 000000000091ad23
  DW_CFA_def_cfa_offset: 16
  DW_CFA_offset: r6 (rbp) at cfa-16
  DW_CFA_advance_loc: 3 to 000000000091ad26
  DW_CFA_def_cfa_register: r6 (rbp)
  DW_CFA_advance_loc: 5 to 000000000091ad2b
  DW_CFA_offset: r3 (rbx) at cfa-24
  DW_CFA_advance_loc2: 538 to 000000000091af45
  DW_CFA_def_cfa: r7 (rsp) ofs 8
  DW_CFA_nop
  DW_CFA_nop

00008b9c 000000000000001c 00008ba0 FDE cie=00000000 pc=000000000091af46..000000000091bcbb
  DW_CFA_advance_loc: 1 to 000000000091af47
  DW_CFA_def_cfa_offset: 16
  DW_CFA_offset: r6 (rbp) at cfa-16
  DW_CFA_advance_loc: 3 to 000000000091af4a
  DW_CFA_def_cfa_register: r6 (rbp)
  DW_CFA_advance_loc2: 3440 to 000000000091bcba
  DW_CFA_def_cfa: r7 (rsp) ofs 8
  DW_CFA_nop

00008bbc 0000000000000024 00008238 FDE cie=00000988 pc=000000000091bcbb..000000000091c43a
  Augmentation data:     65 08 01 00
  DW_CFA_advance_loc: 1 to 000000000091bcbc
  DW_CFA_def_cfa_offset: 16
  DW_CFA_offset: r6 (rbp) at cfa-16
  DW_CFA_advance_loc: 3 to 000000000091bcbf
  DW_CFA_def_cfa_register: r6 (rbp)
  DW_CFA_advance_loc: 7 to 000000000091bcc6
  DW_CFA_offset: r12 (r12) at cfa-24
  DW_CFA_offset: r3 (rbx) at cfa-32
  DW_CFA_advance_loc2: 1907 to 000000000091c439
  DW_CFA_def_cfa: r7 (rsp) ofs 8

00008be4 0000000000000020 00008be8 FDE cie=00000000 pc=000000000091c43a..000000000091c5fc
  DW_CFA_advance_loc: 1 to 000000000091c43b
  DW_CFA_def_cfa_offset: 16
  DW_CFA_offset: r6 (rbp) at cfa-16
  DW_CFA_advance_loc: 3 to 000000000091c43e
  DW_CFA_def_cfa_register: r6 (rbp)
  DW_CFA_advance_loc: 5 to 000000000091c443
  DW_CFA_offset: r3 (rbx) at cfa-24
  DW_CFA_advance_loc2: 440 to 000000000091c5fb
  DW_CFA_def_cfa: r7 (rsp) ofs 8
  DW_CFA_nop
  DW_CFA_nop

00008c08 000000000000001c 00008c0c FDE cie=00000000 pc=000000000091c5fc..000000000091c655
  DW_CFA_advance_loc: 1 to 000000000091c5fd
  DW_CFA_def_cfa_offset: 16
  DW_CFA_offset: r6 (rbp) at cfa-16
  DW_CFA_advance_loc: 3 to 000000000091c600
  DW_CFA_def_cfa_register: r6 (rbp)
  DW_CFA_advance_loc1: 84 to 000000000091c654
  DW_CFA_def_cfa: r7 (rsp) ofs 8
  DW_CFA_nop
  DW_CFA_nop

00008c28 000000000000001c 00008c2c FDE cie=00000000 pc=000000000091c655..000000000091c7bc
  DW_CFA_advance_loc: 1 to 000000000091c656
  DW_CFA_def_cfa_offset: 16
  DW_CFA_offset: r6 (rbp) at cfa-16
  DW_CFA_advance_loc: 3 to 000000000091c659
  DW_CFA_def_cfa_register: r6 (rbp)
  DW_CFA_advance_loc2: 354 to 000000000091c7bb
  DW_CFA_def_cfa: r7 (rsp) ofs 8
  DW_CFA_nop

00008c48 000000000000001c 00008c4c FDE cie=00000000 pc=000000000091c7bc..000000000091c7c9
  DW_CFA_advance_loc: 1 to 000000000091c7bd
  DW_CFA_def_cfa_offset: 16
  DW_CFA_offset: r6 (rbp) at cfa-16
  DW_CFA_advance_loc: 3 to 000000000091c7c0
  DW_CFA_def_cfa_register: r6 (rbp)
  DW_CFA_advance_loc: 8 to 000000000091c7c8
  DW_CFA_def_cfa: r7 (rsp) ofs 8
  DW_CFA_nop
  DW_CFA_nop
  DW_CFA_nop

00008c68 000000000000001c 00008c6c FDE cie=00000000 pc=000000000091c7c9..000000000091c9c1
  DW_CFA_advance_loc: 1 to 000000000091c7ca
  DW_CFA_def_cfa_offset: 16
  DW_CFA_offset: r6 (rbp) at cfa-16
  DW_CFA_advance_loc: 3 to 000000000091c7cd
  DW_CFA_def_cfa_register: r6 (rbp)
  DW_CFA_advance_loc2: 499 to 000000000091c9c0
  DW_CFA_def_cfa: r7 (rsp) ofs 8
  DW_CFA_nop

00008c88 0000000000000020 00008c8c FDE cie=00000000 pc=000000000091c9c1..000000000091ca1a
  DW_CFA_advance_loc: 1 to 000000000091c9c2
  DW_CFA_def_cfa_offset: 16
  DW_CFA_offset: r6 (rbp) at cfa-16
  DW_CFA_advance_loc: 3 to 000000000091c9c5
  DW_CFA_def_cfa_register: r6 (rbp)
  DW_CFA_advance_loc: 5 to 000000000091c9ca
  DW_CFA_offset: r3 (rbx) at cfa-24
  DW_CFA_advance_loc1: 79 to 000000000091ca19
  DW_CFA_def_cfa: r7 (rsp) ofs 8
  DW_CFA_nop
  DW_CFA_nop
  DW_CFA_nop

00008cac 000000000000001c 00008cb0 FDE cie=00000000 pc=000000000091ca1a..000000000091ca81
  DW_CFA_advance_loc: 1 to 000000000091ca1b
  DW_CFA_def_cfa_offset: 16
  DW_CFA_offset: r6 (rbp) at cfa-16
  DW_CFA_advance_loc: 3 to 000000000091ca1e
  DW_CFA_def_cfa_register: r6 (rbp)
  DW_CFA_advance_loc1: 98 to 000000000091ca80
  DW_CFA_def_cfa: r7 (rsp) ofs 8
  DW_CFA_nop
  DW_CFA_nop

00008ccc 000000000000001c 00008cd0 FDE cie=00000000 pc=000000000091ca81..000000000091cb05
  DW_CFA_advance_loc: 1 to 000000000091ca82
  DW_CFA_def_cfa_offset: 16
  DW_CFA_offset: r6 (rbp) at cfa-16
  DW_CFA_advance_loc: 3 to 000000000091ca85
  DW_CFA_def_cfa_register: r6 (rbp)
  DW_CFA_advance_loc1: 127 to 000000000091cb04
  DW_CFA_def_cfa: r7 (rsp) ofs 8
  DW_CFA_nop
  DW_CFA_nop

00008cec 000000000000001c 00008cf0 FDE cie=00000000 pc=000000000091cb05..000000000091cb89
  DW_CFA_advance_loc: 1 to 000000000091cb06
  DW_CFA_def_cfa_offset: 16
  DW_CFA_offset: r6 (rbp) at cfa-16
  DW_CFA_advance_loc: 3 to 000000000091cb09
  DW_CFA_def_cfa_register: r6 (rbp)
  DW_CFA_advance_loc1: 127 to 000000000091cb88
  DW_CFA_def_cfa: r7 (rsp) ofs 8
  DW_CFA_nop
  DW_CFA_nop

00008d0c 000000000000001c 00008d10 FDE cie=00000000 pc=000000000091cb89..000000000091cd7d
  DW_CFA_advance_loc: 1 to 000000000091cb8a
  DW_CFA_def_cfa_offset: 16
  DW_CFA_offset: r6 (rbp) at cfa-16
  DW_CFA_advance_loc: 3 to 000000000091cb8d
  DW_CFA_def_cfa_register: r6 (rbp)
  DW_CFA_advance_loc2: 495 to 000000000091cd7c
  DW_CFA_def_cfa: r7 (rsp) ofs 8
  DW_CFA_nop

00008d2c 000000000000001c 00008d30 FDE cie=00000000 pc=000000000091cd7d..000000000091cf71
  DW_CFA_advance_loc: 1 to 000000000091cd7e
  DW_CFA_def_cfa_offset: 16
  DW_CFA_offset: r6 (rbp) at cfa-16
  DW_CFA_advance_loc: 3 to 000000000091cd81
  DW_CFA_def_cfa_register: r6 (rbp)
  DW_CFA_advance_loc2: 495 to 000000000091cf70
  DW_CFA_def_cfa: r7 (rsp) ofs 8
  DW_CFA_nop

00008d4c 000000000000001c 00008d50 FDE cie=00000000 pc=000000000091cf71..000000000091cfaf
  DW_CFA_advance_loc: 1 to 000000000091cf72
  DW_CFA_def_cfa_offset: 16
  DW_CFA_offset: r6 (rbp) at cfa-16
  DW_CFA_advance_loc: 3 to 000000000091cf75
  DW_CFA_def_cfa_register: r6 (rbp)
  DW_CFA_advance_loc: 5 to 000000000091cf7a
  DW_CFA_offset: r3 (rbx) at cfa-24
  DW_CFA_advance_loc: 52 to 000000000091cfae
  DW_CFA_def_cfa: r7 (rsp) ofs 8

00008d6c 000000000000001c 00008d70 FDE cie=00000000 pc=000000000091cfaf..000000000091cfc2
  DW_CFA_advance_loc: 1 to 000000000091cfb0
  DW_CFA_def_cfa_offset: 16
  DW_CFA_offset: r6 (rbp) at cfa-16
  DW_CFA_advance_loc: 3 to 000000000091cfb3
  DW_CFA_def_cfa_register: r6 (rbp)
  DW_CFA_advance_loc: 14 to 000000000091cfc1
  DW_CFA_def_cfa: r7 (rsp) ofs 8
  DW_CFA_nop
  DW_CFA_nop
  DW_CFA_nop

00008d8c 000000000000001c 00008d90 FDE cie=00000000 pc=000000000091cfc2..000000000091cfcd
  DW_CFA_advance_loc: 1 to 000000000091cfc3
  DW_CFA_def_cfa_offset: 16
  DW_CFA_offset: r6 (rbp) at cfa-16
  DW_CFA_advance_loc: 3 to 000000000091cfc6
  DW_CFA_def_cfa_register: r6 (rbp)
  DW_CFA_advance_loc: 6 to 000000000091cfcc
  DW_CFA_def_cfa: r7 (rsp) ofs 8
  DW_CFA_nop
  DW_CFA_nop
  DW_CFA_nop

00008dac 000000000000001c 00008db0 FDE cie=00000000 pc=000000000091cfcd..000000000091cfd7
  DW_CFA_advance_loc: 1 to 000000000091cfce
  DW_CFA_def_cfa_offset: 16
  DW_CFA_offset: r6 (rbp) at cfa-16
  DW_CFA_advance_loc: 3 to 000000000091cfd1
  DW_CFA_def_cfa_register: r6 (rbp)
  DW_CFA_advance_loc: 5 to 000000000091cfd6
  DW_CFA_def_cfa: r7 (rsp) ofs 8
  DW_CFA_nop
  DW_CFA_nop
  DW_CFA_nop

00008dcc 000000000000001c 00008dd0 FDE cie=00000000 pc=000000000091cfd7..000000000091d087
  DW_CFA_advance_loc: 1 to 000000000091cfd8
  DW_CFA_def_cfa_offset: 16
  DW_CFA_offset: r6 (rbp) at cfa-16
  DW_CFA_advance_loc: 3 to 000000000091cfdb
  DW_CFA_def_cfa_register: r6 (rbp)
  DW_CFA_advance_loc1: 171 to 000000000091d086
  DW_CFA_def_cfa: r7 (rsp) ofs 8
  DW_CFA_nop
  DW_CFA_nop

00008dec 000000000000001c 00008df0 FDE cie=00000000 pc=000000000091d087..000000000091d0e0
  DW_CFA_advance_loc: 1 to 000000000091d088
  DW_CFA_def_cfa_offset: 16
  DW_CFA_offset: r6 (rbp) at cfa-16
  DW_CFA_advance_loc: 3 to 000000000091d08b
  DW_CFA_def_cfa_register: r6 (rbp)
  DW_CFA_advance_loc1: 84 to 000000000091d0df
  DW_CFA_def_cfa: r7 (rsp) ofs 8
  DW_CFA_nop
  DW_CFA_nop

00008e0c 000000000000001c 00008e10 FDE cie=00000000 pc=000000000091d0e0..000000000091d123
  DW_CFA_advance_loc: 1 to 000000000091d0e1
  DW_CFA_def_cfa_offset: 16
  DW_CFA_offset: r6 (rbp) at cfa-16
  DW_CFA_advance_loc: 3 to 000000000091d0e4
  DW_CFA_def_cfa_register: r6 (rbp)
  DW_CFA_advance_loc: 62 to 000000000091d122
  DW_CFA_def_cfa: r7 (rsp) ofs 8
  DW_CFA_nop
  DW_CFA_nop
  DW_CFA_nop

00008e2c 000000000000001c 00008e30 FDE cie=00000000 pc=000000000091d123..000000000091d222
  DW_CFA_advance_loc: 1 to 000000000091d124
  DW_CFA_def_cfa_offset: 16
  DW_CFA_offset: r6 (rbp) at cfa-16
  DW_CFA_advance_loc: 3 to 000000000091d127
  DW_CFA_def_cfa_register: r6 (rbp)
  DW_CFA_advance_loc1: 250 to 000000000091d221
  DW_CFA_def_cfa: r7 (rsp) ofs 8
  DW_CFA_nop
  DW_CFA_nop

00008e4c 000000000000001c 00008e50 FDE cie=00000000 pc=000000000091d222..000000000091d40f
  DW_CFA_advance_loc: 1 to 000000000091d223
  DW_CFA_def_cfa_offset: 16
  DW_CFA_offset: r6 (rbp) at cfa-16
  DW_CFA_advance_loc: 3 to 000000000091d226
  DW_CFA_def_cfa_register: r6 (rbp)
  DW_CFA_advance_loc2: 488 to 000000000091d40e
  DW_CFA_def_cfa: r7 (rsp) ofs 8
  DW_CFA_nop

00008e6c 000000000000001c 00008e70 FDE cie=00000000 pc=000000000091d40f..000000000091d5de
  DW_CFA_advance_loc: 1 to 000000000091d410
  DW_CFA_def_cfa_offset: 16
  DW_CFA_offset: r6 (rbp) at cfa-16
  DW_CFA_advance_loc: 3 to 000000000091d413
  DW_CFA_def_cfa_register: r6 (rbp)
  DW_CFA_advance_loc2: 458 to 000000000091d5dd
  DW_CFA_def_cfa: r7 (rsp) ofs 8
  DW_CFA_nop

00008e8c 000000000000001c 00008e90 FDE cie=00000000 pc=000000000091d5de..000000000091d77e
  DW_CFA_advance_loc: 1 to 000000000091d5df
  DW_CFA_def_cfa_offset: 16
  DW_CFA_offset: r6 (rbp) at cfa-16
  DW_CFA_advance_loc: 3 to 000000000091d5e2
  DW_CFA_def_cfa_register: r6 (rbp)
  DW_CFA_advance_loc2: 411 to 000000000091d77d
  DW_CFA_def_cfa: r7 (rsp) ofs 8
  DW_CFA_nop

00008eac 0000000000000020 00008eb0 FDE cie=00000000 pc=000000000091d77e..000000000091d9fd
  DW_CFA_advance_loc: 1 to 000000000091d77f
  DW_CFA_def_cfa_offset: 16
  DW_CFA_offset: r6 (rbp) at cfa-16
  DW_CFA_advance_loc: 3 to 000000000091d782
  DW_CFA_def_cfa_register: r6 (rbp)
  DW_CFA_advance_loc: 5 to 000000000091d787
  DW_CFA_offset: r3 (rbx) at cfa-24
  DW_CFA_advance_loc2: 629 to 000000000091d9fc
  DW_CFA_def_cfa: r7 (rsp) ofs 8
  DW_CFA_nop
  DW_CFA_nop

00008ed0 000000000000001c 00008ed4 FDE cie=00000000 pc=000000000091d9fd..000000000091dbe2
  DW_CFA_advance_loc: 1 to 000000000091d9fe
  DW_CFA_def_cfa_offset: 16
  DW_CFA_offset: r6 (rbp) at cfa-16
  DW_CFA_advance_loc: 3 to 000000000091da01
  DW_CFA_def_cfa_register: r6 (rbp)
  DW_CFA_advance_loc2: 480 to 000000000091dbe1
  DW_CFA_def_cfa: r7 (rsp) ofs 8
  DW_CFA_nop

00008ef0 000000000000001c 00008ef4 FDE cie=00000000 pc=000000000091dbe2..000000000091ddb0
  DW_CFA_advance_loc: 1 to 000000000091dbe3
  DW_CFA_def_cfa_offset: 16
  DW_CFA_offset: r6 (rbp) at cfa-16
  DW_CFA_advance_loc: 3 to 000000000091dbe6
  DW_CFA_def_cfa_register: r6 (rbp)
  DW_CFA_advance_loc2: 457 to 000000000091ddaf
  DW_CFA_def_cfa: r7 (rsp) ofs 8
  DW_CFA_nop

00008f10 000000000000001c 00008f14 FDE cie=00000000 pc=000000000091ddb0..000000000091de1c
  DW_CFA_advance_loc: 1 to 000000000091ddb1
  DW_CFA_def_cfa_offset: 16
  DW_CFA_offset: r6 (rbp) at cfa-16
  DW_CFA_advance_loc: 3 to 000000000091ddb4
  DW_CFA_def_cfa_register: r6 (rbp)
  DW_CFA_advance_loc1: 103 to 000000000091de1b
  DW_CFA_def_cfa: r7 (rsp) ofs 8
  DW_CFA_nop
  DW_CFA_nop

00008f30 000000000000001c 00008f34 FDE cie=00000000 pc=000000000091de1c..000000000091de71
  DW_CFA_advance_loc: 1 to 000000000091de1d
  DW_CFA_def_cfa_offset: 16
  DW_CFA_offset: r6 (rbp) at cfa-16
  DW_CFA_advance_loc: 3 to 000000000091de20
  DW_CFA_def_cfa_register: r6 (rbp)
  DW_CFA_advance_loc1: 80 to 000000000091de70
  DW_CFA_def_cfa: r7 (rsp) ofs 8
  DW_CFA_nop
  DW_CFA_nop

00008f50 000000000000001c 00008f54 FDE cie=00000000 pc=000000000091de71..000000000091de80
  DW_CFA_advance_loc: 1 to 000000000091de72
  DW_CFA_def_cfa_offset: 16
  DW_CFA_offset: r6 (rbp) at cfa-16
  DW_CFA_advance_loc: 3 to 000000000091de75
  DW_CFA_def_cfa_register: r6 (rbp)
  DW_CFA_advance_loc: 10 to 000000000091de7f
  DW_CFA_def_cfa: r7 (rsp) ofs 8
  DW_CFA_nop
  DW_CFA_nop
  DW_CFA_nop

00008f70 000000000000001c 00008f74 FDE cie=00000000 pc=000000000091de80..000000000091dea1
  DW_CFA_advance_loc: 1 to 000000000091de81
  DW_CFA_def_cfa_offset: 16
  DW_CFA_offset: r6 (rbp) at cfa-16
  DW_CFA_advance_loc: 3 to 000000000091de84
  DW_CFA_def_cfa_register: r6 (rbp)
  DW_CFA_advance_loc: 28 to 000000000091dea0
  DW_CFA_def_cfa: r7 (rsp) ofs 8
  DW_CFA_nop
  DW_CFA_nop
  DW_CFA_nop

00008f90 000000000000001c 00008f94 FDE cie=00000000 pc=000000000091dea1..000000000091deac
  DW_CFA_advance_loc: 1 to 000000000091dea2
  DW_CFA_def_cfa_offset: 16
  DW_CFA_offset: r6 (rbp) at cfa-16
  DW_CFA_advance_loc: 3 to 000000000091dea5
  DW_CFA_def_cfa_register: r6 (rbp)
  DW_CFA_advance_loc: 6 to 000000000091deab
  DW_CFA_def_cfa: r7 (rsp) ofs 8
  DW_CFA_nop
  DW_CFA_nop
  DW_CFA_nop

00008fb0 000000000000001c 00008fb4 FDE cie=00000000 pc=000000000091deac..000000000091deb7
  DW_CFA_advance_loc: 1 to 000000000091dead
  DW_CFA_def_cfa_offset: 16
  DW_CFA_offset: r6 (rbp) at cfa-16
  DW_CFA_advance_loc: 3 to 000000000091deb0
  DW_CFA_def_cfa_register: r6 (rbp)
  DW_CFA_advance_loc: 6 to 000000000091deb6
  DW_CFA_def_cfa: r7 (rsp) ofs 8
  DW_CFA_nop
  DW_CFA_nop
  DW_CFA_nop

00008fd0 000000000000001c 00008fd4 FDE cie=00000000 pc=000000000091deb7..000000000091dfb6
  DW_CFA_advance_loc: 1 to 000000000091deb8
  DW_CFA_def_cfa_offset: 16
  DW_CFA_offset: r6 (rbp) at cfa-16
  DW_CFA_advance_loc: 3 to 000000000091debb
  DW_CFA_def_cfa_register: r6 (rbp)
  DW_CFA_advance_loc1: 250 to 000000000091dfb5
  DW_CFA_def_cfa: r7 (rsp) ofs 8
  DW_CFA_nop
  DW_CFA_nop

00008ff0 0000000000000020 00008ff4 FDE cie=00000000 pc=000000000091dfb6..000000000091eba6
  DW_CFA_advance_loc: 1 to 000000000091dfb7
  DW_CFA_def_cfa_offset: 16
  DW_CFA_offset: r6 (rbp) at cfa-16
  DW_CFA_advance_loc: 3 to 000000000091dfba
  DW_CFA_def_cfa_register: r6 (rbp)
  DW_CFA_advance_loc: 5 to 000000000091dfbf
  DW_CFA_offset: r3 (rbx) at cfa-24
  DW_CFA_advance_loc2: 3046 to 000000000091eba5
  DW_CFA_def_cfa: r7 (rsp) ofs 8
  DW_CFA_nop
  DW_CFA_nop

00009014 000000000000001c 00009018 FDE cie=00000000 pc=000000000091eba6..000000000091ebbc
  DW_CFA_advance_loc: 1 to 000000000091eba7
  DW_CFA_def_cfa_offset: 16
  DW_CFA_offset: r6 (rbp) at cfa-16
  DW_CFA_advance_loc: 3 to 000000000091ebaa
  DW_CFA_def_cfa_register: r6 (rbp)
  DW_CFA_advance_loc: 17 to 000000000091ebbb
  DW_CFA_def_cfa: r7 (rsp) ofs 8
  DW_CFA_nop
  DW_CFA_nop
  DW_CFA_nop

00009034 000000000000001c 00009038 FDE cie=00000000 pc=000000000091ebbc..000000000091ebd2
  DW_CFA_advance_loc: 1 to 000000000091ebbd
  DW_CFA_def_cfa_offset: 16
  DW_CFA_offset: r6 (rbp) at cfa-16
  DW_CFA_advance_loc: 3 to 000000000091ebc0
  DW_CFA_def_cfa_register: r6 (rbp)
  DW_CFA_advance_loc: 17 to 000000000091ebd1
  DW_CFA_def_cfa: r7 (rsp) ofs 8
  DW_CFA_nop
  DW_CFA_nop
  DW_CFA_nop

00009054 0000000000000020 00009058 FDE cie=00000000 pc=000000000091ebd2..000000000091f00b
  DW_CFA_advance_loc: 1 to 000000000091ebd3
  DW_CFA_def_cfa_offset: 16
  DW_CFA_offset: r6 (rbp) at cfa-16
  DW_CFA_advance_loc: 3 to 000000000091ebd6
  DW_CFA_def_cfa_register: r6 (rbp)
  DW_CFA_advance_loc: 5 to 000000000091ebdb
  DW_CFA_offset: r3 (rbx) at cfa-24
  DW_CFA_advance_loc2: 1071 to 000000000091f00a
  DW_CFA_def_cfa: r7 (rsp) ofs 8
  DW_CFA_nop
  DW_CFA_nop

00009078 0000000000000020 0000907c FDE cie=00000000 pc=000000000091f00b..000000000091f22d
  DW_CFA_advance_loc: 1 to 000000000091f00c
  DW_CFA_def_cfa_offset: 16
  DW_CFA_offset: r6 (rbp) at cfa-16
  DW_CFA_advance_loc: 3 to 000000000091f00f
  DW_CFA_def_cfa_register: r6 (rbp)
  DW_CFA_advance_loc: 5 to 000000000091f014
  DW_CFA_offset: r3 (rbx) at cfa-24
  DW_CFA_advance_loc2: 536 to 000000000091f22c
  DW_CFA_def_cfa: r7 (rsp) ofs 8
  DW_CFA_nop
  DW_CFA_nop

0000909c 000000000000001c 000090a0 FDE cie=00000000 pc=000000000091f22d..000000000091f3ee
  DW_CFA_advance_loc: 1 to 000000000091f22e
  DW_CFA_def_cfa_offset: 16
  DW_CFA_offset: r6 (rbp) at cfa-16
  DW_CFA_advance_loc: 3 to 000000000091f231
  DW_CFA_def_cfa_register: r6 (rbp)
  DW_CFA_advance_loc2: 444 to 000000000091f3ed
  DW_CFA_def_cfa: r7 (rsp) ofs 8
  DW_CFA_nop

000090bc 000000000000001c 000090c0 FDE cie=00000000 pc=000000000091f3ee..000000000091f5ac
  DW_CFA_advance_loc: 1 to 000000000091f3ef
  DW_CFA_def_cfa_offset: 16
  DW_CFA_offset: r6 (rbp) at cfa-16
  DW_CFA_advance_loc: 3 to 000000000091f3f2
  DW_CFA_def_cfa_register: r6 (rbp)
  DW_CFA_advance_loc2: 441 to 000000000091f5ab
  DW_CFA_def_cfa: r7 (rsp) ofs 8
  DW_CFA_nop

000090dc 000000000000001c 000090e0 FDE cie=00000000 pc=000000000091f5ac..00000000009294d0
  DW_CFA_advance_loc: 1 to 000000000091f5ad
  DW_CFA_def_cfa_offset: 16
  DW_CFA_offset: r6 (rbp) at cfa-16
  DW_CFA_advance_loc: 3 to 000000000091f5b0
  DW_CFA_def_cfa_register: r6 (rbp)
  DW_CFA_advance_loc2: 40735 to 00000000009294cf
  DW_CFA_def_cfa: r7 (rsp) ofs 8
  DW_CFA_nop

000090fc 000000000000001c 00009100 FDE cie=00000000 pc=00000000009294d0..00000000009296d5
  DW_CFA_advance_loc: 1 to 00000000009294d1
  DW_CFA_def_cfa_offset: 16
  DW_CFA_offset: r6 (rbp) at cfa-16
  DW_CFA_advance_loc: 3 to 00000000009294d4
  DW_CFA_def_cfa_register: r6 (rbp)
  DW_CFA_advance_loc2: 512 to 00000000009296d4
  DW_CFA_def_cfa: r7 (rsp) ofs 8
  DW_CFA_nop

0000911c 000000000000001c 00009120 FDE cie=00000000 pc=00000000009296d5..00000000009298d4
  DW_CFA_advance_loc: 1 to 00000000009296d6
  DW_CFA_def_cfa_offset: 16
  DW_CFA_offset: r6 (rbp) at cfa-16
  DW_CFA_advance_loc: 3 to 00000000009296d9
  DW_CFA_def_cfa_register: r6 (rbp)
  DW_CFA_advance_loc2: 506 to 00000000009298d3
  DW_CFA_def_cfa: r7 (rsp) ofs 8
  DW_CFA_nop

0000913c 000000000000001c 00009140 FDE cie=00000000 pc=00000000009298d4..00000000009299d5
  DW_CFA_advance_loc: 1 to 00000000009298d5
  DW_CFA_def_cfa_offset: 16
  DW_CFA_offset: r6 (rbp) at cfa-16
  DW_CFA_advance_loc: 3 to 00000000009298d8
  DW_CFA_def_cfa_register: r6 (rbp)
  DW_CFA_advance_loc1: 252 to 00000000009299d4
  DW_CFA_def_cfa: r7 (rsp) ofs 8
  DW_CFA_nop
  DW_CFA_nop

0000915c 000000000000001c 00009160 FDE cie=00000000 pc=00000000009299d5..0000000000929ad6
  DW_CFA_advance_loc: 1 to 00000000009299d6
  DW_CFA_def_cfa_offset: 16
  DW_CFA_offset: r6 (rbp) at cfa-16
  DW_CFA_advance_loc: 3 to 00000000009299d9
  DW_CFA_def_cfa_register: r6 (rbp)
  DW_CFA_advance_loc1: 252 to 0000000000929ad5
  DW_CFA_def_cfa: r7 (rsp) ofs 8
  DW_CFA_nop
  DW_CFA_nop

0000917c 000000000000001c 00009180 FDE cie=00000000 pc=0000000000929ad6..0000000000929af3
  DW_CFA_advance_loc: 1 to 0000000000929ad7
  DW_CFA_def_cfa_offset: 16
  DW_CFA_offset: r6 (rbp) at cfa-16
  DW_CFA_advance_loc: 3 to 0000000000929ada
  DW_CFA_def_cfa_register: r6 (rbp)
  DW_CFA_advance_loc: 24 to 0000000000929af2
  DW_CFA_def_cfa: r7 (rsp) ofs 8
  DW_CFA_nop
  DW_CFA_nop
  DW_CFA_nop

0000919c 000000000000001c 000091a0 FDE cie=00000000 pc=0000000000929af3..0000000000929b39
  DW_CFA_advance_loc: 1 to 0000000000929af4
  DW_CFA_def_cfa_offset: 16
  DW_CFA_offset: r6 (rbp) at cfa-16
  DW_CFA_advance_loc: 3 to 0000000000929af7
  DW_CFA_def_cfa_register: r6 (rbp)
  DW_CFA_advance_loc1: 65 to 0000000000929b38
  DW_CFA_def_cfa: r7 (rsp) ofs 8
  DW_CFA_nop
  DW_CFA_nop

000091bc 000000000000001c 000091c0 FDE cie=00000000 pc=0000000000929b39..0000000000929b65
  DW_CFA_advance_loc: 1 to 0000000000929b3a
  DW_CFA_def_cfa_offset: 16
  DW_CFA_offset: r6 (rbp) at cfa-16
  DW_CFA_advance_loc: 3 to 0000000000929b3d
  DW_CFA_def_cfa_register: r6 (rbp)
  DW_CFA_advance_loc: 39 to 0000000000929b64
  DW_CFA_def_cfa: r7 (rsp) ofs 8
  DW_CFA_nop
  DW_CFA_nop
  DW_CFA_nop

000091dc 000000000000001c 000091e0 FDE cie=00000000 pc=0000000000929b65..0000000000929b85
  DW_CFA_advance_loc: 1 to 0000000000929b66
  DW_CFA_def_cfa_offset: 16
  DW_CFA_offset: r6 (rbp) at cfa-16
  DW_CFA_advance_loc: 3 to 0000000000929b69
  DW_CFA_def_cfa_register: r6 (rbp)
  DW_CFA_advance_loc: 27 to 0000000000929b84
  DW_CFA_def_cfa: r7 (rsp) ofs 8
  DW_CFA_nop
  DW_CFA_nop
  DW_CFA_nop

000091fc 000000000000001c 00009200 FDE cie=00000000 pc=0000000000929b85..0000000000929b93
  DW_CFA_advance_loc: 1 to 0000000000929b86
  DW_CFA_def_cfa_offset: 16
  DW_CFA_offset: r6 (rbp) at cfa-16
  DW_CFA_advance_loc: 3 to 0000000000929b89
  DW_CFA_def_cfa_register: r6 (rbp)
  DW_CFA_advance_loc: 9 to 0000000000929b92
  DW_CFA_def_cfa: r7 (rsp) ofs 8
  DW_CFA_nop
  DW_CFA_nop
  DW_CFA_nop

0000921c 000000000000001c 00009220 FDE cie=00000000 pc=0000000000929b93..0000000000929c36
  DW_CFA_advance_loc: 1 to 0000000000929b94
  DW_CFA_def_cfa_offset: 16
  DW_CFA_offset: r6 (rbp) at cfa-16
  DW_CFA_advance_loc: 3 to 0000000000929b97
  DW_CFA_def_cfa_register: r6 (rbp)
  DW_CFA_advance_loc1: 158 to 0000000000929c35
  DW_CFA_def_cfa: r7 (rsp) ofs 8
  DW_CFA_nop
  DW_CFA_nop

0000923c 000000000000001c 00009240 FDE cie=00000000 pc=0000000000929c36..0000000000929ccc
  DW_CFA_advance_loc: 1 to 0000000000929c37
  DW_CFA_def_cfa_offset: 16
  DW_CFA_offset: r6 (rbp) at cfa-16
  DW_CFA_advance_loc: 3 to 0000000000929c3a
  DW_CFA_def_cfa_register: r6 (rbp)
  DW_CFA_advance_loc1: 145 to 0000000000929ccb
  DW_CFA_def_cfa: r7 (rsp) ofs 8
  DW_CFA_nop
  DW_CFA_nop

0000925c 0000000000000020 00009260 FDE cie=00000000 pc=0000000000929ccc..0000000000929de3
  DW_CFA_advance_loc: 1 to 0000000000929ccd
  DW_CFA_def_cfa_offset: 16
  DW_CFA_offset: r6 (rbp) at cfa-16
  DW_CFA_advance_loc: 3 to 0000000000929cd0
  DW_CFA_def_cfa_register: r6 (rbp)
  DW_CFA_advance_loc: 5 to 0000000000929cd5
  DW_CFA_offset: r3 (rbx) at cfa-24
  DW_CFA_advance_loc2: 269 to 0000000000929de2
  DW_CFA_def_cfa: r7 (rsp) ofs 8
  DW_CFA_nop
  DW_CFA_nop

00009280 0000000000000020 00009284 FDE cie=00000000 pc=0000000000929de3..0000000000929fdf
  DW_CFA_advance_loc: 1 to 0000000000929de4
  DW_CFA_def_cfa_offset: 16
  DW_CFA_offset: r6 (rbp) at cfa-16
  DW_CFA_advance_loc: 3 to 0000000000929de7
  DW_CFA_def_cfa_register: r6 (rbp)
  DW_CFA_advance_loc: 5 to 0000000000929dec
  DW_CFA_offset: r3 (rbx) at cfa-24
  DW_CFA_advance_loc2: 498 to 0000000000929fde
  DW_CFA_def_cfa: r7 (rsp) ofs 8
  DW_CFA_nop
  DW_CFA_nop

000092a4 0000000000000020 000092a8 FDE cie=00000000 pc=0000000000929fdf..000000000092a2f0
  DW_CFA_advance_loc: 1 to 0000000000929fe0
  DW_CFA_def_cfa_offset: 16
  DW_CFA_offset: r6 (rbp) at cfa-16
  DW_CFA_advance_loc: 3 to 0000000000929fe3
  DW_CFA_def_cfa_register: r6 (rbp)
  DW_CFA_advance_loc: 5 to 0000000000929fe8
  DW_CFA_offset: r3 (rbx) at cfa-24
  DW_CFA_advance_loc2: 775 to 000000000092a2ef
  DW_CFA_def_cfa: r7 (rsp) ofs 8
  DW_CFA_nop
  DW_CFA_nop

000092c8 000000000000001c 000092cc FDE cie=00000000 pc=000000000092a2f0..000000000092a346
  DW_CFA_advance_loc: 1 to 000000000092a2f1
  DW_CFA_def_cfa_offset: 16
  DW_CFA_offset: r6 (rbp) at cfa-16
  DW_CFA_advance_loc: 3 to 000000000092a2f4
  DW_CFA_def_cfa_register: r6 (rbp)
  DW_CFA_advance_loc1: 81 to 000000000092a345
  DW_CFA_def_cfa: r7 (rsp) ofs 8
  DW_CFA_nop
  DW_CFA_nop

000092e8 000000000000001c 000092ec FDE cie=00000000 pc=000000000092a346..000000000092a427
  DW_CFA_advance_loc: 1 to 000000000092a347
  DW_CFA_def_cfa_offset: 16
  DW_CFA_offset: r6 (rbp) at cfa-16
  DW_CFA_advance_loc: 3 to 000000000092a34a
  DW_CFA_def_cfa_register: r6 (rbp)
  DW_CFA_advance_loc1: 220 to 000000000092a426
  DW_CFA_def_cfa: r7 (rsp) ofs 8
  DW_CFA_nop
  DW_CFA_nop

00009308 000000000000001c 0000930c FDE cie=00000000 pc=000000000092a427..000000000092a4cb
  DW_CFA_advance_loc: 1 to 000000000092a428
  DW_CFA_def_cfa_offset: 16
  DW_CFA_offset: r6 (rbp) at cfa-16
  DW_CFA_advance_loc: 3 to 000000000092a42b
  DW_CFA_def_cfa_register: r6 (rbp)
  DW_CFA_advance_loc1: 159 to 000000000092a4ca
  DW_CFA_def_cfa: r7 (rsp) ofs 8
  DW_CFA_nop
  DW_CFA_nop

00009328 000000000000001c 0000932c FDE cie=00000000 pc=000000000092a4cb..000000000092a596
  DW_CFA_advance_loc: 1 to 000000000092a4cc
  DW_CFA_def_cfa_offset: 16
  DW_CFA_offset: r6 (rbp) at cfa-16
  DW_CFA_advance_loc: 3 to 000000000092a4cf
  DW_CFA_def_cfa_register: r6 (rbp)
  DW_CFA_advance_loc1: 198 to 000000000092a595
  DW_CFA_def_cfa: r7 (rsp) ofs 8
  DW_CFA_nop
  DW_CFA_nop

00009348 000000000000001c 0000934c FDE cie=00000000 pc=000000000092a596..000000000092a5d0
  DW_CFA_advance_loc: 1 to 000000000092a597
  DW_CFA_def_cfa_offset: 16
  DW_CFA_offset: r6 (rbp) at cfa-16
  DW_CFA_advance_loc: 3 to 000000000092a59a
  DW_CFA_def_cfa_register: r6 (rbp)
  DW_CFA_advance_loc: 53 to 000000000092a5cf
  DW_CFA_def_cfa: r7 (rsp) ofs 8
  DW_CFA_nop
  DW_CFA_nop
  DW_CFA_nop

00009368 000000000000001c 0000936c FDE cie=00000000 pc=000000000092a5d0..000000000092a601
  DW_CFA_advance_loc: 1 to 000000000092a5d1
  DW_CFA_def_cfa_offset: 16
  DW_CFA_offset: r6 (rbp) at cfa-16
  DW_CFA_advance_loc: 3 to 000000000092a5d4
  DW_CFA_def_cfa_register: r6 (rbp)
  DW_CFA_advance_loc: 44 to 000000000092a600
  DW_CFA_def_cfa: r7 (rsp) ofs 8
  DW_CFA_nop
  DW_CFA_nop
  DW_CFA_nop

00009388 000000000000001c 0000938c FDE cie=00000000 pc=000000000092a601..000000000092a63c
  DW_CFA_advance_loc: 1 to 000000000092a602
  DW_CFA_def_cfa_offset: 16
  DW_CFA_offset: r6 (rbp) at cfa-16
  DW_CFA_advance_loc: 3 to 000000000092a605
  DW_CFA_def_cfa_register: r6 (rbp)
  DW_CFA_advance_loc: 54 to 000000000092a63b
  DW_CFA_def_cfa: r7 (rsp) ofs 8
  DW_CFA_nop
  DW_CFA_nop
  DW_CFA_nop

000093a8 000000000000001c 000093ac FDE cie=00000000 pc=000000000092a63c..000000000092a66e
  DW_CFA_advance_loc: 1 to 000000000092a63d
  DW_CFA_def_cfa_offset: 16
  DW_CFA_offset: r6 (rbp) at cfa-16
  DW_CFA_advance_loc: 3 to 000000000092a640
  DW_CFA_def_cfa_register: r6 (rbp)
  DW_CFA_advance_loc: 45 to 000000000092a66d
  DW_CFA_def_cfa: r7 (rsp) ofs 8
  DW_CFA_nop
  DW_CFA_nop
  DW_CFA_nop

000093c8 000000000000001c 000093cc FDE cie=00000000 pc=000000000092a66e..000000000092a6a6
  DW_CFA_advance_loc: 1 to 000000000092a66f
  DW_CFA_def_cfa_offset: 16
  DW_CFA_offset: r6 (rbp) at cfa-16
  DW_CFA_advance_loc: 3 to 000000000092a672
  DW_CFA_def_cfa_register: r6 (rbp)
  DW_CFA_advance_loc: 51 to 000000000092a6a5
  DW_CFA_def_cfa: r7 (rsp) ofs 8
  DW_CFA_nop
  DW_CFA_nop
  DW_CFA_nop

000093e8 000000000000001c 000093ec FDE cie=00000000 pc=000000000092a6a6..000000000092a6d5
  DW_CFA_advance_loc: 1 to 000000000092a6a7
  DW_CFA_def_cfa_offset: 16
  DW_CFA_offset: r6 (rbp) at cfa-16
  DW_CFA_advance_loc: 3 to 000000000092a6aa
  DW_CFA_def_cfa_register: r6 (rbp)
  DW_CFA_advance_loc: 42 to 000000000092a6d4
  DW_CFA_def_cfa: r7 (rsp) ofs 8
  DW_CFA_nop
  DW_CFA_nop
  DW_CFA_nop

00009408 000000000000001c 0000940c FDE cie=00000000 pc=000000000092a6d5..000000000092a70e
  DW_CFA_advance_loc: 1 to 000000000092a6d6
  DW_CFA_def_cfa_offset: 16
  DW_CFA_offset: r6 (rbp) at cfa-16
  DW_CFA_advance_loc: 3 to 000000000092a6d9
  DW_CFA_def_cfa_register: r6 (rbp)
  DW_CFA_advance_loc: 52 to 000000000092a70d
  DW_CFA_def_cfa: r7 (rsp) ofs 8
  DW_CFA_nop
  DW_CFA_nop
  DW_CFA_nop

00009428 000000000000001c 0000942c FDE cie=00000000 pc=000000000092a70e..000000000092a73e
  DW_CFA_advance_loc: 1 to 000000000092a70f
  DW_CFA_def_cfa_offset: 16
  DW_CFA_offset: r6 (rbp) at cfa-16
  DW_CFA_advance_loc: 3 to 000000000092a712
  DW_CFA_def_cfa_register: r6 (rbp)
  DW_CFA_advance_loc: 43 to 000000000092a73d
  DW_CFA_def_cfa: r7 (rsp) ofs 8
  DW_CFA_nop
  DW_CFA_nop
  DW_CFA_nop

00009448 000000000000001c 0000944c FDE cie=00000000 pc=000000000092a73e..000000000092a778
  DW_CFA_advance_loc: 1 to 000000000092a73f
  DW_CFA_def_cfa_offset: 16
  DW_CFA_offset: r6 (rbp) at cfa-16
  DW_CFA_advance_loc: 3 to 000000000092a742
  DW_CFA_def_cfa_register: r6 (rbp)
  DW_CFA_advance_loc: 53 to 000000000092a777
  DW_CFA_def_cfa: r7 (rsp) ofs 8
  DW_CFA_nop
  DW_CFA_nop
  DW_CFA_nop

00009468 000000000000001c 0000946c FDE cie=00000000 pc=000000000092a778..000000000092a7a9
  DW_CFA_advance_loc: 1 to 000000000092a779
  DW_CFA_def_cfa_offset: 16
  DW_CFA_offset: r6 (rbp) at cfa-16
  DW_CFA_advance_loc: 3 to 000000000092a77c
  DW_CFA_def_cfa_register: r6 (rbp)
  DW_CFA_advance_loc: 44 to 000000000092a7a8
  DW_CFA_def_cfa: r7 (rsp) ofs 8
  DW_CFA_nop
  DW_CFA_nop
  DW_CFA_nop

00009488 000000000000001c 0000948c FDE cie=00000000 pc=000000000092a7a9..000000000092a7e3
  DW_CFA_advance_loc: 1 to 000000000092a7aa
  DW_CFA_def_cfa_offset: 16
  DW_CFA_offset: r6 (rbp) at cfa-16
  DW_CFA_advance_loc: 3 to 000000000092a7ad
  DW_CFA_def_cfa_register: r6 (rbp)
  DW_CFA_advance_loc: 53 to 000000000092a7e2
  DW_CFA_def_cfa: r7 (rsp) ofs 8
  DW_CFA_nop
  DW_CFA_nop
  DW_CFA_nop

000094a8 000000000000001c 000094ac FDE cie=00000000 pc=000000000092a7e3..000000000092a814
  DW_CFA_advance_loc: 1 to 000000000092a7e4
  DW_CFA_def_cfa_offset: 16
  DW_CFA_offset: r6 (rbp) at cfa-16
  DW_CFA_advance_loc: 3 to 000000000092a7e7
  DW_CFA_def_cfa_register: r6 (rbp)
  DW_CFA_advance_loc: 44 to 000000000092a813
  DW_CFA_def_cfa: r7 (rsp) ofs 8
  DW_CFA_nop
  DW_CFA_nop
  DW_CFA_nop

000094c8 000000000000001c 000094cc FDE cie=00000000 pc=000000000092a814..000000000092a858
  DW_CFA_advance_loc: 1 to 000000000092a815
  DW_CFA_def_cfa_offset: 16
  DW_CFA_offset: r6 (rbp) at cfa-16
  DW_CFA_advance_loc: 3 to 000000000092a818
  DW_CFA_def_cfa_register: r6 (rbp)
  DW_CFA_advance_loc: 63 to 000000000092a857
  DW_CFA_def_cfa: r7 (rsp) ofs 8
  DW_CFA_nop
  DW_CFA_nop
  DW_CFA_nop

000094e8 000000000000001c 000094ec FDE cie=00000000 pc=000000000092a858..000000000092a893
  DW_CFA_advance_loc: 1 to 000000000092a859
  DW_CFA_def_cfa_offset: 16
  DW_CFA_offset: r6 (rbp) at cfa-16
  DW_CFA_advance_loc: 3 to 000000000092a85c
  DW_CFA_def_cfa_register: r6 (rbp)
  DW_CFA_advance_loc: 54 to 000000000092a892
  DW_CFA_def_cfa: r7 (rsp) ofs 8
  DW_CFA_nop
  DW_CFA_nop
  DW_CFA_nop

00009508 000000000000001c 0000950c FDE cie=00000000 pc=000000000092a893..000000000092a8cc
  DW_CFA_advance_loc: 1 to 000000000092a894
  DW_CFA_def_cfa_offset: 16
  DW_CFA_offset: r6 (rbp) at cfa-16
  DW_CFA_advance_loc: 3 to 000000000092a897
  DW_CFA_def_cfa_register: r6 (rbp)
  DW_CFA_advance_loc: 52 to 000000000092a8cb
  DW_CFA_def_cfa: r7 (rsp) ofs 8
  DW_CFA_nop
  DW_CFA_nop
  DW_CFA_nop

00009528 000000000000001c 0000952c FDE cie=00000000 pc=000000000092a8cc..000000000092a8fc
  DW_CFA_advance_loc: 1 to 000000000092a8cd
  DW_CFA_def_cfa_offset: 16
  DW_CFA_offset: r6 (rbp) at cfa-16
  DW_CFA_advance_loc: 3 to 000000000092a8d0
  DW_CFA_def_cfa_register: r6 (rbp)
  DW_CFA_advance_loc: 43 to 000000000092a8fb
  DW_CFA_def_cfa: r7 (rsp) ofs 8
  DW_CFA_nop
  DW_CFA_nop
  DW_CFA_nop

00009548 000000000000001c 0000954c FDE cie=00000000 pc=000000000092a8fc..000000000092ab65
  DW_CFA_advance_loc: 1 to 000000000092a8fd
  DW_CFA_def_cfa_offset: 16
  DW_CFA_offset: r6 (rbp) at cfa-16
  DW_CFA_advance_loc: 3 to 000000000092a900
  DW_CFA_def_cfa_register: r6 (rbp)
  DW_CFA_advance_loc2: 612 to 000000000092ab64
  DW_CFA_def_cfa: r7 (rsp) ofs 8
  DW_CFA_nop

00009568 0000000000000020 0000956c FDE cie=00000000 pc=000000000092ab65..000000000092ac2b
  DW_CFA_advance_loc: 1 to 000000000092ab66
  DW_CFA_def_cfa_offset: 16
  DW_CFA_offset: r6 (rbp) at cfa-16
  DW_CFA_advance_loc: 3 to 000000000092ab69
  DW_CFA_def_cfa_register: r6 (rbp)
  DW_CFA_advance_loc: 1 to 000000000092ab6a
  DW_CFA_offset: r3 (rbx) at cfa-24
  DW_CFA_advance_loc1: 192 to 000000000092ac2a
  DW_CFA_def_cfa: r7 (rsp) ofs 8
  DW_CFA_nop
  DW_CFA_nop
  DW_CFA_nop

0000958c 000000000000001c 00009590 FDE cie=00000000 pc=000000000092ac2b..000000000092ac51
  DW_CFA_advance_loc: 1 to 000000000092ac2c
  DW_CFA_def_cfa_offset: 16
  DW_CFA_offset: r6 (rbp) at cfa-16
  DW_CFA_advance_loc: 3 to 000000000092ac2f
  DW_CFA_def_cfa_register: r6 (rbp)
  DW_CFA_advance_loc: 33 to 000000000092ac50
  DW_CFA_def_cfa: r7 (rsp) ofs 8
  DW_CFA_nop
  DW_CFA_nop
  DW_CFA_nop

000095ac 000000000000001c 000095b0 FDE cie=00000000 pc=000000000092ac51..000000000092ac77
  DW_CFA_advance_loc: 1 to 000000000092ac52
  DW_CFA_def_cfa_offset: 16
  DW_CFA_offset: r6 (rbp) at cfa-16
  DW_CFA_advance_loc: 3 to 000000000092ac55
  DW_CFA_def_cfa_register: r6 (rbp)
  DW_CFA_advance_loc: 33 to 000000000092ac76
  DW_CFA_def_cfa: r7 (rsp) ofs 8
  DW_CFA_nop
  DW_CFA_nop
  DW_CFA_nop

000095cc 000000000000001c 000095d0 FDE cie=00000000 pc=000000000092ac77..000000000092ac9d
  DW_CFA_advance_loc: 1 to 000000000092ac78
  DW_CFA_def_cfa_offset: 16
  DW_CFA_offset: r6 (rbp) at cfa-16
  DW_CFA_advance_loc: 3 to 000000000092ac7b
  DW_CFA_def_cfa_register: r6 (rbp)
  DW_CFA_advance_loc: 33 to 000000000092ac9c
  DW_CFA_def_cfa: r7 (rsp) ofs 8
  DW_CFA_nop
  DW_CFA_nop
  DW_CFA_nop

000095ec 000000000000001c 000095f0 FDE cie=00000000 pc=000000000092ac9d..000000000092acc3
  DW_CFA_advance_loc: 1 to 000000000092ac9e
  DW_CFA_def_cfa_offset: 16
  DW_CFA_offset: r6 (rbp) at cfa-16
  DW_CFA_advance_loc: 3 to 000000000092aca1
  DW_CFA_def_cfa_register: r6 (rbp)
  DW_CFA_advance_loc: 33 to 000000000092acc2
  DW_CFA_def_cfa: r7 (rsp) ofs 8
  DW_CFA_nop
  DW_CFA_nop
  DW_CFA_nop

0000960c 000000000000001c 00009610 FDE cie=00000000 pc=000000000092acc3..000000000092ace9
  DW_CFA_advance_loc: 1 to 000000000092acc4
  DW_CFA_def_cfa_offset: 16
  DW_CFA_offset: r6 (rbp) at cfa-16
  DW_CFA_advance_loc: 3 to 000000000092acc7
  DW_CFA_def_cfa_register: r6 (rbp)
  DW_CFA_advance_loc: 33 to 000000000092ace8
  DW_CFA_def_cfa: r7 (rsp) ofs 8
  DW_CFA_nop
  DW_CFA_nop
  DW_CFA_nop

0000962c 000000000000001c 00009630 FDE cie=00000000 pc=000000000092ace9..000000000092ad0f
  DW_CFA_advance_loc: 1 to 000000000092acea
  DW_CFA_def_cfa_offset: 16
  DW_CFA_offset: r6 (rbp) at cfa-16
  DW_CFA_advance_loc: 3 to 000000000092aced
  DW_CFA_def_cfa_register: r6 (rbp)
  DW_CFA_advance_loc: 33 to 000000000092ad0e
  DW_CFA_def_cfa: r7 (rsp) ofs 8
  DW_CFA_nop
  DW_CFA_nop
  DW_CFA_nop

0000964c 000000000000001c 00009650 FDE cie=00000000 pc=000000000092ad0f..000000000092ad48
  DW_CFA_advance_loc: 1 to 000000000092ad10
  DW_CFA_def_cfa_offset: 16
  DW_CFA_offset: r6 (rbp) at cfa-16
  DW_CFA_advance_loc: 3 to 000000000092ad13
  DW_CFA_def_cfa_register: r6 (rbp)
  DW_CFA_advance_loc: 52 to 000000000092ad47
  DW_CFA_def_cfa: r7 (rsp) ofs 8
  DW_CFA_nop
  DW_CFA_nop
  DW_CFA_nop

0000966c 000000000000001c 00009670 FDE cie=00000000 pc=0000000000938257..0000000000938286
  DW_CFA_advance_loc: 1 to 0000000000938258
  DW_CFA_def_cfa_offset: 16
  DW_CFA_offset: r6 (rbp) at cfa-16
  DW_CFA_advance_loc: 3 to 000000000093825b
  DW_CFA_def_cfa_register: r6 (rbp)
  DW_CFA_advance_loc: 42 to 0000000000938285
  DW_CFA_def_cfa: r7 (rsp) ofs 8
  DW_CFA_nop
  DW_CFA_nop
  DW_CFA_nop

0000968c 000000000000001c 00009690 FDE cie=00000000 pc=000000000092ad48..000000000092ae2a
  DW_CFA_advance_loc: 1 to 000000000092ad49
  DW_CFA_def_cfa_offset: 16
  DW_CFA_offset: r6 (rbp) at cfa-16
  DW_CFA_advance_loc: 3 to 000000000092ad4c
  DW_CFA_def_cfa_register: r6 (rbp)
  DW_CFA_advance_loc1: 221 to 000000000092ae29
  DW_CFA_def_cfa: r7 (rsp) ofs 8
  DW_CFA_nop
  DW_CFA_nop

000096ac 000000000000001c 000096b0 FDE cie=00000000 pc=000000000092ae2a..000000000092af0c
  DW_CFA_advance_loc: 1 to 000000000092ae2b
  DW_CFA_def_cfa_offset: 16
  DW_CFA_offset: r6 (rbp) at cfa-16
  DW_CFA_advance_loc: 3 to 000000000092ae2e
  DW_CFA_def_cfa_register: r6 (rbp)
  DW_CFA_advance_loc1: 221 to 000000000092af0b
  DW_CFA_def_cfa: r7 (rsp) ofs 8
  DW_CFA_nop
  DW_CFA_nop

000096cc 000000000000001c 000096d0 FDE cie=00000000 pc=000000000092af0c..000000000092af4f
  DW_CFA_advance_loc: 1 to 000000000092af0d
  DW_CFA_def_cfa_offset: 16
  DW_CFA_offset: r6 (rbp) at cfa-16
  DW_CFA_advance_loc: 3 to 000000000092af10
  DW_CFA_def_cfa_register: r6 (rbp)
  DW_CFA_advance_loc: 62 to 000000000092af4e
  DW_CFA_def_cfa: r7 (rsp) ofs 8
  DW_CFA_nop
  DW_CFA_nop
  DW_CFA_nop

000096ec 000000000000001c 000096f0 FDE cie=00000000 pc=000000000092af4f..000000000092b041
  DW_CFA_advance_loc: 1 to 000000000092af50
  DW_CFA_def_cfa_offset: 16
  DW_CFA_offset: r6 (rbp) at cfa-16
  DW_CFA_advance_loc: 3 to 000000000092af53
  DW_CFA_def_cfa_register: r6 (rbp)
  DW_CFA_advance_loc1: 237 to 000000000092b040
  DW_CFA_def_cfa: r7 (rsp) ofs 8
  DW_CFA_nop
  DW_CFA_nop

0000970c 0000000000000020 00009710 FDE cie=00000000 pc=000000000092b041..000000000092b138
  DW_CFA_advance_loc: 1 to 000000000092b042
  DW_CFA_def_cfa_offset: 16
  DW_CFA_offset: r6 (rbp) at cfa-16
  DW_CFA_advance_loc: 3 to 000000000092b045
  DW_CFA_def_cfa_register: r6 (rbp)
  DW_CFA_advance_loc: 5 to 000000000092b04a
  DW_CFA_offset: r3 (rbx) at cfa-24
  DW_CFA_advance_loc1: 237 to 000000000092b137
  DW_CFA_def_cfa: r7 (rsp) ofs 8
  DW_CFA_nop
  DW_CFA_nop
  DW_CFA_nop

00009730 000000000000001c 00009734 FDE cie=00000000 pc=000000000092b138..000000000092b1db
  DW_CFA_advance_loc: 1 to 000000000092b139
  DW_CFA_def_cfa_offset: 16
  DW_CFA_offset: r6 (rbp) at cfa-16
  DW_CFA_advance_loc: 3 to 000000000092b13c
  DW_CFA_def_cfa_register: r6 (rbp)
  DW_CFA_advance_loc1: 158 to 000000000092b1da
  DW_CFA_def_cfa: r7 (rsp) ofs 8
  DW_CFA_nop
  DW_CFA_nop

00009750 000000000000001c 00009754 FDE cie=00000000 pc=000000000092b1db..000000000092b253
  DW_CFA_advance_loc: 1 to 000000000092b1dc
  DW_CFA_def_cfa_offset: 16
  DW_CFA_offset: r6 (rbp) at cfa-16
  DW_CFA_advance_loc: 3 to 000000000092b1df
  DW_CFA_def_cfa_register: r6 (rbp)
  DW_CFA_advance_loc1: 115 to 000000000092b252
  DW_CFA_def_cfa: r7 (rsp) ofs 8
  DW_CFA_nop
  DW_CFA_nop

00009770 000000000000001c 00009774 FDE cie=00000000 pc=000000000092b253..000000000092b2cb
  DW_CFA_advance_loc: 1 to 000000000092b254
  DW_CFA_def_cfa_offset: 16
  DW_CFA_offset: r6 (rbp) at cfa-16
  DW_CFA_advance_loc: 3 to 000000000092b257
  DW_CFA_def_cfa_register: r6 (rbp)
  DW_CFA_advance_loc1: 115 to 000000000092b2ca
  DW_CFA_def_cfa: r7 (rsp) ofs 8
  DW_CFA_nop
  DW_CFA_nop

00009790 000000000000001c 00009794 FDE cie=00000000 pc=000000000092b2cb..000000000092b343
  DW_CFA_advance_loc: 1 to 000000000092b2cc
  DW_CFA_def_cfa_offset: 16
  DW_CFA_offset: r6 (rbp) at cfa-16
  DW_CFA_advance_loc: 3 to 000000000092b2cf
  DW_CFA_def_cfa_register: r6 (rbp)
  DW_CFA_advance_loc1: 115 to 000000000092b342
  DW_CFA_def_cfa: r7 (rsp) ofs 8
  DW_CFA_nop
  DW_CFA_nop

000097b0 000000000000001c 000097b4 FDE cie=00000000 pc=000000000092b343..000000000092b3e0
  DW_CFA_advance_loc: 1 to 000000000092b344
  DW_CFA_def_cfa_offset: 16
  DW_CFA_offset: r6 (rbp) at cfa-16
  DW_CFA_advance_loc: 3 to 000000000092b347
  DW_CFA_def_cfa_register: r6 (rbp)
  DW_CFA_advance_loc1: 152 to 000000000092b3df
  DW_CFA_def_cfa: r7 (rsp) ofs 8
  DW_CFA_nop
  DW_CFA_nop

000097d0 000000000000001c 000097d4 FDE cie=00000000 pc=000000000092b3e0..000000000092b406
  DW_CFA_advance_loc: 1 to 000000000092b3e1
  DW_CFA_def_cfa_offset: 16
  DW_CFA_offset: r6 (rbp) at cfa-16
  DW_CFA_advance_loc: 3 to 000000000092b3e4
  DW_CFA_def_cfa_register: r6 (rbp)
  DW_CFA_advance_loc: 33 to 000000000092b405
  DW_CFA_def_cfa: r7 (rsp) ofs 8
  DW_CFA_nop
  DW_CFA_nop
  DW_CFA_nop

000097f0 000000000000001c 000097f4 FDE cie=00000000 pc=000000000092b406..000000000092b42c
  DW_CFA_advance_loc: 1 to 000000000092b407
  DW_CFA_def_cfa_offset: 16
  DW_CFA_offset: r6 (rbp) at cfa-16
  DW_CFA_advance_loc: 3 to 000000000092b40a
  DW_CFA_def_cfa_register: r6 (rbp)
  DW_CFA_advance_loc: 33 to 000000000092b42b
  DW_CFA_def_cfa: r7 (rsp) ofs 8
  DW_CFA_nop
  DW_CFA_nop
  DW_CFA_nop

00009810 000000000000001c 00009814 FDE cie=00000000 pc=000000000092b42c..000000000092b624
  DW_CFA_advance_loc: 1 to 000000000092b42d
  DW_CFA_def_cfa_offset: 16
  DW_CFA_offset: r6 (rbp) at cfa-16
  DW_CFA_advance_loc: 3 to 000000000092b430
  DW_CFA_def_cfa_register: r6 (rbp)
  DW_CFA_advance_loc2: 499 to 000000000092b623
  DW_CFA_def_cfa: r7 (rsp) ofs 8
  DW_CFA_nop

00009830 000000000000001c 00009834 FDE cie=00000000 pc=000000000092b624..000000000092b647
  DW_CFA_advance_loc: 1 to 000000000092b625
  DW_CFA_def_cfa_offset: 16
  DW_CFA_offset: r6 (rbp) at cfa-16
  DW_CFA_advance_loc: 3 to 000000000092b628
  DW_CFA_def_cfa_register: r6 (rbp)
  DW_CFA_advance_loc: 30 to 000000000092b646
  DW_CFA_def_cfa: r7 (rsp) ofs 8
  DW_CFA_nop
  DW_CFA_nop
  DW_CFA_nop

00009850 000000000000001c 00009854 FDE cie=00000000 pc=000000000092b647..000000000092b66a
  DW_CFA_advance_loc: 1 to 000000000092b648
  DW_CFA_def_cfa_offset: 16
  DW_CFA_offset: r6 (rbp) at cfa-16
  DW_CFA_advance_loc: 3 to 000000000092b64b
  DW_CFA_def_cfa_register: r6 (rbp)
  DW_CFA_advance_loc: 30 to 000000000092b669
  DW_CFA_def_cfa: r7 (rsp) ofs 8
  DW_CFA_nop
  DW_CFA_nop
  DW_CFA_nop

00009870 000000000000001c 00009874 FDE cie=00000000 pc=000000000092b66a..000000000092b6e0
  DW_CFA_advance_loc: 1 to 000000000092b66b
  DW_CFA_def_cfa_offset: 16
  DW_CFA_offset: r6 (rbp) at cfa-16
  DW_CFA_advance_loc: 3 to 000000000092b66e
  DW_CFA_def_cfa_register: r6 (rbp)
  DW_CFA_advance_loc1: 113 to 000000000092b6df
  DW_CFA_def_cfa: r7 (rsp) ofs 8
  DW_CFA_nop
  DW_CFA_nop

00009890 000000000000001c 00009894 FDE cie=00000000 pc=000000000092b6e0..000000000092b8ab
  DW_CFA_advance_loc: 1 to 000000000092b6e1
  DW_CFA_def_cfa_offset: 16
  DW_CFA_offset: r6 (rbp) at cfa-16
  DW_CFA_advance_loc: 3 to 000000000092b6e4
  DW_CFA_def_cfa_register: r6 (rbp)
  DW_CFA_advance_loc2: 454 to 000000000092b8aa
  DW_CFA_def_cfa: r7 (rsp) ofs 8
  DW_CFA_nop

000098b0 000000000000001c 000098b4 FDE cie=00000000 pc=000000000092b8ab..000000000092b916
  DW_CFA_advance_loc: 1 to 000000000092b8ac
  DW_CFA_def_cfa_offset: 16
  DW_CFA_offset: r6 (rbp) at cfa-16
  DW_CFA_advance_loc: 3 to 000000000092b8af
  DW_CFA_def_cfa_register: r6 (rbp)
  DW_CFA_advance_loc1: 102 to 000000000092b915
  DW_CFA_def_cfa: r7 (rsp) ofs 8
  DW_CFA_nop
  DW_CFA_nop

000098d0 000000000000001c 000098d4 FDE cie=00000000 pc=000000000092b916..000000000092b98b
  DW_CFA_advance_loc: 1 to 000000000092b917
  DW_CFA_def_cfa_offset: 16
  DW_CFA_offset: r6 (rbp) at cfa-16
  DW_CFA_advance_loc: 3 to 000000000092b91a
  DW_CFA_def_cfa_register: r6 (rbp)
  DW_CFA_advance_loc1: 112 to 000000000092b98a
  DW_CFA_def_cfa: r7 (rsp) ofs 8
  DW_CFA_nop
  DW_CFA_nop

000098f0 000000000000001c 000098f4 FDE cie=00000000 pc=000000000092b98b..000000000092ba95
  DW_CFA_advance_loc: 1 to 000000000092b98c
  DW_CFA_def_cfa_offset: 16
  DW_CFA_offset: r6 (rbp) at cfa-16
  DW_CFA_advance_loc: 3 to 000000000092b98f
  DW_CFA_def_cfa_register: r6 (rbp)
  DW_CFA_advance_loc2: 261 to 000000000092ba94
  DW_CFA_def_cfa: r7 (rsp) ofs 8
  DW_CFA_nop

00009910 000000000000001c 00009914 FDE cie=00000000 pc=000000000092ba95..000000000092be83
  DW_CFA_advance_loc: 1 to 000000000092ba96
  DW_CFA_def_cfa_offset: 16
  DW_CFA_offset: r6 (rbp) at cfa-16
  DW_CFA_advance_loc: 3 to 000000000092ba99
  DW_CFA_def_cfa_register: r6 (rbp)
  DW_CFA_advance_loc2: 1001 to 000000000092be82
  DW_CFA_def_cfa: r7 (rsp) ofs 8
  DW_CFA_nop

00009930 000000000000001c 00009934 FDE cie=00000000 pc=000000000092be83..000000000092beba
  DW_CFA_advance_loc: 1 to 000000000092be84
  DW_CFA_def_cfa_offset: 16
  DW_CFA_offset: r6 (rbp) at cfa-16
  DW_CFA_advance_loc: 3 to 000000000092be87
  DW_CFA_def_cfa_register: r6 (rbp)
  DW_CFA_advance_loc: 50 to 000000000092beb9
  DW_CFA_def_cfa: r7 (rsp) ofs 8
  DW_CFA_nop
  DW_CFA_nop
  DW_CFA_nop

00009950 000000000000001c 00009954 FDE cie=00000000 pc=000000000092beba..000000000092bef1
  DW_CFA_advance_loc: 1 to 000000000092bebb
  DW_CFA_def_cfa_offset: 16
  DW_CFA_offset: r6 (rbp) at cfa-16
  DW_CFA_advance_loc: 3 to 000000000092bebe
  DW_CFA_def_cfa_register: r6 (rbp)
  DW_CFA_advance_loc: 50 to 000000000092bef0
  DW_CFA_def_cfa: r7 (rsp) ofs 8
  DW_CFA_nop
  DW_CFA_nop
  DW_CFA_nop

00009970 000000000000001c 00009974 FDE cie=00000000 pc=000000000092bef1..000000000092bf40
  DW_CFA_advance_loc: 1 to 000000000092bef2
  DW_CFA_def_cfa_offset: 16
  DW_CFA_offset: r6 (rbp) at cfa-16
  DW_CFA_advance_loc: 3 to 000000000092bef5
  DW_CFA_def_cfa_register: r6 (rbp)
  DW_CFA_advance_loc1: 74 to 000000000092bf3f
  DW_CFA_def_cfa: r7 (rsp) ofs 8
  DW_CFA_nop
  DW_CFA_nop

00009990 000000000000001c 00009994 FDE cie=00000000 pc=000000000092bf40..000000000092bf8f
  DW_CFA_advance_loc: 1 to 000000000092bf41
  DW_CFA_def_cfa_offset: 16
  DW_CFA_offset: r6 (rbp) at cfa-16
  DW_CFA_advance_loc: 3 to 000000000092bf44
  DW_CFA_def_cfa_register: r6 (rbp)
  DW_CFA_advance_loc1: 74 to 000000000092bf8e
  DW_CFA_def_cfa: r7 (rsp) ofs 8
  DW_CFA_nop
  DW_CFA_nop

000099b0 000000000000001c 000099b4 FDE cie=00000000 pc=000000000092bf8f..000000000092c0c6
  DW_CFA_advance_loc: 1 to 000000000092bf90
  DW_CFA_def_cfa_offset: 16
  DW_CFA_offset: r6 (rbp) at cfa-16
  DW_CFA_advance_loc: 3 to 000000000092bf93
  DW_CFA_def_cfa_register: r6 (rbp)
  DW_CFA_advance_loc2: 306 to 000000000092c0c5
  DW_CFA_def_cfa: r7 (rsp) ofs 8
  DW_CFA_nop

000099d0 000000000000001c 000099d4 FDE cie=00000000 pc=000000000092c0c6..000000000092c1c7
  DW_CFA_advance_loc: 1 to 000000000092c0c7
  DW_CFA_def_cfa_offset: 16
  DW_CFA_offset: r6 (rbp) at cfa-16
  DW_CFA_advance_loc: 3 to 000000000092c0ca
  DW_CFA_def_cfa_register: r6 (rbp)
  DW_CFA_advance_loc1: 252 to 000000000092c1c6
  DW_CFA_def_cfa: r7 (rsp) ofs 8
  DW_CFA_nop
  DW_CFA_nop

000099f0 000000000000001c 000099f4 FDE cie=00000000 pc=000000000092c1c7..000000000092c301
  DW_CFA_advance_loc: 1 to 000000000092c1c8
  DW_CFA_def_cfa_offset: 16
  DW_CFA_offset: r6 (rbp) at cfa-16
  DW_CFA_advance_loc: 3 to 000000000092c1cb
  DW_CFA_def_cfa_register: r6 (rbp)
  DW_CFA_advance_loc2: 309 to 000000000092c300
  DW_CFA_def_cfa: r7 (rsp) ofs 8
  DW_CFA_nop

00009a10 000000000000001c 00009a14 FDE cie=00000000 pc=000000000092c301..000000000092c39a
  DW_CFA_advance_loc: 1 to 000000000092c302
  DW_CFA_def_cfa_offset: 16
  DW_CFA_offset: r6 (rbp) at cfa-16
  DW_CFA_advance_loc: 3 to 000000000092c305
  DW_CFA_def_cfa_register: r6 (rbp)
  DW_CFA_advance_loc1: 148 to 000000000092c399
  DW_CFA_def_cfa: r7 (rsp) ofs 8
  DW_CFA_nop
  DW_CFA_nop

00009a30 000000000000001c 00009a34 FDE cie=00000000 pc=000000000092c39a..000000000092c427
  DW_CFA_advance_loc: 1 to 000000000092c39b
  DW_CFA_def_cfa_offset: 16
  DW_CFA_offset: r6 (rbp) at cfa-16
  DW_CFA_advance_loc: 3 to 000000000092c39e
  DW_CFA_def_cfa_register: r6 (rbp)
  DW_CFA_advance_loc1: 136 to 000000000092c426
  DW_CFA_def_cfa: r7 (rsp) ofs 8
  DW_CFA_nop
  DW_CFA_nop

00009a50 000000000000001c 00009a54 FDE cie=00000000 pc=000000000092c427..000000000092c4ea
  DW_CFA_advance_loc: 1 to 000000000092c428
  DW_CFA_def_cfa_offset: 16
  DW_CFA_offset: r6 (rbp) at cfa-16
  DW_CFA_advance_loc: 3 to 000000000092c42b
  DW_CFA_def_cfa_register: r6 (rbp)
  DW_CFA_advance_loc1: 190 to 000000000092c4e9
  DW_CFA_def_cfa: r7 (rsp) ofs 8
  DW_CFA_nop
  DW_CFA_nop

00009a70 000000000000001c 00009a74 FDE cie=00000000 pc=000000000092c4ea..000000000092c579
  DW_CFA_advance_loc: 1 to 000000000092c4eb
  DW_CFA_def_cfa_offset: 16
  DW_CFA_offset: r6 (rbp) at cfa-16
  DW_CFA_advance_loc: 3 to 000000000092c4ee
  DW_CFA_def_cfa_register: r6 (rbp)
  DW_CFA_advance_loc1: 138 to 000000000092c578
  DW_CFA_def_cfa: r7 (rsp) ofs 8
  DW_CFA_nop
  DW_CFA_nop

00009a90 000000000000001c 00009a94 FDE cie=00000000 pc=000000000092c579..000000000092cc77
  DW_CFA_advance_loc: 1 to 000000000092c57a
  DW_CFA_def_cfa_offset: 16
  DW_CFA_offset: r6 (rbp) at cfa-16
  DW_CFA_advance_loc: 3 to 000000000092c57d
  DW_CFA_def_cfa_register: r6 (rbp)
  DW_CFA_advance_loc2: 1785 to 000000000092cc76
  DW_CFA_def_cfa: r7 (rsp) ofs 8
  DW_CFA_nop

00009ab0 000000000000001c 00009ab4 FDE cie=00000000 pc=000000000092cc77..000000000092cd3c
  DW_CFA_advance_loc: 1 to 000000000092cc78
  DW_CFA_def_cfa_offset: 16
  DW_CFA_offset: r6 (rbp) at cfa-16
  DW_CFA_advance_loc: 3 to 000000000092cc7b
  DW_CFA_def_cfa_register: r6 (rbp)
  DW_CFA_advance_loc1: 192 to 000000000092cd3b
  DW_CFA_def_cfa: r7 (rsp) ofs 8
  DW_CFA_nop
  DW_CFA_nop

00009ad0 000000000000001c 00009ad4 FDE cie=00000000 pc=000000000092cd3c..000000000092cef3
  DW_CFA_advance_loc: 1 to 000000000092cd3d
  DW_CFA_def_cfa_offset: 16
  DW_CFA_offset: r6 (rbp) at cfa-16
  DW_CFA_advance_loc: 3 to 000000000092cd40
  DW_CFA_def_cfa_register: r6 (rbp)
  DW_CFA_advance_loc2: 434 to 000000000092cef2
  DW_CFA_def_cfa: r7 (rsp) ofs 8
  DW_CFA_nop

00009af0 000000000000001c 00009af4 FDE cie=00000000 pc=000000000092cef3..000000000092d6ff
  DW_CFA_advance_loc: 1 to 000000000092cef4
  DW_CFA_def_cfa_offset: 16
  DW_CFA_offset: r6 (rbp) at cfa-16
  DW_CFA_advance_loc: 3 to 000000000092cef7
  DW_CFA_def_cfa_register: r6 (rbp)
  DW_CFA_advance_loc2: 2055 to 000000000092d6fe
  DW_CFA_def_cfa: r7 (rsp) ofs 8
  DW_CFA_nop

00009b10 000000000000001c 00009b14 FDE cie=00000000 pc=000000000092d6ff..000000000092e3e6
  DW_CFA_advance_loc: 1 to 000000000092d700
  DW_CFA_def_cfa_offset: 16
  DW_CFA_offset: r6 (rbp) at cfa-16
  DW_CFA_advance_loc: 3 to 000000000092d703
  DW_CFA_def_cfa_register: r6 (rbp)
  DW_CFA_advance_loc2: 3298 to 000000000092e3e5
  DW_CFA_def_cfa: r7 (rsp) ofs 8
  DW_CFA_nop

00009b30 000000000000001c 00009b34 FDE cie=00000000 pc=000000000092e3e6..000000000092e440
  DW_CFA_advance_loc: 1 to 000000000092e3e7
  DW_CFA_def_cfa_offset: 16
  DW_CFA_offset: r6 (rbp) at cfa-16
  DW_CFA_advance_loc: 3 to 000000000092e3ea
  DW_CFA_def_cfa_register: r6 (rbp)
  DW_CFA_advance_loc1: 85 to 000000000092e43f
  DW_CFA_def_cfa: r7 (rsp) ofs 8
  DW_CFA_nop
  DW_CFA_nop

00009b50 000000000000001c 00009b54 FDE cie=00000000 pc=000000000092e440..000000000092ea08
  DW_CFA_advance_loc: 1 to 000000000092e441
  DW_CFA_def_cfa_offset: 16
  DW_CFA_offset: r6 (rbp) at cfa-16
  DW_CFA_advance_loc: 3 to 000000000092e444
  DW_CFA_def_cfa_register: r6 (rbp)
  DW_CFA_advance_loc2: 1475 to 000000000092ea07
  DW_CFA_def_cfa: r7 (rsp) ofs 8
  DW_CFA_nop

00009b70 0000000000000024 00009b74 FDE cie=00000000 pc=000000000092ea08..0000000000930174
  DW_CFA_advance_loc: 1 to 000000000092ea09
  DW_CFA_def_cfa_offset: 16
  DW_CFA_offset: r6 (rbp) at cfa-16
  DW_CFA_advance_loc: 3 to 000000000092ea0c
  DW_CFA_def_cfa_register: r6 (rbp)
  DW_CFA_advance_loc: 9 to 000000000092ea15
  DW_CFA_offset: r13 (r13) at cfa-24
  DW_CFA_offset: r12 (r12) at cfa-32
  DW_CFA_offset: r3 (rbx) at cfa-40
  DW_CFA_advance_loc2: 5982 to 0000000000930173
  DW_CFA_def_cfa: r7 (rsp) ofs 8
  DW_CFA_nop
  DW_CFA_nop

00009b98 000000000000001c 00009b9c FDE cie=00000000 pc=0000000000930174..00000000009303d6
  DW_CFA_advance_loc: 1 to 0000000000930175
  DW_CFA_def_cfa_offset: 16
  DW_CFA_offset: r6 (rbp) at cfa-16
  DW_CFA_advance_loc: 3 to 0000000000930178
  DW_CFA_def_cfa_register: r6 (rbp)
  DW_CFA_advance_loc2: 605 to 00000000009303d5
  DW_CFA_def_cfa: r7 (rsp) ofs 8
  DW_CFA_nop

00009bb8 000000000000001c 00009bbc FDE cie=00000000 pc=00000000009303d6..00000000009306e3
  DW_CFA_advance_loc: 1 to 00000000009303d7
  DW_CFA_def_cfa_offset: 16
  DW_CFA_offset: r6 (rbp) at cfa-16
  DW_CFA_advance_loc: 3 to 00000000009303da
  DW_CFA_def_cfa_register: r6 (rbp)
  DW_CFA_advance_loc2: 776 to 00000000009306e2
  DW_CFA_def_cfa: r7 (rsp) ofs 8
  DW_CFA_nop

00009bd8 000000000000001c 00009bdc FDE cie=00000000 pc=00000000009306e3..0000000000930730
  DW_CFA_advance_loc: 1 to 00000000009306e4
  DW_CFA_def_cfa_offset: 16
  DW_CFA_offset: r6 (rbp) at cfa-16
  DW_CFA_advance_loc: 3 to 00000000009306e7
  DW_CFA_def_cfa_register: r6 (rbp)
  DW_CFA_advance_loc1: 72 to 000000000093072f
  DW_CFA_def_cfa: r7 (rsp) ofs 8
  DW_CFA_nop
  DW_CFA_nop

00009bf8 000000000000001c 00009bfc FDE cie=00000000 pc=0000000000930730..0000000000930dcd
  DW_CFA_advance_loc: 1 to 0000000000930731
  DW_CFA_def_cfa_offset: 16
  DW_CFA_offset: r6 (rbp) at cfa-16
  DW_CFA_advance_loc: 3 to 0000000000930734
  DW_CFA_def_cfa_register: r6 (rbp)
  DW_CFA_advance_loc2: 1688 to 0000000000930dcc
  DW_CFA_def_cfa: r7 (rsp) ofs 8
  DW_CFA_nop

00009c18 000000000000001c 00009c1c FDE cie=00000000 pc=0000000000930dcd..0000000000930ded
  DW_CFA_advance_loc: 1 to 0000000000930dce
  DW_CFA_def_cfa_offset: 16
  DW_CFA_offset: r6 (rbp) at cfa-16
  DW_CFA_advance_loc: 3 to 0000000000930dd1
  DW_CFA_def_cfa_register: r6 (rbp)
  DW_CFA_advance_loc: 27 to 0000000000930dec
  DW_CFA_def_cfa: r7 (rsp) ofs 8
  DW_CFA_nop
  DW_CFA_nop
  DW_CFA_nop

00009c38 000000000000001c 00009c3c FDE cie=00000000 pc=0000000000930ded..0000000000930e58
  DW_CFA_advance_loc: 1 to 0000000000930dee
  DW_CFA_def_cfa_offset: 16
  DW_CFA_offset: r6 (rbp) at cfa-16
  DW_CFA_advance_loc: 3 to 0000000000930df1
  DW_CFA_def_cfa_register: r6 (rbp)
  DW_CFA_advance_loc1: 102 to 0000000000930e57
  DW_CFA_def_cfa: r7 (rsp) ofs 8
  DW_CFA_nop
  DW_CFA_nop

00009c58 000000000000001c 00009c5c FDE cie=00000000 pc=0000000000930e58..0000000000930f73
  DW_CFA_advance_loc: 1 to 0000000000930e59
  DW_CFA_def_cfa_offset: 16
  DW_CFA_offset: r6 (rbp) at cfa-16
  DW_CFA_advance_loc: 3 to 0000000000930e5c
  DW_CFA_def_cfa_register: r6 (rbp)
  DW_CFA_advance_loc2: 278 to 0000000000930f72
  DW_CFA_def_cfa: r7 (rsp) ofs 8
  DW_CFA_nop

00009c78 000000000000001c 00009c7c FDE cie=00000000 pc=0000000000930f73..0000000000930fdd
  DW_CFA_advance_loc: 1 to 0000000000930f74
  DW_CFA_def_cfa_offset: 16
  DW_CFA_offset: r6 (rbp) at cfa-16
  DW_CFA_advance_loc: 3 to 0000000000930f77
  DW_CFA_def_cfa_register: r6 (rbp)
  DW_CFA_advance_loc1: 101 to 0000000000930fdc
  DW_CFA_def_cfa: r7 (rsp) ofs 8
  DW_CFA_nop
  DW_CFA_nop

00009c98 000000000000001c 00009c9c FDE cie=00000000 pc=0000000000930fdd..0000000000930fe7
  DW_CFA_advance_loc: 1 to 0000000000930fde
  DW_CFA_def_cfa_offset: 16
  DW_CFA_offset: r6 (rbp) at cfa-16
  DW_CFA_advance_loc: 3 to 0000000000930fe1
  DW_CFA_def_cfa_register: r6 (rbp)
  DW_CFA_advance_loc: 5 to 0000000000930fe6
  DW_CFA_def_cfa: r7 (rsp) ofs 8
  DW_CFA_nop
  DW_CFA_nop
  DW_CFA_nop

00009cb8 000000000000001c 00009cbc FDE cie=00000000 pc=0000000000930fe7..0000000000930ff3
  DW_CFA_advance_loc: 1 to 0000000000930fe8
  DW_CFA_def_cfa_offset: 16
  DW_CFA_offset: r6 (rbp) at cfa-16
  DW_CFA_advance_loc: 3 to 0000000000930feb
  DW_CFA_def_cfa_register: r6 (rbp)
  DW_CFA_advance_loc: 7 to 0000000000930ff2
  DW_CFA_def_cfa: r7 (rsp) ofs 8
  DW_CFA_nop
  DW_CFA_nop
  DW_CFA_nop

00009cd8 000000000000001c 00009cdc FDE cie=00000000 pc=0000000000930ff3..0000000000930ffa
  DW_CFA_advance_loc: 1 to 0000000000930ff4
  DW_CFA_def_cfa_offset: 16
  DW_CFA_offset: r6 (rbp) at cfa-16
  DW_CFA_advance_loc: 3 to 0000000000930ff7
  DW_CFA_def_cfa_register: r6 (rbp)
  DW_CFA_advance_loc: 2 to 0000000000930ff9
  DW_CFA_def_cfa: r7 (rsp) ofs 8
  DW_CFA_nop
  DW_CFA_nop
  DW_CFA_nop

00009cf8 000000000000001c 00009cfc FDE cie=00000000 pc=0000000000930ffa..0000000000931005
  DW_CFA_advance_loc: 1 to 0000000000930ffb
  DW_CFA_def_cfa_offset: 16
  DW_CFA_offset: r6 (rbp) at cfa-16
  DW_CFA_advance_loc: 3 to 0000000000930ffe
  DW_CFA_def_cfa_register: r6 (rbp)
  DW_CFA_advance_loc: 6 to 0000000000931004
  DW_CFA_def_cfa: r7 (rsp) ofs 8
  DW_CFA_nop
  DW_CFA_nop
  DW_CFA_nop

00009d18 000000000000001c 00009d1c FDE cie=00000000 pc=0000000000931005..0000000000931024
  DW_CFA_advance_loc: 1 to 0000000000931006
  DW_CFA_def_cfa_offset: 16
  DW_CFA_offset: r6 (rbp) at cfa-16
  DW_CFA_advance_loc: 3 to 0000000000931009
  DW_CFA_def_cfa_register: r6 (rbp)
  DW_CFA_advance_loc: 26 to 0000000000931023
  DW_CFA_def_cfa: r7 (rsp) ofs 8
  DW_CFA_nop
  DW_CFA_nop
  DW_CFA_nop

00009d38 000000000000001c 00009d3c FDE cie=00000000 pc=0000000000931024..000000000093106c
  DW_CFA_advance_loc: 1 to 0000000000931025
  DW_CFA_def_cfa_offset: 16
  DW_CFA_offset: r6 (rbp) at cfa-16
  DW_CFA_advance_loc: 3 to 0000000000931028
  DW_CFA_def_cfa_register: r6 (rbp)
  DW_CFA_advance_loc1: 67 to 000000000093106b
  DW_CFA_def_cfa: r7 (rsp) ofs 8
  DW_CFA_nop
  DW_CFA_nop

00009d58 000000000000001c 00009d5c FDE cie=00000000 pc=000000000093106c..00000000009310a3
  DW_CFA_advance_loc: 1 to 000000000093106d
  DW_CFA_def_cfa_offset: 16
  DW_CFA_offset: r6 (rbp) at cfa-16
  DW_CFA_advance_loc: 3 to 0000000000931070
  DW_CFA_def_cfa_register: r6 (rbp)
  DW_CFA_advance_loc: 50 to 00000000009310a2
  DW_CFA_def_cfa: r7 (rsp) ofs 8
  DW_CFA_nop
  DW_CFA_nop
  DW_CFA_nop

00009d78 000000000000001c 00009d7c FDE cie=00000000 pc=00000000009310a3..00000000009310af
  DW_CFA_advance_loc: 1 to 00000000009310a4
  DW_CFA_def_cfa_offset: 16
  DW_CFA_offset: r6 (rbp) at cfa-16
  DW_CFA_advance_loc: 3 to 00000000009310a7
  DW_CFA_def_cfa_register: r6 (rbp)
  DW_CFA_advance_loc: 7 to 00000000009310ae
  DW_CFA_def_cfa: r7 (rsp) ofs 8
  DW_CFA_nop
  DW_CFA_nop
  DW_CFA_nop

00009d98 000000000000001c 00009d9c FDE cie=00000000 pc=00000000009310af..00000000009310bb
  DW_CFA_advance_loc: 1 to 00000000009310b0
  DW_CFA_def_cfa_offset: 16
  DW_CFA_offset: r6 (rbp) at cfa-16
  DW_CFA_advance_loc: 3 to 00000000009310b3
  DW_CFA_def_cfa_register: r6 (rbp)
  DW_CFA_advance_loc: 7 to 00000000009310ba
  DW_CFA_def_cfa: r7 (rsp) ofs 8
  DW_CFA_nop
  DW_CFA_nop
  DW_CFA_nop

00009db8 000000000000001c 00009dbc FDE cie=00000000 pc=00000000009310bb..00000000009310c7
  DW_CFA_advance_loc: 1 to 00000000009310bc
  DW_CFA_def_cfa_offset: 16
  DW_CFA_offset: r6 (rbp) at cfa-16
  DW_CFA_advance_loc: 3 to 00000000009310bf
  DW_CFA_def_cfa_register: r6 (rbp)
  DW_CFA_advance_loc: 7 to 00000000009310c6
  DW_CFA_def_cfa: r7 (rsp) ofs 8
  DW_CFA_nop
  DW_CFA_nop
  DW_CFA_nop

00009dd8 000000000000001c 00009ddc FDE cie=00000000 pc=00000000009310c7..00000000009310d3
  DW_CFA_advance_loc: 1 to 00000000009310c8
  DW_CFA_def_cfa_offset: 16
  DW_CFA_offset: r6 (rbp) at cfa-16
  DW_CFA_advance_loc: 3 to 00000000009310cb
  DW_CFA_def_cfa_register: r6 (rbp)
  DW_CFA_advance_loc: 7 to 00000000009310d2
  DW_CFA_def_cfa: r7 (rsp) ofs 8
  DW_CFA_nop
  DW_CFA_nop
  DW_CFA_nop

00009df8 000000000000001c 00009dfc FDE cie=00000000 pc=00000000009310d3..0000000000931226
