  DW_CFA_advance_loc: 3 to 000000000085731a
  DW_CFA_def_cfa_register: r6 (rbp)
  DW_CFA_advance_loc: 14 to 0000000000857328
  DW_CFA_offset: r14 (r14) at cfa-24
  DW_CFA_offset: r13 (r13) at cfa-32
  DW_CFA_offset: r12 (r12) at cfa-40
  DW_CFA_offset: r3 (rbx) at cfa-48
  DW_CFA_advance_loc2: 11939 to 000000000085a1cb
  DW_CFA_def_cfa: r7 (rsp) ofs 8

000025b0 0000000000000024 000025b4 FDE cie=00000000 pc=000000000085a1cc..00000000008648d2
  DW_CFA_advance_loc: 1 to 000000000085a1cd
  DW_CFA_def_cfa_offset: 16
  DW_CFA_offset: r6 (rbp) at cfa-16
  DW_CFA_advance_loc: 3 to 000000000085a1d0
  DW_CFA_def_cfa_register: r6 (rbp)
  DW_CFA_advance_loc: 12 to 000000000085a1dc
  DW_CFA_offset: r13 (r13) at cfa-24
  DW_CFA_offset: r12 (r12) at cfa-32
  DW_CFA_offset: r3 (rbx) at cfa-40
  DW_CFA_advance_loc2: 42741 to 00000000008648d1
  DW_CFA_def_cfa: r7 (rsp) ofs 8
  DW_CFA_nop
  DW_CFA_nop

000025d8 0000000000000024 000025dc FDE cie=00000000 pc=00000000008648d2..000000000086c28f
  DW_CFA_advance_loc: 1 to 00000000008648d3
  DW_CFA_def_cfa_offset: 16
  DW_CFA_offset: r6 (rbp) at cfa-16
  DW_CFA_advance_loc: 3 to 00000000008648d6
  DW_CFA_def_cfa_register: r6 (rbp)
  DW_CFA_advance_loc: 12 to 00000000008648e2
  DW_CFA_offset: r13 (r13) at cfa-24
  DW_CFA_offset: r12 (r12) at cfa-32
  DW_CFA_offset: r3 (rbx) at cfa-40
  DW_CFA_advance_loc2: 31148 to 000000000086c28e
  DW_CFA_def_cfa: r7 (rsp) ofs 8
  DW_CFA_nop
  DW_CFA_nop

00002600 0000000000000020 00002604 FDE cie=00000000 pc=000000000086c28f..000000000086ca6a
  DW_CFA_advance_loc: 1 to 000000000086c290
  DW_CFA_def_cfa_offset: 16
  DW_CFA_offset: r6 (rbp) at cfa-16
  DW_CFA_advance_loc: 3 to 000000000086c293
  DW_CFA_def_cfa_register: r6 (rbp)
  DW_CFA_advance_loc: 5 to 000000000086c298
  DW_CFA_offset: r3 (rbx) at cfa-24
  DW_CFA_advance_loc2: 2001 to 000000000086ca69
  DW_CFA_def_cfa: r7 (rsp) ofs 8
  DW_CFA_nop
  DW_CFA_nop

00002624 0000000000000020 00002628 FDE cie=00000000 pc=000000000086ca6a..000000000086d210
  DW_CFA_advance_loc: 1 to 000000000086ca6b
  DW_CFA_def_cfa_offset: 16
  DW_CFA_offset: r6 (rbp) at cfa-16
  DW_CFA_advance_loc: 3 to 000000000086ca6e
  DW_CFA_def_cfa_register: r6 (rbp)
  DW_CFA_advance_loc: 5 to 000000000086ca73
  DW_CFA_offset: r3 (rbx) at cfa-24
  DW_CFA_advance_loc2: 1948 to 000000000086d20f
  DW_CFA_def_cfa: r7 (rsp) ofs 8
  DW_CFA_nop
  DW_CFA_nop

00002648 0000000000000028 0000264c FDE cie=00000000 pc=000000000086d210..00000000008742f9
  DW_CFA_advance_loc: 1 to 000000000086d211
  DW_CFA_def_cfa_offset: 16
  DW_CFA_offset: r6 (rbp) at cfa-16
  DW_CFA_advance_loc: 3 to 000000000086d214
  DW_CFA_def_cfa_register: r6 (rbp)
  DW_CFA_advance_loc: 16 to 000000000086d224
  DW_CFA_offset: r15 (r15) at cfa-24
  DW_CFA_offset: r14 (r14) at cfa-32
  DW_CFA_offset: r13 (r13) at cfa-40
  DW_CFA_offset: r12 (r12) at cfa-48
  DW_CFA_offset: r3 (rbx) at cfa-56
  DW_CFA_advance_loc2: 28884 to 00000000008742f8
  DW_CFA_def_cfa: r7 (rsp) ofs 8
  DW_CFA_nop
  DW_CFA_nop

00002674 0000000000000028 00002678 FDE cie=00000000 pc=00000000008742f9..000000000087a236
  DW_CFA_advance_loc: 1 to 00000000008742fa
  DW_CFA_def_cfa_offset: 16
  DW_CFA_offset: r6 (rbp) at cfa-16
  DW_CFA_advance_loc: 3 to 00000000008742fd
  DW_CFA_def_cfa_register: r6 (rbp)
  DW_CFA_advance_loc: 16 to 000000000087430d
  DW_CFA_offset: r15 (r15) at cfa-24
  DW_CFA_offset: r14 (r14) at cfa-32
  DW_CFA_offset: r13 (r13) at cfa-40
  DW_CFA_offset: r12 (r12) at cfa-48
  DW_CFA_offset: r3 (rbx) at cfa-56
  DW_CFA_advance_loc2: 24360 to 000000000087a235
  DW_CFA_def_cfa: r7 (rsp) ofs 8
  DW_CFA_nop
  DW_CFA_nop

000026a0 0000000000000028 000026a4 FDE cie=00000000 pc=000000000087a236..000000000087d5ce
  DW_CFA_advance_loc: 1 to 000000000087a237
  DW_CFA_def_cfa_offset: 16
  DW_CFA_offset: r6 (rbp) at cfa-16
  DW_CFA_advance_loc: 3 to 000000000087a23a
  DW_CFA_def_cfa_register: r6 (rbp)
  DW_CFA_advance_loc: 16 to 000000000087a24a
  DW_CFA_offset: r15 (r15) at cfa-24
  DW_CFA_offset: r14 (r14) at cfa-32
  DW_CFA_offset: r13 (r13) at cfa-40
  DW_CFA_offset: r12 (r12) at cfa-48
  DW_CFA_offset: r3 (rbx) at cfa-56
  DW_CFA_advance_loc2: 13187 to 000000000087d5cd
  DW_CFA_def_cfa: r7 (rsp) ofs 8
  DW_CFA_nop
  DW_CFA_nop

000026cc 0000000000000020 000026d0 FDE cie=00000000 pc=000000000087d5ce..000000000087dc36
  DW_CFA_advance_loc: 1 to 000000000087d5cf
  DW_CFA_def_cfa_offset: 16
  DW_CFA_offset: r6 (rbp) at cfa-16
  DW_CFA_advance_loc: 3 to 000000000087d5d2
  DW_CFA_def_cfa_register: r6 (rbp)
  DW_CFA_advance_loc: 5 to 000000000087d5d7
  DW_CFA_offset: r3 (rbx) at cfa-24
  DW_CFA_advance_loc2: 1630 to 000000000087dc35
  DW_CFA_def_cfa: r7 (rsp) ofs 8
  DW_CFA_nop
  DW_CFA_nop

000026f0 0000000000000020 000026f4 FDE cie=00000000 pc=000000000087dc36..000000000087e738
  DW_CFA_advance_loc: 1 to 000000000087dc37
  DW_CFA_def_cfa_offset: 16
  DW_CFA_offset: r6 (rbp) at cfa-16
  DW_CFA_advance_loc: 3 to 000000000087dc3a
  DW_CFA_def_cfa_register: r6 (rbp)
  DW_CFA_advance_loc: 8 to 000000000087dc42
  DW_CFA_offset: r3 (rbx) at cfa-24
  DW_CFA_advance_loc2: 2805 to 000000000087e737
  DW_CFA_def_cfa: r7 (rsp) ofs 8
  DW_CFA_nop
  DW_CFA_nop

00002714 0000000000000020 00002718 FDE cie=00000000 pc=000000000087e738..0000000000880526
  DW_CFA_advance_loc: 1 to 000000000087e739
  DW_CFA_def_cfa_offset: 16
  DW_CFA_offset: r6 (rbp) at cfa-16
  DW_CFA_advance_loc: 3 to 000000000087e73c
  DW_CFA_def_cfa_register: r6 (rbp)
  DW_CFA_advance_loc: 8 to 000000000087e744
  DW_CFA_offset: r3 (rbx) at cfa-24
  DW_CFA_advance_loc2: 7649 to 0000000000880525
  DW_CFA_def_cfa: r7 (rsp) ofs 8
  DW_CFA_nop
  DW_CFA_nop

00002738 0000000000000020 0000273c FDE cie=00000000 pc=0000000000880526..0000000000880b40
  DW_CFA_advance_loc: 1 to 0000000000880527
  DW_CFA_def_cfa_offset: 16
  DW_CFA_offset: r6 (rbp) at cfa-16
  DW_CFA_advance_loc: 3 to 000000000088052a
  DW_CFA_def_cfa_register: r6 (rbp)
  DW_CFA_advance_loc: 5 to 000000000088052f
  DW_CFA_offset: r3 (rbx) at cfa-24
  DW_CFA_advance_loc2: 1552 to 0000000000880b3f
  DW_CFA_def_cfa: r7 (rsp) ofs 8
  DW_CFA_nop
  DW_CFA_nop

0000275c 0000000000000020 00002760 FDE cie=00000000 pc=0000000000880b40..0000000000881868
  DW_CFA_advance_loc: 1 to 0000000000880b41
  DW_CFA_def_cfa_offset: 16
  DW_CFA_offset: r6 (rbp) at cfa-16
  DW_CFA_advance_loc: 3 to 0000000000880b44
  DW_CFA_def_cfa_register: r6 (rbp)
  DW_CFA_advance_loc: 5 to 0000000000880b49
  DW_CFA_offset: r3 (rbx) at cfa-24
  DW_CFA_advance_loc2: 3358 to 0000000000881867
  DW_CFA_def_cfa: r7 (rsp) ofs 8
  DW_CFA_nop
  DW_CFA_nop

00002780 0000000000000020 00002784 FDE cie=00000000 pc=0000000000881868..0000000000881c8e
  DW_CFA_advance_loc: 1 to 0000000000881869
  DW_CFA_def_cfa_offset: 16
  DW_CFA_offset: r6 (rbp) at cfa-16
  DW_CFA_advance_loc: 3 to 000000000088186c
  DW_CFA_def_cfa_register: r6 (rbp)
  DW_CFA_advance_loc: 5 to 0000000000881871
  DW_CFA_offset: r3 (rbx) at cfa-24
  DW_CFA_advance_loc2: 1052 to 0000000000881c8d
  DW_CFA_def_cfa: r7 (rsp) ofs 8
  DW_CFA_nop
  DW_CFA_nop

000027a4 0000000000000020 000027a8 FDE cie=00000000 pc=0000000000881c8e..0000000000882cac
  DW_CFA_advance_loc: 1 to 0000000000881c8f
  DW_CFA_def_cfa_offset: 16
  DW_CFA_offset: r6 (rbp) at cfa-16
  DW_CFA_advance_loc: 3 to 0000000000881c92
  DW_CFA_def_cfa_register: r6 (rbp)
  DW_CFA_advance_loc: 7 to 0000000000881c99
  DW_CFA_offset: r12 (r12) at cfa-24
  DW_CFA_offset: r3 (rbx) at cfa-32
  DW_CFA_advance_loc2: 4114 to 0000000000882cab
  DW_CFA_def_cfa: r7 (rsp) ofs 8

000027c8 000000000000001c 000027cc FDE cie=00000000 pc=0000000000882cac..00000000008830f7
  DW_CFA_advance_loc: 1 to 0000000000882cad
  DW_CFA_def_cfa_offset: 16
  DW_CFA_offset: r6 (rbp) at cfa-16
  DW_CFA_advance_loc: 3 to 0000000000882cb0
  DW_CFA_def_cfa_register: r6 (rbp)
  DW_CFA_advance_loc2: 1094 to 00000000008830f6
  DW_CFA_def_cfa: r7 (rsp) ofs 8
  DW_CFA_nop

000027e8 0000000000000020 000027ec FDE cie=00000000 pc=00000000008830f7..0000000000884d65
  DW_CFA_advance_loc: 1 to 00000000008830f8
  DW_CFA_def_cfa_offset: 16
  DW_CFA_offset: r6 (rbp) at cfa-16
  DW_CFA_advance_loc: 3 to 00000000008830fb
  DW_CFA_def_cfa_register: r6 (rbp)
  DW_CFA_advance_loc: 7 to 0000000000883102
  DW_CFA_offset: r12 (r12) at cfa-24
  DW_CFA_offset: r3 (rbx) at cfa-32
  DW_CFA_advance_loc2: 7266 to 0000000000884d64
  DW_CFA_def_cfa: r7 (rsp) ofs 8

0000280c 0000000000000024 00002810 FDE cie=00000000 pc=0000000000884d65..0000000000887466
  DW_CFA_advance_loc: 1 to 0000000000884d66
  DW_CFA_def_cfa_offset: 16
  DW_CFA_offset: r6 (rbp) at cfa-16
  DW_CFA_advance_loc: 3 to 0000000000884d69
  DW_CFA_def_cfa_register: r6 (rbp)
  DW_CFA_advance_loc: 12 to 0000000000884d75
  DW_CFA_offset: r13 (r13) at cfa-24
  DW_CFA_offset: r12 (r12) at cfa-32
  DW_CFA_offset: r3 (rbx) at cfa-40
  DW_CFA_advance_loc2: 9968 to 0000000000887465
  DW_CFA_def_cfa: r7 (rsp) ofs 8
  DW_CFA_nop
  DW_CFA_nop

00002834 000000000000001c 00002838 FDE cie=00000000 pc=0000000000887466..0000000000887cee
  DW_CFA_advance_loc: 1 to 0000000000887467
  DW_CFA_def_cfa_offset: 16
  DW_CFA_offset: r6 (rbp) at cfa-16
  DW_CFA_advance_loc: 3 to 000000000088746a
  DW_CFA_def_cfa_register: r6 (rbp)
  DW_CFA_advance_loc2: 2179 to 0000000000887ced
  DW_CFA_def_cfa: r7 (rsp) ofs 8
  DW_CFA_nop

00002854 000000000000001c 00002858 FDE cie=00000000 pc=0000000000887cee..00000000008881e3
  DW_CFA_advance_loc: 1 to 0000000000887cef
  DW_CFA_def_cfa_offset: 16
  DW_CFA_offset: r6 (rbp) at cfa-16
  DW_CFA_advance_loc: 3 to 0000000000887cf2
  DW_CFA_def_cfa_register: r6 (rbp)
  DW_CFA_advance_loc2: 1264 to 00000000008881e2
  DW_CFA_def_cfa: r7 (rsp) ofs 8
  DW_CFA_nop

00002874 000000000000001c 00002878 FDE cie=00000000 pc=00000000008881e3..000000000088846e
  DW_CFA_advance_loc: 1 to 00000000008881e4
  DW_CFA_def_cfa_offset: 16
  DW_CFA_offset: r6 (rbp) at cfa-16
  DW_CFA_advance_loc: 3 to 00000000008881e7
  DW_CFA_def_cfa_register: r6 (rbp)
  DW_CFA_advance_loc2: 646 to 000000000088846d
  DW_CFA_def_cfa: r7 (rsp) ofs 8
  DW_CFA_nop

00002894 0000000000000020 00002898 FDE cie=00000000 pc=000000000088846e..0000000000889982
  DW_CFA_advance_loc: 1 to 000000000088846f
  DW_CFA_def_cfa_offset: 16
  DW_CFA_offset: r6 (rbp) at cfa-16
  DW_CFA_advance_loc: 3 to 0000000000888472
  DW_CFA_def_cfa_register: r6 (rbp)
  DW_CFA_advance_loc: 7 to 0000000000888479
  DW_CFA_offset: r12 (r12) at cfa-24
  DW_CFA_offset: r3 (rbx) at cfa-32
  DW_CFA_advance_loc2: 5384 to 0000000000889981
  DW_CFA_def_cfa: r7 (rsp) ofs 8

000028b8 0000000000000020 000028bc FDE cie=00000000 pc=0000000000889982..000000000088a6f9
  DW_CFA_advance_loc: 1 to 0000000000889983
  DW_CFA_def_cfa_offset: 16
  DW_CFA_offset: r6 (rbp) at cfa-16
  DW_CFA_advance_loc: 3 to 0000000000889986
  DW_CFA_def_cfa_register: r6 (rbp)
  DW_CFA_advance_loc: 10 to 0000000000889990
  DW_CFA_offset: r12 (r12) at cfa-24
  DW_CFA_offset: r3 (rbx) at cfa-32
  DW_CFA_advance_loc2: 3432 to 000000000088a6f8
  DW_CFA_def_cfa: r7 (rsp) ofs 8

000028dc 000000000000001c 000028e0 FDE cie=00000000 pc=000000000088a6f9..000000000088b44e
  DW_CFA_advance_loc: 1 to 000000000088a6fa
  DW_CFA_def_cfa_offset: 16
  DW_CFA_offset: r6 (rbp) at cfa-16
  DW_CFA_advance_loc: 3 to 000000000088a6fd
  DW_CFA_def_cfa_register: r6 (rbp)
  DW_CFA_advance_loc2: 3408 to 000000000088b44d
  DW_CFA_def_cfa: r7 (rsp) ofs 8
  DW_CFA_nop

000028fc 0000000000000020 00002900 FDE cie=00000000 pc=000000000088b44e..000000000088bb17
  DW_CFA_advance_loc: 1 to 000000000088b44f
  DW_CFA_def_cfa_offset: 16
  DW_CFA_offset: r6 (rbp) at cfa-16
  DW_CFA_advance_loc: 3 to 000000000088b452
  DW_CFA_def_cfa_register: r6 (rbp)
  DW_CFA_advance_loc: 5 to 000000000088b457
  DW_CFA_offset: r3 (rbx) at cfa-24
  DW_CFA_advance_loc2: 1727 to 000000000088bb16
  DW_CFA_def_cfa: r7 (rsp) ofs 8
  DW_CFA_nop
  DW_CFA_nop

00002920 0000000000000024 00002924 FDE cie=00000000 pc=000000000088bb17..000000000088c782
  DW_CFA_advance_loc: 1 to 000000000088bb18
  DW_CFA_def_cfa_offset: 16
  DW_CFA_offset: r6 (rbp) at cfa-16
  DW_CFA_advance_loc: 3 to 000000000088bb1b
  DW_CFA_def_cfa_register: r6 (rbp)
  DW_CFA_advance_loc: 12 to 000000000088bb27
  DW_CFA_offset: r13 (r13) at cfa-24
  DW_CFA_offset: r12 (r12) at cfa-32
  DW_CFA_offset: r3 (rbx) at cfa-40
  DW_CFA_advance_loc2: 3162 to 000000000088c781
  DW_CFA_def_cfa: r7 (rsp) ofs 8
  DW_CFA_nop
  DW_CFA_nop

00002948 0000000000000020 0000294c FDE cie=00000000 pc=000000000088c782..000000000088dd9d
  DW_CFA_advance_loc: 1 to 000000000088c783
  DW_CFA_def_cfa_offset: 16
  DW_CFA_offset: r6 (rbp) at cfa-16
  DW_CFA_advance_loc: 3 to 000000000088c786
  DW_CFA_def_cfa_register: r6 (rbp)
  DW_CFA_advance_loc: 10 to 000000000088c790
  DW_CFA_offset: r12 (r12) at cfa-24
  DW_CFA_offset: r3 (rbx) at cfa-32
  DW_CFA_advance_loc2: 5644 to 000000000088dd9c
  DW_CFA_def_cfa: r7 (rsp) ofs 8

0000296c 000000000000001c 00002970 FDE cie=00000000 pc=000000000088dd9d..000000000088e35a
  DW_CFA_advance_loc: 1 to 000000000088dd9e
  DW_CFA_def_cfa_offset: 16
  DW_CFA_offset: r6 (rbp) at cfa-16
  DW_CFA_advance_loc: 3 to 000000000088dda1
  DW_CFA_def_cfa_register: r6 (rbp)
  DW_CFA_advance_loc2: 1464 to 000000000088e359
  DW_CFA_def_cfa: r7 (rsp) ofs 8
  DW_CFA_nop

0000298c 0000000000000024 00002990 FDE cie=00000000 pc=000000000088e35a..0000000000891481
  DW_CFA_advance_loc: 1 to 000000000088e35b
  DW_CFA_def_cfa_offset: 16
  DW_CFA_offset: r6 (rbp) at cfa-16
  DW_CFA_advance_loc: 3 to 000000000088e35e
  DW_CFA_def_cfa_register: r6 (rbp)
  DW_CFA_advance_loc: 14 to 000000000088e36c
  DW_CFA_offset: r14 (r14) at cfa-24
  DW_CFA_offset: r13 (r13) at cfa-32
  DW_CFA_offset: r12 (r12) at cfa-40
  DW_CFA_offset: r3 (rbx) at cfa-48
  DW_CFA_advance_loc2: 12564 to 0000000000891480
  DW_CFA_def_cfa: r7 (rsp) ofs 8

000029b4 000000000000001c 000029b8 FDE cie=00000000 pc=0000000000891481..0000000000892731
  DW_CFA_advance_loc: 1 to 0000000000891482
  DW_CFA_def_cfa_offset: 16
  DW_CFA_offset: r6 (rbp) at cfa-16
  DW_CFA_advance_loc: 3 to 0000000000891485
  DW_CFA_def_cfa_register: r6 (rbp)
  DW_CFA_advance_loc2: 4779 to 0000000000892730
  DW_CFA_def_cfa: r7 (rsp) ofs 8
  DW_CFA_nop

000029d4 000000000000001c 000029d8 FDE cie=00000000 pc=0000000000892731..0000000000893045
  DW_CFA_advance_loc: 1 to 0000000000892732
  DW_CFA_def_cfa_offset: 16
  DW_CFA_offset: r6 (rbp) at cfa-16
  DW_CFA_advance_loc: 3 to 0000000000892735
  DW_CFA_def_cfa_register: r6 (rbp)
  DW_CFA_advance_loc2: 2319 to 0000000000893044
  DW_CFA_def_cfa: r7 (rsp) ofs 8
  DW_CFA_nop

000029f4 0000000000000020 000029f8 FDE cie=00000000 pc=0000000000893045..0000000000893c2f
  DW_CFA_advance_loc: 1 to 0000000000893046
  DW_CFA_def_cfa_offset: 16
  DW_CFA_offset: r6 (rbp) at cfa-16
  DW_CFA_advance_loc: 3 to 0000000000893049
  DW_CFA_def_cfa_register: r6 (rbp)
  DW_CFA_advance_loc: 8 to 0000000000893051
  DW_CFA_offset: r3 (rbx) at cfa-24
  DW_CFA_advance_loc2: 3037 to 0000000000893c2e
  DW_CFA_def_cfa: r7 (rsp) ofs 8
  DW_CFA_nop
  DW_CFA_nop

00002a18 000000000000001c 00002a1c FDE cie=00000000 pc=0000000000893c2f..0000000000893ea6
  DW_CFA_advance_loc: 1 to 0000000000893c30
  DW_CFA_def_cfa_offset: 16
  DW_CFA_offset: r6 (rbp) at cfa-16
  DW_CFA_advance_loc: 3 to 0000000000893c33
  DW_CFA_def_cfa_register: r6 (rbp)
  DW_CFA_advance_loc2: 626 to 0000000000893ea5
  DW_CFA_def_cfa: r7 (rsp) ofs 8
  DW_CFA_nop

00002a38 0000000000000024 00002a3c FDE cie=00000000 pc=0000000000893ea6..00000000008a3435
  DW_CFA_advance_loc: 1 to 0000000000893ea7
  DW_CFA_def_cfa_offset: 16
  DW_CFA_offset: r6 (rbp) at cfa-16
  DW_CFA_advance_loc: 3 to 0000000000893eaa
  DW_CFA_def_cfa_register: r6 (rbp)
  DW_CFA_advance_loc: 12 to 0000000000893eb6
  DW_CFA_offset: r13 (r13) at cfa-24
  DW_CFA_offset: r12 (r12) at cfa-32
  DW_CFA_offset: r3 (rbx) at cfa-40
  DW_CFA_advance_loc2: 62846 to 00000000008a3434
  DW_CFA_def_cfa: r7 (rsp) ofs 8
  DW_CFA_nop
  DW_CFA_nop

00002a60 000000000000001c 00002a64 FDE cie=00000000 pc=00000000008a3435..00000000008a363f
  DW_CFA_advance_loc: 1 to 00000000008a3436
  DW_CFA_def_cfa_offset: 16
  DW_CFA_offset: r6 (rbp) at cfa-16
  DW_CFA_advance_loc: 3 to 00000000008a3439
  DW_CFA_def_cfa_register: r6 (rbp)
  DW_CFA_advance_loc2: 517 to 00000000008a363e
  DW_CFA_def_cfa: r7 (rsp) ofs 8
  DW_CFA_nop

00002a80 000000000000001c 00002a84 FDE cie=00000000 pc=00000000008a363f..00000000008a3c17
  DW_CFA_advance_loc: 1 to 00000000008a3640
  DW_CFA_def_cfa_offset: 16
  DW_CFA_offset: r6 (rbp) at cfa-16
  DW_CFA_advance_loc: 3 to 00000000008a3643
  DW_CFA_def_cfa_register: r6 (rbp)
  DW_CFA_advance_loc2: 1491 to 00000000008a3c16
  DW_CFA_def_cfa: r7 (rsp) ofs 8
  DW_CFA_nop

00002aa0 000000000000001c 00002aa4 FDE cie=00000000 pc=00000000008a3c17..00000000008a3c86
  DW_CFA_advance_loc: 1 to 00000000008a3c18
  DW_CFA_def_cfa_offset: 16
  DW_CFA_offset: r6 (rbp) at cfa-16
  DW_CFA_advance_loc: 3 to 00000000008a3c1b
  DW_CFA_def_cfa_register: r6 (rbp)
  DW_CFA_advance_loc1: 106 to 00000000008a3c85
  DW_CFA_def_cfa: r7 (rsp) ofs 8
  DW_CFA_nop
  DW_CFA_nop

00002ac0 000000000000001c 00002ac4 FDE cie=00000000 pc=00000000008a3c86..00000000008a3cf8
  DW_CFA_advance_loc: 1 to 00000000008a3c87
  DW_CFA_def_cfa_offset: 16
  DW_CFA_offset: r6 (rbp) at cfa-16
  DW_CFA_advance_loc: 3 to 00000000008a3c8a
  DW_CFA_def_cfa_register: r6 (rbp)
  DW_CFA_advance_loc1: 109 to 00000000008a3cf7
  DW_CFA_def_cfa: r7 (rsp) ofs 8
  DW_CFA_nop
  DW_CFA_nop

00002ae0 000000000000001c 00002ae4 FDE cie=00000000 pc=00000000008a3cf8..00000000008a3d6b
  DW_CFA_advance_loc: 1 to 00000000008a3cf9
  DW_CFA_def_cfa_offset: 16
  DW_CFA_offset: r6 (rbp) at cfa-16
  DW_CFA_advance_loc: 3 to 00000000008a3cfc
  DW_CFA_def_cfa_register: r6 (rbp)
  DW_CFA_advance_loc1: 110 to 00000000008a3d6a
  DW_CFA_def_cfa: r7 (rsp) ofs 8
  DW_CFA_nop
  DW_CFA_nop

00002b00 000000000000001c 00002b04 FDE cie=00000000 pc=00000000008a3d6b..00000000008a3f0b
  DW_CFA_advance_loc: 1 to 00000000008a3d6c
  DW_CFA_def_cfa_offset: 16
  DW_CFA_offset: r6 (rbp) at cfa-16
  DW_CFA_advance_loc: 3 to 00000000008a3d6f
  DW_CFA_def_cfa_register: r6 (rbp)
  DW_CFA_advance_loc2: 411 to 00000000008a3f0a
  DW_CFA_def_cfa: r7 (rsp) ofs 8
  DW_CFA_nop

00002b20 000000000000001c 00002b24 FDE cie=00000000 pc=00000000008a3f0b..00000000008a3f20
  DW_CFA_advance_loc: 1 to 00000000008a3f0c
  DW_CFA_def_cfa_offset: 16
  DW_CFA_offset: r6 (rbp) at cfa-16
  DW_CFA_advance_loc: 3 to 00000000008a3f0f
  DW_CFA_def_cfa_register: r6 (rbp)
  DW_CFA_advance_loc: 16 to 00000000008a3f1f
  DW_CFA_def_cfa: r7 (rsp) ofs 8
  DW_CFA_nop
  DW_CFA_nop
  DW_CFA_nop

00002b40 000000000000001c 00002b44 FDE cie=00000000 pc=00000000009381ef..0000000000938215
  DW_CFA_advance_loc: 1 to 00000000009381f0
  DW_CFA_def_cfa_offset: 16
  DW_CFA_offset: r6 (rbp) at cfa-16
  DW_CFA_advance_loc: 3 to 00000000009381f3
  DW_CFA_def_cfa_register: r6 (rbp)
  DW_CFA_advance_loc: 33 to 0000000000938214
  DW_CFA_def_cfa: r7 (rsp) ofs 8
  DW_CFA_nop
  DW_CFA_nop
  DW_CFA_nop

00002b60 000000000000001c 00002b64 FDE cie=00000000 pc=0000000000938215..000000000093822a
  DW_CFA_advance_loc: 1 to 0000000000938216
  DW_CFA_def_cfa_offset: 16
  DW_CFA_offset: r6 (rbp) at cfa-16
  DW_CFA_advance_loc: 3 to 0000000000938219
  DW_CFA_def_cfa_register: r6 (rbp)
  DW_CFA_advance_loc: 16 to 0000000000938229
  DW_CFA_def_cfa: r7 (rsp) ofs 8
  DW_CFA_nop
  DW_CFA_nop
  DW_CFA_nop

00002b80 000000000000001c 00002b84 FDE cie=00000000 pc=000000000093822a..0000000000938245
  DW_CFA_advance_loc: 1 to 000000000093822b
  DW_CFA_def_cfa_offset: 16
  DW_CFA_offset: r6 (rbp) at cfa-16
  DW_CFA_advance_loc: 3 to 000000000093822e
  DW_CFA_def_cfa_register: r6 (rbp)
  DW_CFA_advance_loc: 22 to 0000000000938244
  DW_CFA_def_cfa: r7 (rsp) ofs 8
  DW_CFA_nop
  DW_CFA_nop
  DW_CFA_nop

00002ba0 000000000000001c 00002ba4 FDE cie=00000000 pc=0000000000938245..0000000000938257
  DW_CFA_advance_loc: 1 to 0000000000938246
  DW_CFA_def_cfa_offset: 16
  DW_CFA_offset: r6 (rbp) at cfa-16
  DW_CFA_advance_loc: 3 to 0000000000938249
  DW_CFA_def_cfa_register: r6 (rbp)
  DW_CFA_advance_loc: 13 to 0000000000938256
  DW_CFA_def_cfa: r7 (rsp) ofs 8
  DW_CFA_nop
  DW_CFA_nop
  DW_CFA_nop

00002bc0 000000000000001c 00002bc4 FDE cie=00000000 pc=00000000008a432c..00000000008a4363
  DW_CFA_advance_loc: 1 to 00000000008a432d
  DW_CFA_def_cfa_offset: 16
  DW_CFA_offset: r6 (rbp) at cfa-16
  DW_CFA_advance_loc: 3 to 00000000008a4330
  DW_CFA_def_cfa_register: r6 (rbp)
  DW_CFA_advance_loc: 50 to 00000000008a4362
  DW_CFA_def_cfa: r7 (rsp) ofs 8
  DW_CFA_nop
  DW_CFA_nop
  DW_CFA_nop

00002be0 000000000000001c 00002be4 FDE cie=00000000 pc=00000000008a4363..00000000008a43dc
  DW_CFA_advance_loc: 1 to 00000000008a4364
  DW_CFA_def_cfa_offset: 16
  DW_CFA_offset: r6 (rbp) at cfa-16
  DW_CFA_advance_loc: 3 to 00000000008a4367
  DW_CFA_def_cfa_register: r6 (rbp)
  DW_CFA_advance_loc1: 116 to 00000000008a43db
  DW_CFA_def_cfa: r7 (rsp) ofs 8
  DW_CFA_nop
  DW_CFA_nop

00002c00 000000000000001c 00002c04 FDE cie=00000000 pc=00000000008a43dc..00000000008a4484
  DW_CFA_advance_loc: 1 to 00000000008a43dd
  DW_CFA_def_cfa_offset: 16
  DW_CFA_offset: r6 (rbp) at cfa-16
  DW_CFA_advance_loc: 3 to 00000000008a43e0
  DW_CFA_def_cfa_register: r6 (rbp)
  DW_CFA_advance_loc1: 163 to 00000000008a4483
  DW_CFA_def_cfa: r7 (rsp) ofs 8
  DW_CFA_nop
  DW_CFA_nop

00002c20 000000000000001c 00002c24 FDE cie=00000000 pc=00000000008a4484..00000000008a459d
  DW_CFA_advance_loc: 1 to 00000000008a4485
  DW_CFA_def_cfa_offset: 16
  DW_CFA_offset: r6 (rbp) at cfa-16
  DW_CFA_advance_loc: 3 to 00000000008a4488
  DW_CFA_def_cfa_register: r6 (rbp)
  DW_CFA_advance_loc2: 276 to 00000000008a459c
  DW_CFA_def_cfa: r7 (rsp) ofs 8
  DW_CFA_nop

00002c40 000000000000001c 00002c44 FDE cie=00000000 pc=00000000008a459d..00000000008a4651
  DW_CFA_advance_loc: 1 to 00000000008a459e
  DW_CFA_def_cfa_offset: 16
  DW_CFA_offset: r6 (rbp) at cfa-16
  DW_CFA_advance_loc: 3 to 00000000008a45a1
  DW_CFA_def_cfa_register: r6 (rbp)
  DW_CFA_advance_loc1: 175 to 00000000008a4650
  DW_CFA_def_cfa: r7 (rsp) ofs 8
  DW_CFA_nop
  DW_CFA_nop

00002c60 000000000000001c 00002c64 FDE cie=00000000 pc=00000000008a4651..00000000008a4764
  DW_CFA_advance_loc: 1 to 00000000008a4652
  DW_CFA_def_cfa_offset: 16
  DW_CFA_offset: r6 (rbp) at cfa-16
  DW_CFA_advance_loc: 3 to 00000000008a4655
  DW_CFA_def_cfa_register: r6 (rbp)
  DW_CFA_advance_loc2: 270 to 00000000008a4763
  DW_CFA_def_cfa: r7 (rsp) ofs 8
  DW_CFA_nop

00002c80 000000000000001c 00002c84 FDE cie=00000000 pc=00000000008a4764..00000000008a47fb
  DW_CFA_advance_loc: 1 to 00000000008a4765
  DW_CFA_def_cfa_offset: 16
  DW_CFA_offset: r6 (rbp) at cfa-16
  DW_CFA_advance_loc: 3 to 00000000008a4768
  DW_CFA_def_cfa_register: r6 (rbp)
  DW_CFA_advance_loc1: 146 to 00000000008a47fa
  DW_CFA_def_cfa: r7 (rsp) ofs 8
  DW_CFA_nop
  DW_CFA_nop

00002ca0 000000000000001c 00002ca4 FDE cie=00000000 pc=00000000008a47fb..00000000008a48e9
  DW_CFA_advance_loc: 1 to 00000000008a47fc
  DW_CFA_def_cfa_offset: 16
  DW_CFA_offset: r6 (rbp) at cfa-16
  DW_CFA_advance_loc: 3 to 00000000008a47ff
  DW_CFA_def_cfa_register: r6 (rbp)
  DW_CFA_advance_loc1: 233 to 00000000008a48e8
  DW_CFA_def_cfa: r7 (rsp) ofs 8
  DW_CFA_nop
  DW_CFA_nop

00002cc0 000000000000001c 00002cc4 FDE cie=00000000 pc=00000000008a48e9..00000000008a52dd
  DW_CFA_advance_loc: 1 to 00000000008a48ea
  DW_CFA_def_cfa_offset: 16
  DW_CFA_offset: r6 (rbp) at cfa-16
  DW_CFA_advance_loc: 3 to 00000000008a48ed
  DW_CFA_def_cfa_register: r6 (rbp)
  DW_CFA_advance_loc2: 2543 to 00000000008a52dc
  DW_CFA_def_cfa: r7 (rsp) ofs 8
  DW_CFA_nop

00002ce0 000000000000001c 00002ce4 FDE cie=00000000 pc=00000000008a52dd..00000000008a5d08
  DW_CFA_advance_loc: 1 to 00000000008a52de
  DW_CFA_def_cfa_offset: 16
  DW_CFA_offset: r6 (rbp) at cfa-16
  DW_CFA_advance_loc: 3 to 00000000008a52e1
  DW_CFA_def_cfa_register: r6 (rbp)
  DW_CFA_advance_loc2: 2598 to 00000000008a5d07
  DW_CFA_def_cfa: r7 (rsp) ofs 8
  DW_CFA_nop

00002d00 000000000000001c 00002d04 FDE cie=00000000 pc=00000000008a5d08..00000000008a612f
  DW_CFA_advance_loc: 1 to 00000000008a5d09
  DW_CFA_def_cfa_offset: 16
  DW_CFA_offset: r6 (rbp) at cfa-16
  DW_CFA_advance_loc: 3 to 00000000008a5d0c
  DW_CFA_def_cfa_register: r6 (rbp)
  DW_CFA_advance_loc2: 1058 to 00000000008a612e
  DW_CFA_def_cfa: r7 (rsp) ofs 8
  DW_CFA_nop

00002d20 000000000000001c 00002d24 FDE cie=00000000 pc=00000000008a612f..00000000008a753c
  DW_CFA_advance_loc: 1 to 00000000008a6130
  DW_CFA_def_cfa_offset: 16
  DW_CFA_offset: r6 (rbp) at cfa-16
  DW_CFA_advance_loc: 3 to 00000000008a6133
  DW_CFA_def_cfa_register: r6 (rbp)
  DW_CFA_advance_loc2: 5128 to 00000000008a753b
  DW_CFA_def_cfa: r7 (rsp) ofs 8
  DW_CFA_nop

00002d40 000000000000001c 00002d44 FDE cie=00000000 pc=00000000008a753c..00000000008a7698
  DW_CFA_advance_loc: 1 to 00000000008a753d
  DW_CFA_def_cfa_offset: 16
  DW_CFA_offset: r6 (rbp) at cfa-16
  DW_CFA_advance_loc: 3 to 00000000008a7540
  DW_CFA_def_cfa_register: r6 (rbp)
  DW_CFA_advance_loc2: 343 to 00000000008a7697
  DW_CFA_def_cfa: r7 (rsp) ofs 8
  DW_CFA_nop

00002d60 000000000000001c 00002d64 FDE cie=00000000 pc=00000000008a7698..00000000008a827b
  DW_CFA_advance_loc: 1 to 00000000008a7699
  DW_CFA_def_cfa_offset: 16
  DW_CFA_offset: r6 (rbp) at cfa-16
  DW_CFA_advance_loc: 3 to 00000000008a769c
  DW_CFA_def_cfa_register: r6 (rbp)
  DW_CFA_advance_loc2: 3038 to 00000000008a827a
  DW_CFA_def_cfa: r7 (rsp) ofs 8
  DW_CFA_nop

00002d80 000000000000001c 00002d84 FDE cie=00000000 pc=00000000008a827b..00000000008a8369
  DW_CFA_advance_loc: 1 to 00000000008a827c
  DW_CFA_def_cfa_offset: 16
  DW_CFA_offset: r6 (rbp) at cfa-16
  DW_CFA_advance_loc: 3 to 00000000008a827f
  DW_CFA_def_cfa_register: r6 (rbp)
  DW_CFA_advance_loc1: 233 to 00000000008a8368
  DW_CFA_def_cfa: r7 (rsp) ofs 8
  DW_CFA_nop
  DW_CFA_nop

00002da0 000000000000001c 00002da4 FDE cie=00000000 pc=00000000008a8369..00000000008a8420
  DW_CFA_advance_loc: 1 to 00000000008a836a
  DW_CFA_def_cfa_offset: 16
  DW_CFA_offset: r6 (rbp) at cfa-16
  DW_CFA_advance_loc: 3 to 00000000008a836d
  DW_CFA_def_cfa_register: r6 (rbp)
  DW_CFA_advance_loc1: 178 to 00000000008a841f
  DW_CFA_def_cfa: r7 (rsp) ofs 8
  DW_CFA_nop
  DW_CFA_nop

00002dc0 000000000000001c 00002dc4 FDE cie=00000000 pc=00000000008a8420..00000000008a8469
  DW_CFA_advance_loc: 1 to 00000000008a8421
  DW_CFA_def_cfa_offset: 16
  DW_CFA_offset: r6 (rbp) at cfa-16
  DW_CFA_advance_loc: 3 to 00000000008a8424
  DW_CFA_def_cfa_register: r6 (rbp)
  DW_CFA_advance_loc1: 68 to 00000000008a8468
  DW_CFA_def_cfa: r7 (rsp) ofs 8
  DW_CFA_nop
  DW_CFA_nop

00002de0 000000000000001c 00002de4 FDE cie=00000000 pc=00000000008a8469..00000000008a858e
  DW_CFA_advance_loc: 1 to 00000000008a846a
  DW_CFA_def_cfa_offset: 16
  DW_CFA_offset: r6 (rbp) at cfa-16
  DW_CFA_advance_loc: 3 to 00000000008a846d
  DW_CFA_def_cfa_register: r6 (rbp)
  DW_CFA_advance_loc2: 288 to 00000000008a858d
  DW_CFA_def_cfa: r7 (rsp) ofs 8
  DW_CFA_nop

00002e00 000000000000001c 00002e04 FDE cie=00000000 pc=00000000008a858e..00000000008a85d7
  DW_CFA_advance_loc: 1 to 00000000008a858f
  DW_CFA_def_cfa_offset: 16
  DW_CFA_offset: r6 (rbp) at cfa-16
  DW_CFA_advance_loc: 3 to 00000000008a8592
  DW_CFA_def_cfa_register: r6 (rbp)
  DW_CFA_advance_loc1: 68 to 00000000008a85d6
  DW_CFA_def_cfa: r7 (rsp) ofs 8
  DW_CFA_nop
  DW_CFA_nop

00002e20 000000000000001c 00002e24 FDE cie=00000000 pc=00000000008a85d7..00000000008a86c5
  DW_CFA_advance_loc: 1 to 00000000008a85d8
  DW_CFA_def_cfa_offset: 16
  DW_CFA_offset: r6 (rbp) at cfa-16
  DW_CFA_advance_loc: 3 to 00000000008a85db
  DW_CFA_def_cfa_register: r6 (rbp)
  DW_CFA_advance_loc1: 233 to 00000000008a86c4
  DW_CFA_def_cfa: r7 (rsp) ofs 8
  DW_CFA_nop
  DW_CFA_nop

00002e40 000000000000001c 00002e44 FDE cie=00000000 pc=00000000008a86c5..00000000008a87b3
  DW_CFA_advance_loc: 1 to 00000000008a86c6
  DW_CFA_def_cfa_offset: 16
  DW_CFA_offset: r6 (rbp) at cfa-16
  DW_CFA_advance_loc: 3 to 00000000008a86c9
  DW_CFA_def_cfa_register: r6 (rbp)
  DW_CFA_advance_loc1: 233 to 00000000008a87b2
  DW_CFA_def_cfa: r7 (rsp) ofs 8
  DW_CFA_nop
  DW_CFA_nop

00002e60 000000000000001c 00002e64 FDE cie=00000000 pc=00000000008a87b3..00000000008a87fc
  DW_CFA_advance_loc: 1 to 00000000008a87b4
  DW_CFA_def_cfa_offset: 16
  DW_CFA_offset: r6 (rbp) at cfa-16
  DW_CFA_advance_loc: 3 to 00000000008a87b7
  DW_CFA_def_cfa_register: r6 (rbp)
  DW_CFA_advance_loc1: 68 to 00000000008a87fb
  DW_CFA_def_cfa: r7 (rsp) ofs 8
  DW_CFA_nop
  DW_CFA_nop

00002e80 000000000000001c 00002e84 FDE cie=00000000 pc=00000000008a87fc..00000000008a887c
  DW_CFA_advance_loc: 1 to 00000000008a87fd
  DW_CFA_def_cfa_offset: 16
  DW_CFA_offset: r6 (rbp) at cfa-16
  DW_CFA_advance_loc: 3 to 00000000008a8800
  DW_CFA_def_cfa_register: r6 (rbp)
  DW_CFA_advance_loc1: 123 to 00000000008a887b
  DW_CFA_def_cfa: r7 (rsp) ofs 8
  DW_CFA_nop
  DW_CFA_nop

00002ea0 000000000000001c 00002ea4 FDE cie=00000000 pc=00000000008a887c..00000000008a8933
  DW_CFA_advance_loc: 1 to 00000000008a887d
  DW_CFA_def_cfa_offset: 16
  DW_CFA_offset: r6 (rbp) at cfa-16
  DW_CFA_advance_loc: 3 to 00000000008a8880
  DW_CFA_def_cfa_register: r6 (rbp)
  DW_CFA_advance_loc1: 178 to 00000000008a8932
  DW_CFA_def_cfa: r7 (rsp) ofs 8
  DW_CFA_nop
  DW_CFA_nop

00002ec0 000000000000001c 00002ec4 FDE cie=00000000 pc=00000000008a8933..00000000008a8ba2
  DW_CFA_advance_loc: 1 to 00000000008a8934
  DW_CFA_def_cfa_offset: 16
  DW_CFA_offset: r6 (rbp) at cfa-16
  DW_CFA_advance_loc: 3 to 00000000008a8937
  DW_CFA_def_cfa_register: r6 (rbp)
  DW_CFA_advance_loc2: 618 to 00000000008a8ba1
  DW_CFA_def_cfa: r7 (rsp) ofs 8
  DW_CFA_nop

00002ee0 000000000000001c 00002ee4 FDE cie=00000000 pc=00000000008a8ba2..00000000008a8beb
  DW_CFA_advance_loc: 1 to 00000000008a8ba3
  DW_CFA_def_cfa_offset: 16
  DW_CFA_offset: r6 (rbp) at cfa-16
  DW_CFA_advance_loc: 3 to 00000000008a8ba6
  DW_CFA_def_cfa_register: r6 (rbp)
  DW_CFA_advance_loc1: 68 to 00000000008a8bea
  DW_CFA_def_cfa: r7 (rsp) ofs 8
  DW_CFA_nop
  DW_CFA_nop

00002f00 000000000000001c 00002f04 FDE cie=00000000 pc=00000000008a8beb..00000000008a8c6b
  DW_CFA_advance_loc: 1 to 00000000008a8bec
  DW_CFA_def_cfa_offset: 16
  DW_CFA_offset: r6 (rbp) at cfa-16
  DW_CFA_advance_loc: 3 to 00000000008a8bef
  DW_CFA_def_cfa_register: r6 (rbp)
  DW_CFA_advance_loc1: 123 to 00000000008a8c6a
  DW_CFA_def_cfa: r7 (rsp) ofs 8
  DW_CFA_nop
  DW_CFA_nop

00002f20 000000000000001c 00002f24 FDE cie=00000000 pc=00000000008a8c6b..00000000008a8cb4
  DW_CFA_advance_loc: 1 to 00000000008a8c6c
  DW_CFA_def_cfa_offset: 16
  DW_CFA_offset: r6 (rbp) at cfa-16
  DW_CFA_advance_loc: 3 to 00000000008a8c6f
  DW_CFA_def_cfa_register: r6 (rbp)
  DW_CFA_advance_loc1: 68 to 00000000008a8cb3
  DW_CFA_def_cfa: r7 (rsp) ofs 8
  DW_CFA_nop
  DW_CFA_nop

00002f40 000000000000001c 00002f44 FDE cie=00000000 pc=00000000008a8cb4..00000000008a8d34
  DW_CFA_advance_loc: 1 to 00000000008a8cb5
  DW_CFA_def_cfa_offset: 16
  DW_CFA_offset: r6 (rbp) at cfa-16
  DW_CFA_advance_loc: 3 to 00000000008a8cb8
  DW_CFA_def_cfa_register: r6 (rbp)
  DW_CFA_advance_loc1: 123 to 00000000008a8d33
  DW_CFA_def_cfa: r7 (rsp) ofs 8
  DW_CFA_nop
  DW_CFA_nop

00002f60 000000000000001c 00002f64 FDE cie=00000000 pc=00000000008a8d34..00000000008a8d7d
  DW_CFA_advance_loc: 1 to 00000000008a8d35
  DW_CFA_def_cfa_offset: 16
  DW_CFA_offset: r6 (rbp) at cfa-16
  DW_CFA_advance_loc: 3 to 00000000008a8d38
  DW_CFA_def_cfa_register: r6 (rbp)
  DW_CFA_advance_loc1: 68 to 00000000008a8d7c
  DW_CFA_def_cfa: r7 (rsp) ofs 8
  DW_CFA_nop
  DW_CFA_nop

00002f80 000000000000001c 00002f84 FDE cie=00000000 pc=00000000008a8d7d..00000000008a8dc6
  DW_CFA_advance_loc: 1 to 00000000008a8d7e
  DW_CFA_def_cfa_offset: 16
  DW_CFA_offset: r6 (rbp) at cfa-16
  DW_CFA_advance_loc: 3 to 00000000008a8d81
  DW_CFA_def_cfa_register: r6 (rbp)
  DW_CFA_advance_loc1: 68 to 00000000008a8dc5
  DW_CFA_def_cfa: r7 (rsp) ofs 8
  DW_CFA_nop
  DW_CFA_nop

00002fa0 000000000000001c 00002fa4 FDE cie=00000000 pc=00000000008a8dc6..00000000008a8e7d
  DW_CFA_advance_loc: 1 to 00000000008a8dc7
  DW_CFA_def_cfa_offset: 16
  DW_CFA_offset: r6 (rbp) at cfa-16
  DW_CFA_advance_loc: 3 to 00000000008a8dca
  DW_CFA_def_cfa_register: r6 (rbp)
  DW_CFA_advance_loc1: 178 to 00000000008a8e7c
  DW_CFA_def_cfa: r7 (rsp) ofs 8
  DW_CFA_nop
  DW_CFA_nop

00002fc0 000000000000001c 00002fc4 FDE cie=00000000 pc=00000000008a8e7d..00000000008a90ec
  DW_CFA_advance_loc: 1 to 00000000008a8e7e
  DW_CFA_def_cfa_offset: 16
  DW_CFA_offset: r6 (rbp) at cfa-16
  DW_CFA_advance_loc: 3 to 00000000008a8e81
  DW_CFA_def_cfa_register: r6 (rbp)
  DW_CFA_advance_loc2: 618 to 00000000008a90eb
  DW_CFA_def_cfa: r7 (rsp) ofs 8
  DW_CFA_nop

00002fe0 000000000000001c 00002fe4 FDE cie=00000000 pc=00000000008a90ec..00000000008a9135
  DW_CFA_advance_loc: 1 to 00000000008a90ed
  DW_CFA_def_cfa_offset: 16
  DW_CFA_offset: r6 (rbp) at cfa-16
  DW_CFA_advance_loc: 3 to 00000000008a90f0
  DW_CFA_def_cfa_register: r6 (rbp)
  DW_CFA_advance_loc1: 68 to 00000000008a9134
  DW_CFA_def_cfa: r7 (rsp) ofs 8
  DW_CFA_nop
  DW_CFA_nop

00003000 000000000000001c 00003004 FDE cie=00000000 pc=00000000008a9135..00000000008a925a
  DW_CFA_advance_loc: 1 to 00000000008a9136
  DW_CFA_def_cfa_offset: 16
  DW_CFA_offset: r6 (rbp) at cfa-16
  DW_CFA_advance_loc: 3 to 00000000008a9139
  DW_CFA_def_cfa_register: r6 (rbp)
  DW_CFA_advance_loc2: 288 to 00000000008a9259
  DW_CFA_def_cfa: r7 (rsp) ofs 8
  DW_CFA_nop

00003020 000000000000001c 00003024 FDE cie=00000000 pc=00000000008a925a..00000000008a9424
  DW_CFA_advance_loc: 1 to 00000000008a925b
  DW_CFA_def_cfa_offset: 16
  DW_CFA_offset: r6 (rbp) at cfa-16
  DW_CFA_advance_loc: 3 to 00000000008a925e
  DW_CFA_def_cfa_register: r6 (rbp)
  DW_CFA_advance_loc2: 453 to 00000000008a9423
  DW_CFA_def_cfa: r7 (rsp) ofs 8
  DW_CFA_nop

00003040 000000000000001c 00003044 FDE cie=00000000 pc=00000000008a9424..00000000008a94a4
  DW_CFA_advance_loc: 1 to 00000000008a9425
  DW_CFA_def_cfa_offset: 16
  DW_CFA_offset: r6 (rbp) at cfa-16
  DW_CFA_advance_loc: 3 to 00000000008a9428
  DW_CFA_def_cfa_register: r6 (rbp)
  DW_CFA_advance_loc1: 123 to 00000000008a94a3
  DW_CFA_def_cfa: r7 (rsp) ofs 8
  DW_CFA_nop
  DW_CFA_nop

00003060 000000000000001c 00003064 FDE cie=00000000 pc=00000000008a94a4..00000000008a955b
  DW_CFA_advance_loc: 1 to 00000000008a94a5
  DW_CFA_def_cfa_offset: 16
  DW_CFA_offset: r6 (rbp) at cfa-16
  DW_CFA_advance_loc: 3 to 00000000008a94a8
  DW_CFA_def_cfa_register: r6 (rbp)
  DW_CFA_advance_loc1: 178 to 00000000008a955a
  DW_CFA_def_cfa: r7 (rsp) ofs 8
  DW_CFA_nop
  DW_CFA_nop

00003080 000000000000001c 00003084 FDE cie=00000000 pc=00000000008a955b..00000000008a95db
  DW_CFA_advance_loc: 1 to 00000000008a955c
  DW_CFA_def_cfa_offset: 16
  DW_CFA_offset: r6 (rbp) at cfa-16
  DW_CFA_advance_loc: 3 to 00000000008a955f
  DW_CFA_def_cfa_register: r6 (rbp)
  DW_CFA_advance_loc1: 123 to 00000000008a95da
  DW_CFA_def_cfa: r7 (rsp) ofs 8
  DW_CFA_nop
  DW_CFA_nop

000030a0 000000000000001c 000030a4 FDE cie=00000000 pc=00000000008a95db..00000000008a96c9
  DW_CFA_advance_loc: 1 to 00000000008a95dc
  DW_CFA_def_cfa_offset: 16
  DW_CFA_offset: r6 (rbp) at cfa-16
  DW_CFA_advance_loc: 3 to 00000000008a95df
  DW_CFA_def_cfa_register: r6 (rbp)
  DW_CFA_advance_loc1: 233 to 00000000008a96c8
  DW_CFA_def_cfa: r7 (rsp) ofs 8
  DW_CFA_nop
  DW_CFA_nop

000030c0 000000000000001c 000030c4 FDE cie=00000000 pc=00000000008a96c9..00000000008a9780
  DW_CFA_advance_loc: 1 to 00000000008a96ca
  DW_CFA_def_cfa_offset: 16
  DW_CFA_offset: r6 (rbp) at cfa-16
  DW_CFA_advance_loc: 3 to 00000000008a96cd
  DW_CFA_def_cfa_register: r6 (rbp)
  DW_CFA_advance_loc1: 178 to 00000000008a977f
  DW_CFA_def_cfa: r7 (rsp) ofs 8
  DW_CFA_nop
  DW_CFA_nop

000030e0 000000000000001c 000030e4 FDE cie=00000000 pc=00000000008a9780..00000000008a9913
  DW_CFA_advance_loc: 1 to 00000000008a9781
  DW_CFA_def_cfa_offset: 16
  DW_CFA_offset: r6 (rbp) at cfa-16
  DW_CFA_advance_loc: 3 to 00000000008a9784
  DW_CFA_def_cfa_register: r6 (rbp)
  DW_CFA_advance_loc2: 398 to 00000000008a9912
  DW_CFA_def_cfa: r7 (rsp) ofs 8
  DW_CFA_nop

00003100 000000000000001c 00003104 FDE cie=00000000 pc=00000000008a9913..00000000008a9a38
  DW_CFA_advance_loc: 1 to 00000000008a9914
  DW_CFA_def_cfa_offset: 16
  DW_CFA_offset: r6 (rbp) at cfa-16
  DW_CFA_advance_loc: 3 to 00000000008a9917
  DW_CFA_def_cfa_register: r6 (rbp)
  DW_CFA_advance_loc2: 288 to 00000000008a9a37
  DW_CFA_def_cfa: r7 (rsp) ofs 8
  DW_CFA_nop

00003120 000000000000001c 00003124 FDE cie=00000000 pc=00000000008a9a38..00000000008a9aef
  DW_CFA_advance_loc: 1 to 00000000008a9a39
  DW_CFA_def_cfa_offset: 16
  DW_CFA_offset: r6 (rbp) at cfa-16
  DW_CFA_advance_loc: 3 to 00000000008a9a3c
  DW_CFA_def_cfa_register: r6 (rbp)
  DW_CFA_advance_loc1: 178 to 00000000008a9aee
  DW_CFA_def_cfa: r7 (rsp) ofs 8
  DW_CFA_nop
  DW_CFA_nop

00003140 000000000000001c 00003144 FDE cie=00000000 pc=00000000008a9aef..00000000008a9e71
  DW_CFA_advance_loc: 1 to 00000000008a9af0
  DW_CFA_def_cfa_offset: 16
  DW_CFA_offset: r6 (rbp) at cfa-16
  DW_CFA_advance_loc: 3 to 00000000008a9af3
  DW_CFA_def_cfa_register: r6 (rbp)
  DW_CFA_advance_loc2: 893 to 00000000008a9e70
  DW_CFA_def_cfa: r7 (rsp) ofs 8
  DW_CFA_nop

00003160 000000000000001c 00003164 FDE cie=00000000 pc=00000000008a9e71..00000000008a9ef1
  DW_CFA_advance_loc: 1 to 00000000008a9e72
  DW_CFA_def_cfa_offset: 16
  DW_CFA_offset: r6 (rbp) at cfa-16
  DW_CFA_advance_loc: 3 to 00000000008a9e75
  DW_CFA_def_cfa_register: r6 (rbp)
  DW_CFA_advance_loc1: 123 to 00000000008a9ef0
  DW_CFA_def_cfa: r7 (rsp) ofs 8
  DW_CFA_nop
  DW_CFA_nop

00003180 000000000000001c 00003184 FDE cie=00000000 pc=00000000008a9ef1..00000000008a9f71
  DW_CFA_advance_loc: 1 to 00000000008a9ef2
  DW_CFA_def_cfa_offset: 16
  DW_CFA_offset: r6 (rbp) at cfa-16
  DW_CFA_advance_loc: 3 to 00000000008a9ef5
  DW_CFA_def_cfa_register: r6 (rbp)
  DW_CFA_advance_loc1: 123 to 00000000008a9f70
  DW_CFA_def_cfa: r7 (rsp) ofs 8
  DW_CFA_nop
  DW_CFA_nop

000031a0 000000000000001c 000031a4 FDE cie=00000000 pc=00000000008a9f71..00000000008a9fba
  DW_CFA_advance_loc: 1 to 00000000008a9f72
  DW_CFA_def_cfa_offset: 16
  DW_CFA_offset: r6 (rbp) at cfa-16
  DW_CFA_advance_loc: 3 to 00000000008a9f75
  DW_CFA_def_cfa_register: r6 (rbp)
  DW_CFA_advance_loc1: 68 to 00000000008a9fb9
  DW_CFA_def_cfa: r7 (rsp) ofs 8
  DW_CFA_nop
  DW_CFA_nop

000031c0 000000000000001c 000031c4 FDE cie=00000000 pc=00000000008a9fba..00000000008aa0a8
  DW_CFA_advance_loc: 1 to 00000000008a9fbb
  DW_CFA_def_cfa_offset: 16
  DW_CFA_offset: r6 (rbp) at cfa-16
  DW_CFA_advance_loc: 3 to 00000000008a9fbe
  DW_CFA_def_cfa_register: r6 (rbp)
  DW_CFA_advance_loc1: 233 to 00000000008aa0a7
  DW_CFA_def_cfa: r7 (rsp) ofs 8
  DW_CFA_nop
  DW_CFA_nop

000031e0 000000000000001c 000031e4 FDE cie=00000000 pc=00000000008aa0a8..00000000008aa128
  DW_CFA_advance_loc: 1 to 00000000008aa0a9
  DW_CFA_def_cfa_offset: 16
  DW_CFA_offset: r6 (rbp) at cfa-16
  DW_CFA_advance_loc: 3 to 00000000008aa0ac
  DW_CFA_def_cfa_register: r6 (rbp)
  DW_CFA_advance_loc1: 123 to 00000000008aa127
  DW_CFA_def_cfa: r7 (rsp) ofs 8
  DW_CFA_nop
  DW_CFA_nop

00003200 000000000000001c 00003204 FDE cie=00000000 pc=00000000008aa128..00000000008aa171
  DW_CFA_advance_loc: 1 to 00000000008aa129
  DW_CFA_def_cfa_offset: 16
  DW_CFA_offset: r6 (rbp) at cfa-16
  DW_CFA_advance_loc: 3 to 00000000008aa12c
  DW_CFA_def_cfa_register: r6 (rbp)
  DW_CFA_advance_loc1: 68 to 00000000008aa170
  DW_CFA_def_cfa: r7 (rsp) ofs 8
  DW_CFA_nop
  DW_CFA_nop

00003220 000000000000001c 00003224 FDE cie=00000000 pc=00000000008aa171..00000000008aa1f1
  DW_CFA_advance_loc: 1 to 00000000008aa172
  DW_CFA_def_cfa_offset: 16
  DW_CFA_offset: r6 (rbp) at cfa-16
  DW_CFA_advance_loc: 3 to 00000000008aa175
  DW_CFA_def_cfa_register: r6 (rbp)
  DW_CFA_advance_loc1: 123 to 00000000008aa1f0
  DW_CFA_def_cfa: r7 (rsp) ofs 8
  DW_CFA_nop
  DW_CFA_nop

00003240 000000000000001c 00003244 FDE cie=00000000 pc=00000000008aa1f1..00000000008aa23a
  DW_CFA_advance_loc: 1 to 00000000008aa1f2
  DW_CFA_def_cfa_offset: 16
  DW_CFA_offset: r6 (rbp) at cfa-16
  DW_CFA_advance_loc: 3 to 00000000008aa1f5
  DW_CFA_def_cfa_register: r6 (rbp)
  DW_CFA_advance_loc1: 68 to 00000000008aa239
  DW_CFA_def_cfa: r7 (rsp) ofs 8
  DW_CFA_nop
  DW_CFA_nop

00003260 000000000000001c 00003264 FDE cie=00000000 pc=00000000008aa23a..00000000008aa283
  DW_CFA_advance_loc: 1 to 00000000008aa23b
  DW_CFA_def_cfa_offset: 16
  DW_CFA_offset: r6 (rbp) at cfa-16
  DW_CFA_advance_loc: 3 to 00000000008aa23e
  DW_CFA_def_cfa_register: r6 (rbp)
  DW_CFA_advance_loc1: 68 to 00000000008aa282
  DW_CFA_def_cfa: r7 (rsp) ofs 8
  DW_CFA_nop
  DW_CFA_nop

00003280 000000000000001c 00003284 FDE cie=00000000 pc=00000000008aa283..00000000008aa2cc
  DW_CFA_advance_loc: 1 to 00000000008aa284
  DW_CFA_def_cfa_offset: 16
  DW_CFA_offset: r6 (rbp) at cfa-16
  DW_CFA_advance_loc: 3 to 00000000008aa287
  DW_CFA_def_cfa_register: r6 (rbp)
  DW_CFA_advance_loc1: 68 to 00000000008aa2cb
  DW_CFA_def_cfa: r7 (rsp) ofs 8
  DW_CFA_nop
  DW_CFA_nop

000032a0 000000000000001c 000032a4 FDE cie=00000000 pc=00000000008aa2cc..00000000008aa3ba
  DW_CFA_advance_loc: 1 to 00000000008aa2cd
  DW_CFA_def_cfa_offset: 16
  DW_CFA_offset: r6 (rbp) at cfa-16
  DW_CFA_advance_loc: 3 to 00000000008aa2d0
  DW_CFA_def_cfa_register: r6 (rbp)
  DW_CFA_advance_loc1: 233 to 00000000008aa3b9
  DW_CFA_def_cfa: r7 (rsp) ofs 8
  DW_CFA_nop
  DW_CFA_nop

000032c0 000000000000001c 000032c4 FDE cie=00000000 pc=00000000008aa3ba..00000000008aa403
  DW_CFA_advance_loc: 1 to 00000000008aa3bb
  DW_CFA_def_cfa_offset: 16
  DW_CFA_offset: r6 (rbp) at cfa-16
  DW_CFA_advance_loc: 3 to 00000000008aa3be
  DW_CFA_def_cfa_register: r6 (rbp)
  DW_CFA_advance_loc1: 68 to 00000000008aa402
  DW_CFA_def_cfa: r7 (rsp) ofs 8
  DW_CFA_nop
  DW_CFA_nop

000032e0 000000000000001c 000032e4 FDE cie=00000000 pc=00000000008aa403..00000000008aa4f1
  DW_CFA_advance_loc: 1 to 00000000008aa404
  DW_CFA_def_cfa_offset: 16
  DW_CFA_offset: r6 (rbp) at cfa-16
  DW_CFA_advance_loc: 3 to 00000000008aa407
  DW_CFA_def_cfa_register: r6 (rbp)
  DW_CFA_advance_loc1: 233 to 00000000008aa4f0
  DW_CFA_def_cfa: r7 (rsp) ofs 8
  DW_CFA_nop
  DW_CFA_nop

00003300 000000000000001c 00003304 FDE cie=00000000 pc=00000000008aa4f1..00000000008aa5df
  DW_CFA_advance_loc: 1 to 00000000008aa4f2
  DW_CFA_def_cfa_offset: 16
  DW_CFA_offset: r6 (rbp) at cfa-16
  DW_CFA_advance_loc: 3 to 00000000008aa4f5
  DW_CFA_def_cfa_register: r6 (rbp)
  DW_CFA_advance_loc1: 233 to 00000000008aa5de
  DW_CFA_def_cfa: r7 (rsp) ofs 8
  DW_CFA_nop
  DW_CFA_nop

00003320 000000000000001c 00003324 FDE cie=00000000 pc=00000000008aa5df..00000000008aa65f
  DW_CFA_advance_loc: 1 to 00000000008aa5e0
  DW_CFA_def_cfa_offset: 16
  DW_CFA_offset: r6 (rbp) at cfa-16
  DW_CFA_advance_loc: 3 to 00000000008aa5e3
  DW_CFA_def_cfa_register: r6 (rbp)
  DW_CFA_advance_loc1: 123 to 00000000008aa65e
  DW_CFA_def_cfa: r7 (rsp) ofs 8
  DW_CFA_nop
  DW_CFA_nop

00003340 000000000000001c 00003344 FDE cie=00000000 pc=00000000008aa65f..00000000008aa74d
  DW_CFA_advance_loc: 1 to 00000000008aa660
  DW_CFA_def_cfa_offset: 16
  DW_CFA_offset: r6 (rbp) at cfa-16
  DW_CFA_advance_loc: 3 to 00000000008aa663
  DW_CFA_def_cfa_register: r6 (rbp)
  DW_CFA_advance_loc1: 233 to 00000000008aa74c
  DW_CFA_def_cfa: r7 (rsp) ofs 8
  DW_CFA_nop
  DW_CFA_nop

00003360 000000000000001c 00003364 FDE cie=00000000 pc=00000000008aa74d..00000000008aabab
  DW_CFA_advance_loc: 1 to 00000000008aa74e
  DW_CFA_def_cfa_offset: 16
  DW_CFA_offset: r6 (rbp) at cfa-16
  DW_CFA_advance_loc: 3 to 00000000008aa751
  DW_CFA_def_cfa_register: r6 (rbp)
  DW_CFA_advance_loc2: 1113 to 00000000008aabaa
  DW_CFA_def_cfa: r7 (rsp) ofs 8
  DW_CFA_nop

00003380 000000000000001c 00003384 FDE cie=00000000 pc=00000000008aabab..00000000008aac99
  DW_CFA_advance_loc: 1 to 00000000008aabac
  DW_CFA_def_cfa_offset: 16
  DW_CFA_offset: r6 (rbp) at cfa-16
  DW_CFA_advance_loc: 3 to 00000000008aabaf
  DW_CFA_def_cfa_register: r6 (rbp)
  DW_CFA_advance_loc1: 233 to 00000000008aac98
  DW_CFA_def_cfa: r7 (rsp) ofs 8
  DW_CFA_nop
  DW_CFA_nop

000033a0 000000000000001c 000033a4 FDE cie=00000000 pc=00000000008aac99..00000000008aad50
  DW_CFA_advance_loc: 1 to 00000000008aac9a
  DW_CFA_def_cfa_offset: 16
  DW_CFA_offset: r6 (rbp) at cfa-16
  DW_CFA_advance_loc: 3 to 00000000008aac9d
  DW_CFA_def_cfa_register: r6 (rbp)
  DW_CFA_advance_loc1: 178 to 00000000008aad4f
  DW_CFA_def_cfa: r7 (rsp) ofs 8
  DW_CFA_nop
  DW_CFA_nop

000033c0 000000000000001c 000033c4 FDE cie=00000000 pc=00000000008aad50..00000000008ab140
  DW_CFA_advance_loc: 1 to 00000000008aad51
  DW_CFA_def_cfa_offset: 16
  DW_CFA_offset: r6 (rbp) at cfa-16
  DW_CFA_advance_loc: 3 to 00000000008aad54
  DW_CFA_def_cfa_register: r6 (rbp)
  DW_CFA_advance_loc2: 1003 to 00000000008ab13f
  DW_CFA_def_cfa: r7 (rsp) ofs 8
  DW_CFA_nop

000033e0 000000000000001c 000033e4 FDE cie=00000000 pc=00000000008ab140..00000000008ab869
  DW_CFA_advance_loc: 1 to 00000000008ab141
  DW_CFA_def_cfa_offset: 16
  DW_CFA_offset: r6 (rbp) at cfa-16
  DW_CFA_advance_loc: 3 to 00000000008ab144
  DW_CFA_def_cfa_register: r6 (rbp)
  DW_CFA_advance_loc2: 1828 to 00000000008ab868
  DW_CFA_def_cfa: r7 (rsp) ofs 8
  DW_CFA_nop

00003400 000000000000001c 00003404 FDE cie=00000000 pc=00000000008ab869..00000000008ab8e9
  DW_CFA_advance_loc: 1 to 00000000008ab86a
  DW_CFA_def_cfa_offset: 16
  DW_CFA_offset: r6 (rbp) at cfa-16
  DW_CFA_advance_loc: 3 to 00000000008ab86d
  DW_CFA_def_cfa_register: r6 (rbp)
  DW_CFA_advance_loc1: 123 to 00000000008ab8e8
  DW_CFA_def_cfa: r7 (rsp) ofs 8
  DW_CFA_nop
  DW_CFA_nop

00003420 000000000000001c 00003424 FDE cie=00000000 pc=00000000008ab8e9..00000000008ab9a0
  DW_CFA_advance_loc: 1 to 00000000008ab8ea
  DW_CFA_def_cfa_offset: 16
  DW_CFA_offset: r6 (rbp) at cfa-16
  DW_CFA_advance_loc: 3 to 00000000008ab8ed
  DW_CFA_def_cfa_register: r6 (rbp)
  DW_CFA_advance_loc1: 178 to 00000000008ab99f
  DW_CFA_def_cfa: r7 (rsp) ofs 8
  DW_CFA_nop
  DW_CFA_nop

00003440 000000000000001c 00003444 FDE cie=00000000 pc=00000000008ab9a0..00000000008ab9e9
  DW_CFA_advance_loc: 1 to 00000000008ab9a1
  DW_CFA_def_cfa_offset: 16
  DW_CFA_offset: r6 (rbp) at cfa-16
  DW_CFA_advance_loc: 3 to 00000000008ab9a4
  DW_CFA_def_cfa_register: r6 (rbp)
  DW_CFA_advance_loc1: 68 to 00000000008ab9e8
  DW_CFA_def_cfa: r7 (rsp) ofs 8
  DW_CFA_nop
  DW_CFA_nop

00003460 000000000000001c 00003464 FDE cie=00000000 pc=00000000008ab9e9..00000000008aba32
  DW_CFA_advance_loc: 1 to 00000000008ab9ea
  DW_CFA_def_cfa_offset: 16
  DW_CFA_offset: r6 (rbp) at cfa-16
  DW_CFA_advance_loc: 3 to 00000000008ab9ed
  DW_CFA_def_cfa_register: r6 (rbp)
  DW_CFA_advance_loc1: 68 to 00000000008aba31
  DW_CFA_def_cfa: r7 (rsp) ofs 8
  DW_CFA_nop
  DW_CFA_nop

00003480 000000000000001c 00003484 FDE cie=00000000 pc=00000000008aba32..00000000008abb8e
  DW_CFA_advance_loc: 1 to 00000000008aba33
  DW_CFA_def_cfa_offset: 16
  DW_CFA_offset: r6 (rbp) at cfa-16
  DW_CFA_advance_loc: 3 to 00000000008aba36
  DW_CFA_def_cfa_register: r6 (rbp)
  DW_CFA_advance_loc2: 343 to 00000000008abb8d
  DW_CFA_def_cfa: r7 (rsp) ofs 8
  DW_CFA_nop

000034a0 000000000000001c 000034a4 FDE cie=00000000 pc=00000000008abb8e..00000000008abc0e
  DW_CFA_advance_loc: 1 to 00000000008abb8f
  DW_CFA_def_cfa_offset: 16
  DW_CFA_offset: r6 (rbp) at cfa-16
  DW_CFA_advance_loc: 3 to 00000000008abb92
  DW_CFA_def_cfa_register: r6 (rbp)
  DW_CFA_advance_loc1: 123 to 00000000008abc0d
  DW_CFA_def_cfa: r7 (rsp) ofs 8
  DW_CFA_nop
  DW_CFA_nop

000034c0 000000000000001c 000034c4 FDE cie=00000000 pc=00000000008abc0e..00000000008abd33
  DW_CFA_advance_loc: 1 to 00000000008abc0f
  DW_CFA_def_cfa_offset: 16
  DW_CFA_offset: r6 (rbp) at cfa-16
  DW_CFA_advance_loc: 3 to 00000000008abc12
  DW_CFA_def_cfa_register: r6 (rbp)
  DW_CFA_advance_loc2: 288 to 00000000008abd32
  DW_CFA_def_cfa: r7 (rsp) ofs 8
  DW_CFA_nop

000034e0 000000000000001c 000034e4 FDE cie=00000000 pc=00000000008abd33..00000000008abe8f
  DW_CFA_advance_loc: 1 to 00000000008abd34
  DW_CFA_def_cfa_offset: 16
  DW_CFA_offset: r6 (rbp) at cfa-16
  DW_CFA_advance_loc: 3 to 00000000008abd37
  DW_CFA_def_cfa_register: r6 (rbp)
  DW_CFA_advance_loc2: 343 to 00000000008abe8e
  DW_CFA_def_cfa: r7 (rsp) ofs 8
  DW_CFA_nop

00003500 000000000000001c 00003504 FDE cie=00000000 pc=00000000008abe8f..00000000008abf0f
  DW_CFA_advance_loc: 1 to 00000000008abe90
  DW_CFA_def_cfa_offset: 16
  DW_CFA_offset: r6 (rbp) at cfa-16
  DW_CFA_advance_loc: 3 to 00000000008abe93
  DW_CFA_def_cfa_register: r6 (rbp)
  DW_CFA_advance_loc1: 123 to 00000000008abf0e
  DW_CFA_def_cfa: r7 (rsp) ofs 8
  DW_CFA_nop
  DW_CFA_nop

00003520 000000000000001c 00003524 FDE cie=00000000 pc=00000000008abf0f..00000000008abf58
  DW_CFA_advance_loc: 1 to 00000000008abf10
  DW_CFA_def_cfa_offset: 16
  DW_CFA_offset: r6 (rbp) at cfa-16
  DW_CFA_advance_loc: 3 to 00000000008abf13
  DW_CFA_def_cfa_register: r6 (rbp)
  DW_CFA_advance_loc1: 68 to 00000000008abf57
  DW_CFA_def_cfa: r7 (rsp) ofs 8
  DW_CFA_nop
  DW_CFA_nop

00003540 000000000000001c 00003544 FDE cie=00000000 pc=00000000008abf58..00000000008ac6b8
  DW_CFA_advance_loc: 1 to 00000000008abf59
  DW_CFA_def_cfa_offset: 16
  DW_CFA_offset: r6 (rbp) at cfa-16
  DW_CFA_advance_loc: 3 to 00000000008abf5c
  DW_CFA_def_cfa_register: r6 (rbp)
  DW_CFA_advance_loc2: 1883 to 00000000008ac6b7
  DW_CFA_def_cfa: r7 (rsp) ofs 8
  DW_CFA_nop

00003560 000000000000001c 00003564 FDE cie=00000000 pc=00000000008ac6b8..00000000008ac882
  DW_CFA_advance_loc: 1 to 00000000008ac6b9
  DW_CFA_def_cfa_offset: 16
  DW_CFA_offset: r6 (rbp) at cfa-16
  DW_CFA_advance_loc: 3 to 00000000008ac6bc
  DW_CFA_def_cfa_register: r6 (rbp)
  DW_CFA_advance_loc2: 453 to 00000000008ac881
  DW_CFA_def_cfa: r7 (rsp) ofs 8
  DW_CFA_nop

00003580 000000000000001c 00003584 FDE cie=00000000 pc=00000000008ac882..00000000008ac902
  DW_CFA_advance_loc: 1 to 00000000008ac883
  DW_CFA_def_cfa_offset: 16
  DW_CFA_offset: r6 (rbp) at cfa-16
  DW_CFA_advance_loc: 3 to 00000000008ac886
  DW_CFA_def_cfa_register: r6 (rbp)
  DW_CFA_advance_loc1: 123 to 00000000008ac901
  DW_CFA_def_cfa: r7 (rsp) ofs 8
  DW_CFA_nop
  DW_CFA_nop

000035a0 000000000000001c 000035a4 FDE cie=00000000 pc=00000000008ac902..00000000008aca5e
  DW_CFA_advance_loc: 1 to 00000000008ac903
  DW_CFA_def_cfa_offset: 16
  DW_CFA_offset: r6 (rbp) at cfa-16
  DW_CFA_advance_loc: 3 to 00000000008ac906
  DW_CFA_def_cfa_register: r6 (rbp)
  DW_CFA_advance_loc2: 343 to 00000000008aca5d
  DW_CFA_def_cfa: r7 (rsp) ofs 8
  DW_CFA_nop

000035c0 000000000000001c 000035c4 FDE cie=00000000 pc=00000000008aca5e..00000000008acaa7
  DW_CFA_advance_loc: 1 to 00000000008aca5f
  DW_CFA_def_cfa_offset: 16
  DW_CFA_offset: r6 (rbp) at cfa-16
  DW_CFA_advance_loc: 3 to 00000000008aca62
  DW_CFA_def_cfa_register: r6 (rbp)
  DW_CFA_advance_loc1: 68 to 00000000008acaa6
  DW_CFA_def_cfa: r7 (rsp) ofs 8
  DW_CFA_nop
  DW_CFA_nop

000035e0 000000000000001c 000035e4 FDE cie=00000000 pc=00000000008acaa7..00000000008acf05
  DW_CFA_advance_loc: 1 to 00000000008acaa8
  DW_CFA_def_cfa_offset: 16
  DW_CFA_offset: r6 (rbp) at cfa-16
  DW_CFA_advance_loc: 3 to 00000000008acaab
  DW_CFA_def_cfa_register: r6 (rbp)
  DW_CFA_advance_loc2: 1113 to 00000000008acf04
  DW_CFA_def_cfa: r7 (rsp) ofs 8
  DW_CFA_nop

00003600 000000000000001c 00003604 FDE cie=00000000 pc=00000000008acf05..00000000008acf4e
  DW_CFA_advance_loc: 1 to 00000000008acf06
  DW_CFA_def_cfa_offset: 16
  DW_CFA_offset: r6 (rbp) at cfa-16
  DW_CFA_advance_loc: 3 to 00000000008acf09
  DW_CFA_def_cfa_register: r6 (rbp)
  DW_CFA_advance_loc1: 68 to 00000000008acf4d
  DW_CFA_def_cfa: r7 (rsp) ofs 8
  DW_CFA_nop
  DW_CFA_nop

00003620 000000000000001c 00003624 FDE cie=00000000 pc=00000000008acf4e..00000000008ad262
  DW_CFA_advance_loc: 1 to 00000000008acf4f
  DW_CFA_def_cfa_offset: 16
  DW_CFA_offset: r6 (rbp) at cfa-16
  DW_CFA_advance_loc: 3 to 00000000008acf52
  DW_CFA_def_cfa_register: r6 (rbp)
  DW_CFA_advance_loc2: 783 to 00000000008ad261
  DW_CFA_def_cfa: r7 (rsp) ofs 8
  DW_CFA_nop

00003640 000000000000001c 00003644 FDE cie=00000000 pc=00000000008ad262..00000000008adf58
  DW_CFA_advance_loc: 1 to 00000000008ad263
  DW_CFA_def_cfa_offset: 16
  DW_CFA_offset: r6 (rbp) at cfa-16
  DW_CFA_advance_loc: 3 to 00000000008ad266
  DW_CFA_def_cfa_register: r6 (rbp)
  DW_CFA_advance_loc2: 3313 to 00000000008adf57
  DW_CFA_def_cfa: r7 (rsp) ofs 8
  DW_CFA_nop

00003660 000000000000001c 00003664 FDE cie=00000000 pc=00000000008adf58..00000000008adfa1
  DW_CFA_advance_loc: 1 to 00000000008adf59
  DW_CFA_def_cfa_offset: 16
  DW_CFA_offset: r6 (rbp) at cfa-16
  DW_CFA_advance_loc: 3 to 00000000008adf5c
  DW_CFA_def_cfa_register: r6 (rbp)
  DW_CFA_advance_loc1: 68 to 00000000008adfa0
  DW_CFA_def_cfa: r7 (rsp) ofs 8
  DW_CFA_nop
  DW_CFA_nop

00003680 000000000000001c 00003684 FDE cie=00000000 pc=00000000008adfa1..00000000008ae021
  DW_CFA_advance_loc: 1 to 00000000008adfa2
  DW_CFA_def_cfa_offset: 16
  DW_CFA_offset: r6 (rbp) at cfa-16
  DW_CFA_advance_loc: 3 to 00000000008adfa5
  DW_CFA_def_cfa_register: r6 (rbp)
  DW_CFA_advance_loc1: 123 to 00000000008ae020
  DW_CFA_def_cfa: r7 (rsp) ofs 8
  DW_CFA_nop
  DW_CFA_nop

000036a0 000000000000001c 000036a4 FDE cie=00000000 pc=00000000008ae021..00000000008ae894
  DW_CFA_advance_loc: 1 to 00000000008ae022
  DW_CFA_def_cfa_offset: 16
  DW_CFA_offset: r6 (rbp) at cfa-16
  DW_CFA_advance_loc: 3 to 00000000008ae025
  DW_CFA_def_cfa_register: r6 (rbp)
  DW_CFA_advance_loc2: 2158 to 00000000008ae893
  DW_CFA_def_cfa: r7 (rsp) ofs 8
  DW_CFA_nop

000036c0 000000000000001c 000036c4 FDE cie=00000000 pc=00000000008ae894..00000000008ae8dd
  DW_CFA_advance_loc: 1 to 00000000008ae895
  DW_CFA_def_cfa_offset: 16
  DW_CFA_offset: r6 (rbp) at cfa-16
  DW_CFA_advance_loc: 3 to 00000000008ae898
  DW_CFA_def_cfa_register: r6 (rbp)
  DW_CFA_advance_loc1: 68 to 00000000008ae8dc
  DW_CFA_def_cfa: r7 (rsp) ofs 8
  DW_CFA_nop
  DW_CFA_nop

000036e0 000000000000001c 000036e4 FDE cie=00000000 pc=00000000008ae8dd..00000000008aeaa7
  DW_CFA_advance_loc: 1 to 00000000008ae8de
  DW_CFA_def_cfa_offset: 16
  DW_CFA_offset: r6 (rbp) at cfa-16
  DW_CFA_advance_loc: 3 to 00000000008ae8e1
  DW_CFA_def_cfa_register: r6 (rbp)
  DW_CFA_advance_loc2: 453 to 00000000008aeaa6
  DW_CFA_def_cfa: r7 (rsp) ofs 8
  DW_CFA_nop

00003700 000000000000001c 00003704 FDE cie=00000000 pc=00000000008aeaa7..00000000008aec03
  DW_CFA_advance_loc: 1 to 00000000008aeaa8
  DW_CFA_def_cfa_offset: 16
  DW_CFA_offset: r6 (rbp) at cfa-16
  DW_CFA_advance_loc: 3 to 00000000008aeaab
  DW_CFA_def_cfa_register: r6 (rbp)
  DW_CFA_advance_loc2: 343 to 00000000008aec02
  DW_CFA_def_cfa: r7 (rsp) ofs 8
  DW_CFA_nop

00003720 000000000000001c 00003724 FDE cie=00000000 pc=00000000008aec03..00000000008aec83
  DW_CFA_advance_loc: 1 to 00000000008aec04
  DW_CFA_def_cfa_offset: 16
  DW_CFA_offset: r6 (rbp) at cfa-16
  DW_CFA_advance_loc: 3 to 00000000008aec07
  DW_CFA_def_cfa_register: r6 (rbp)
  DW_CFA_advance_loc1: 123 to 00000000008aec82
  DW_CFA_def_cfa: r7 (rsp) ofs 8
  DW_CFA_nop
  DW_CFA_nop

00003740 000000000000001c 00003744 FDE cie=00000000 pc=00000000008aec83..00000000008aee16
  DW_CFA_advance_loc: 1 to 00000000008aec84
  DW_CFA_def_cfa_offset: 16
  DW_CFA_offset: r6 (rbp) at cfa-16
  DW_CFA_advance_loc: 3 to 00000000008aec87
  DW_CFA_def_cfa_register: r6 (rbp)
  DW_CFA_advance_loc2: 398 to 00000000008aee15
  DW_CFA_def_cfa: r7 (rsp) ofs 8
  DW_CFA_nop

00003760 000000000000001c 00003764 FDE cie=00000000 pc=00000000008aee16..00000000008aee96
  DW_CFA_advance_loc: 1 to 00000000008aee17
  DW_CFA_def_cfa_offset: 16
  DW_CFA_offset: r6 (rbp) at cfa-16
  DW_CFA_advance_loc: 3 to 00000000008aee1a
  DW_CFA_def_cfa_register: r6 (rbp)
  DW_CFA_advance_loc1: 123 to 00000000008aee95
  DW_CFA_def_cfa: r7 (rsp) ofs 8
  DW_CFA_nop
  DW_CFA_nop

00003780 000000000000001c 00003784 FDE cie=00000000 pc=00000000008aee96..00000000008aeedf
  DW_CFA_advance_loc: 1 to 00000000008aee97
  DW_CFA_def_cfa_offset: 16
  DW_CFA_offset: r6 (rbp) at cfa-16
  DW_CFA_advance_loc: 3 to 00000000008aee9a
  DW_CFA_def_cfa_register: r6 (rbp)
  DW_CFA_advance_loc1: 68 to 00000000008aeede
  DW_CFA_def_cfa: r7 (rsp) ofs 8
  DW_CFA_nop
  DW_CFA_nop

000037a0 000000000000001c 000037a4 FDE cie=00000000 pc=00000000008aeedf..00000000008aef5f
  DW_CFA_advance_loc: 1 to 00000000008aeee0
  DW_CFA_def_cfa_offset: 16
  DW_CFA_offset: r6 (rbp) at cfa-16
  DW_CFA_advance_loc: 3 to 00000000008aeee3
  DW_CFA_def_cfa_register: r6 (rbp)
  DW_CFA_advance_loc1: 123 to 00000000008aef5e
  DW_CFA_def_cfa: r7 (rsp) ofs 8
  DW_CFA_nop
  DW_CFA_nop

000037c0 000000000000001c 000037c4 FDE cie=00000000 pc=00000000008aef5f..00000000008af0f2
  DW_CFA_advance_loc: 1 to 00000000008aef60
  DW_CFA_def_cfa_offset: 16
  DW_CFA_offset: r6 (rbp) at cfa-16
  DW_CFA_advance_loc: 3 to 00000000008aef63
  DW_CFA_def_cfa_register: r6 (rbp)
  DW_CFA_advance_loc2: 398 to 00000000008af0f1
  DW_CFA_def_cfa: r7 (rsp) ofs 8
  DW_CFA_nop

000037e0 000000000000001c 000037e4 FDE cie=00000000 pc=00000000008af0f2..00000000008af1e0
  DW_CFA_advance_loc: 1 to 00000000008af0f3
  DW_CFA_def_cfa_offset: 16
  DW_CFA_offset: r6 (rbp) at cfa-16
  DW_CFA_advance_loc: 3 to 00000000008af0f6
  DW_CFA_def_cfa_register: r6 (rbp)
  DW_CFA_advance_loc1: 233 to 00000000008af1df
  DW_CFA_def_cfa: r7 (rsp) ofs 8
  DW_CFA_nop
  DW_CFA_nop

00003800 000000000000001c 00003804 FDE cie=00000000 pc=00000000008af1e0..00000000008af33c
  DW_CFA_advance_loc: 1 to 00000000008af1e1
  DW_CFA_def_cfa_offset: 16
  DW_CFA_offset: r6 (rbp) at cfa-16
  DW_CFA_advance_loc: 3 to 00000000008af1e4
  DW_CFA_def_cfa_register: r6 (rbp)
  DW_CFA_advance_loc2: 343 to 00000000008af33b
  DW_CFA_def_cfa: r7 (rsp) ofs 8
  DW_CFA_nop

00003820 000000000000001c 00003824 FDE cie=00000000 pc=00000000008af33c..00000000008af42a
  DW_CFA_advance_loc: 1 to 00000000008af33d
  DW_CFA_def_cfa_offset: 16
  DW_CFA_offset: r6 (rbp) at cfa-16
  DW_CFA_advance_loc: 3 to 00000000008af340
  DW_CFA_def_cfa_register: r6 (rbp)
  DW_CFA_advance_loc1: 233 to 00000000008af429
  DW_CFA_def_cfa: r7 (rsp) ofs 8
  DW_CFA_nop
  DW_CFA_nop

00003840 000000000000001c 00003844 FDE cie=00000000 pc=00000000008af42a..00000000008af473
  DW_CFA_advance_loc: 1 to 00000000008af42b
  DW_CFA_def_cfa_offset: 16
  DW_CFA_offset: r6 (rbp) at cfa-16
  DW_CFA_advance_loc: 3 to 00000000008af42e
  DW_CFA_def_cfa_register: r6 (rbp)
  DW_CFA_advance_loc1: 68 to 00000000008af472
  DW_CFA_def_cfa: r7 (rsp) ofs 8
  DW_CFA_nop
  DW_CFA_nop

00003860 000000000000001c 00003864 FDE cie=00000000 pc=00000000008af473..00000000008af52a
  DW_CFA_advance_loc: 1 to 00000000008af474
  DW_CFA_def_cfa_offset: 16
  DW_CFA_offset: r6 (rbp) at cfa-16
  DW_CFA_advance_loc: 3 to 00000000008af477
  DW_CFA_def_cfa_register: r6 (rbp)
  DW_CFA_advance_loc1: 178 to 00000000008af529
  DW_CFA_def_cfa: r7 (rsp) ofs 8
  DW_CFA_nop
  DW_CFA_nop

00003880 000000000000001c 00003884 FDE cie=00000000 pc=00000000008af52a..00000000008af6bd
  DW_CFA_advance_loc: 1 to 00000000008af52b
  DW_CFA_def_cfa_offset: 16
  DW_CFA_offset: r6 (rbp) at cfa-16
  DW_CFA_advance_loc: 3 to 00000000008af52e
  DW_CFA_def_cfa_register: r6 (rbp)
  DW_CFA_advance_loc2: 398 to 00000000008af6bc
  DW_CFA_def_cfa: r7 (rsp) ofs 8
  DW_CFA_nop

000038a0 000000000000001c 000038a4 FDE cie=00000000 pc=00000000008af6bd..00000000008af7ab
  DW_CFA_advance_loc: 1 to 00000000008af6be
  DW_CFA_def_cfa_offset: 16
  DW_CFA_offset: r6 (rbp) at cfa-16
  DW_CFA_advance_loc: 3 to 00000000008af6c1
  DW_CFA_def_cfa_register: r6 (rbp)
  DW_CFA_advance_loc1: 233 to 00000000008af7aa
  DW_CFA_def_cfa: r7 (rsp) ofs 8
  DW_CFA_nop
  DW_CFA_nop

000038c0 000000000000001c 000038c4 FDE cie=00000000 pc=00000000008af7ab..00000000008af82b
  DW_CFA_advance_loc: 1 to 00000000008af7ac
  DW_CFA_def_cfa_offset: 16
  DW_CFA_offset: r6 (rbp) at cfa-16
  DW_CFA_advance_loc: 3 to 00000000008af7af
  DW_CFA_def_cfa_register: r6 (rbp)
  DW_CFA_advance_loc1: 123 to 00000000008af82a
  DW_CFA_def_cfa: r7 (rsp) ofs 8
  DW_CFA_nop
  DW_CFA_nop

000038e0 000000000000001c 000038e4 FDE cie=00000000 pc=00000000008af82b..00000000008af919
  DW_CFA_advance_loc: 1 to 00000000008af82c
  DW_CFA_def_cfa_offset: 16
  DW_CFA_offset: r6 (rbp) at cfa-16
  DW_CFA_advance_loc: 3 to 00000000008af82f
  DW_CFA_def_cfa_register: r6 (rbp)
  DW_CFA_advance_loc1: 233 to 00000000008af918
  DW_CFA_def_cfa: r7 (rsp) ofs 8
  DW_CFA_nop
  DW_CFA_nop

00003900 000000000000001c 00003904 FDE cie=00000000 pc=00000000008af919..00000000008afb51
  DW_CFA_advance_loc: 1 to 00000000008af91a
  DW_CFA_def_cfa_offset: 16
  DW_CFA_offset: r6 (rbp) at cfa-16
  DW_CFA_advance_loc: 3 to 00000000008af91d
  DW_CFA_def_cfa_register: r6 (rbp)
  DW_CFA_advance_loc2: 563 to 00000000008afb50
  DW_CFA_def_cfa: r7 (rsp) ofs 8
  DW_CFA_nop

00003920 000000000000001c 00003924 FDE cie=00000000 pc=00000000008afb51..00000000008afc3f
  DW_CFA_advance_loc: 1 to 00000000008afb52
  DW_CFA_def_cfa_offset: 16
  DW_CFA_offset: r6 (rbp) at cfa-16
  DW_CFA_advance_loc: 3 to 00000000008afb55
  DW_CFA_def_cfa_register: r6 (rbp)
  DW_CFA_advance_loc1: 233 to 00000000008afc3e
  DW_CFA_def_cfa: r7 (rsp) ofs 8
  DW_CFA_nop
  DW_CFA_nop

00003940 000000000000001c 00003944 FDE cie=00000000 pc=00000000008afc3f..00000000008afe77
  DW_CFA_advance_loc: 1 to 00000000008afc40
  DW_CFA_def_cfa_offset: 16
  DW_CFA_offset: r6 (rbp) at cfa-16
  DW_CFA_advance_loc: 3 to 00000000008afc43
  DW_CFA_def_cfa_register: r6 (rbp)
  DW_CFA_advance_loc2: 563 to 00000000008afe76
  DW_CFA_def_cfa: r7 (rsp) ofs 8
  DW_CFA_nop

00003960 000000000000001c 00003964 FDE cie=00000000 pc=00000000008afe77..00000000008affd3
  DW_CFA_advance_loc: 1 to 00000000008afe78
  DW_CFA_def_cfa_offset: 16
  DW_CFA_offset: r6 (rbp) at cfa-16
  DW_CFA_advance_loc: 3 to 00000000008afe7b
  DW_CFA_def_cfa_register: r6 (rbp)
  DW_CFA_advance_loc2: 343 to 00000000008affd2
  DW_CFA_def_cfa: r7 (rsp) ofs 8
  DW_CFA_nop

00003980 000000000000001c 00003984 FDE cie=00000000 pc=00000000008affd3..00000000008b020b
  DW_CFA_advance_loc: 1 to 00000000008affd4
  DW_CFA_def_cfa_offset: 16
  DW_CFA_offset: r6 (rbp) at cfa-16
  DW_CFA_advance_loc: 3 to 00000000008affd7
  DW_CFA_def_cfa_register: r6 (rbp)
  DW_CFA_advance_loc2: 563 to 00000000008b020a
  DW_CFA_def_cfa: r7 (rsp) ofs 8
  DW_CFA_nop

000039a0 000000000000001c 000039a4 FDE cie=00000000 pc=00000000008b020b..00000000008b047a
  DW_CFA_advance_loc: 1 to 00000000008b020c
  DW_CFA_def_cfa_offset: 16
  DW_CFA_offset: r6 (rbp) at cfa-16
  DW_CFA_advance_loc: 3 to 00000000008b020f
  DW_CFA_def_cfa_register: r6 (rbp)
  DW_CFA_advance_loc2: 618 to 00000000008b0479
  DW_CFA_def_cfa: r7 (rsp) ofs 8
  DW_CFA_nop

000039c0 000000000000001c 000039c4 FDE cie=00000000 pc=00000000008b047a..00000000008b11de
  DW_CFA_advance_loc: 1 to 00000000008b047b
  DW_CFA_def_cfa_offset: 16
  DW_CFA_offset: r6 (rbp) at cfa-16
  DW_CFA_advance_loc: 3 to 00000000008b047e
  DW_CFA_def_cfa_register: r6 (rbp)
  DW_CFA_advance_loc2: 3423 to 00000000008b11dd
  DW_CFA_def_cfa: r7 (rsp) ofs 8
  DW_CFA_nop

000039e0 000000000000001c 000039e4 FDE cie=00000000 pc=00000000008b11de..00000000008b1295
  DW_CFA_advance_loc: 1 to 00000000008b11df
  DW_CFA_def_cfa_offset: 16
  DW_CFA_offset: r6 (rbp) at cfa-16
  DW_CFA_advance_loc: 3 to 00000000008b11e2
  DW_CFA_def_cfa_register: r6 (rbp)
  DW_CFA_advance_loc1: 178 to 00000000008b1294
  DW_CFA_def_cfa: r7 (rsp) ofs 8
  DW_CFA_nop
  DW_CFA_nop

00003a00 000000000000001c 00003a04 FDE cie=00000000 pc=00000000008b1295..00000000008b1ad1
  DW_CFA_advance_loc: 1 to 00000000008b1296
  DW_CFA_def_cfa_offset: 16
  DW_CFA_offset: r6 (rbp) at cfa-16
  DW_CFA_advance_loc: 3 to 00000000008b1299
  DW_CFA_def_cfa_register: r6 (rbp)
  DW_CFA_advance_loc2: 2103 to 00000000008b1ad0
  DW_CFA_def_cfa: r7 (rsp) ofs 8
  DW_CFA_nop

00003a20 000000000000001c 00003a24 FDE cie=00000000 pc=00000000008b1ad1..00000000008b1d09
  DW_CFA_advance_loc: 1 to 00000000008b1ad2
  DW_CFA_def_cfa_offset: 16
  DW_CFA_offset: r6 (rbp) at cfa-16
  DW_CFA_advance_loc: 3 to 00000000008b1ad5
  DW_CFA_def_cfa_register: r6 (rbp)
  DW_CFA_advance_loc2: 563 to 00000000008b1d08
  DW_CFA_def_cfa: r7 (rsp) ofs 8
  DW_CFA_nop

00003a40 000000000000001c 00003a44 FDE cie=00000000 pc=00000000008b1d09..00000000008b208b
  DW_CFA_advance_loc: 1 to 00000000008b1d0a
  DW_CFA_def_cfa_offset: 16
  DW_CFA_offset: r6 (rbp) at cfa-16
  DW_CFA_advance_loc: 3 to 00000000008b1d0d
  DW_CFA_def_cfa_register: r6 (rbp)
  DW_CFA_advance_loc2: 893 to 00000000008b208a
  DW_CFA_def_cfa: r7 (rsp) ofs 8
  DW_CFA_nop

00003a60 000000000000001c 00003a64 FDE cie=00000000 pc=00000000008b208b..00000000008b20d4
  DW_CFA_advance_loc: 1 to 00000000008b208c
  DW_CFA_def_cfa_offset: 16
  DW_CFA_offset: r6 (rbp) at cfa-16
  DW_CFA_advance_loc: 3 to 00000000008b208f
  DW_CFA_def_cfa_register: r6 (rbp)
  DW_CFA_advance_loc1: 68 to 00000000008b20d3
  DW_CFA_def_cfa: r7 (rsp) ofs 8
  DW_CFA_nop
  DW_CFA_nop

00003a80 000000000000001c 00003a84 FDE cie=00000000 pc=00000000008b20d4..00000000008b218b
  DW_CFA_advance_loc: 1 to 00000000008b20d5
  DW_CFA_def_cfa_offset: 16
  DW_CFA_offset: r6 (rbp) at cfa-16
  DW_CFA_advance_loc: 3 to 00000000008b20d8
  DW_CFA_def_cfa_register: r6 (rbp)
  DW_CFA_advance_loc1: 178 to 00000000008b218a
  DW_CFA_def_cfa: r7 (rsp) ofs 8
  DW_CFA_nop
  DW_CFA_nop

00003aa0 000000000000001c 00003aa4 FDE cie=00000000 pc=00000000008b218b..00000000008b2279
  DW_CFA_advance_loc: 1 to 00000000008b218c
  DW_CFA_def_cfa_offset: 16
  DW_CFA_offset: r6 (rbp) at cfa-16
  DW_CFA_advance_loc: 3 to 00000000008b218f
  DW_CFA_def_cfa_register: r6 (rbp)
  DW_CFA_advance_loc1: 233 to 00000000008b2278
  DW_CFA_def_cfa: r7 (rsp) ofs 8
  DW_CFA_nop
  DW_CFA_nop

00003ac0 000000000000001c 00003ac4 FDE cie=00000000 pc=00000000008b2279..00000000008b258d
  DW_CFA_advance_loc: 1 to 00000000008b227a
  DW_CFA_def_cfa_offset: 16
  DW_CFA_offset: r6 (rbp) at cfa-16
  DW_CFA_advance_loc: 3 to 00000000008b227d
  DW_CFA_def_cfa_register: r6 (rbp)
  DW_CFA_advance_loc2: 783 to 00000000008b258c
  DW_CFA_def_cfa: r7 (rsp) ofs 8
  DW_CFA_nop

00003ae0 000000000000001c 00003ae4 FDE cie=00000000 pc=00000000008b258d..00000000008b260d
  DW_CFA_advance_loc: 1 to 00000000008b258e
  DW_CFA_def_cfa_offset: 16
  DW_CFA_offset: r6 (rbp) at cfa-16
  DW_CFA_advance_loc: 3 to 00000000008b2591
  DW_CFA_def_cfa_register: r6 (rbp)
  DW_CFA_advance_loc1: 123 to 00000000008b260c
  DW_CFA_def_cfa: r7 (rsp) ofs 8
  DW_CFA_nop
  DW_CFA_nop

00003b00 000000000000001c 00003b04 FDE cie=00000000 pc=00000000008b260d..00000000008b268d
  DW_CFA_advance_loc: 1 to 00000000008b260e
  DW_CFA_def_cfa_offset: 16
  DW_CFA_offset: r6 (rbp) at cfa-16
  DW_CFA_advance_loc: 3 to 00000000008b2611
  DW_CFA_def_cfa_register: r6 (rbp)
  DW_CFA_advance_loc1: 123 to 00000000008b268c
  DW_CFA_def_cfa: r7 (rsp) ofs 8
  DW_CFA_nop
  DW_CFA_nop

00003b20 000000000000001c 00003b24 FDE cie=00000000 pc=00000000008b268d..00000000008b270d
  DW_CFA_advance_loc: 1 to 00000000008b268e
  DW_CFA_def_cfa_offset: 16
  DW_CFA_offset: r6 (rbp) at cfa-16
  DW_CFA_advance_loc: 3 to 00000000008b2691
  DW_CFA_def_cfa_register: r6 (rbp)
  DW_CFA_advance_loc1: 123 to 00000000008b270c
  DW_CFA_def_cfa: r7 (rsp) ofs 8
  DW_CFA_nop
  DW_CFA_nop

00003b40 000000000000001c 00003b44 FDE cie=00000000 pc=00000000008b270d..00000000008b29b3
  DW_CFA_advance_loc: 1 to 00000000008b270e
  DW_CFA_def_cfa_offset: 16
  DW_CFA_offset: r6 (rbp) at cfa-16
  DW_CFA_advance_loc: 3 to 00000000008b2711
  DW_CFA_def_cfa_register: r6 (rbp)
  DW_CFA_advance_loc2: 673 to 00000000008b29b2
  DW_CFA_def_cfa: r7 (rsp) ofs 8
  DW_CFA_nop

00003b60 000000000000001c 00003b64 FDE cie=00000000 pc=00000000008b29b3..00000000008b2a6a
  DW_CFA_advance_loc: 1 to 00000000008b29b4
  DW_CFA_def_cfa_offset: 16
  DW_CFA_offset: r6 (rbp) at cfa-16
  DW_CFA_advance_loc: 3 to 00000000008b29b7
  DW_CFA_def_cfa_register: r6 (rbp)
  DW_CFA_advance_loc1: 178 to 00000000008b2a69
  DW_CFA_def_cfa: r7 (rsp) ofs 8
  DW_CFA_nop
  DW_CFA_nop

00003b80 000000000000001c 00003b84 FDE cie=00000000 pc=00000000008b2a6a..00000000008b3427
  DW_CFA_advance_loc: 1 to 00000000008b2a6b
  DW_CFA_def_cfa_offset: 16
  DW_CFA_offset: r6 (rbp) at cfa-16
  DW_CFA_advance_loc: 3 to 00000000008b2a6e
  DW_CFA_def_cfa_register: r6 (rbp)
  DW_CFA_advance_loc2: 2488 to 00000000008b3426
  DW_CFA_def_cfa: r7 (rsp) ofs 8
  DW_CFA_nop

00003ba0 000000000000001c 00003ba4 FDE cie=00000000 pc=00000000008b3427..00000000008b34de
  DW_CFA_advance_loc: 1 to 00000000008b3428
  DW_CFA_def_cfa_offset: 16
  DW_CFA_offset: r6 (rbp) at cfa-16
  DW_CFA_advance_loc: 3 to 00000000008b342b
  DW_CFA_def_cfa_register: r6 (rbp)
  DW_CFA_advance_loc1: 178 to 00000000008b34dd
  DW_CFA_def_cfa: r7 (rsp) ofs 8
  DW_CFA_nop
  DW_CFA_nop

00003bc0 000000000000001c 00003bc4 FDE cie=00000000 pc=00000000008b34de..00000000008b3527
  DW_CFA_advance_loc: 1 to 00000000008b34df
  DW_CFA_def_cfa_offset: 16
  DW_CFA_offset: r6 (rbp) at cfa-16
  DW_CFA_advance_loc: 3 to 00000000008b34e2
  DW_CFA_def_cfa_register: r6 (rbp)
  DW_CFA_advance_loc1: 68 to 00000000008b3526
  DW_CFA_def_cfa: r7 (rsp) ofs 8
  DW_CFA_nop
  DW_CFA_nop

00003be0 000000000000001c 00003be4 FDE cie=00000000 pc=00000000008b3527..00000000008b3570
  DW_CFA_advance_loc: 1 to 00000000008b3528
  DW_CFA_def_cfa_offset: 16
  DW_CFA_offset: r6 (rbp) at cfa-16
  DW_CFA_advance_loc: 3 to 00000000008b352b
  DW_CFA_def_cfa_register: r6 (rbp)
  DW_CFA_advance_loc1: 68 to 00000000008b356f
  DW_CFA_def_cfa: r7 (rsp) ofs 8
  DW_CFA_nop
  DW_CFA_nop

00003c00 000000000000001c 00003c04 FDE cie=00000000 pc=00000000008b3570..00000000008b35b9
  DW_CFA_advance_loc: 1 to 00000000008b3571
  DW_CFA_def_cfa_offset: 16
  DW_CFA_offset: r6 (rbp) at cfa-16
  DW_CFA_advance_loc: 3 to 00000000008b3574
  DW_CFA_def_cfa_register: r6 (rbp)
  DW_CFA_advance_loc1: 68 to 00000000008b35b8
  DW_CFA_def_cfa: r7 (rsp) ofs 8
  DW_CFA_nop
  DW_CFA_nop

00003c20 000000000000001c 00003c24 FDE cie=00000000 pc=00000000008b35b9..00000000008b3602
  DW_CFA_advance_loc: 1 to 00000000008b35ba
  DW_CFA_def_cfa_offset: 16
  DW_CFA_offset: r6 (rbp) at cfa-16
  DW_CFA_advance_loc: 3 to 00000000008b35bd
  DW_CFA_def_cfa_register: r6 (rbp)
  DW_CFA_advance_loc1: 68 to 00000000008b3601
  DW_CFA_def_cfa: r7 (rsp) ofs 8
  DW_CFA_nop
  DW_CFA_nop

00003c40 000000000000001c 00003c44 FDE cie=00000000 pc=00000000008b3602..00000000008b3682
  DW_CFA_advance_loc: 1 to 00000000008b3603
  DW_CFA_def_cfa_offset: 16
  DW_CFA_offset: r6 (rbp) at cfa-16
  DW_CFA_advance_loc: 3 to 00000000008b3606
  DW_CFA_def_cfa_register: r6 (rbp)
  DW_CFA_advance_loc1: 123 to 00000000008b3681
  DW_CFA_def_cfa: r7 (rsp) ofs 8
  DW_CFA_nop
  DW_CFA_nop

00003c60 000000000000001c 00003c64 FDE cie=00000000 pc=00000000008b3682..00000000008b3702
  DW_CFA_advance_loc: 1 to 00000000008b3683
  DW_CFA_def_cfa_offset: 16
  DW_CFA_offset: r6 (rbp) at cfa-16
  DW_CFA_advance_loc: 3 to 00000000008b3686
  DW_CFA_def_cfa_register: r6 (rbp)
  DW_CFA_advance_loc1: 123 to 00000000008b3701
  DW_CFA_def_cfa: r7 (rsp) ofs 8
  DW_CFA_nop
  DW_CFA_nop

00003c80 000000000000001c 00003c84 FDE cie=00000000 pc=00000000008b3702..00000000008b39df
  DW_CFA_advance_loc: 1 to 00000000008b3703
  DW_CFA_def_cfa_offset: 16
  DW_CFA_offset: r6 (rbp) at cfa-16
  DW_CFA_advance_loc: 3 to 00000000008b3706
  DW_CFA_def_cfa_register: r6 (rbp)
  DW_CFA_advance_loc2: 728 to 00000000008b39de
  DW_CFA_def_cfa: r7 (rsp) ofs 8
  DW_CFA_nop

00003ca0 000000000000001c 00003ca4 FDE cie=00000000 pc=00000000008b39df..00000000008b3a5f
  DW_CFA_advance_loc: 1 to 00000000008b39e0
  DW_CFA_def_cfa_offset: 16
  DW_CFA_offset: r6 (rbp) at cfa-16
  DW_CFA_advance_loc: 3 to 00000000008b39e3
  DW_CFA_def_cfa_register: r6 (rbp)
  DW_CFA_advance_loc1: 123 to 00000000008b3a5e
  DW_CFA_def_cfa: r7 (rsp) ofs 8
  DW_CFA_nop
  DW_CFA_nop

00003cc0 000000000000001c 00003cc4 FDE cie=00000000 pc=00000000008b3a5f..00000000008b3b84
  DW_CFA_advance_loc: 1 to 00000000008b3a60
  DW_CFA_def_cfa_offset: 16
  DW_CFA_offset: r6 (rbp) at cfa-16
  DW_CFA_advance_loc: 3 to 00000000008b3a63
  DW_CFA_def_cfa_register: r6 (rbp)
  DW_CFA_advance_loc2: 288 to 00000000008b3b83
  DW_CFA_def_cfa: r7 (rsp) ofs 8
  DW_CFA_nop

00003ce0 000000000000001c 00003ce4 FDE cie=00000000 pc=00000000008b3b84..00000000008b3c04
  DW_CFA_advance_loc: 1 to 00000000008b3b85
  DW_CFA_def_cfa_offset: 16
  DW_CFA_offset: r6 (rbp) at cfa-16
  DW_CFA_advance_loc: 3 to 00000000008b3b88
  DW_CFA_def_cfa_register: r6 (rbp)
  DW_CFA_advance_loc1: 123 to 00000000008b3c03
  DW_CFA_def_cfa: r7 (rsp) ofs 8
  DW_CFA_nop
  DW_CFA_nop

00003d00 000000000000001c 00003d04 FDE cie=00000000 pc=00000000008b3c04..00000000008b3cbb
  DW_CFA_advance_loc: 1 to 00000000008b3c05
  DW_CFA_def_cfa_offset: 16
  DW_CFA_offset: r6 (rbp) at cfa-16
  DW_CFA_advance_loc: 3 to 00000000008b3c08
  DW_CFA_def_cfa_register: r6 (rbp)
  DW_CFA_advance_loc1: 178 to 00000000008b3cba
  DW_CFA_def_cfa: r7 (rsp) ofs 8
  DW_CFA_nop
  DW_CFA_nop

00003d20 000000000000001c 00003d24 FDE cie=00000000 pc=00000000008b3cbb..00000000008b3d04
  DW_CFA_advance_loc: 1 to 00000000008b3cbc
  DW_CFA_def_cfa_offset: 16
  DW_CFA_offset: r6 (rbp) at cfa-16
  DW_CFA_advance_loc: 3 to 00000000008b3cbf
  DW_CFA_def_cfa_register: r6 (rbp)
  DW_CFA_advance_loc1: 68 to 00000000008b3d03
  DW_CFA_def_cfa: r7 (rsp) ofs 8
  DW_CFA_nop
  DW_CFA_nop

00003d40 000000000000001c 00003d44 FDE cie=00000000 pc=00000000008b3d04..00000000008b6ad9
  DW_CFA_advance_loc: 1 to 00000000008b3d05
  DW_CFA_def_cfa_offset: 16
  DW_CFA_offset: r6 (rbp) at cfa-16
  DW_CFA_advance_loc: 3 to 00000000008b3d08
  DW_CFA_def_cfa_register: r6 (rbp)
  DW_CFA_advance_loc2: 11728 to 00000000008b6ad8
  DW_CFA_def_cfa: r7 (rsp) ofs 8
  DW_CFA_nop

00003d60 000000000000001c 00003d64 FDE cie=00000000 pc=00000000008b6ad9..00000000008b6c35
  DW_CFA_advance_loc: 1 to 00000000008b6ada
  DW_CFA_def_cfa_offset: 16
  DW_CFA_offset: r6 (rbp) at cfa-16
  DW_CFA_advance_loc: 3 to 00000000008b6add
  DW_CFA_def_cfa_register: r6 (rbp)
  DW_CFA_advance_loc2: 343 to 00000000008b6c34
  DW_CFA_def_cfa: r7 (rsp) ofs 8
  DW_CFA_nop

00003d80 000000000000001c 00003d84 FDE cie=00000000 pc=00000000008b6c35..00000000008b6cb5
  DW_CFA_advance_loc: 1 to 00000000008b6c36
  DW_CFA_def_cfa_offset: 16
  DW_CFA_offset: r6 (rbp) at cfa-16
  DW_CFA_advance_loc: 3 to 00000000008b6c39
  DW_CFA_def_cfa_register: r6 (rbp)
  DW_CFA_advance_loc1: 123 to 00000000008b6cb4
  DW_CFA_def_cfa: r7 (rsp) ofs 8
  DW_CFA_nop
  DW_CFA_nop

00003da0 000000000000001c 00003da4 FDE cie=00000000 pc=00000000008b6cb5..00000000008b6cfe
  DW_CFA_advance_loc: 1 to 00000000008b6cb6
  DW_CFA_def_cfa_offset: 16
  DW_CFA_offset: r6 (rbp) at cfa-16
  DW_CFA_advance_loc: 3 to 00000000008b6cb9
  DW_CFA_def_cfa_register: r6 (rbp)
  DW_CFA_advance_loc1: 68 to 00000000008b6cfd
  DW_CFA_def_cfa: r7 (rsp) ofs 8
  DW_CFA_nop
  DW_CFA_nop

00003dc0 000000000000001c 00003dc4 FDE cie=00000000 pc=00000000008b6cfe..00000000008b6e23
  DW_CFA_advance_loc: 1 to 00000000008b6cff
  DW_CFA_def_cfa_offset: 16
  DW_CFA_offset: r6 (rbp) at cfa-16
  DW_CFA_advance_loc: 3 to 00000000008b6d02
  DW_CFA_def_cfa_register: r6 (rbp)
  DW_CFA_advance_loc2: 288 to 00000000008b6e22
  DW_CFA_def_cfa: r7 (rsp) ofs 8
  DW_CFA_nop

00003de0 000000000000001c 00003de4 FDE cie=00000000 pc=00000000008b6e23..00000000008b7213
  DW_CFA_advance_loc: 1 to 00000000008b6e24
  DW_CFA_def_cfa_offset: 16
  DW_CFA_offset: r6 (rbp) at cfa-16
  DW_CFA_advance_loc: 3 to 00000000008b6e27
  DW_CFA_def_cfa_register: r6 (rbp)
  DW_CFA_advance_loc2: 1003 to 00000000008b7212
  DW_CFA_def_cfa: r7 (rsp) ofs 8
  DW_CFA_nop

00003e00 000000000000001c 00003e04 FDE cie=00000000 pc=00000000008b7213..00000000008b725c
  DW_CFA_advance_loc: 1 to 00000000008b7214
  DW_CFA_def_cfa_offset: 16
  DW_CFA_offset: r6 (rbp) at cfa-16
  DW_CFA_advance_loc: 3 to 00000000008b7217
  DW_CFA_def_cfa_register: r6 (rbp)
  DW_CFA_advance_loc1: 68 to 00000000008b725b
  DW_CFA_def_cfa: r7 (rsp) ofs 8
  DW_CFA_nop
  DW_CFA_nop

00003e20 000000000000001c 00003e24 FDE cie=00000000 pc=00000000008b725c..00000000008b72a5
  DW_CFA_advance_loc: 1 to 00000000008b725d
  DW_CFA_def_cfa_offset: 16
  DW_CFA_offset: r6 (rbp) at cfa-16
  DW_CFA_advance_loc: 3 to 00000000008b7260
  DW_CFA_def_cfa_register: r6 (rbp)
  DW_CFA_advance_loc1: 68 to 00000000008b72a4
  DW_CFA_def_cfa: r7 (rsp) ofs 8
  DW_CFA_nop
  DW_CFA_nop

00003e40 000000000000001c 00003e44 FDE cie=00000000 pc=00000000008b72a5..00000000008b765e
  DW_CFA_advance_loc: 1 to 00000000008b72a6
  DW_CFA_def_cfa_offset: 16
  DW_CFA_offset: r6 (rbp) at cfa-16
  DW_CFA_advance_loc: 3 to 00000000008b72a9
  DW_CFA_def_cfa_register: r6 (rbp)
  DW_CFA_advance_loc2: 948 to 00000000008b765d
  DW_CFA_def_cfa: r7 (rsp) ofs 8
  DW_CFA_nop

00003e60 000000000000001c 00003e64 FDE cie=00000000 pc=00000000008b765e..00000000008b7715
  DW_CFA_advance_loc: 1 to 00000000008b765f
  DW_CFA_def_cfa_offset: 16
  DW_CFA_offset: r6 (rbp) at cfa-16
  DW_CFA_advance_loc: 3 to 00000000008b7662
  DW_CFA_def_cfa_register: r6 (rbp)
  DW_CFA_advance_loc1: 178 to 00000000008b7714
  DW_CFA_def_cfa: r7 (rsp) ofs 8
  DW_CFA_nop
  DW_CFA_nop

00003e80 000000000000001c 00003e84 FDE cie=00000000 pc=00000000008b7715..00000000008b7795
  DW_CFA_advance_loc: 1 to 00000000008b7716
  DW_CFA_def_cfa_offset: 16
  DW_CFA_offset: r6 (rbp) at cfa-16
  DW_CFA_advance_loc: 3 to 00000000008b7719
  DW_CFA_def_cfa_register: r6 (rbp)
  DW_CFA_advance_loc1: 123 to 00000000008b7794
  DW_CFA_def_cfa: r7 (rsp) ofs 8
  DW_CFA_nop
  DW_CFA_nop

00003ea0 000000000000001c 00003ea4 FDE cie=00000000 pc=00000000008b7795..00000000008b7ef5
  DW_CFA_advance_loc: 1 to 00000000008b7796
  DW_CFA_def_cfa_offset: 16
  DW_CFA_offset: r6 (rbp) at cfa-16
  DW_CFA_advance_loc: 3 to 00000000008b7799
  DW_CFA_def_cfa_register: r6 (rbp)
  DW_CFA_advance_loc2: 1883 to 00000000008b7ef4
  DW_CFA_def_cfa: r7 (rsp) ofs 8
  DW_CFA_nop

00003ec0 000000000000001c 00003ec4 FDE cie=00000000 pc=00000000008b7ef5..00000000008b812d
  DW_CFA_advance_loc: 1 to 00000000008b7ef6
  DW_CFA_def_cfa_offset: 16
  DW_CFA_offset: r6 (rbp) at cfa-16
  DW_CFA_advance_loc: 3 to 00000000008b7ef9
  DW_CFA_def_cfa_register: r6 (rbp)
  DW_CFA_advance_loc2: 563 to 00000000008b812c
  DW_CFA_def_cfa: r7 (rsp) ofs 8
  DW_CFA_nop

00003ee0 000000000000001c 00003ee4 FDE cie=00000000 pc=00000000008b812d..00000000008b8176
  DW_CFA_advance_loc: 1 to 00000000008b812e
  DW_CFA_def_cfa_offset: 16
  DW_CFA_offset: r6 (rbp) at cfa-16
  DW_CFA_advance_loc: 3 to 00000000008b8131
  DW_CFA_def_cfa_register: r6 (rbp)
  DW_CFA_advance_loc1: 68 to 00000000008b8175
  DW_CFA_def_cfa: r7 (rsp) ofs 8
  DW_CFA_nop
  DW_CFA_nop

00003f00 000000000000001c 00003f04 FDE cie=00000000 pc=00000000008b8176..00000000008b81bf
  DW_CFA_advance_loc: 1 to 00000000008b8177
  DW_CFA_def_cfa_offset: 16
  DW_CFA_offset: r6 (rbp) at cfa-16
  DW_CFA_advance_loc: 3 to 00000000008b817a
  DW_CFA_def_cfa_register: r6 (rbp)
  DW_CFA_advance_loc1: 68 to 00000000008b81be
  DW_CFA_def_cfa: r7 (rsp) ofs 8
  DW_CFA_nop
  DW_CFA_nop

00003f20 000000000000001c 00003f24 FDE cie=00000000 pc=00000000008b81bf..00000000008b8276
  DW_CFA_advance_loc: 1 to 00000000008b81c0
  DW_CFA_def_cfa_offset: 16
  DW_CFA_offset: r6 (rbp) at cfa-16
  DW_CFA_advance_loc: 3 to 00000000008b81c3
  DW_CFA_def_cfa_register: r6 (rbp)
  DW_CFA_advance_loc1: 178 to 00000000008b8275
  DW_CFA_def_cfa: r7 (rsp) ofs 8
  DW_CFA_nop
  DW_CFA_nop

00003f40 000000000000001c 00003f44 FDE cie=00000000 pc=00000000008b8276..00000000008b82f6
  DW_CFA_advance_loc: 1 to 00000000008b8277
  DW_CFA_def_cfa_offset: 16
  DW_CFA_offset: r6 (rbp) at cfa-16
  DW_CFA_advance_loc: 3 to 00000000008b827a
  DW_CFA_def_cfa_register: r6 (rbp)
  DW_CFA_advance_loc1: 123 to 00000000008b82f5
  DW_CFA_def_cfa: r7 (rsp) ofs 8
  DW_CFA_nop
  DW_CFA_nop

00003f60 000000000000001c 00003f64 FDE cie=00000000 pc=00000000008b82f6..00000000008b8376
  DW_CFA_advance_loc: 1 to 00000000008b82f7
  DW_CFA_def_cfa_offset: 16
  DW_CFA_offset: r6 (rbp) at cfa-16
  DW_CFA_advance_loc: 3 to 00000000008b82fa
  DW_CFA_def_cfa_register: r6 (rbp)
  DW_CFA_advance_loc1: 123 to 00000000008b8375
  DW_CFA_def_cfa: r7 (rsp) ofs 8
  DW_CFA_nop
  DW_CFA_nop

00003f80 000000000000001c 00003f84 FDE cie=00000000 pc=00000000008b8376..00000000008b8464
  DW_CFA_advance_loc: 1 to 00000000008b8377
  DW_CFA_def_cfa_offset: 16
  DW_CFA_offset: r6 (rbp) at cfa-16
  DW_CFA_advance_loc: 3 to 00000000008b837a
  DW_CFA_def_cfa_register: r6 (rbp)
  DW_CFA_advance_loc1: 233 to 00000000008b8463
  DW_CFA_def_cfa: r7 (rsp) ofs 8
  DW_CFA_nop
  DW_CFA_nop

00003fa0 000000000000001c 00003fa4 FDE cie=00000000 pc=00000000008b8464..00000000008b85c0
  DW_CFA_advance_loc: 1 to 00000000008b8465
  DW_CFA_def_cfa_offset: 16
  DW_CFA_offset: r6 (rbp) at cfa-16
  DW_CFA_advance_loc: 3 to 00000000008b8468
  DW_CFA_def_cfa_register: r6 (rbp)
  DW_CFA_advance_loc2: 343 to 00000000008b85bf
  DW_CFA_def_cfa: r7 (rsp) ofs 8
  DW_CFA_nop

00003fc0 000000000000001c 00003fc4 FDE cie=00000000 pc=00000000008b85c0..00000000008b8640
  DW_CFA_advance_loc: 1 to 00000000008b85c1
  DW_CFA_def_cfa_offset: 16
  DW_CFA_offset: r6 (rbp) at cfa-16
  DW_CFA_advance_loc: 3 to 00000000008b85c4
  DW_CFA_def_cfa_register: r6 (rbp)
  DW_CFA_advance_loc1: 123 to 00000000008b863f
  DW_CFA_def_cfa: r7 (rsp) ofs 8
  DW_CFA_nop
  DW_CFA_nop

00003fe0 000000000000001c 00003fe4 FDE cie=00000000 pc=00000000008b8640..00000000008b8689
  DW_CFA_advance_loc: 1 to 00000000008b8641
  DW_CFA_def_cfa_offset: 16
  DW_CFA_offset: r6 (rbp) at cfa-16
  DW_CFA_advance_loc: 3 to 00000000008b8644
  DW_CFA_def_cfa_register: r6 (rbp)
  DW_CFA_advance_loc1: 68 to 00000000008b8688
  DW_CFA_def_cfa: r7 (rsp) ofs 8
  DW_CFA_nop
  DW_CFA_nop

00004000 000000000000001c 00004004 FDE cie=00000000 pc=00000000008b8689..00000000008b86d2
  DW_CFA_advance_loc: 1 to 00000000008b868a
  DW_CFA_def_cfa_offset: 16
  DW_CFA_offset: r6 (rbp) at cfa-16
  DW_CFA_advance_loc: 3 to 00000000008b868d
  DW_CFA_def_cfa_register: r6 (rbp)
  DW_CFA_advance_loc1: 68 to 00000000008b86d1
  DW_CFA_def_cfa: r7 (rsp) ofs 8
  DW_CFA_nop
  DW_CFA_nop

00004020 000000000000001c 00004024 FDE cie=00000000 pc=00000000008b86d2..00000000008b8752
  DW_CFA_advance_loc: 1 to 00000000008b86d3
  DW_CFA_def_cfa_offset: 16
  DW_CFA_offset: r6 (rbp) at cfa-16
  DW_CFA_advance_loc: 3 to 00000000008b86d6
  DW_CFA_def_cfa_register: r6 (rbp)
  DW_CFA_advance_loc1: 123 to 00000000008b8751
  DW_CFA_def_cfa: r7 (rsp) ofs 8
  DW_CFA_nop
  DW_CFA_nop

00004040 000000000000001c 00004044 FDE cie=00000000 pc=00000000008b8752..00000000008b8b0b
  DW_CFA_advance_loc: 1 to 00000000008b8753
  DW_CFA_def_cfa_offset: 16
  DW_CFA_offset: r6 (rbp) at cfa-16
  DW_CFA_advance_loc: 3 to 00000000008b8756
  DW_CFA_def_cfa_register: r6 (rbp)
  DW_CFA_advance_loc2: 948 to 00000000008b8b0a
  DW_CFA_def_cfa: r7 (rsp) ofs 8
  DW_CFA_nop

00004060 000000000000001c 00004064 FDE cie=00000000 pc=00000000008b8b0b..00000000008b8bc2
  DW_CFA_advance_loc: 1 to 00000000008b8b0c
  DW_CFA_def_cfa_offset: 16
  DW_CFA_offset: r6 (rbp) at cfa-16
  DW_CFA_advance_loc: 3 to 00000000008b8b0f
  DW_CFA_def_cfa_register: r6 (rbp)
  DW_CFA_advance_loc1: 178 to 00000000008b8bc1
  DW_CFA_def_cfa: r7 (rsp) ofs 8
  DW_CFA_nop
  DW_CFA_nop

00004080 000000000000001c 00004084 FDE cie=00000000 pc=00000000008b8bc2..00000000008b8c42
  DW_CFA_advance_loc: 1 to 00000000008b8bc3
  DW_CFA_def_cfa_offset: 16
  DW_CFA_offset: r6 (rbp) at cfa-16
  DW_CFA_advance_loc: 3 to 00000000008b8bc6
  DW_CFA_def_cfa_register: r6 (rbp)
  DW_CFA_advance_loc1: 123 to 00000000008b8c41
  DW_CFA_def_cfa: r7 (rsp) ofs 8
  DW_CFA_nop
  DW_CFA_nop

000040a0 000000000000001c 000040a4 FDE cie=00000000 pc=00000000008b8c42..00000000008b8c8b
  DW_CFA_advance_loc: 1 to 00000000008b8c43
  DW_CFA_def_cfa_offset: 16
  DW_CFA_offset: r6 (rbp) at cfa-16
  DW_CFA_advance_loc: 3 to 00000000008b8c46
  DW_CFA_def_cfa_register: r6 (rbp)
  DW_CFA_advance_loc1: 68 to 00000000008b8c8a
  DW_CFA_def_cfa: r7 (rsp) ofs 8
  DW_CFA_nop
  DW_CFA_nop

000040c0 000000000000001c 000040c4 FDE cie=00000000 pc=00000000008b8c8b..00000000008b8d42
  DW_CFA_advance_loc: 1 to 00000000008b8c8c
  DW_CFA_def_cfa_offset: 16
  DW_CFA_offset: r6 (rbp) at cfa-16
  DW_CFA_advance_loc: 3 to 00000000008b8c8f
  DW_CFA_def_cfa_register: r6 (rbp)
  DW_CFA_advance_loc1: 178 to 00000000008b8d41
  DW_CFA_def_cfa: r7 (rsp) ofs 8
  DW_CFA_nop
  DW_CFA_nop

000040e0 000000000000001c 000040e4 FDE cie=00000000 pc=00000000008b8d42..00000000008b8d8b
  DW_CFA_advance_loc: 1 to 00000000008b8d43
  DW_CFA_def_cfa_offset: 16
  DW_CFA_offset: r6 (rbp) at cfa-16
  DW_CFA_advance_loc: 3 to 00000000008b8d46
  DW_CFA_def_cfa_register: r6 (rbp)
  DW_CFA_advance_loc1: 68 to 00000000008b8d8a
  DW_CFA_def_cfa: r7 (rsp) ofs 8
  DW_CFA_nop
  DW_CFA_nop

00004100 000000000000001c 00004104 FDE cie=00000000 pc=00000000008b8d8b..00000000008b8dd4
  DW_CFA_advance_loc: 1 to 00000000008b8d8c
  DW_CFA_def_cfa_offset: 16
  DW_CFA_offset: r6 (rbp) at cfa-16
  DW_CFA_advance_loc: 3 to 00000000008b8d8f
  DW_CFA_def_cfa_register: r6 (rbp)
  DW_CFA_advance_loc1: 68 to 00000000008b8dd3
  DW_CFA_def_cfa: r7 (rsp) ofs 8
  DW_CFA_nop
  DW_CFA_nop

00004120 000000000000001c 00004124 FDE cie=00000000 pc=00000000008b8dd4..00000000008b8e1d
  DW_CFA_advance_loc: 1 to 00000000008b8dd5
  DW_CFA_def_cfa_offset: 16
  DW_CFA_offset: r6 (rbp) at cfa-16
  DW_CFA_advance_loc: 3 to 00000000008b8dd8
  DW_CFA_def_cfa_register: r6 (rbp)
  DW_CFA_advance_loc1: 68 to 00000000008b8e1c
  DW_CFA_def_cfa: r7 (rsp) ofs 8
  DW_CFA_nop
  DW_CFA_nop

00004140 000000000000001c 00004144 FDE cie=00000000 pc=00000000008b8e1d..00000000008b8f79
  DW_CFA_advance_loc: 1 to 00000000008b8e1e
  DW_CFA_def_cfa_offset: 16
  DW_CFA_offset: r6 (rbp) at cfa-16
  DW_CFA_advance_loc: 3 to 00000000008b8e21
  DW_CFA_def_cfa_register: r6 (rbp)
  DW_CFA_advance_loc2: 343 to 00000000008b8f78
  DW_CFA_def_cfa: r7 (rsp) ofs 8
  DW_CFA_nop

00004160 000000000000001c 00004164 FDE cie=00000000 pc=00000000008b8f79..00000000008b90d5
  DW_CFA_advance_loc: 1 to 00000000008b8f7a
  DW_CFA_def_cfa_offset: 16
  DW_CFA_offset: r6 (rbp) at cfa-16
  DW_CFA_advance_loc: 3 to 00000000008b8f7d
  DW_CFA_def_cfa_register: r6 (rbp)
  DW_CFA_advance_loc2: 343 to 00000000008b90d4
  DW_CFA_def_cfa: r7 (rsp) ofs 8
  DW_CFA_nop

00004180 000000000000001c 00004184 FDE cie=00000000 pc=00000000008b90d5..00000000008b911e
  DW_CFA_advance_loc: 1 to 00000000008b90d6
  DW_CFA_def_cfa_offset: 16
  DW_CFA_offset: r6 (rbp) at cfa-16
  DW_CFA_advance_loc: 3 to 00000000008b90d9
  DW_CFA_def_cfa_register: r6 (rbp)
  DW_CFA_advance_loc1: 68 to 00000000008b911d
  DW_CFA_def_cfa: r7 (rsp) ofs 8
  DW_CFA_nop
  DW_CFA_nop

000041a0 000000000000001c 000041a4 FDE cie=00000000 pc=00000000008b911e..00000000008b919e
  DW_CFA_advance_loc: 1 to 00000000008b911f
  DW_CFA_def_cfa_offset: 16
  DW_CFA_offset: r6 (rbp) at cfa-16
  DW_CFA_advance_loc: 3 to 00000000008b9122
  DW_CFA_def_cfa_register: r6 (rbp)
  DW_CFA_advance_loc1: 123 to 00000000008b919d
  DW_CFA_def_cfa: r7 (rsp) ofs 8
  DW_CFA_nop
  DW_CFA_nop

000041c0 000000000000001c 000041c4 FDE cie=00000000 pc=00000000008b919e..00000000008b9331
  DW_CFA_advance_loc: 1 to 00000000008b919f
  DW_CFA_def_cfa_offset: 16
  DW_CFA_offset: r6 (rbp) at cfa-16
  DW_CFA_advance_loc: 3 to 00000000008b91a2
  DW_CFA_def_cfa_register: r6 (rbp)
  DW_CFA_advance_loc2: 398 to 00000000008b9330
  DW_CFA_def_cfa: r7 (rsp) ofs 8
  DW_CFA_nop

000041e0 000000000000001c 000041e4 FDE cie=00000000 pc=00000000008b9331..00000000008b94fb
  DW_CFA_advance_loc: 1 to 00000000008b9332
  DW_CFA_def_cfa_offset: 16
  DW_CFA_offset: r6 (rbp) at cfa-16
  DW_CFA_advance_loc: 3 to 00000000008b9335
  DW_CFA_def_cfa_register: r6 (rbp)
  DW_CFA_advance_loc2: 453 to 00000000008b94fa
  DW_CFA_def_cfa: r7 (rsp) ofs 8
  DW_CFA_nop

00004200 000000000000001c 00004204 FDE cie=00000000 pc=00000000008b94fb..00000000008b976a
  DW_CFA_advance_loc: 1 to 00000000008b94fc
  DW_CFA_def_cfa_offset: 16
  DW_CFA_offset: r6 (rbp) at cfa-16
  DW_CFA_advance_loc: 3 to 00000000008b94ff
  DW_CFA_def_cfa_register: r6 (rbp)
  DW_CFA_advance_loc2: 618 to 00000000008b9769
  DW_CFA_def_cfa: r7 (rsp) ofs 8
  DW_CFA_nop

00004220 000000000000001c 00004224 FDE cie=00000000 pc=00000000008b976a..00000000008ba082
  DW_CFA_advance_loc: 1 to 00000000008b976b
  DW_CFA_def_cfa_offset: 16
  DW_CFA_offset: r6 (rbp) at cfa-16
  DW_CFA_advance_loc: 3 to 00000000008b976e
  DW_CFA_def_cfa_register: r6 (rbp)
  DW_CFA_advance_loc2: 2323 to 00000000008ba081
  DW_CFA_def_cfa: r7 (rsp) ofs 8
  DW_CFA_nop

00004240 000000000000001c 00004244 FDE cie=00000000 pc=00000000008ba082..00000000008ba139
  DW_CFA_advance_loc: 1 to 00000000008ba083
  DW_CFA_def_cfa_offset: 16
  DW_CFA_offset: r6 (rbp) at cfa-16
  DW_CFA_advance_loc: 3 to 00000000008ba086
  DW_CFA_def_cfa_register: r6 (rbp)
  DW_CFA_advance_loc1: 178 to 00000000008ba138
  DW_CFA_def_cfa: r7 (rsp) ofs 8
  DW_CFA_nop
  DW_CFA_nop

00004260 000000000000001c 00004264 FDE cie=00000000 pc=00000000008ba139..00000000008ba182
  DW_CFA_advance_loc: 1 to 00000000008ba13a
  DW_CFA_def_cfa_offset: 16
  DW_CFA_offset: r6 (rbp) at cfa-16
  DW_CFA_advance_loc: 3 to 00000000008ba13d
  DW_CFA_def_cfa_register: r6 (rbp)
  DW_CFA_advance_loc1: 68 to 00000000008ba181
  DW_CFA_def_cfa: r7 (rsp) ofs 8
  DW_CFA_nop
  DW_CFA_nop

00004280 000000000000001c 00004284 FDE cie=00000000 pc=00000000008ba182..00000000008ba1cb
  DW_CFA_advance_loc: 1 to 00000000008ba183
  DW_CFA_def_cfa_offset: 16
  DW_CFA_offset: r6 (rbp) at cfa-16
  DW_CFA_advance_loc: 3 to 00000000008ba186
  DW_CFA_def_cfa_register: r6 (rbp)
  DW_CFA_advance_loc1: 68 to 00000000008ba1ca
  DW_CFA_def_cfa: r7 (rsp) ofs 8
  DW_CFA_nop
  DW_CFA_nop

000042a0 000000000000001c 000042a4 FDE cie=00000000 pc=00000000008ba1cb..00000000008ba214
  DW_CFA_advance_loc: 1 to 00000000008ba1cc
  DW_CFA_def_cfa_offset: 16
  DW_CFA_offset: r6 (rbp) at cfa-16
  DW_CFA_advance_loc: 3 to 00000000008ba1cf
  DW_CFA_def_cfa_register: r6 (rbp)
  DW_CFA_advance_loc1: 68 to 00000000008ba213
  DW_CFA_def_cfa: r7 (rsp) ofs 8
  DW_CFA_nop
  DW_CFA_nop

000042c0 000000000000001c 000042c4 FDE cie=00000000 pc=00000000008ba214..00000000008ba370
  DW_CFA_advance_loc: 1 to 00000000008ba215
  DW_CFA_def_cfa_offset: 16
  DW_CFA_offset: r6 (rbp) at cfa-16
  DW_CFA_advance_loc: 3 to 00000000008ba218
  DW_CFA_def_cfa_register: r6 (rbp)
  DW_CFA_advance_loc2: 343 to 00000000008ba36f
  DW_CFA_def_cfa: r7 (rsp) ofs 8
  DW_CFA_nop

000042e0 000000000000001c 000042e4 FDE cie=00000000 pc=00000000008ba370..00000000008ba3f0
  DW_CFA_advance_loc: 1 to 00000000008ba371
  DW_CFA_def_cfa_offset: 16
  DW_CFA_offset: r6 (rbp) at cfa-16
  DW_CFA_advance_loc: 3 to 00000000008ba374
  DW_CFA_def_cfa_register: r6 (rbp)
  DW_CFA_advance_loc1: 123 to 00000000008ba3ef
  DW_CFA_def_cfa: r7 (rsp) ofs 8
  DW_CFA_nop
  DW_CFA_nop

00004300 000000000000001c 00004304 FDE cie=00000000 pc=00000000008ba3f0..00000000008ba5ba
  DW_CFA_advance_loc: 1 to 00000000008ba3f1
  DW_CFA_def_cfa_offset: 16
  DW_CFA_offset: r6 (rbp) at cfa-16
  DW_CFA_advance_loc: 3 to 00000000008ba3f4
  DW_CFA_def_cfa_register: r6 (rbp)
  DW_CFA_advance_loc2: 453 to 00000000008ba5b9
  DW_CFA_def_cfa: r7 (rsp) ofs 8
  DW_CFA_nop

00004320 000000000000001c 00004324 FDE cie=00000000 pc=00000000008ba5ba..00000000008ba671
  DW_CFA_advance_loc: 1 to 00000000008ba5bb
  DW_CFA_def_cfa_offset: 16
  DW_CFA_offset: r6 (rbp) at cfa-16
  DW_CFA_advance_loc: 3 to 00000000008ba5be
  DW_CFA_def_cfa_register: r6 (rbp)
  DW_CFA_advance_loc1: 178 to 00000000008ba670
  DW_CFA_def_cfa: r7 (rsp) ofs 8
  DW_CFA_nop
  DW_CFA_nop

00004340 000000000000001c 00004344 FDE cie=00000000 pc=00000000008ba671..00000000008ba75f
  DW_CFA_advance_loc: 1 to 00000000008ba672
  DW_CFA_def_cfa_offset: 16
  DW_CFA_offset: r6 (rbp) at cfa-16
  DW_CFA_advance_loc: 3 to 00000000008ba675
  DW_CFA_def_cfa_register: r6 (rbp)
  DW_CFA_advance_loc1: 233 to 00000000008ba75e
  DW_CFA_def_cfa: r7 (rsp) ofs 8
  DW_CFA_nop
  DW_CFA_nop

00004360 000000000000001c 00004364 FDE cie=00000000 pc=00000000008ba75f..00000000008ba7df
  DW_CFA_advance_loc: 1 to 00000000008ba760
  DW_CFA_def_cfa_offset: 16
  DW_CFA_offset: r6 (rbp) at cfa-16
  DW_CFA_advance_loc: 3 to 00000000008ba763
  DW_CFA_def_cfa_register: r6 (rbp)
  DW_CFA_advance_loc1: 123 to 00000000008ba7de
  DW_CFA_def_cfa: r7 (rsp) ofs 8
  DW_CFA_nop
  DW_CFA_nop

00004380 000000000000001c 00004384 FDE cie=00000000 pc=00000000008ba7df..00000000008baa17
  DW_CFA_advance_loc: 1 to 00000000008ba7e0
  DW_CFA_def_cfa_offset: 16
  DW_CFA_offset: r6 (rbp) at cfa-16
  DW_CFA_advance_loc: 3 to 00000000008ba7e3
  DW_CFA_def_cfa_register: r6 (rbp)
  DW_CFA_advance_loc2: 563 to 00000000008baa16
  DW_CFA_def_cfa: r7 (rsp) ofs 8
  DW_CFA_nop

000043a0 000000000000001c 000043a4 FDE cie=00000000 pc=00000000008baa17..00000000008bab3c
  DW_CFA_advance_loc: 1 to 00000000008baa18
  DW_CFA_def_cfa_offset: 16
  DW_CFA_offset: r6 (rbp) at cfa-16
  DW_CFA_advance_loc: 3 to 00000000008baa1b
  DW_CFA_def_cfa_register: r6 (rbp)
  DW_CFA_advance_loc2: 288 to 00000000008bab3b
  DW_CFA_def_cfa: r7 (rsp) ofs 8
  DW_CFA_nop

000043c0 000000000000001c 000043c4 FDE cie=00000000 pc=00000000008bab3c..00000000008bab85
  DW_CFA_advance_loc: 1 to 00000000008bab3d
  DW_CFA_def_cfa_offset: 16
  DW_CFA_offset: r6 (rbp) at cfa-16
  DW_CFA_advance_loc: 3 to 00000000008bab40
  DW_CFA_def_cfa_register: r6 (rbp)
  DW_CFA_advance_loc1: 68 to 00000000008bab84
  DW_CFA_def_cfa: r7 (rsp) ofs 8
  DW_CFA_nop
  DW_CFA_nop

000043e0 000000000000001c 000043e4 FDE cie=00000000 pc=00000000008bab85..00000000008bb0bf
  DW_CFA_advance_loc: 1 to 00000000008bab86
  DW_CFA_def_cfa_offset: 16
  DW_CFA_offset: r6 (rbp) at cfa-16
  DW_CFA_advance_loc: 3 to 00000000008bab89
  DW_CFA_def_cfa_register: r6 (rbp)
  DW_CFA_advance_loc2: 1333 to 00000000008bb0be
  DW_CFA_def_cfa: r7 (rsp) ofs 8
  DW_CFA_nop

00004400 000000000000001c 00004404 FDE cie=00000000 pc=00000000008bb0bf..00000000008bb13f
  DW_CFA_advance_loc: 1 to 00000000008bb0c0
  DW_CFA_def_cfa_offset: 16
  DW_CFA_offset: r6 (rbp) at cfa-16
  DW_CFA_advance_loc: 3 to 00000000008bb0c3
  DW_CFA_def_cfa_register: r6 (rbp)
  DW_CFA_advance_loc1: 123 to 00000000008bb13e
  DW_CFA_def_cfa: r7 (rsp) ofs 8
  DW_CFA_nop
  DW_CFA_nop

00004420 000000000000001c 00004424 FDE cie=00000000 pc=00000000008bb13f..00000000008bb1bf
  DW_CFA_advance_loc: 1 to 00000000008bb140
  DW_CFA_def_cfa_offset: 16
  DW_CFA_offset: r6 (rbp) at cfa-16
  DW_CFA_advance_loc: 3 to 00000000008bb143
  DW_CFA_def_cfa_register: r6 (rbp)
  DW_CFA_advance_loc1: 123 to 00000000008bb1be
  DW_CFA_def_cfa: r7 (rsp) ofs 8
  DW_CFA_nop
  DW_CFA_nop

00004440 000000000000001c 00004444 FDE cie=00000000 pc=00000000008bb1bf..00000000008bb49c
  DW_CFA_advance_loc: 1 to 00000000008bb1c0
  DW_CFA_def_cfa_offset: 16
  DW_CFA_offset: r6 (rbp) at cfa-16
  DW_CFA_advance_loc: 3 to 00000000008bb1c3
  DW_CFA_def_cfa_register: r6 (rbp)
  DW_CFA_advance_loc2: 728 to 00000000008bb49b
  DW_CFA_def_cfa: r7 (rsp) ofs 8
  DW_CFA_nop

00004460 000000000000001c 00004464 FDE cie=00000000 pc=00000000008bb49c..00000000008bb51c
  DW_CFA_advance_loc: 1 to 00000000008bb49d
  DW_CFA_def_cfa_offset: 16
  DW_CFA_offset: r6 (rbp) at cfa-16
  DW_CFA_advance_loc: 3 to 00000000008bb4a0
  DW_CFA_def_cfa_register: r6 (rbp)
  DW_CFA_advance_loc1: 123 to 00000000008bb51b
  DW_CFA_def_cfa: r7 (rsp) ofs 8
  DW_CFA_nop
  DW_CFA_nop

00004480 000000000000001c 00004484 FDE cie=00000000 pc=00000000008bb51c..00000000008bb59c
  DW_CFA_advance_loc: 1 to 00000000008bb51d
  DW_CFA_def_cfa_offset: 16
  DW_CFA_offset: r6 (rbp) at cfa-16
  DW_CFA_advance_loc: 3 to 00000000008bb520
  DW_CFA_def_cfa_register: r6 (rbp)
  DW_CFA_advance_loc1: 123 to 00000000008bb59b
  DW_CFA_def_cfa: r7 (rsp) ofs 8
  DW_CFA_nop
  DW_CFA_nop

000044a0 000000000000001c 000044a4 FDE cie=00000000 pc=00000000008bb59c..00000000008bb5e5
  DW_CFA_advance_loc: 1 to 00000000008bb59d
  DW_CFA_def_cfa_offset: 16
  DW_CFA_offset: r6 (rbp) at cfa-16
  DW_CFA_advance_loc: 3 to 00000000008bb5a0
  DW_CFA_def_cfa_register: r6 (rbp)
  DW_CFA_advance_loc1: 68 to 00000000008bb5e4
  DW_CFA_def_cfa: r7 (rsp) ofs 8
  DW_CFA_nop
  DW_CFA_nop

000044c0 000000000000001c 000044c4 FDE cie=00000000 pc=00000000008bb5e5..00000000008bb69c
  DW_CFA_advance_loc: 1 to 00000000008bb5e6
  DW_CFA_def_cfa_offset: 16
  DW_CFA_offset: r6 (rbp) at cfa-16
  DW_CFA_advance_loc: 3 to 00000000008bb5e9
  DW_CFA_def_cfa_register: r6 (rbp)
  DW_CFA_advance_loc1: 178 to 00000000008bb69b
  DW_CFA_def_cfa: r7 (rsp) ofs 8
  DW_CFA_nop
  DW_CFA_nop

000044e0 000000000000001c 000044e4 FDE cie=00000000 pc=00000000008bb69c..00000000008bb6e5
  DW_CFA_advance_loc: 1 to 00000000008bb69d
  DW_CFA_def_cfa_offset: 16
  DW_CFA_offset: r6 (rbp) at cfa-16
  DW_CFA_advance_loc: 3 to 00000000008bb6a0
  DW_CFA_def_cfa_register: r6 (rbp)
  DW_CFA_advance_loc1: 68 to 00000000008bb6e4
  DW_CFA_def_cfa: r7 (rsp) ofs 8
  DW_CFA_nop
  DW_CFA_nop

00004500 000000000000001c 00004504 FDE cie=00000000 pc=00000000008bb6e5..00000000008bb8e6
  DW_CFA_advance_loc: 1 to 00000000008bb6e6
  DW_CFA_def_cfa_offset: 16
  DW_CFA_offset: r6 (rbp) at cfa-16
  DW_CFA_advance_loc: 3 to 00000000008bb6e9
  DW_CFA_def_cfa_register: r6 (rbp)
  DW_CFA_advance_loc2: 508 to 00000000008bb8e5
  DW_CFA_def_cfa: r7 (rsp) ofs 8
  DW_CFA_nop

00004520 000000000000001c 00004524 FDE cie=00000000 pc=00000000008bb8e6..00000000008bb99d
  DW_CFA_advance_loc: 1 to 00000000008bb8e7
  DW_CFA_def_cfa_offset: 16
  DW_CFA_offset: r6 (rbp) at cfa-16
  DW_CFA_advance_loc: 3 to 00000000008bb8ea
  DW_CFA_def_cfa_register: r6 (rbp)
  DW_CFA_advance_loc1: 178 to 00000000008bb99c
  DW_CFA_def_cfa: r7 (rsp) ofs 8
  DW_CFA_nop
  DW_CFA_nop

00004540 000000000000001c 00004544 FDE cie=00000000 pc=00000000008bb99d..00000000008bbb30
  DW_CFA_advance_loc: 1 to 00000000008bb99e
  DW_CFA_def_cfa_offset: 16
  DW_CFA_offset: r6 (rbp) at cfa-16
  DW_CFA_advance_loc: 3 to 00000000008bb9a1
  DW_CFA_def_cfa_register: r6 (rbp)
  DW_CFA_advance_loc2: 398 to 00000000008bbb2f
  DW_CFA_def_cfa: r7 (rsp) ofs 8
  DW_CFA_nop

00004560 000000000000001c 00004564 FDE cie=00000000 pc=00000000008bbb30..00000000008bbc8c
  DW_CFA_advance_loc: 1 to 00000000008bbb31
  DW_CFA_def_cfa_offset: 16
  DW_CFA_offset: r6 (rbp) at cfa-16
  DW_CFA_advance_loc: 3 to 00000000008bbb34
  DW_CFA_def_cfa_register: r6 (rbp)
  DW_CFA_advance_loc2: 343 to 00000000008bbc8b
  DW_CFA_def_cfa: r7 (rsp) ofs 8
  DW_CFA_nop

00004580 000000000000001c 00004584 FDE cie=00000000 pc=00000000008bbc8c..00000000008bbcd5
  DW_CFA_advance_loc: 1 to 00000000008bbc8d
  DW_CFA_def_cfa_offset: 16
  DW_CFA_offset: r6 (rbp) at cfa-16
  DW_CFA_advance_loc: 3 to 00000000008bbc90
  DW_CFA_def_cfa_register: r6 (rbp)
  DW_CFA_advance_loc1: 68 to 00000000008bbcd4
  DW_CFA_def_cfa: r7 (rsp) ofs 8
  DW_CFA_nop
  DW_CFA_nop

000045a0 000000000000001c 000045a4 FDE cie=00000000 pc=00000000008bbcd5..00000000008bbd1e
  DW_CFA_advance_loc: 1 to 00000000008bbcd6
  DW_CFA_def_cfa_offset: 16
  DW_CFA_offset: r6 (rbp) at cfa-16
  DW_CFA_advance_loc: 3 to 00000000008bbcd9
  DW_CFA_def_cfa_register: r6 (rbp)
  DW_CFA_advance_loc1: 68 to 00000000008bbd1d
  DW_CFA_def_cfa: r7 (rsp) ofs 8
  DW_CFA_nop
  DW_CFA_nop

000045c0 000000000000001c 000045c4 FDE cie=00000000 pc=00000000008bbd1e..00000000008bbfc4
  DW_CFA_advance_loc: 1 to 00000000008bbd1f
  DW_CFA_def_cfa_offset: 16
  DW_CFA_offset: r6 (rbp) at cfa-16
  DW_CFA_advance_loc: 3 to 00000000008bbd22
  DW_CFA_def_cfa_register: r6 (rbp)
  DW_CFA_advance_loc2: 673 to 00000000008bbfc3
  DW_CFA_def_cfa: r7 (rsp) ofs 8
  DW_CFA_nop

000045e0 000000000000001c 000045e4 FDE cie=00000000 pc=00000000008bbfc4..00000000008bc724
  DW_CFA_advance_loc: 1 to 00000000008bbfc5
  DW_CFA_def_cfa_offset: 16
  DW_CFA_offset: r6 (rbp) at cfa-16
  DW_CFA_advance_loc: 3 to 00000000008bbfc8
  DW_CFA_def_cfa_register: r6 (rbp)
  DW_CFA_advance_loc2: 1883 to 00000000008bc723
  DW_CFA_def_cfa: r7 (rsp) ofs 8
  DW_CFA_nop

00004600 000000000000001c 00004604 FDE cie=00000000 pc=00000000008bc724..00000000008bd118
  DW_CFA_advance_loc: 1 to 00000000008bc725
  DW_CFA_def_cfa_offset: 16
  DW_CFA_offset: r6 (rbp) at cfa-16
  DW_CFA_advance_loc: 3 to 00000000008bc728
  DW_CFA_def_cfa_register: r6 (rbp)
  DW_CFA_advance_loc2: 2543 to 00000000008bd117
  DW_CFA_def_cfa: r7 (rsp) ofs 8
  DW_CFA_nop

00004620 000000000000001c 00004624 FDE cie=00000000 pc=00000000008bd118..00000000008bd2ab
  DW_CFA_advance_loc: 1 to 00000000008bd119
  DW_CFA_def_cfa_offset: 16
  DW_CFA_offset: r6 (rbp) at cfa-16
  DW_CFA_advance_loc: 3 to 00000000008bd11c
  DW_CFA_def_cfa_register: r6 (rbp)
  DW_CFA_advance_loc2: 398 to 00000000008bd2aa
  DW_CFA_def_cfa: r7 (rsp) ofs 8
  DW_CFA_nop

00004640 000000000000001c 00004644 FDE cie=00000000 pc=00000000008bd2ab..00000000008bd362
  DW_CFA_advance_loc: 1 to 00000000008bd2ac
  DW_CFA_def_cfa_offset: 16
  DW_CFA_offset: r6 (rbp) at cfa-16
  DW_CFA_advance_loc: 3 to 00000000008bd2af
  DW_CFA_def_cfa_register: r6 (rbp)
  DW_CFA_advance_loc1: 178 to 00000000008bd361
  DW_CFA_def_cfa: r7 (rsp) ofs 8
  DW_CFA_nop
  DW_CFA_nop

00004660 000000000000001c 00004664 FDE cie=00000000 pc=00000000008bd362..00000000008bddfb
  DW_CFA_advance_loc: 1 to 00000000008bd363
  DW_CFA_def_cfa_offset: 16
  DW_CFA_offset: r6 (rbp) at cfa-16
  DW_CFA_advance_loc: 3 to 00000000008bd366
  DW_CFA_def_cfa_register: r6 (rbp)
  DW_CFA_advance_loc2: 2708 to 00000000008bddfa
  DW_CFA_def_cfa: r7 (rsp) ofs 8
  DW_CFA_nop

00004680 000000000000001c 00004684 FDE cie=00000000 pc=00000000008bddfb..00000000008bde7b
  DW_CFA_advance_loc: 1 to 00000000008bddfc
  DW_CFA_def_cfa_offset: 16
  DW_CFA_offset: r6 (rbp) at cfa-16
  DW_CFA_advance_loc: 3 to 00000000008bddff
  DW_CFA_def_cfa_register: r6 (rbp)
  DW_CFA_advance_loc1: 123 to 00000000008bde7a
  DW_CFA_def_cfa: r7 (rsp) ofs 8
  DW_CFA_nop
  DW_CFA_nop

000046a0 000000000000001c 000046a4 FDE cie=00000000 pc=00000000008bde7b..00000000008bdefb
  DW_CFA_advance_loc: 1 to 00000000008bde7c
  DW_CFA_def_cfa_offset: 16
  DW_CFA_offset: r6 (rbp) at cfa-16
  DW_CFA_advance_loc: 3 to 00000000008bde7f
  DW_CFA_def_cfa_register: r6 (rbp)
  DW_CFA_advance_loc1: 123 to 00000000008bdefa
  DW_CFA_def_cfa: r7 (rsp) ofs 8
  DW_CFA_nop
  DW_CFA_nop

000046c0 000000000000001c 000046c4 FDE cie=00000000 pc=00000000008bdefb..00000000008be057
  DW_CFA_advance_loc: 1 to 00000000008bdefc
  DW_CFA_def_cfa_offset: 16
  DW_CFA_offset: r6 (rbp) at cfa-16
  DW_CFA_advance_loc: 3 to 00000000008bdeff
  DW_CFA_def_cfa_register: r6 (rbp)
  DW_CFA_advance_loc2: 343 to 00000000008be056
  DW_CFA_def_cfa: r7 (rsp) ofs 8
  DW_CFA_nop

000046e0 000000000000001c 000046e4 FDE cie=00000000 pc=00000000008be057..00000000008be0d7
  DW_CFA_advance_loc: 1 to 00000000008be058
  DW_CFA_def_cfa_offset: 16
  DW_CFA_offset: r6 (rbp) at cfa-16
  DW_CFA_advance_loc: 3 to 00000000008be05b
  DW_CFA_def_cfa_register: r6 (rbp)
  DW_CFA_advance_loc1: 123 to 00000000008be0d6
  DW_CFA_def_cfa: r7 (rsp) ofs 8
  DW_CFA_nop
  DW_CFA_nop

00004700 000000000000001c 00004704 FDE cie=00000000 pc=00000000008be0d7..00000000008be3b4
  DW_CFA_advance_loc: 1 to 00000000008be0d8
  DW_CFA_def_cfa_offset: 16
  DW_CFA_offset: r6 (rbp) at cfa-16
  DW_CFA_advance_loc: 3 to 00000000008be0db
  DW_CFA_def_cfa_register: r6 (rbp)
  DW_CFA_advance_loc2: 728 to 00000000008be3b3
  DW_CFA_def_cfa: r7 (rsp) ofs 8
  DW_CFA_nop

00004720 000000000000001c 00004724 FDE cie=00000000 pc=00000000008be3b4..00000000008be434
  DW_CFA_advance_loc: 1 to 00000000008be3b5
  DW_CFA_def_cfa_offset: 16
  DW_CFA_offset: r6 (rbp) at cfa-16
  DW_CFA_advance_loc: 3 to 00000000008be3b8
  DW_CFA_def_cfa_register: r6 (rbp)
  DW_CFA_advance_loc1: 123 to 00000000008be433
  DW_CFA_def_cfa: r7 (rsp) ofs 8
  DW_CFA_nop
  DW_CFA_nop

00004740 000000000000001c 00004744 FDE cie=00000000 pc=00000000008be434..00000000008be711
  DW_CFA_advance_loc: 1 to 00000000008be435
  DW_CFA_def_cfa_offset: 16
  DW_CFA_offset: r6 (rbp) at cfa-16
  DW_CFA_advance_loc: 3 to 00000000008be438
  DW_CFA_def_cfa_register: r6 (rbp)
  DW_CFA_advance_loc2: 728 to 00000000008be710
  DW_CFA_def_cfa: r7 (rsp) ofs 8
  DW_CFA_nop

00004760 000000000000001c 00004764 FDE cie=00000000 pc=00000000008be711..00000000008be75a
  DW_CFA_advance_loc: 1 to 00000000008be712
  DW_CFA_def_cfa_offset: 16
  DW_CFA_offset: r6 (rbp) at cfa-16
  DW_CFA_advance_loc: 3 to 00000000008be715
  DW_CFA_def_cfa_register: r6 (rbp)
  DW_CFA_advance_loc1: 68 to 00000000008be759
  DW_CFA_def_cfa: r7 (rsp) ofs 8
  DW_CFA_nop
  DW_CFA_nop

00004780 000000000000001c 00004784 FDE cie=00000000 pc=00000000008be75a..00000000008be8b6
  DW_CFA_advance_loc: 1 to 00000000008be75b
  DW_CFA_def_cfa_offset: 16
  DW_CFA_offset: r6 (rbp) at cfa-16
  DW_CFA_advance_loc: 3 to 00000000008be75e
  DW_CFA_def_cfa_register: r6 (rbp)
  DW_CFA_advance_loc2: 343 to 00000000008be8b5
  DW_CFA_def_cfa: r7 (rsp) ofs 8
  DW_CFA_nop

000047a0 000000000000001c 000047a4 FDE cie=00000000 pc=00000000008be8b6..00000000008beb25
  DW_CFA_advance_loc: 1 to 00000000008be8b7
  DW_CFA_def_cfa_offset: 16
  DW_CFA_offset: r6 (rbp) at cfa-16
  DW_CFA_advance_loc: 3 to 00000000008be8ba
  DW_CFA_def_cfa_register: r6 (rbp)
  DW_CFA_advance_loc2: 618 to 00000000008beb24
  DW_CFA_def_cfa: r7 (rsp) ofs 8
  DW_CFA_nop

000047c0 000000000000001c 000047c4 FDE cie=00000000 pc=00000000008beb25..00000000008becb8
  DW_CFA_advance_loc: 1 to 00000000008beb26
  DW_CFA_def_cfa_offset: 16
  DW_CFA_offset: r6 (rbp) at cfa-16
  DW_CFA_advance_loc: 3 to 00000000008beb29
  DW_CFA_def_cfa_register: r6 (rbp)
  DW_CFA_advance_loc2: 398 to 00000000008becb7
  DW_CFA_def_cfa: r7 (rsp) ofs 8
  DW_CFA_nop

000047e0 000000000000001c 000047e4 FDE cie=00000000 pc=00000000008becb8..00000000008beef0
  DW_CFA_advance_loc: 1 to 00000000008becb9
  DW_CFA_def_cfa_offset: 16
  DW_CFA_offset: r6 (rbp) at cfa-16
  DW_CFA_advance_loc: 3 to 00000000008becbc
  DW_CFA_def_cfa_register: r6 (rbp)
  DW_CFA_advance_loc2: 563 to 00000000008beeef
  DW_CFA_def_cfa: r7 (rsp) ofs 8
  DW_CFA_nop

00004800 000000000000001c 00004804 FDE cie=00000000 pc=00000000008beef0..00000000008bef70
  DW_CFA_advance_loc: 1 to 00000000008beef1
  DW_CFA_def_cfa_offset: 16
  DW_CFA_offset: r6 (rbp) at cfa-16
  DW_CFA_advance_loc: 3 to 00000000008beef4
  DW_CFA_def_cfa_register: r6 (rbp)
  DW_CFA_advance_loc1: 123 to 00000000008bef6f
  DW_CFA_def_cfa: r7 (rsp) ofs 8
  DW_CFA_nop
  DW_CFA_nop

00004820 000000000000001c 00004824 FDE cie=00000000 pc=00000000008bef70..00000000008bf397
  DW_CFA_advance_loc: 1 to 00000000008bef71
  DW_CFA_def_cfa_offset: 16
  DW_CFA_offset: r6 (rbp) at cfa-16
  DW_CFA_advance_loc: 3 to 00000000008bef74
  DW_CFA_def_cfa_register: r6 (rbp)
  DW_CFA_advance_loc2: 1058 to 00000000008bf396
  DW_CFA_def_cfa: r7 (rsp) ofs 8
  DW_CFA_nop

00004840 000000000000001c 00004844 FDE cie=00000000 pc=00000000008bf397..00000000008bf63d
  DW_CFA_advance_loc: 1 to 00000000008bf398
  DW_CFA_def_cfa_offset: 16
  DW_CFA_offset: r6 (rbp) at cfa-16
  DW_CFA_advance_loc: 3 to 00000000008bf39b
  DW_CFA_def_cfa_register: r6 (rbp)
  DW_CFA_advance_loc2: 673 to 00000000008bf63c
  DW_CFA_def_cfa: r7 (rsp) ofs 8
  DW_CFA_nop

00004860 000000000000001c 00004864 FDE cie=00000000 pc=00000000008bf63d..00000000008c040f
  DW_CFA_advance_loc: 1 to 00000000008bf63e
  DW_CFA_def_cfa_offset: 16
  DW_CFA_offset: r6 (rbp) at cfa-16
  DW_CFA_advance_loc: 3 to 00000000008bf641
  DW_CFA_def_cfa_register: r6 (rbp)
  DW_CFA_advance_loc2: 3533 to 00000000008c040e
  DW_CFA_def_cfa: r7 (rsp) ofs 8
  DW_CFA_nop

00004880 000000000000001c 00004884 FDE cie=00000000 pc=00000000008c040f..00000000008c06b5
  DW_CFA_advance_loc: 1 to 00000000008c0410
  DW_CFA_def_cfa_offset: 16
  DW_CFA_offset: r6 (rbp) at cfa-16
  DW_CFA_advance_loc: 3 to 00000000008c0413
  DW_CFA_def_cfa_register: r6 (rbp)
  DW_CFA_advance_loc2: 673 to 00000000008c06b4
  DW_CFA_def_cfa: r7 (rsp) ofs 8
  DW_CFA_nop

000048a0 000000000000001c 000048a4 FDE cie=00000000 pc=00000000008c06b5..00000000008c0811
  DW_CFA_advance_loc: 1 to 00000000008c06b6
  DW_CFA_def_cfa_offset: 16
  DW_CFA_offset: r6 (rbp) at cfa-16
  DW_CFA_advance_loc: 3 to 00000000008c06b9
  DW_CFA_def_cfa_register: r6 (rbp)
  DW_CFA_advance_loc2: 343 to 00000000008c0810
  DW_CFA_def_cfa: r7 (rsp) ofs 8
  DW_CFA_nop

000048c0 000000000000001c 000048c4 FDE cie=00000000 pc=00000000008c0811..00000000008c0ecc
  DW_CFA_advance_loc: 1 to 00000000008c0812
  DW_CFA_def_cfa_offset: 16
  DW_CFA_offset: r6 (rbp) at cfa-16
  DW_CFA_advance_loc: 3 to 00000000008c0815
  DW_CFA_def_cfa_register: r6 (rbp)
  DW_CFA_advance_loc2: 1718 to 00000000008c0ecb
  DW_CFA_def_cfa: r7 (rsp) ofs 8
  DW_CFA_nop

000048e0 000000000000001c 000048e4 FDE cie=00000000 pc=00000000008c0ecc..00000000008c11a9
  DW_CFA_advance_loc: 1 to 00000000008c0ecd
  DW_CFA_def_cfa_offset: 16
  DW_CFA_offset: r6 (rbp) at cfa-16
  DW_CFA_advance_loc: 3 to 00000000008c0ed0
  DW_CFA_def_cfa_register: r6 (rbp)
  DW_CFA_advance_loc2: 728 to 00000000008c11a8
  DW_CFA_def_cfa: r7 (rsp) ofs 8
  DW_CFA_nop

00004900 000000000000001c 00004904 FDE cie=00000000 pc=00000000008c11a9..00000000008c11f2
  DW_CFA_advance_loc: 1 to 00000000008c11aa
  DW_CFA_def_cfa_offset: 16
  DW_CFA_offset: r6 (rbp) at cfa-16
  DW_CFA_advance_loc: 3 to 00000000008c11ad
  DW_CFA_def_cfa_register: r6 (rbp)
  DW_CFA_advance_loc1: 68 to 00000000008c11f1
  DW_CFA_def_cfa: r7 (rsp) ofs 8
  DW_CFA_nop
  DW_CFA_nop

00004920 000000000000001c 00004924 FDE cie=00000000 pc=00000000008c11f2..00000000008c1272
  DW_CFA_advance_loc: 1 to 00000000008c11f3
  DW_CFA_def_cfa_offset: 16
  DW_CFA_offset: r6 (rbp) at cfa-16
  DW_CFA_advance_loc: 3 to 00000000008c11f6
  DW_CFA_def_cfa_register: r6 (rbp)
  DW_CFA_advance_loc1: 123 to 00000000008c1271
  DW_CFA_def_cfa: r7 (rsp) ofs 8
  DW_CFA_nop
  DW_CFA_nop

00004940 000000000000001c 00004944 FDE cie=00000000 pc=00000000008c1272..00000000008c12bb
  DW_CFA_advance_loc: 1 to 00000000008c1273
  DW_CFA_def_cfa_offset: 16
  DW_CFA_offset: r6 (rbp) at cfa-16
  DW_CFA_advance_loc: 3 to 00000000008c1276
  DW_CFA_def_cfa_register: r6 (rbp)
  DW_CFA_advance_loc1: 68 to 00000000008c12ba
  DW_CFA_def_cfa: r7 (rsp) ofs 8
  DW_CFA_nop
  DW_CFA_nop

00004960 000000000000001c 00004964 FDE cie=00000000 pc=00000000008c12bb..00000000008c133b
  DW_CFA_advance_loc: 1 to 00000000008c12bc
  DW_CFA_def_cfa_offset: 16
  DW_CFA_offset: r6 (rbp) at cfa-16
  DW_CFA_advance_loc: 3 to 00000000008c12bf
  DW_CFA_def_cfa_register: r6 (rbp)
  DW_CFA_advance_loc1: 123 to 00000000008c133a
  DW_CFA_def_cfa: r7 (rsp) ofs 8
  DW_CFA_nop
  DW_CFA_nop

00004980 000000000000001c 00004984 FDE cie=00000000 pc=00000000008c133b..00000000008c13bb
  DW_CFA_advance_loc: 1 to 00000000008c133c
  DW_CFA_def_cfa_offset: 16
  DW_CFA_offset: r6 (rbp) at cfa-16
  DW_CFA_advance_loc: 3 to 00000000008c133f
  DW_CFA_def_cfa_register: r6 (rbp)
  DW_CFA_advance_loc1: 123 to 00000000008c13ba
  DW_CFA_def_cfa: r7 (rsp) ofs 8
  DW_CFA_nop
  DW_CFA_nop

000049a0 000000000000001c 000049a4 FDE cie=00000000 pc=00000000008c13bb..00000000008c143b
  DW_CFA_advance_loc: 1 to 00000000008c13bc
  DW_CFA_def_cfa_offset: 16
  DW_CFA_offset: r6 (rbp) at cfa-16
  DW_CFA_advance_loc: 3 to 00000000008c13bf
  DW_CFA_def_cfa_register: r6 (rbp)
  DW_CFA_advance_loc1: 123 to 00000000008c143a
  DW_CFA_def_cfa: r7 (rsp) ofs 8
  DW_CFA_nop
  DW_CFA_nop

000049c0 000000000000001c 000049c4 FDE cie=00000000 pc=00000000008c143b..00000000008c14bb
  DW_CFA_advance_loc: 1 to 00000000008c143c
  DW_CFA_def_cfa_offset: 16
  DW_CFA_offset: r6 (rbp) at cfa-16
  DW_CFA_advance_loc: 3 to 00000000008c143f
  DW_CFA_def_cfa_register: r6 (rbp)
  DW_CFA_advance_loc1: 123 to 00000000008c14ba
  DW_CFA_def_cfa: r7 (rsp) ofs 8
  DW_CFA_nop
  DW_CFA_nop

000049e0 000000000000001c 000049e4 FDE cie=00000000 pc=00000000008c14bb..00000000008c153b
  DW_CFA_advance_loc: 1 to 00000000008c14bc
  DW_CFA_def_cfa_offset: 16
  DW_CFA_offset: r6 (rbp) at cfa-16
  DW_CFA_advance_loc: 3 to 00000000008c14bf
  DW_CFA_def_cfa_register: r6 (rbp)
  DW_CFA_advance_loc1: 123 to 00000000008c153a
  DW_CFA_def_cfa: r7 (rsp) ofs 8
  DW_CFA_nop
  DW_CFA_nop

00004a00 000000000000001c 00004a04 FDE cie=00000000 pc=00000000008c153b..00000000008c15bb
  DW_CFA_advance_loc: 1 to 00000000008c153c
  DW_CFA_def_cfa_offset: 16
  DW_CFA_offset: r6 (rbp) at cfa-16
  DW_CFA_advance_loc: 3 to 00000000008c153f
  DW_CFA_def_cfa_register: r6 (rbp)
  DW_CFA_advance_loc1: 123 to 00000000008c15ba
  DW_CFA_def_cfa: r7 (rsp) ofs 8
  DW_CFA_nop
  DW_CFA_nop

00004a20 000000000000001c 00004a24 FDE cie=00000000 pc=00000000008c15bb..00000000008c1717
  DW_CFA_advance_loc: 1 to 00000000008c15bc
  DW_CFA_def_cfa_offset: 16
  DW_CFA_offset: r6 (rbp) at cfa-16
  DW_CFA_advance_loc: 3 to 00000000008c15bf
  DW_CFA_def_cfa_register: r6 (rbp)
  DW_CFA_advance_loc2: 343 to 00000000008c1716
  DW_CFA_def_cfa: r7 (rsp) ofs 8
  DW_CFA_nop

00004a40 000000000000001c 00004a44 FDE cie=00000000 pc=00000000008c1717..00000000008c1760
  DW_CFA_advance_loc: 1 to 00000000008c1718
  DW_CFA_def_cfa_offset: 16
  DW_CFA_offset: r6 (rbp) at cfa-16
  DW_CFA_advance_loc: 3 to 00000000008c171b
  DW_CFA_def_cfa_register: r6 (rbp)
  DW_CFA_advance_loc1: 68 to 00000000008c175f
  DW_CFA_def_cfa: r7 (rsp) ofs 8
  DW_CFA_nop
  DW_CFA_nop

00004a60 000000000000001c 00004a64 FDE cie=00000000 pc=00000000008c1760..00000000008c17a9
  DW_CFA_advance_loc: 1 to 00000000008c1761
  DW_CFA_def_cfa_offset: 16
  DW_CFA_offset: r6 (rbp) at cfa-16
  DW_CFA_advance_loc: 3 to 00000000008c1764
  DW_CFA_def_cfa_register: r6 (rbp)
  DW_CFA_advance_loc1: 68 to 00000000008c17a8
  DW_CFA_def_cfa: r7 (rsp) ofs 8
  DW_CFA_nop
  DW_CFA_nop

00004a80 000000000000001c 00004a84 FDE cie=00000000 pc=00000000008c17a9..00000000008c1b62
  DW_CFA_advance_loc: 1 to 00000000008c17aa
  DW_CFA_def_cfa_offset: 16
  DW_CFA_offset: r6 (rbp) at cfa-16
  DW_CFA_advance_loc: 3 to 00000000008c17ad
  DW_CFA_def_cfa_register: r6 (rbp)
  DW_CFA_advance_loc2: 948 to 00000000008c1b61
  DW_CFA_def_cfa: r7 (rsp) ofs 8
  DW_CFA_nop

00004aa0 000000000000001c 00004aa4 FDE cie=00000000 pc=00000000008c1b62..00000000008c1bab
  DW_CFA_advance_loc: 1 to 00000000008c1b63
  DW_CFA_def_cfa_offset: 16
  DW_CFA_offset: r6 (rbp) at cfa-16
  DW_CFA_advance_loc: 3 to 00000000008c1b66
  DW_CFA_def_cfa_register: r6 (rbp)
  DW_CFA_advance_loc1: 68 to 00000000008c1baa
  DW_CFA_def_cfa: r7 (rsp) ofs 8
  DW_CFA_nop
  DW_CFA_nop

00004ac0 000000000000001c 00004ac4 FDE cie=00000000 pc=00000000008c1bab..00000000008c1bf4
  DW_CFA_advance_loc: 1 to 00000000008c1bac
  DW_CFA_def_cfa_offset: 16
  DW_CFA_offset: r6 (rbp) at cfa-16
  DW_CFA_advance_loc: 3 to 00000000008c1baf
  DW_CFA_def_cfa_register: r6 (rbp)
  DW_CFA_advance_loc1: 68 to 00000000008c1bf3
  DW_CFA_def_cfa: r7 (rsp) ofs 8
  DW_CFA_nop
  DW_CFA_nop

00004ae0 000000000000001c 00004ae4 FDE cie=00000000 pc=00000000008c1bf4..00000000008c1c3d
  DW_CFA_advance_loc: 1 to 00000000008c1bf5
  DW_CFA_def_cfa_offset: 16
  DW_CFA_offset: r6 (rbp) at cfa-16
  DW_CFA_advance_loc: 3 to 00000000008c1bf8
  DW_CFA_def_cfa_register: r6 (rbp)
  DW_CFA_advance_loc1: 68 to 00000000008c1c3c
  DW_CFA_def_cfa: r7 (rsp) ofs 8
  DW_CFA_nop
  DW_CFA_nop

00004b00 000000000000001c 00004b04 FDE cie=00000000 pc=00000000008c1c3d..00000000008c1d2b
  DW_CFA_advance_loc: 1 to 00000000008c1c3e
  DW_CFA_def_cfa_offset: 16
  DW_CFA_offset: r6 (rbp) at cfa-16
  DW_CFA_advance_loc: 3 to 00000000008c1c41
  DW_CFA_def_cfa_register: r6 (rbp)
  DW_CFA_advance_loc1: 233 to 00000000008c1d2a
  DW_CFA_def_cfa: r7 (rsp) ofs 8
  DW_CFA_nop
  DW_CFA_nop

00004b20 000000000000001c 00004b24 FDE cie=00000000 pc=00000000008c1d2b..00000000008c1d74
  DW_CFA_advance_loc: 1 to 00000000008c1d2c
  DW_CFA_def_cfa_offset: 16
  DW_CFA_offset: r6 (rbp) at cfa-16
  DW_CFA_advance_loc: 3 to 00000000008c1d2f
  DW_CFA_def_cfa_register: r6 (rbp)
  DW_CFA_advance_loc1: 68 to 00000000008c1d73
  DW_CFA_def_cfa: r7 (rsp) ofs 8
  DW_CFA_nop
  DW_CFA_nop

00004b40 000000000000001c 00004b44 FDE cie=00000000 pc=00000000008c1d74..00000000008c1f07
  DW_CFA_advance_loc: 1 to 00000000008c1d75
  DW_CFA_def_cfa_offset: 16
  DW_CFA_offset: r6 (rbp) at cfa-16
  DW_CFA_advance_loc: 3 to 00000000008c1d78
  DW_CFA_def_cfa_register: r6 (rbp)
  DW_CFA_advance_loc2: 398 to 00000000008c1f06
  DW_CFA_def_cfa: r7 (rsp) ofs 8
  DW_CFA_nop

00004b60 000000000000001c 00004b64 FDE cie=00000000 pc=00000000008c1f07..00000000008c1f50
  DW_CFA_advance_loc: 1 to 00000000008c1f08
  DW_CFA_def_cfa_offset: 16
  DW_CFA_offset: r6 (rbp) at cfa-16
  DW_CFA_advance_loc: 3 to 00000000008c1f0b
  DW_CFA_def_cfa_register: r6 (rbp)
  DW_CFA_advance_loc1: 68 to 00000000008c1f4f
  DW_CFA_def_cfa: r7 (rsp) ofs 8
  DW_CFA_nop
  DW_CFA_nop

00004b80 000000000000001c 00004b84 FDE cie=00000000 pc=00000000008c1f50..00000000008c211a
  DW_CFA_advance_loc: 1 to 00000000008c1f51
  DW_CFA_def_cfa_offset: 16
  DW_CFA_offset: r6 (rbp) at cfa-16
  DW_CFA_advance_loc: 3 to 00000000008c1f54
  DW_CFA_def_cfa_register: r6 (rbp)
  DW_CFA_advance_loc2: 453 to 00000000008c2119
  DW_CFA_def_cfa: r7 (rsp) ofs 8
  DW_CFA_nop

00004ba0 000000000000001c 00004ba4 FDE cie=00000000 pc=00000000008c211a..00000000008c2163
  DW_CFA_advance_loc: 1 to 00000000008c211b
  DW_CFA_def_cfa_offset: 16
  DW_CFA_offset: r6 (rbp) at cfa-16
  DW_CFA_advance_loc: 3 to 00000000008c211e
  DW_CFA_def_cfa_register: r6 (rbp)
  DW_CFA_advance_loc1: 68 to 00000000008c2162
  DW_CFA_def_cfa: r7 (rsp) ofs 8
  DW_CFA_nop
  DW_CFA_nop

00004bc0 000000000000001c 00004bc4 FDE cie=00000000 pc=00000000008c2163..00000000008c22f6
  DW_CFA_advance_loc: 1 to 00000000008c2164
  DW_CFA_def_cfa_offset: 16
  DW_CFA_offset: r6 (rbp) at cfa-16
  DW_CFA_advance_loc: 3 to 00000000008c2167
  DW_CFA_def_cfa_register: r6 (rbp)
  DW_CFA_advance_loc2: 398 to 00000000008c22f5
  DW_CFA_def_cfa: r7 (rsp) ofs 8
  DW_CFA_nop

00004be0 000000000000001c 00004be4 FDE cie=00000000 pc=00000000008c22f6..00000000008c2ba0
  DW_CFA_advance_loc: 1 to 00000000008c22f7
  DW_CFA_def_cfa_offset: 16
  DW_CFA_offset: r6 (rbp) at cfa-16
  DW_CFA_advance_loc: 3 to 00000000008c22fa
  DW_CFA_def_cfa_register: r6 (rbp)
  DW_CFA_advance_loc2: 2213 to 00000000008c2b9f
  DW_CFA_def_cfa: r7 (rsp) ofs 8
  DW_CFA_nop

00004c00 000000000000001c 00004c04 FDE cie=00000000 pc=00000000008c2ba0..00000000008c2be9
  DW_CFA_advance_loc: 1 to 00000000008c2ba1
  DW_CFA_def_cfa_offset: 16
  DW_CFA_offset: r6 (rbp) at cfa-16
  DW_CFA_advance_loc: 3 to 00000000008c2ba4
  DW_CFA_def_cfa_register: r6 (rbp)
  DW_CFA_advance_loc1: 68 to 00000000008c2be8
  DW_CFA_def_cfa: r7 (rsp) ofs 8
  DW_CFA_nop
  DW_CFA_nop

00004c20 000000000000001c 00004c24 FDE cie=00000000 pc=00000000008c2be9..00000000008c2c44
  DW_CFA_advance_loc: 1 to 00000000008c2bea
  DW_CFA_def_cfa_offset: 16
  DW_CFA_offset: r6 (rbp) at cfa-16
  DW_CFA_advance_loc: 3 to 00000000008c2bed
  DW_CFA_def_cfa_register: r6 (rbp)
  DW_CFA_advance_loc1: 86 to 00000000008c2c43
  DW_CFA_def_cfa: r7 (rsp) ofs 8
  DW_CFA_nop
  DW_CFA_nop

00004c40 000000000000001c 00004c44 FDE cie=00000000 pc=00000000008c2c44..00000000008c9695
  DW_CFA_advance_loc: 1 to 00000000008c2c45
  DW_CFA_def_cfa_offset: 16
  DW_CFA_offset: r6 (rbp) at cfa-16
  DW_CFA_advance_loc: 3 to 00000000008c2c48
  DW_CFA_def_cfa_register: r6 (rbp)
  DW_CFA_advance_loc2: 27212 to 00000000008c9694
  DW_CFA_def_cfa: r7 (rsp) ofs 8
  DW_CFA_nop

00004c60 000000000000001c 00004c64 FDE cie=00000000 pc=00000000008c9695..00000000008c96de
  DW_CFA_advance_loc: 1 to 00000000008c9696
  DW_CFA_def_cfa_offset: 16
  DW_CFA_offset: r6 (rbp) at cfa-16
  DW_CFA_advance_loc: 3 to 00000000008c9699
  DW_CFA_def_cfa_register: r6 (rbp)
  DW_CFA_advance_loc1: 68 to 00000000008c96dd
  DW_CFA_def_cfa: r7 (rsp) ofs 8
  DW_CFA_nop
  DW_CFA_nop

00004c80 000000000000001c 00004c84 FDE cie=00000000 pc=00000000008c96de..00000000008c9a97
  DW_CFA_advance_loc: 1 to 00000000008c96df
  DW_CFA_def_cfa_offset: 16
  DW_CFA_offset: r6 (rbp) at cfa-16
  DW_CFA_advance_loc: 3 to 00000000008c96e2
  DW_CFA_def_cfa_register: r6 (rbp)
  DW_CFA_advance_loc2: 948 to 00000000008c9a96
  DW_CFA_def_cfa: r7 (rsp) ofs 8
  DW_CFA_nop

00004ca0 000000000000001c 00004ca4 FDE cie=00000000 pc=00000000008c9a97..00000000008c9c98
  DW_CFA_advance_loc: 1 to 00000000008c9a98
  DW_CFA_def_cfa_offset: 16
  DW_CFA_offset: r6 (rbp) at cfa-16
  DW_CFA_advance_loc: 3 to 00000000008c9a9b
  DW_CFA_def_cfa_register: r6 (rbp)
  DW_CFA_advance_loc2: 508 to 00000000008c9c97
  DW_CFA_def_cfa: r7 (rsp) ofs 8
  DW_CFA_nop

00004cc0 000000000000001c 00004cc4 FDE cie=00000000 pc=00000000008c9c98..00000000008c9ce1
  DW_CFA_advance_loc: 1 to 00000000008c9c99
  DW_CFA_def_cfa_offset: 16
  DW_CFA_offset: r6 (rbp) at cfa-16
  DW_CFA_advance_loc: 3 to 00000000008c9c9c
  DW_CFA_def_cfa_register: r6 (rbp)
  DW_CFA_advance_loc1: 68 to 00000000008c9ce0
  DW_CFA_def_cfa: r7 (rsp) ofs 8
  DW_CFA_nop
  DW_CFA_nop

00004ce0 000000000000001c 00004ce4 FDE cie=00000000 pc=00000000008c9ce1..00000000008c9d98
  DW_CFA_advance_loc: 1 to 00000000008c9ce2
  DW_CFA_def_cfa_offset: 16
  DW_CFA_offset: r6 (rbp) at cfa-16
  DW_CFA_advance_loc: 3 to 00000000008c9ce5
  DW_CFA_def_cfa_register: r6 (rbp)
  DW_CFA_advance_loc1: 178 to 00000000008c9d97
  DW_CFA_def_cfa: r7 (rsp) ofs 8
  DW_CFA_nop
  DW_CFA_nop

00004d00 000000000000001c 00004d04 FDE cie=00000000 pc=00000000008c9d98..00000000008c9e86
  DW_CFA_advance_loc: 1 to 00000000008c9d99
  DW_CFA_def_cfa_offset: 16
  DW_CFA_offset: r6 (rbp) at cfa-16
  DW_CFA_advance_loc: 3 to 00000000008c9d9c
  DW_CFA_def_cfa_register: r6 (rbp)
  DW_CFA_advance_loc1: 233 to 00000000008c9e85
  DW_CFA_def_cfa: r7 (rsp) ofs 8
  DW_CFA_nop
  DW_CFA_nop

00004d20 000000000000001c 00004d24 FDE cie=00000000 pc=00000000008c9e86..00000000008c9ecf
  DW_CFA_advance_loc: 1 to 00000000008c9e87
  DW_CFA_def_cfa_offset: 16
  DW_CFA_offset: r6 (rbp) at cfa-16
  DW_CFA_advance_loc: 3 to 00000000008c9e8a
  DW_CFA_def_cfa_register: r6 (rbp)
  DW_CFA_advance_loc1: 68 to 00000000008c9ece
  DW_CFA_def_cfa: r7 (rsp) ofs 8
  DW_CFA_nop
  DW_CFA_nop

00004d40 000000000000001c 00004d44 FDE cie=00000000 pc=00000000008c9ecf..00000000008c9f4f
  DW_CFA_advance_loc: 1 to 00000000008c9ed0
  DW_CFA_def_cfa_offset: 16
  DW_CFA_offset: r6 (rbp) at cfa-16
  DW_CFA_advance_loc: 3 to 00000000008c9ed3
  DW_CFA_def_cfa_register: r6 (rbp)
  DW_CFA_advance_loc1: 123 to 00000000008c9f4e
  DW_CFA_def_cfa: r7 (rsp) ofs 8
  DW_CFA_nop
  DW_CFA_nop

00004d60 000000000000001c 00004d64 FDE cie=00000000 pc=00000000008c9f4f..00000000008c9f98
  DW_CFA_advance_loc: 1 to 00000000008c9f50
  DW_CFA_def_cfa_offset: 16
  DW_CFA_offset: r6 (rbp) at cfa-16
  DW_CFA_advance_loc: 3 to 00000000008c9f53
  DW_CFA_def_cfa_register: r6 (rbp)
  DW_CFA_advance_loc1: 68 to 00000000008c9f97
  DW_CFA_def_cfa: r7 (rsp) ofs 8
  DW_CFA_nop
  DW_CFA_nop

00004d80 000000000000001c 00004d84 FDE cie=00000000 pc=00000000008c9f98..00000000008c9fe1
  DW_CFA_advance_loc: 1 to 00000000008c9f99
  DW_CFA_def_cfa_offset: 16
  DW_CFA_offset: r6 (rbp) at cfa-16
  DW_CFA_advance_loc: 3 to 00000000008c9f9c
  DW_CFA_def_cfa_register: r6 (rbp)
  DW_CFA_advance_loc1: 68 to 00000000008c9fe0
  DW_CFA_def_cfa: r7 (rsp) ofs 8
  DW_CFA_nop
  DW_CFA_nop

00004da0 000000000000001c 00004da4 FDE cie=00000000 pc=00000000008c9fe1..00000000008ca02a
  DW_CFA_advance_loc: 1 to 00000000008c9fe2
  DW_CFA_def_cfa_offset: 16
  DW_CFA_offset: r6 (rbp) at cfa-16
  DW_CFA_advance_loc: 3 to 00000000008c9fe5
  DW_CFA_def_cfa_register: r6 (rbp)
  DW_CFA_advance_loc1: 68 to 00000000008ca029
  DW_CFA_def_cfa: r7 (rsp) ofs 8
  DW_CFA_nop
  DW_CFA_nop

00004dc0 000000000000001c 00004dc4 FDE cie=00000000 pc=00000000008ca02a..00000000008ca073
  DW_CFA_advance_loc: 1 to 00000000008ca02b
  DW_CFA_def_cfa_offset: 16
  DW_CFA_offset: r6 (rbp) at cfa-16
  DW_CFA_advance_loc: 3 to 00000000008ca02e
  DW_CFA_def_cfa_register: r6 (rbp)
  DW_CFA_advance_loc1: 68 to 00000000008ca072
  DW_CFA_def_cfa: r7 (rsp) ofs 8
  DW_CFA_nop
  DW_CFA_nop

00004de0 000000000000001c 00004de4 FDE cie=00000000 pc=00000000008ca073..00000000008ca0bc
  DW_CFA_advance_loc: 1 to 00000000008ca074
  DW_CFA_def_cfa_offset: 16
  DW_CFA_offset: r6 (rbp) at cfa-16
  DW_CFA_advance_loc: 3 to 00000000008ca077
  DW_CFA_def_cfa_register: r6 (rbp)
  DW_CFA_advance_loc1: 68 to 00000000008ca0bb
  DW_CFA_def_cfa: r7 (rsp) ofs 8
  DW_CFA_nop
  DW_CFA_nop

00004e00 000000000000001c 00004e04 FDE cie=00000000 pc=00000000008ca0bc..00000000008ca13c
  DW_CFA_advance_loc: 1 to 00000000008ca0bd
  DW_CFA_def_cfa_offset: 16
  DW_CFA_offset: r6 (rbp) at cfa-16
  DW_CFA_advance_loc: 3 to 00000000008ca0c0
  DW_CFA_def_cfa_register: r6 (rbp)
  DW_CFA_advance_loc1: 123 to 00000000008ca13b
  DW_CFA_def_cfa: r7 (rsp) ofs 8
  DW_CFA_nop
  DW_CFA_nop

00004e20 000000000000001c 00004e24 FDE cie=00000000 pc=00000000008ca13c..00000000008ca185
  DW_CFA_advance_loc: 1 to 00000000008ca13d
  DW_CFA_def_cfa_offset: 16
  DW_CFA_offset: r6 (rbp) at cfa-16
  DW_CFA_advance_loc: 3 to 00000000008ca140
  DW_CFA_def_cfa_register: r6 (rbp)
  DW_CFA_advance_loc1: 68 to 00000000008ca184
  DW_CFA_def_cfa: r7 (rsp) ofs 8
  DW_CFA_nop
  DW_CFA_nop

00004e40 000000000000001c 00004e44 FDE cie=00000000 pc=00000000008ca185..00000000008ca205
  DW_CFA_advance_loc: 1 to 00000000008ca186
  DW_CFA_def_cfa_offset: 16
  DW_CFA_offset: r6 (rbp) at cfa-16
  DW_CFA_advance_loc: 3 to 00000000008ca189
  DW_CFA_def_cfa_register: r6 (rbp)
  DW_CFA_advance_loc1: 123 to 00000000008ca204
  DW_CFA_def_cfa: r7 (rsp) ofs 8
  DW_CFA_nop
  DW_CFA_nop

00004e60 000000000000001c 00004e64 FDE cie=00000000 pc=00000000008ca205..00000000008ca361
  DW_CFA_advance_loc: 1 to 00000000008ca206
  DW_CFA_def_cfa_offset: 16
  DW_CFA_offset: r6 (rbp) at cfa-16
  DW_CFA_advance_loc: 3 to 00000000008ca209
  DW_CFA_def_cfa_register: r6 (rbp)
  DW_CFA_advance_loc2: 343 to 00000000008ca360
  DW_CFA_def_cfa: r7 (rsp) ofs 8
  DW_CFA_nop

00004e80 000000000000001c 00004e84 FDE cie=00000000 pc=00000000008ca361..00000000008ca3e1
  DW_CFA_advance_loc: 1 to 00000000008ca362
  DW_CFA_def_cfa_offset: 16
  DW_CFA_offset: r6 (rbp) at cfa-16
  DW_CFA_advance_loc: 3 to 00000000008ca365
  DW_CFA_def_cfa_register: r6 (rbp)
  DW_CFA_advance_loc1: 123 to 00000000008ca3e0
  DW_CFA_def_cfa: r7 (rsp) ofs 8
  DW_CFA_nop
  DW_CFA_nop

00004ea0 000000000000001c 00004ea4 FDE cie=00000000 pc=00000000008ca3e1..00000000008ca506
  DW_CFA_advance_loc: 1 to 00000000008ca3e2
  DW_CFA_def_cfa_offset: 16
  DW_CFA_offset: r6 (rbp) at cfa-16
  DW_CFA_advance_loc: 3 to 00000000008ca3e5
  DW_CFA_def_cfa_register: r6 (rbp)
  DW_CFA_advance_loc2: 288 to 00000000008ca505
  DW_CFA_def_cfa: r7 (rsp) ofs 8
  DW_CFA_nop

00004ec0 000000000000001c 00004ec4 FDE cie=00000000 pc=00000000008ca506..00000000008ca662
  DW_CFA_advance_loc: 1 to 00000000008ca507
  DW_CFA_def_cfa_offset: 16
  DW_CFA_offset: r6 (rbp) at cfa-16
  DW_CFA_advance_loc: 3 to 00000000008ca50a
  DW_CFA_def_cfa_register: r6 (rbp)
  DW_CFA_advance_loc2: 343 to 00000000008ca661
  DW_CFA_def_cfa: r7 (rsp) ofs 8
  DW_CFA_nop

00004ee0 000000000000001c 00004ee4 FDE cie=00000000 pc=00000000008ca662..00000000008ca787
  DW_CFA_advance_loc: 1 to 00000000008ca663
  DW_CFA_def_cfa_offset: 16
  DW_CFA_offset: r6 (rbp) at cfa-16
  DW_CFA_advance_loc: 3 to 00000000008ca666
  DW_CFA_def_cfa_register: r6 (rbp)
  DW_CFA_advance_loc2: 288 to 00000000008ca786
  DW_CFA_def_cfa: r7 (rsp) ofs 8
  DW_CFA_nop

00004f00 000000000000001c 00004f04 FDE cie=00000000 pc=00000000008ca787..00000000008ca8e3
  DW_CFA_advance_loc: 1 to 00000000008ca788
  DW_CFA_def_cfa_offset: 16
  DW_CFA_offset: r6 (rbp) at cfa-16
  DW_CFA_advance_loc: 3 to 00000000008ca78b
  DW_CFA_def_cfa_register: r6 (rbp)
  DW_CFA_advance_loc2: 343 to 00000000008ca8e2
  DW_CFA_def_cfa: r7 (rsp) ofs 8
  DW_CFA_nop

00004f20 000000000000001c 00004f24 FDE cie=00000000 pc=00000000008ca8e3..00000000008caaad
  DW_CFA_advance_loc: 1 to 00000000008ca8e4
  DW_CFA_def_cfa_offset: 16
  DW_CFA_offset: r6 (rbp) at cfa-16
  DW_CFA_advance_loc: 3 to 00000000008ca8e7
  DW_CFA_def_cfa_register: r6 (rbp)
  DW_CFA_advance_loc2: 453 to 00000000008caaac
  DW_CFA_def_cfa: r7 (rsp) ofs 8
  DW_CFA_nop

00004f40 000000000000001c 00004f44 FDE cie=00000000 pc=00000000008caaad..00000000008cabd2
  DW_CFA_advance_loc: 1 to 00000000008caaae
  DW_CFA_def_cfa_offset: 16
  DW_CFA_offset: r6 (rbp) at cfa-16
  DW_CFA_advance_loc: 3 to 00000000008caab1
  DW_CFA_def_cfa_register: r6 (rbp)
  DW_CFA_advance_loc2: 288 to 00000000008cabd1
  DW_CFA_def_cfa: r7 (rsp) ofs 8
  DW_CFA_nop

00004f60 000000000000001c 00004f64 FDE cie=00000000 pc=00000000008cabd2..00000000008cac52
  DW_CFA_advance_loc: 1 to 00000000008cabd3
  DW_CFA_def_cfa_offset: 16
  DW_CFA_offset: r6 (rbp) at cfa-16
  DW_CFA_advance_loc: 3 to 00000000008cabd6
  DW_CFA_def_cfa_register: r6 (rbp)
  DW_CFA_advance_loc1: 123 to 00000000008cac51
  DW_CFA_def_cfa: r7 (rsp) ofs 8
  DW_CFA_nop
  DW_CFA_nop

00004f80 000000000000001c 00004f84 FDE cie=00000000 pc=00000000008cac52..00000000008cac9b
  DW_CFA_advance_loc: 1 to 00000000008cac53
  DW_CFA_def_cfa_offset: 16
  DW_CFA_offset: r6 (rbp) at cfa-16
  DW_CFA_advance_loc: 3 to 00000000008cac56
  DW_CFA_def_cfa_register: r6 (rbp)
  DW_CFA_advance_loc1: 68 to 00000000008cac9a
  DW_CFA_def_cfa: r7 (rsp) ofs 8
  DW_CFA_nop
  DW_CFA_nop

00004fa0 000000000000001c 00004fa4 FDE cie=00000000 pc=00000000008cac9b..00000000008cadc0
  DW_CFA_advance_loc: 1 to 00000000008cac9c
  DW_CFA_def_cfa_offset: 16
  DW_CFA_offset: r6 (rbp) at cfa-16
  DW_CFA_advance_loc: 3 to 00000000008cac9f
  DW_CFA_def_cfa_register: r6 (rbp)
  DW_CFA_advance_loc2: 288 to 00000000008cadbf
  DW_CFA_def_cfa: r7 (rsp) ofs 8
  DW_CFA_nop

00004fc0 000000000000001c 00004fc4 FDE cie=00000000 pc=00000000008cadc0..00000000008cae09
  DW_CFA_advance_loc: 1 to 00000000008cadc1
  DW_CFA_def_cfa_offset: 16
  DW_CFA_offset: r6 (rbp) at cfa-16
  DW_CFA_advance_loc: 3 to 00000000008cadc4
  DW_CFA_def_cfa_register: r6 (rbp)
  DW_CFA_advance_loc1: 68 to 00000000008cae08
  DW_CFA_def_cfa: r7 (rsp) ofs 8
  DW_CFA_nop
  DW_CFA_nop

00004fe0 000000000000001c 00004fe4 FDE cie=00000000 pc=00000000008cae09..00000000008cae89
  DW_CFA_advance_loc: 1 to 00000000008cae0a
  DW_CFA_def_cfa_offset: 16
  DW_CFA_offset: r6 (rbp) at cfa-16
  DW_CFA_advance_loc: 3 to 00000000008cae0d
  DW_CFA_def_cfa_register: r6 (rbp)
  DW_CFA_advance_loc1: 123 to 00000000008cae88
  DW_CFA_def_cfa: r7 (rsp) ofs 8
  DW_CFA_nop
  DW_CFA_nop

00005000 000000000000001c 00005004 FDE cie=00000000 pc=00000000008cae89..00000000008caed2
  DW_CFA_advance_loc: 1 to 00000000008cae8a
  DW_CFA_def_cfa_offset: 16
  DW_CFA_offset: r6 (rbp) at cfa-16
  DW_CFA_advance_loc: 3 to 00000000008cae8d
  DW_CFA_def_cfa_register: r6 (rbp)
  DW_CFA_advance_loc1: 68 to 00000000008caed1
  DW_CFA_def_cfa: r7 (rsp) ofs 8
  DW_CFA_nop
  DW_CFA_nop

00005020 000000000000001c 00005024 FDE cie=00000000 pc=00000000008caed2..00000000008caf52
  DW_CFA_advance_loc: 1 to 00000000008caed3
  DW_CFA_def_cfa_offset: 16
  DW_CFA_offset: r6 (rbp) at cfa-16
  DW_CFA_advance_loc: 3 to 00000000008caed6
  DW_CFA_def_cfa_register: r6 (rbp)
  DW_CFA_advance_loc1: 123 to 00000000008caf51
  DW_CFA_def_cfa: r7 (rsp) ofs 8
  DW_CFA_nop
  DW_CFA_nop

00005040 000000000000001c 00005044 FDE cie=00000000 pc=00000000008caf52..00000000008caf9b
  DW_CFA_advance_loc: 1 to 00000000008caf53
  DW_CFA_def_cfa_offset: 16
  DW_CFA_offset: r6 (rbp) at cfa-16
  DW_CFA_advance_loc: 3 to 00000000008caf56
  DW_CFA_def_cfa_register: r6 (rbp)
  DW_CFA_advance_loc1: 68 to 00000000008caf9a
  DW_CFA_def_cfa: r7 (rsp) ofs 8
  DW_CFA_nop
  DW_CFA_nop

00005060 000000000000001c 00005064 FDE cie=00000000 pc=00000000008caf9b..00000000008cb01b
  DW_CFA_advance_loc: 1 to 00000000008caf9c
  DW_CFA_def_cfa_offset: 16
  DW_CFA_offset: r6 (rbp) at cfa-16
  DW_CFA_advance_loc: 3 to 00000000008caf9f
  DW_CFA_def_cfa_register: r6 (rbp)
  DW_CFA_advance_loc1: 123 to 00000000008cb01a
  DW_CFA_def_cfa: r7 (rsp) ofs 8
  DW_CFA_nop
  DW_CFA_nop

00005080 000000000000001c 00005084 FDE cie=00000000 pc=00000000008cb01b..00000000008cb095
  DW_CFA_advance_loc: 1 to 00000000008cb01c
  DW_CFA_def_cfa_offset: 16
  DW_CFA_offset: r6 (rbp) at cfa-16
  DW_CFA_advance_loc: 3 to 00000000008cb01f
  DW_CFA_def_cfa_register: r6 (rbp)
  DW_CFA_advance_loc1: 117 to 00000000008cb094
  DW_CFA_def_cfa: r7 (rsp) ofs 8
  DW_CFA_nop
  DW_CFA_nop

000050a0 000000000000001c 000050a4 FDE cie=00000000 pc=00000000008cb095..00000000008cbe5a
  DW_CFA_advance_loc: 1 to 00000000008cb096
  DW_CFA_def_cfa_offset: 16
  DW_CFA_offset: r6 (rbp) at cfa-16
  DW_CFA_advance_loc: 3 to 00000000008cb099
  DW_CFA_def_cfa_register: r6 (rbp)
  DW_CFA_advance_loc2: 3520 to 00000000008cbe59
  DW_CFA_def_cfa: r7 (rsp) ofs 8
  DW_CFA_nop

000050c0 000000000000001c 000050c4 FDE cie=00000000 pc=00000000008cbe5a..00000000008cbe8c
  DW_CFA_advance_loc: 1 to 00000000008cbe5b
  DW_CFA_def_cfa_offset: 16
  DW_CFA_offset: r6 (rbp) at cfa-16
  DW_CFA_advance_loc: 3 to 00000000008cbe5e
  DW_CFA_def_cfa_register: r6 (rbp)
  DW_CFA_advance_loc: 45 to 00000000008cbe8b
  DW_CFA_def_cfa: r7 (rsp) ofs 8
  DW_CFA_nop
  DW_CFA_nop
  DW_CFA_nop

000050e0 000000000000001c 000050e4 FDE cie=00000000 pc=00000000008cbe8c..00000000008cbec3
  DW_CFA_advance_loc: 1 to 00000000008cbe8d
  DW_CFA_def_cfa_offset: 16
  DW_CFA_offset: r6 (rbp) at cfa-16
  DW_CFA_advance_loc: 3 to 00000000008cbe90
  DW_CFA_def_cfa_register: r6 (rbp)
  DW_CFA_advance_loc: 50 to 00000000008cbec2
  DW_CFA_def_cfa: r7 (rsp) ofs 8
  DW_CFA_nop
  DW_CFA_nop
  DW_CFA_nop

00005100 000000000000001c 00005104 FDE cie=00000000 pc=00000000008cbec3..00000000008cbee6
  DW_CFA_advance_loc: 1 to 00000000008cbec4
  DW_CFA_def_cfa_offset: 16
  DW_CFA_offset: r6 (rbp) at cfa-16
  DW_CFA_advance_loc: 3 to 00000000008cbec7
  DW_CFA_def_cfa_register: r6 (rbp)
  DW_CFA_advance_loc: 30 to 00000000008cbee5
  DW_CFA_def_cfa: r7 (rsp) ofs 8
  DW_CFA_nop
  DW_CFA_nop
  DW_CFA_nop

00005120 000000000000001c 00005124 FDE cie=00000000 pc=00000000008cbee6..00000000008d32dd
  DW_CFA_advance_loc: 1 to 00000000008cbee7
  DW_CFA_def_cfa_offset: 16
  DW_CFA_offset: r6 (rbp) at cfa-16
  DW_CFA_advance_loc: 3 to 00000000008cbeea
  DW_CFA_def_cfa_register: r6 (rbp)
  DW_CFA_advance_loc2: 29682 to 00000000008d32dc
  DW_CFA_def_cfa: r7 (rsp) ofs 8
  DW_CFA_nop

00005140 000000000000001c 00005144 FDE cie=00000000 pc=00000000008d32dd..00000000008d4320
  DW_CFA_advance_loc: 1 to 00000000008d32de
  DW_CFA_def_cfa_offset: 16
  DW_CFA_offset: r6 (rbp) at cfa-16
  DW_CFA_advance_loc: 3 to 00000000008d32e1
  DW_CFA_def_cfa_register: r6 (rbp)
  DW_CFA_advance_loc2: 4158 to 00000000008d431f
  DW_CFA_def_cfa: r7 (rsp) ofs 8
  DW_CFA_nop

00005160 000000000000001c 00005164 FDE cie=00000000 pc=00000000008d4320..00000000008d4338
  DW_CFA_advance_loc: 1 to 00000000008d4321
  DW_CFA_def_cfa_offset: 16
  DW_CFA_offset: r6 (rbp) at cfa-16
  DW_CFA_advance_loc: 3 to 00000000008d4324
  DW_CFA_def_cfa_register: r6 (rbp)
  DW_CFA_advance_loc: 19 to 00000000008d4337
  DW_CFA_def_cfa: r7 (rsp) ofs 8
  DW_CFA_nop
  DW_CFA_nop
  DW_CFA_nop

00005180 000000000000001c 00005184 FDE cie=00000000 pc=00000000008d4338..00000000008d43be
  DW_CFA_advance_loc: 1 to 00000000008d4339
  DW_CFA_def_cfa_offset: 16
  DW_CFA_offset: r6 (rbp) at cfa-16
  DW_CFA_advance_loc: 3 to 00000000008d433c
  DW_CFA_def_cfa_register: r6 (rbp)
  DW_CFA_advance_loc1: 129 to 00000000008d43bd
  DW_CFA_def_cfa: r7 (rsp) ofs 8
  DW_CFA_nop
  DW_CFA_nop

000051a0 000000000000001c 000051a4 FDE cie=00000000 pc=00000000008d43be..00000000008d43e6
  DW_CFA_advance_loc: 1 to 00000000008d43bf
  DW_CFA_def_cfa_offset: 16
  DW_CFA_offset: r6 (rbp) at cfa-16
  DW_CFA_advance_loc: 3 to 00000000008d43c2
  DW_CFA_def_cfa_register: r6 (rbp)
  DW_CFA_advance_loc: 35 to 00000000008d43e5
  DW_CFA_def_cfa: r7 (rsp) ofs 8
  DW_CFA_nop
  DW_CFA_nop
  DW_CFA_nop

000051c0 000000000000001c 000051c4 FDE cie=00000000 pc=00000000008d43e6..00000000008d4464
  DW_CFA_advance_loc: 1 to 00000000008d43e7
  DW_CFA_def_cfa_offset: 16
  DW_CFA_offset: r6 (rbp) at cfa-16
  DW_CFA_advance_loc: 3 to 00000000008d43ea
  DW_CFA_def_cfa_register: r6 (rbp)
  DW_CFA_advance_loc1: 121 to 00000000008d4463
  DW_CFA_def_cfa: r7 (rsp) ofs 8
  DW_CFA_nop
  DW_CFA_nop

000051e0 000000000000001c 000051e4 FDE cie=00000000 pc=00000000008d4464..00000000008d449b
  DW_CFA_advance_loc: 1 to 00000000008d4465
  DW_CFA_def_cfa_offset: 16
  DW_CFA_offset: r6 (rbp) at cfa-16
  DW_CFA_advance_loc: 3 to 00000000008d4468
  DW_CFA_def_cfa_register: r6 (rbp)
  DW_CFA_advance_loc: 50 to 00000000008d449a
  DW_CFA_def_cfa: r7 (rsp) ofs 8
  DW_CFA_nop
  DW_CFA_nop
  DW_CFA_nop

00005200 000000000000001c 00005204 FDE cie=00000000 pc=00000000008d449b..00000000008d44d6
  DW_CFA_advance_loc: 1 to 00000000008d449c
  DW_CFA_def_cfa_offset: 16
  DW_CFA_offset: r6 (rbp) at cfa-16
  DW_CFA_advance_loc: 3 to 00000000008d449f
  DW_CFA_def_cfa_register: r6 (rbp)
  DW_CFA_advance_loc: 54 to 00000000008d44d5
  DW_CFA_def_cfa: r7 (rsp) ofs 8
  DW_CFA_nop
  DW_CFA_nop
  DW_CFA_nop

00005220 000000000000001c 00005224 FDE cie=00000000 pc=00000000008d44d6..00000000008d4511
  DW_CFA_advance_loc: 1 to 00000000008d44d7
  DW_CFA_def_cfa_offset: 16
  DW_CFA_offset: r6 (rbp) at cfa-16
  DW_CFA_advance_loc: 3 to 00000000008d44da
  DW_CFA_def_cfa_register: r6 (rbp)
  DW_CFA_advance_loc: 54 to 00000000008d4510
  DW_CFA_def_cfa: r7 (rsp) ofs 8
  DW_CFA_nop
  DW_CFA_nop
  DW_CFA_nop

00005240 000000000000001c 00005244 FDE cie=00000000 pc=00000000008d4511..00000000008d4571
  DW_CFA_advance_loc: 1 to 00000000008d4512
  DW_CFA_def_cfa_offset: 16
  DW_CFA_offset: r6 (rbp) at cfa-16
  DW_CFA_advance_loc: 3 to 00000000008d4515
  DW_CFA_def_cfa_register: r6 (rbp)
  DW_CFA_advance_loc1: 91 to 00000000008d4570
  DW_CFA_def_cfa: r7 (rsp) ofs 8
  DW_CFA_nop
  DW_CFA_nop

00005260 000000000000001c 00005264 FDE cie=00000000 pc=00000000008d4571..00000000008d4600
  DW_CFA_advance_loc: 1 to 00000000008d4572
  DW_CFA_def_cfa_offset: 16
  DW_CFA_offset: r6 (rbp) at cfa-16
  DW_CFA_advance_loc: 3 to 00000000008d4575
  DW_CFA_def_cfa_register: r6 (rbp)
  DW_CFA_advance_loc1: 138 to 00000000008d45ff
  DW_CFA_def_cfa: r7 (rsp) ofs 8
  DW_CFA_nop
  DW_CFA_nop

00005280 000000000000001c 00005284 FDE cie=00000000 pc=00000000008d4600..00000000008d469a
  DW_CFA_advance_loc: 1 to 00000000008d4601
  DW_CFA_def_cfa_offset: 16
  DW_CFA_offset: r6 (rbp) at cfa-16
  DW_CFA_advance_loc: 3 to 00000000008d4604
  DW_CFA_def_cfa_register: r6 (rbp)
  DW_CFA_advance_loc1: 149 to 00000000008d4699
  DW_CFA_def_cfa: r7 (rsp) ofs 8
  DW_CFA_nop
  DW_CFA_nop

000052a0 000000000000001c 000052a4 FDE cie=00000000 pc=00000000008d469a..00000000008d46c2
  DW_CFA_advance_loc: 1 to 00000000008d469b
  DW_CFA_def_cfa_offset: 16
  DW_CFA_offset: r6 (rbp) at cfa-16
  DW_CFA_advance_loc: 3 to 00000000008d469e
  DW_CFA_def_cfa_register: r6 (rbp)
  DW_CFA_advance_loc: 35 to 00000000008d46c1
  DW_CFA_def_cfa: r7 (rsp) ofs 8
  DW_CFA_nop
  DW_CFA_nop
  DW_CFA_nop

000052c0 000000000000001c 000052c4 FDE cie=00000000 pc=00000000008d46c2..00000000008d46d3
  DW_CFA_advance_loc: 1 to 00000000008d46c3
  DW_CFA_def_cfa_offset: 16
  DW_CFA_offset: r6 (rbp) at cfa-16
  DW_CFA_advance_loc: 3 to 00000000008d46c6
  DW_CFA_def_cfa_register: r6 (rbp)
  DW_CFA_advance_loc: 12 to 00000000008d46d2
  DW_CFA_def_cfa: r7 (rsp) ofs 8
  DW_CFA_nop
  DW_CFA_nop
  DW_CFA_nop

000052e0 000000000000001c 000052e4 FDE cie=00000000 pc=00000000008d46d3..00000000008d4718
  DW_CFA_advance_loc: 1 to 00000000008d46d4
  DW_CFA_def_cfa_offset: 16
  DW_CFA_offset: r6 (rbp) at cfa-16
  DW_CFA_advance_loc: 3 to 00000000008d46d7
  DW_CFA_def_cfa_register: r6 (rbp)
  DW_CFA_advance_loc1: 64 to 00000000008d4717
  DW_CFA_def_cfa: r7 (rsp) ofs 8
  DW_CFA_nop
  DW_CFA_nop

00005300 000000000000001c 00005304 FDE cie=00000000 pc=00000000008d4718..00000000008d4742
  DW_CFA_advance_loc: 1 to 00000000008d4719
  DW_CFA_def_cfa_offset: 16
  DW_CFA_offset: r6 (rbp) at cfa-16
  DW_CFA_advance_loc: 3 to 00000000008d471c
  DW_CFA_def_cfa_register: r6 (rbp)
  DW_CFA_advance_loc: 37 to 00000000008d4741
  DW_CFA_def_cfa: r7 (rsp) ofs 8
  DW_CFA_nop
  DW_CFA_nop
  DW_CFA_nop

00005320 000000000000001c 00005324 FDE cie=00000000 pc=00000000008d4742..00000000008d47d4
  DW_CFA_advance_loc: 1 to 00000000008d4743
  DW_CFA_def_cfa_offset: 16
  DW_CFA_offset: r6 (rbp) at cfa-16
  DW_CFA_advance_loc: 3 to 00000000008d4746
  DW_CFA_def_cfa_register: r6 (rbp)
  DW_CFA_advance_loc1: 141 to 00000000008d47d3
  DW_CFA_def_cfa: r7 (rsp) ofs 8
  DW_CFA_nop
  DW_CFA_nop

00005340 000000000000001c 00005344 FDE cie=00000000 pc=00000000008d47d4..00000000008d47ea
  DW_CFA_advance_loc: 1 to 00000000008d47d5
  DW_CFA_def_cfa_offset: 16
  DW_CFA_offset: r6 (rbp) at cfa-16
  DW_CFA_advance_loc: 3 to 00000000008d47d8
  DW_CFA_def_cfa_register: r6 (rbp)
  DW_CFA_advance_loc: 17 to 00000000008d47e9
  DW_CFA_def_cfa: r7 (rsp) ofs 8
  DW_CFA_nop
  DW_CFA_nop
  DW_CFA_nop

00005360 000000000000001c 00005364 FDE cie=00000000 pc=00000000008d47ea..00000000008d47f6
  DW_CFA_advance_loc: 1 to 00000000008d47eb
  DW_CFA_def_cfa_offset: 16
  DW_CFA_offset: r6 (rbp) at cfa-16
  DW_CFA_advance_loc: 3 to 00000000008d47ee
  DW_CFA_def_cfa_register: r6 (rbp)
  DW_CFA_advance_loc: 7 to 00000000008d47f5
  DW_CFA_def_cfa: r7 (rsp) ofs 8
  DW_CFA_nop
  DW_CFA_nop
  DW_CFA_nop

00005380 000000000000001c 00005384 FDE cie=00000000 pc=00000000008d47f6..00000000008d4820
  DW_CFA_advance_loc: 1 to 00000000008d47f7
  DW_CFA_def_cfa_offset: 16
  DW_CFA_offset: r6 (rbp) at cfa-16
  DW_CFA_advance_loc: 3 to 00000000008d47fa
  DW_CFA_def_cfa_register: r6 (rbp)
  DW_CFA_advance_loc: 37 to 00000000008d481f
  DW_CFA_def_cfa: r7 (rsp) ofs 8
  DW_CFA_nop
  DW_CFA_nop
  DW_CFA_nop

000053a0 000000000000001c 000053a4 FDE cie=00000000 pc=00000000008d4820..00000000008d4852
  DW_CFA_advance_loc: 1 to 00000000008d4821
  DW_CFA_def_cfa_offset: 16
  DW_CFA_offset: r6 (rbp) at cfa-16
  DW_CFA_advance_loc: 3 to 00000000008d4824
  DW_CFA_def_cfa_register: r6 (rbp)
  DW_CFA_advance_loc: 45 to 00000000008d4851
  DW_CFA_def_cfa: r7 (rsp) ofs 8
  DW_CFA_nop
  DW_CFA_nop
  DW_CFA_nop

000053c0 000000000000001c 000053c4 FDE cie=00000000 pc=00000000008d4852..00000000008d485d
  DW_CFA_advance_loc: 1 to 00000000008d4853
  DW_CFA_def_cfa_offset: 16
  DW_CFA_offset: r6 (rbp) at cfa-16
  DW_CFA_advance_loc: 3 to 00000000008d4856
  DW_CFA_def_cfa_register: r6 (rbp)
  DW_CFA_advance_loc: 6 to 00000000008d485c
  DW_CFA_def_cfa: r7 (rsp) ofs 8
  DW_CFA_nop
  DW_CFA_nop
  DW_CFA_nop

000053e0 000000000000001c 000053e4 FDE cie=00000000 pc=00000000008d485d..00000000008d4881
  DW_CFA_advance_loc: 1 to 00000000008d485e
  DW_CFA_def_cfa_offset: 16
  DW_CFA_offset: r6 (rbp) at cfa-16
  DW_CFA_advance_loc: 3 to 00000000008d4861
  DW_CFA_def_cfa_register: r6 (rbp)
  DW_CFA_advance_loc: 31 to 00000000008d4880
  DW_CFA_def_cfa: r7 (rsp) ofs 8
  DW_CFA_nop
  DW_CFA_nop
  DW_CFA_nop

00005400 000000000000001c 00005404 FDE cie=00000000 pc=00000000008d4881..00000000008d48a5
  DW_CFA_advance_loc: 1 to 00000000008d4882
  DW_CFA_def_cfa_offset: 16
  DW_CFA_offset: r6 (rbp) at cfa-16
  DW_CFA_advance_loc: 3 to 00000000008d4885
  DW_CFA_def_cfa_register: r6 (rbp)
  DW_CFA_advance_loc: 31 to 00000000008d48a4
  DW_CFA_def_cfa: r7 (rsp) ofs 8
  DW_CFA_nop
  DW_CFA_nop
  DW_CFA_nop

00005420 000000000000001c 00005424 FDE cie=00000000 pc=00000000008d48a5..00000000008d494c
  DW_CFA_advance_loc: 1 to 00000000008d48a6
  DW_CFA_def_cfa_offset: 16
  DW_CFA_offset: r6 (rbp) at cfa-16
  DW_CFA_advance_loc: 3 to 00000000008d48a9
  DW_CFA_def_cfa_register: r6 (rbp)
  DW_CFA_advance_loc1: 162 to 00000000008d494b
  DW_CFA_def_cfa: r7 (rsp) ofs 8
  DW_CFA_nop
  DW_CFA_nop

00005440 000000000000001c 00005444 FDE cie=00000000 pc=00000000008d494c..00000000008d498e
  DW_CFA_advance_loc: 1 to 00000000008d494d
  DW_CFA_def_cfa_offset: 16
  DW_CFA_offset: r6 (rbp) at cfa-16
  DW_CFA_advance_loc: 3 to 00000000008d4950
  DW_CFA_def_cfa_register: r6 (rbp)
  DW_CFA_advance_loc: 61 to 00000000008d498d
  DW_CFA_def_cfa: r7 (rsp) ofs 8
  DW_CFA_nop
  DW_CFA_nop
  DW_CFA_nop

00005460 000000000000001c 00005464 FDE cie=00000000 pc=00000000008d498e..00000000008d4d0c
  DW_CFA_advance_loc: 1 to 00000000008d498f
  DW_CFA_def_cfa_offset: 16
  DW_CFA_offset: r6 (rbp) at cfa-16
  DW_CFA_advance_loc: 3 to 00000000008d4992
  DW_CFA_def_cfa_register: r6 (rbp)
  DW_CFA_advance_loc2: 889 to 00000000008d4d0b
  DW_CFA_def_cfa: r7 (rsp) ofs 8
  DW_CFA_nop

00005480 000000000000001c 00005484 FDE cie=00000000 pc=00000000008d4d0c..00000000008d4ed5
  DW_CFA_advance_loc: 1 to 00000000008d4d0d
  DW_CFA_def_cfa_offset: 16
  DW_CFA_offset: r6 (rbp) at cfa-16
  DW_CFA_advance_loc: 3 to 00000000008d4d10
  DW_CFA_def_cfa_register: r6 (rbp)
  DW_CFA_advance_loc2: 452 to 00000000008d4ed4
  DW_CFA_def_cfa: r7 (rsp) ofs 8
  DW_CFA_nop

000054a0 000000000000001c 000054a4 FDE cie=00000000 pc=00000000008d4ed5..00000000008d4f49
  DW_CFA_advance_loc: 1 to 00000000008d4ed6
  DW_CFA_def_cfa_offset: 16
  DW_CFA_offset: r6 (rbp) at cfa-16
  DW_CFA_advance_loc: 3 to 00000000008d4ed9
  DW_CFA_def_cfa_register: r6 (rbp)
  DW_CFA_advance_loc1: 111 to 00000000008d4f48
  DW_CFA_def_cfa: r7 (rsp) ofs 8
  DW_CFA_nop
  DW_CFA_nop

000054c0 000000000000001c 000054c4 FDE cie=00000000 pc=00000000008d4f49..00000000008d4fb7
  DW_CFA_advance_loc: 1 to 00000000008d4f4a
  DW_CFA_def_cfa_offset: 16
  DW_CFA_offset: r6 (rbp) at cfa-16
  DW_CFA_advance_loc: 3 to 00000000008d4f4d
  DW_CFA_def_cfa_register: r6 (rbp)
  DW_CFA_advance_loc1: 105 to 00000000008d4fb6
  DW_CFA_def_cfa: r7 (rsp) ofs 8
  DW_CFA_nop
  DW_CFA_nop

000054e0 000000000000001c 000054e4 FDE cie=00000000 pc=00000000008d4fb7..00000000008d4fe1
  DW_CFA_advance_loc: 1 to 00000000008d4fb8
  DW_CFA_def_cfa_offset: 16
  DW_CFA_offset: r6 (rbp) at cfa-16
  DW_CFA_advance_loc: 3 to 00000000008d4fbb
  DW_CFA_def_cfa_register: r6 (rbp)
  DW_CFA_advance_loc: 37 to 00000000008d4fe0
  DW_CFA_def_cfa: r7 (rsp) ofs 8
  DW_CFA_nop
  DW_CFA_nop
  DW_CFA_nop

00005500 000000000000001c 00005504 FDE cie=00000000 pc=00000000008d4fe1..00000000008d5037
  DW_CFA_advance_loc: 1 to 00000000008d4fe2
  DW_CFA_def_cfa_offset: 16
  DW_CFA_offset: r6 (rbp) at cfa-16
  DW_CFA_advance_loc: 3 to 00000000008d4fe5
  DW_CFA_def_cfa_register: r6 (rbp)
  DW_CFA_advance_loc1: 81 to 00000000008d5036
  DW_CFA_def_cfa: r7 (rsp) ofs 8
  DW_CFA_nop
  DW_CFA_nop

00005520 000000000000001c 00005524 FDE cie=00000000 pc=00000000008d5037..00000000008d5293
  DW_CFA_advance_loc: 1 to 00000000008d5038
  DW_CFA_def_cfa_offset: 16
  DW_CFA_offset: r6 (rbp) at cfa-16
  DW_CFA_advance_loc: 3 to 00000000008d503b
  DW_CFA_def_cfa_register: r6 (rbp)
  DW_CFA_advance_loc2: 599 to 00000000008d5292
  DW_CFA_def_cfa: r7 (rsp) ofs 8
  DW_CFA_nop

00005540 000000000000001c 00005544 FDE cie=00000000 pc=00000000008d5293..00000000008d52db
  DW_CFA_advance_loc: 1 to 00000000008d5294
  DW_CFA_def_cfa_offset: 16
  DW_CFA_offset: r6 (rbp) at cfa-16
  DW_CFA_advance_loc: 3 to 00000000008d5297
  DW_CFA_def_cfa_register: r6 (rbp)
  DW_CFA_advance_loc1: 67 to 00000000008d52da
  DW_CFA_def_cfa: r7 (rsp) ofs 8
  DW_CFA_nop
  DW_CFA_nop

00005560 000000000000001c 00005564 FDE cie=00000000 pc=00000000008d52db..00000000008d560b
  DW_CFA_advance_loc: 1 to 00000000008d52dc
  DW_CFA_def_cfa_offset: 16
  DW_CFA_offset: r6 (rbp) at cfa-16
  DW_CFA_advance_loc: 3 to 00000000008d52df
  DW_CFA_def_cfa_register: r6 (rbp)
  DW_CFA_advance_loc2: 811 to 00000000008d560a
  DW_CFA_def_cfa: r7 (rsp) ofs 8
  DW_CFA_nop

00005580 0000000000000020 00005584 FDE cie=00000000 pc=00000000008d560b..00000000008d58ae
  DW_CFA_advance_loc: 1 to 00000000008d560c
  DW_CFA_def_cfa_offset: 16
  DW_CFA_offset: r6 (rbp) at cfa-16
  DW_CFA_advance_loc: 3 to 00000000008d560f
  DW_CFA_def_cfa_register: r6 (rbp)
  DW_CFA_advance_loc: 5 to 00000000008d5614
  DW_CFA_offset: r3 (rbx) at cfa-24
  DW_CFA_advance_loc2: 665 to 00000000008d58ad
  DW_CFA_def_cfa: r7 (rsp) ofs 8
  DW_CFA_nop
  DW_CFA_nop

000055a4 000000000000001c 000055a8 FDE cie=00000000 pc=00000000008d58ae..00000000008d5a08
  DW_CFA_advance_loc: 1 to 00000000008d58af
  DW_CFA_def_cfa_offset: 16
  DW_CFA_offset: r6 (rbp) at cfa-16
  DW_CFA_advance_loc: 3 to 00000000008d58b2
  DW_CFA_def_cfa_register: r6 (rbp)
  DW_CFA_advance_loc2: 341 to 00000000008d5a07
  DW_CFA_def_cfa: r7 (rsp) ofs 8
  DW_CFA_nop

000055c4 000000000000001c 000055c8 FDE cie=00000000 pc=00000000008d5a08..00000000008d5a7a
  DW_CFA_advance_loc: 1 to 00000000008d5a09
  DW_CFA_def_cfa_offset: 16
  DW_CFA_offset: r6 (rbp) at cfa-16
  DW_CFA_advance_loc: 3 to 00000000008d5a0c
  DW_CFA_def_cfa_register: r6 (rbp)
  DW_CFA_advance_loc1: 109 to 00000000008d5a79
  DW_CFA_def_cfa: r7 (rsp) ofs 8
  DW_CFA_nop
  DW_CFA_nop

000055e4 000000000000001c 000055e8 FDE cie=00000000 pc=00000000008d5a7a..00000000008d5a8e
  DW_CFA_advance_loc: 1 to 00000000008d5a7b
  DW_CFA_def_cfa_offset: 16
  DW_CFA_offset: r6 (rbp) at cfa-16
  DW_CFA_advance_loc: 3 to 00000000008d5a7e
  DW_CFA_def_cfa_register: r6 (rbp)
  DW_CFA_advance_loc: 15 to 00000000008d5a8d
  DW_CFA_def_cfa: r7 (rsp) ofs 8
  DW_CFA_nop
  DW_CFA_nop
  DW_CFA_nop

00005604 000000000000001c 00005608 FDE cie=00000000 pc=00000000008d5a8e..00000000008d650f
  DW_CFA_advance_loc: 1 to 00000000008d5a8f
  DW_CFA_def_cfa_offset: 16
  DW_CFA_offset: r6 (rbp) at cfa-16
  DW_CFA_advance_loc: 3 to 00000000008d5a92
  DW_CFA_def_cfa_register: r6 (rbp)
  DW_CFA_advance_loc2: 2684 to 00000000008d650e
  DW_CFA_def_cfa: r7 (rsp) ofs 8
  DW_CFA_nop

00005624 000000000000001c 00005628 FDE cie=00000000 pc=00000000008d650f..00000000008d69c9
  DW_CFA_advance_loc: 1 to 00000000008d6510
  DW_CFA_def_cfa_offset: 16
  DW_CFA_offset: r6 (rbp) at cfa-16
  DW_CFA_advance_loc: 3 to 00000000008d6513
  DW_CFA_def_cfa_register: r6 (rbp)
  DW_CFA_advance_loc2: 1205 to 00000000008d69c8
  DW_CFA_def_cfa: r7 (rsp) ofs 8
  DW_CFA_nop

00005644 000000000000001c 00005648 FDE cie=00000000 pc=00000000008d69c9..00000000008d6a49
  DW_CFA_advance_loc: 1 to 00000000008d69ca
  DW_CFA_def_cfa_offset: 16
  DW_CFA_offset: r6 (rbp) at cfa-16
  DW_CFA_advance_loc: 3 to 00000000008d69cd
  DW_CFA_def_cfa_register: r6 (rbp)
  DW_CFA_advance_loc1: 123 to 00000000008d6a48
  DW_CFA_def_cfa: r7 (rsp) ofs 8
  DW_CFA_nop
  DW_CFA_nop

00005664 000000000000001c 00005668 FDE cie=00000000 pc=00000000008d6a49..00000000008d6b49
  DW_CFA_advance_loc: 1 to 00000000008d6a4a
  DW_CFA_def_cfa_offset: 16
  DW_CFA_offset: r6 (rbp) at cfa-16
  DW_CFA_advance_loc: 3 to 00000000008d6a4d
  DW_CFA_def_cfa_register: r6 (rbp)
  DW_CFA_advance_loc1: 251 to 00000000008d6b48
  DW_CFA_def_cfa: r7 (rsp) ofs 8
  DW_CFA_nop
  DW_CFA_nop

00005684 000000000000001c 00005688 FDE cie=00000000 pc=00000000008d6b49..00000000008d6b9e
  DW_CFA_advance_loc: 1 to 00000000008d6b4a
  DW_CFA_def_cfa_offset: 16
  DW_CFA_offset: r6 (rbp) at cfa-16
  DW_CFA_advance_loc: 3 to 00000000008d6b4d
  DW_CFA_def_cfa_register: r6 (rbp)
  DW_CFA_advance_loc1: 80 to 00000000008d6b9d
  DW_CFA_def_cfa: r7 (rsp) ofs 8
  DW_CFA_nop
  DW_CFA_nop

000056a4 000000000000001c 000056a8 FDE cie=00000000 pc=00000000008d6b9e..00000000008d6c0f
  DW_CFA_advance_loc: 1 to 00000000008d6b9f
  DW_CFA_def_cfa_offset: 16
  DW_CFA_offset: r6 (rbp) at cfa-16
  DW_CFA_advance_loc: 3 to 00000000008d6ba2
  DW_CFA_def_cfa_register: r6 (rbp)
  DW_CFA_advance_loc1: 108 to 00000000008d6c0e
  DW_CFA_def_cfa: r7 (rsp) ofs 8
  DW_CFA_nop
  DW_CFA_nop

000056c4 000000000000001c 000056c8 FDE cie=00000000 pc=00000000008d6c0f..00000000008d6ce3
  DW_CFA_advance_loc: 1 to 00000000008d6c10
  DW_CFA_def_cfa_offset: 16
  DW_CFA_offset: r6 (rbp) at cfa-16
  DW_CFA_advance_loc: 3 to 00000000008d6c13
  DW_CFA_def_cfa_register: r6 (rbp)
  DW_CFA_advance_loc1: 207 to 00000000008d6ce2
  DW_CFA_def_cfa: r7 (rsp) ofs 8
  DW_CFA_nop
  DW_CFA_nop

000056e4 000000000000001c 000056e8 FDE cie=00000000 pc=00000000008d6ce3..00000000008d6d86
  DW_CFA_advance_loc: 1 to 00000000008d6ce4
  DW_CFA_def_cfa_offset: 16
  DW_CFA_offset: r6 (rbp) at cfa-16
  DW_CFA_advance_loc: 3 to 00000000008d6ce7
  DW_CFA_def_cfa_register: r6 (rbp)
  DW_CFA_advance_loc1: 158 to 00000000008d6d85
  DW_CFA_def_cfa: r7 (rsp) ofs 8
  DW_CFA_nop
  DW_CFA_nop

00005704 000000000000001c 00005708 FDE cie=00000000 pc=00000000008d6d86..00000000008d6f15
  DW_CFA_advance_loc: 1 to 00000000008d6d87
  DW_CFA_def_cfa_offset: 16
  DW_CFA_offset: r6 (rbp) at cfa-16
  DW_CFA_advance_loc: 3 to 00000000008d6d8a
  DW_CFA_def_cfa_register: r6 (rbp)
  DW_CFA_advance_loc2: 394 to 00000000008d6f14
  DW_CFA_def_cfa: r7 (rsp) ofs 8
  DW_CFA_nop

00005724 000000000000001c 00005728 FDE cie=00000000 pc=00000000008d6f15..00000000008d6f72
  DW_CFA_advance_loc: 1 to 00000000008d6f16
  DW_CFA_def_cfa_offset: 16
  DW_CFA_offset: r6 (rbp) at cfa-16
  DW_CFA_advance_loc: 3 to 00000000008d6f19
  DW_CFA_def_cfa_register: r6 (rbp)
  DW_CFA_advance_loc1: 88 to 00000000008d6f71
  DW_CFA_def_cfa: r7 (rsp) ofs 8
  DW_CFA_nop
  DW_CFA_nop

00005744 000000000000001c 00005748 FDE cie=00000000 pc=00000000008d6f72..00000000008d71d1
  DW_CFA_advance_loc: 1 to 00000000008d6f73
  DW_CFA_def_cfa_offset: 16
  DW_CFA_offset: r6 (rbp) at cfa-16
  DW_CFA_advance_loc: 3 to 00000000008d6f76
  DW_CFA_def_cfa_register: r6 (rbp)
  DW_CFA_advance_loc2: 602 to 00000000008d71d0
  DW_CFA_def_cfa: r7 (rsp) ofs 8
  DW_CFA_nop

00005764 000000000000001c 00005768 FDE cie=00000000 pc=00000000008d71d1..00000000008d72e8
  DW_CFA_advance_loc: 1 to 00000000008d71d2
  DW_CFA_def_cfa_offset: 16
  DW_CFA_offset: r6 (rbp) at cfa-16
  DW_CFA_advance_loc: 3 to 00000000008d71d5
  DW_CFA_def_cfa_register: r6 (rbp)
  DW_CFA_advance_loc2: 274 to 00000000008d72e7
  DW_CFA_def_cfa: r7 (rsp) ofs 8
  DW_CFA_nop

00005784 000000000000001c 00005788 FDE cie=00000000 pc=00000000008d72e8..00000000008d7401
  DW_CFA_advance_loc: 1 to 00000000008d72e9
  DW_CFA_def_cfa_offset: 16
  DW_CFA_offset: r6 (rbp) at cfa-16
  DW_CFA_advance_loc: 3 to 00000000008d72ec
  DW_CFA_def_cfa_register: r6 (rbp)
  DW_CFA_advance_loc2: 276 to 00000000008d7400
  DW_CFA_def_cfa: r7 (rsp) ofs 8
  DW_CFA_nop

000057a4 000000000000001c 000057a8 FDE cie=00000000 pc=00000000008d7401..00000000008d7477
  DW_CFA_advance_loc: 1 to 00000000008d7402
  DW_CFA_def_cfa_offset: 16
  DW_CFA_offset: r6 (rbp) at cfa-16
  DW_CFA_advance_loc: 3 to 00000000008d7405
  DW_CFA_def_cfa_register: r6 (rbp)
  DW_CFA_advance_loc1: 113 to 00000000008d7476
  DW_CFA_def_cfa: r7 (rsp) ofs 8
  DW_CFA_nop
  DW_CFA_nop

000057c4 000000000000001c 000057c8 FDE cie=00000000 pc=00000000008d7477..00000000008d748f
  DW_CFA_advance_loc: 1 to 00000000008d7478
  DW_CFA_def_cfa_offset: 16
  DW_CFA_offset: r6 (rbp) at cfa-16
  DW_CFA_advance_loc: 3 to 00000000008d747b
  DW_CFA_def_cfa_register: r6 (rbp)
  DW_CFA_advance_loc: 19 to 00000000008d748e
  DW_CFA_def_cfa: r7 (rsp) ofs 8
  DW_CFA_nop
  DW_CFA_nop
  DW_CFA_nop

000057e4 000000000000001c 000057e8 FDE cie=00000000 pc=00000000008d748f..00000000008d752f
  DW_CFA_advance_loc: 1 to 00000000008d7490
  DW_CFA_def_cfa_offset: 16
  DW_CFA_offset: r6 (rbp) at cfa-16
  DW_CFA_advance_loc: 3 to 00000000008d7493
  DW_CFA_def_cfa_register: r6 (rbp)
  DW_CFA_advance_loc1: 155 to 00000000008d752e
  DW_CFA_def_cfa: r7 (rsp) ofs 8
  DW_CFA_nop
  DW_CFA_nop

00005804 000000000000001c 00005808 FDE cie=00000000 pc=00000000008d752f..00000000008d7547
  DW_CFA_advance_loc: 1 to 00000000008d7530
  DW_CFA_def_cfa_offset: 16
  DW_CFA_offset: r6 (rbp) at cfa-16
  DW_CFA_advance_loc: 3 to 00000000008d7533
  DW_CFA_def_cfa_register: r6 (rbp)
  DW_CFA_advance_loc: 19 to 00000000008d7546
  DW_CFA_def_cfa: r7 (rsp) ofs 8
  DW_CFA_nop
  DW_CFA_nop
  DW_CFA_nop

00005824 000000000000001c 00005828 FDE cie=00000000 pc=00000000008d7547..00000000008d755f
  DW_CFA_advance_loc: 1 to 00000000008d7548
  DW_CFA_def_cfa_offset: 16
  DW_CFA_offset: r6 (rbp) at cfa-16
  DW_CFA_advance_loc: 3 to 00000000008d754b
  DW_CFA_def_cfa_register: r6 (rbp)
  DW_CFA_advance_loc: 19 to 00000000008d755e
  DW_CFA_def_cfa: r7 (rsp) ofs 8
  DW_CFA_nop
  DW_CFA_nop
  DW_CFA_nop

00005844 000000000000001c 00005848 FDE cie=00000000 pc=00000000008d755f..00000000008d75f5
  DW_CFA_advance_loc: 1 to 00000000008d7560
  DW_CFA_def_cfa_offset: 16
  DW_CFA_offset: r6 (rbp) at cfa-16
  DW_CFA_advance_loc: 3 to 00000000008d7563
  DW_CFA_def_cfa_register: r6 (rbp)
  DW_CFA_advance_loc1: 145 to 00000000008d75f4
  DW_CFA_def_cfa: r7 (rsp) ofs 8
  DW_CFA_nop
  DW_CFA_nop

00005864 000000000000001c 00005868 FDE cie=00000000 pc=00000000008d75f5..00000000008d760d
  DW_CFA_advance_loc: 1 to 00000000008d75f6
  DW_CFA_def_cfa_offset: 16
  DW_CFA_offset: r6 (rbp) at cfa-16
  DW_CFA_advance_loc: 3 to 00000000008d75f9
  DW_CFA_def_cfa_register: r6 (rbp)
  DW_CFA_advance_loc: 19 to 00000000008d760c
  DW_CFA_def_cfa: r7 (rsp) ofs 8
  DW_CFA_nop
  DW_CFA_nop
  DW_CFA_nop

00005884 000000000000001c 00005888 FDE cie=00000000 pc=00000000008d760d..00000000008d7c77
  DW_CFA_advance_loc: 1 to 00000000008d760e
  DW_CFA_def_cfa_offset: 16
  DW_CFA_offset: r6 (rbp) at cfa-16
  DW_CFA_advance_loc: 3 to 00000000008d7611
  DW_CFA_def_cfa_register: r6 (rbp)
  DW_CFA_advance_loc2: 1637 to 00000000008d7c76
  DW_CFA_def_cfa: r7 (rsp) ofs 8
  DW_CFA_nop

000058a4 000000000000001c 000058a8 FDE cie=00000000 pc=00000000008d7c77..00000000008d7c7e
  DW_CFA_advance_loc: 1 to 00000000008d7c78
  DW_CFA_def_cfa_offset: 16
  DW_CFA_offset: r6 (rbp) at cfa-16
  DW_CFA_advance_loc: 3 to 00000000008d7c7b
  DW_CFA_def_cfa_register: r6 (rbp)
  DW_CFA_advance_loc: 2 to 00000000008d7c7d
  DW_CFA_def_cfa: r7 (rsp) ofs 8
  DW_CFA_nop
  DW_CFA_nop
  DW_CFA_nop

000058c4 000000000000001c 000058c8 FDE cie=00000000 pc=00000000008d7c7e..00000000008d7c85
  DW_CFA_advance_loc: 1 to 00000000008d7c7f
  DW_CFA_def_cfa_offset: 16
  DW_CFA_offset: r6 (rbp) at cfa-16
  DW_CFA_advance_loc: 3 to 00000000008d7c82
  DW_CFA_def_cfa_register: r6 (rbp)
  DW_CFA_advance_loc: 2 to 00000000008d7c84
  DW_CFA_def_cfa: r7 (rsp) ofs 8
  DW_CFA_nop
  DW_CFA_nop
  DW_CFA_nop

000058e4 000000000000001c 000058e8 FDE cie=00000000 pc=00000000008d7c85..00000000008d7cb5
  DW_CFA_advance_loc: 1 to 00000000008d7c86
  DW_CFA_def_cfa_offset: 16
  DW_CFA_offset: r6 (rbp) at cfa-16
  DW_CFA_advance_loc: 3 to 00000000008d7c89
  DW_CFA_def_cfa_register: r6 (rbp)
  DW_CFA_advance_loc: 43 to 00000000008d7cb4
  DW_CFA_def_cfa: r7 (rsp) ofs 8
  DW_CFA_nop
  DW_CFA_nop
  DW_CFA_nop

00005904 000000000000001c 00005908 FDE cie=00000000 pc=00000000008d7cb5..00000000008d7d22
  DW_CFA_advance_loc: 1 to 00000000008d7cb6
  DW_CFA_def_cfa_offset: 16
  DW_CFA_offset: r6 (rbp) at cfa-16
  DW_CFA_advance_loc: 3 to 00000000008d7cb9
  DW_CFA_def_cfa_register: r6 (rbp)
  DW_CFA_advance_loc1: 104 to 00000000008d7d21
  DW_CFA_def_cfa: r7 (rsp) ofs 8
  DW_CFA_nop
  DW_CFA_nop

00005924 000000000000001c 00005928 FDE cie=00000000 pc=00000000008d7d22..00000000008d7d4e
  DW_CFA_advance_loc: 1 to 00000000008d7d23
  DW_CFA_def_cfa_offset: 16
  DW_CFA_offset: r6 (rbp) at cfa-16
  DW_CFA_advance_loc: 3 to 00000000008d7d26
  DW_CFA_def_cfa_register: r6 (rbp)
  DW_CFA_advance_loc: 39 to 00000000008d7d4d
  DW_CFA_def_cfa: r7 (rsp) ofs 8
  DW_CFA_nop
  DW_CFA_nop
  DW_CFA_nop

00005944 000000000000001c 00005948 FDE cie=00000000 pc=00000000008d7d4e..00000000008d7e27
  DW_CFA_advance_loc: 1 to 00000000008d7d4f
  DW_CFA_def_cfa_offset: 16
  DW_CFA_offset: r6 (rbp) at cfa-16
  DW_CFA_advance_loc: 3 to 00000000008d7d52
  DW_CFA_def_cfa_register: r6 (rbp)
  DW_CFA_advance_loc1: 212 to 00000000008d7e26
  DW_CFA_def_cfa: r7 (rsp) ofs 8
  DW_CFA_nop
  DW_CFA_nop

00005964 000000000000001c 00005968 FDE cie=00000000 pc=00000000008d7e27..00000000008d7e92
  DW_CFA_advance_loc: 1 to 00000000008d7e28
  DW_CFA_def_cfa_offset: 16
  DW_CFA_offset: r6 (rbp) at cfa-16
  DW_CFA_advance_loc: 3 to 00000000008d7e2b
  DW_CFA_def_cfa_register: r6 (rbp)
  DW_CFA_advance_loc1: 102 to 00000000008d7e91
  DW_CFA_def_cfa: r7 (rsp) ofs 8
  DW_CFA_nop
  DW_CFA_nop

00005984 000000000000001c 00005988 FDE cie=00000000 pc=00000000008d7e92..00000000008d80fa
  DW_CFA_advance_loc: 1 to 00000000008d7e93
  DW_CFA_def_cfa_offset: 16
  DW_CFA_offset: r6 (rbp) at cfa-16
  DW_CFA_advance_loc: 3 to 00000000008d7e96
  DW_CFA_def_cfa_register: r6 (rbp)
  DW_CFA_advance_loc2: 611 to 00000000008d80f9
  DW_CFA_def_cfa: r7 (rsp) ofs 8
  DW_CFA_nop

000059a4 000000000000001c 000059a8 FDE cie=00000000 pc=00000000008d80fa..00000000008d83e5
  DW_CFA_advance_loc: 1 to 00000000008d80fb
  DW_CFA_def_cfa_offset: 16
  DW_CFA_offset: r6 (rbp) at cfa-16
  DW_CFA_advance_loc: 3 to 00000000008d80fe
  DW_CFA_def_cfa_register: r6 (rbp)
  DW_CFA_advance_loc2: 742 to 00000000008d83e4
  DW_CFA_def_cfa: r7 (rsp) ofs 8
  DW_CFA_nop

000059c4 000000000000001c 000059c8 FDE cie=00000000 pc=00000000008d83e5..00000000008d8736
  DW_CFA_advance_loc: 1 to 00000000008d83e6
  DW_CFA_def_cfa_offset: 16
  DW_CFA_offset: r6 (rbp) at cfa-16
  DW_CFA_advance_loc: 3 to 00000000008d83e9
  DW_CFA_def_cfa_register: r6 (rbp)
  DW_CFA_advance_loc2: 844 to 00000000008d8735
  DW_CFA_def_cfa: r7 (rsp) ofs 8
  DW_CFA_nop

000059e4 000000000000001c 000059e8 FDE cie=00000000 pc=00000000008d8736..00000000008d88de
  DW_CFA_advance_loc: 1 to 00000000008d8737
  DW_CFA_def_cfa_offset: 16
  DW_CFA_offset: r6 (rbp) at cfa-16
  DW_CFA_advance_loc: 3 to 00000000008d873a
  DW_CFA_def_cfa_register: r6 (rbp)
  DW_CFA_advance_loc2: 419 to 00000000008d88dd
  DW_CFA_def_cfa: r7 (rsp) ofs 8
  DW_CFA_nop

00005a04 000000000000001c 00005a08 FDE cie=00000000 pc=00000000008d88de..00000000008d8a33
  DW_CFA_advance_loc: 1 to 00000000008d88df
  DW_CFA_def_cfa_offset: 16
  DW_CFA_offset: r6 (rbp) at cfa-16
  DW_CFA_advance_loc: 3 to 00000000008d88e2
  DW_CFA_def_cfa_register: r6 (rbp)
  DW_CFA_advance_loc2: 336 to 00000000008d8a32
  DW_CFA_def_cfa: r7 (rsp) ofs 8
  DW_CFA_nop

00005a24 000000000000001c 00005a28 FDE cie=00000000 pc=00000000008d8a33..00000000008d8ff6
  DW_CFA_advance_loc: 1 to 00000000008d8a34
  DW_CFA_def_cfa_offset: 16
  DW_CFA_offset: r6 (rbp) at cfa-16
  DW_CFA_advance_loc: 3 to 00000000008d8a37
  DW_CFA_def_cfa_register: r6 (rbp)
  DW_CFA_advance_loc2: 1470 to 00000000008d8ff5
  DW_CFA_def_cfa: r7 (rsp) ofs 8
  DW_CFA_nop

00005a44 0000000000000020 00005a48 FDE cie=00000000 pc=00000000008d8ff6..00000000008d9594
  DW_CFA_advance_loc: 1 to 00000000008d8ff7
  DW_CFA_def_cfa_offset: 16
  DW_CFA_offset: r6 (rbp) at cfa-16
  DW_CFA_advance_loc: 3 to 00000000008d8ffa
  DW_CFA_def_cfa_register: r6 (rbp)
  DW_CFA_advance_loc: 5 to 00000000008d8fff
  DW_CFA_offset: r3 (rbx) at cfa-24
  DW_CFA_advance_loc2: 1428 to 00000000008d9593
  DW_CFA_def_cfa: r7 (rsp) ofs 8
  DW_CFA_nop
  DW_CFA_nop

00005a68 0000000000000020 00005a6c FDE cie=00000000 pc=00000000008d9594..00000000008d97b4
  DW_CFA_advance_loc: 1 to 00000000008d9595
  DW_CFA_def_cfa_offset: 16
  DW_CFA_offset: r6 (rbp) at cfa-16
  DW_CFA_advance_loc: 3 to 00000000008d9598
  DW_CFA_def_cfa_register: r6 (rbp)
  DW_CFA_advance_loc: 5 to 00000000008d959d
  DW_CFA_offset: r3 (rbx) at cfa-24
  DW_CFA_advance_loc2: 534 to 00000000008d97b3
  DW_CFA_def_cfa: r7 (rsp) ofs 8
  DW_CFA_nop
  DW_CFA_nop

00005a8c 000000000000001c 00005a90 FDE cie=00000000 pc=00000000008d97b4..00000000008d99e7
  DW_CFA_advance_loc: 1 to 00000000008d97b5
  DW_CFA_def_cfa_offset: 16
  DW_CFA_offset: r6 (rbp) at cfa-16
  DW_CFA_advance_loc: 3 to 00000000008d97b8
  DW_CFA_def_cfa_register: r6 (rbp)
  DW_CFA_advance_loc2: 558 to 00000000008d99e6
  DW_CFA_def_cfa: r7 (rsp) ofs 8
  DW_CFA_nop

00005aac 0000000000000020 00005ab0 FDE cie=00000000 pc=00000000008d99e7..00000000008deec8
  DW_CFA_advance_loc: 1 to 00000000008d99e8
  DW_CFA_def_cfa_offset: 16
  DW_CFA_offset: r6 (rbp) at cfa-16
  DW_CFA_advance_loc: 3 to 00000000008d99eb
  DW_CFA_def_cfa_register: r6 (rbp)
  DW_CFA_advance_loc: 7 to 00000000008d99f2
  DW_CFA_offset: r12 (r12) at cfa-24
  DW_CFA_offset: r3 (rbx) at cfa-32
  DW_CFA_advance_loc2: 21717 to 00000000008deec7
  DW_CFA_def_cfa: r7 (rsp) ofs 8

00005ad0 000000000000001c 00005ad4 FDE cie=00000000 pc=00000000008deec8..00000000008def7d
  DW_CFA_advance_loc: 1 to 00000000008deec9
  DW_CFA_def_cfa_offset: 16
  DW_CFA_offset: r6 (rbp) at cfa-16
  DW_CFA_advance_loc: 3 to 00000000008deecc
  DW_CFA_def_cfa_register: r6 (rbp)
  DW_CFA_advance_loc1: 176 to 00000000008def7c
  DW_CFA_def_cfa: r7 (rsp) ofs 8
  DW_CFA_nop
  DW_CFA_nop

00005af0 000000000000001c 00005af4 FDE cie=00000000 pc=00000000008def7d..00000000008df106
  DW_CFA_advance_loc: 1 to 00000000008def7e
  DW_CFA_def_cfa_offset: 16
  DW_CFA_offset: r6 (rbp) at cfa-16
  DW_CFA_advance_loc: 3 to 00000000008def81
  DW_CFA_def_cfa_register: r6 (rbp)
  DW_CFA_advance_loc2: 388 to 00000000008df105
  DW_CFA_def_cfa: r7 (rsp) ofs 8
  DW_CFA_nop

00005b10 000000000000001c 00005b14 FDE cie=00000000 pc=00000000008df106..00000000008df408
  DW_CFA_advance_loc: 1 to 00000000008df107
  DW_CFA_def_cfa_offset: 16
  DW_CFA_offset: r6 (rbp) at cfa-16
  DW_CFA_advance_loc: 3 to 00000000008df10a
  DW_CFA_def_cfa_register: r6 (rbp)
  DW_CFA_advance_loc2: 765 to 00000000008df407
  DW_CFA_def_cfa: r7 (rsp) ofs 8
  DW_CFA_nop

00005b30 0000000000000020 00005b34 FDE cie=00000000 pc=00000000008df408..00000000008dff0d
  DW_CFA_advance_loc: 1 to 00000000008df409
  DW_CFA_def_cfa_offset: 16
  DW_CFA_offset: r6 (rbp) at cfa-16
  DW_CFA_advance_loc: 3 to 00000000008df40c
  DW_CFA_def_cfa_register: r6 (rbp)
  DW_CFA_advance_loc: 1 to 00000000008df40d
  DW_CFA_offset: r3 (rbx) at cfa-24
  DW_CFA_advance_loc2: 2815 to 00000000008dff0c
  DW_CFA_def_cfa: r7 (rsp) ofs 8
  DW_CFA_nop
  DW_CFA_nop

00005b54 0000000000000020 00005b58 FDE cie=00000000 pc=00000000008dff0d..00000000008e0a4f
  DW_CFA_advance_loc: 1 to 00000000008dff0e
  DW_CFA_def_cfa_offset: 16
  DW_CFA_offset: r6 (rbp) at cfa-16
  DW_CFA_advance_loc: 3 to 00000000008dff11
  DW_CFA_def_cfa_register: r6 (rbp)
  DW_CFA_advance_loc: 1 to 00000000008dff12
  DW_CFA_offset: r3 (rbx) at cfa-24
  DW_CFA_advance_loc2: 2876 to 00000000008e0a4e
  DW_CFA_def_cfa: r7 (rsp) ofs 8
  DW_CFA_nop
  DW_CFA_nop

00005b78 0000000000000020 00005b7c FDE cie=00000000 pc=00000000008e0a4f..00000000008e1591
  DW_CFA_advance_loc: 1 to 00000000008e0a50
  DW_CFA_def_cfa_offset: 16
  DW_CFA_offset: r6 (rbp) at cfa-16
  DW_CFA_advance_loc: 3 to 00000000008e0a53
  DW_CFA_def_cfa_register: r6 (rbp)
  DW_CFA_advance_loc: 1 to 00000000008e0a54
  DW_CFA_offset: r3 (rbx) at cfa-24
  DW_CFA_advance_loc2: 2876 to 00000000008e1590
  DW_CFA_def_cfa: r7 (rsp) ofs 8
  DW_CFA_nop
  DW_CFA_nop

00005b9c 0000000000000020 00005ba0 FDE cie=00000000 pc=00000000008e1591..00000000008e2796
  DW_CFA_advance_loc: 1 to 00000000008e1592
  DW_CFA_def_cfa_offset: 16
  DW_CFA_offset: r6 (rbp) at cfa-16
  DW_CFA_advance_loc: 3 to 00000000008e1595
  DW_CFA_def_cfa_register: r6 (rbp)
  DW_CFA_advance_loc: 5 to 00000000008e159a
  DW_CFA_offset: r3 (rbx) at cfa-24
  DW_CFA_advance_loc2: 4603 to 00000000008e2795
  DW_CFA_def_cfa: r7 (rsp) ofs 8
  DW_CFA_nop
  DW_CFA_nop

00005bc0 000000000000001c 00005bc4 FDE cie=00000000 pc=00000000008e2796..00000000008e28bc
  DW_CFA_advance_loc: 1 to 00000000008e2797
  DW_CFA_def_cfa_offset: 16
  DW_CFA_offset: r6 (rbp) at cfa-16
  DW_CFA_advance_loc: 3 to 00000000008e279a
  DW_CFA_def_cfa_register: r6 (rbp)
  DW_CFA_advance_loc2: 289 to 00000000008e28bb
  DW_CFA_def_cfa: r7 (rsp) ofs 8
  DW_CFA_nop

00005be0 000000000000001c 00005be4 FDE cie=00000000 pc=00000000008e28bc..00000000008e29c7
  DW_CFA_advance_loc: 1 to 00000000008e28bd
  DW_CFA_def_cfa_offset: 16
  DW_CFA_offset: r6 (rbp) at cfa-16
  DW_CFA_advance_loc: 3 to 00000000008e28c0
  DW_CFA_def_cfa_register: r6 (rbp)
  DW_CFA_advance_loc2: 262 to 00000000008e29c6
  DW_CFA_def_cfa: r7 (rsp) ofs 8
  DW_CFA_nop

00005c00 000000000000001c 00005c04 FDE cie=00000000 pc=00000000008e29c7..00000000008e2bc1
  DW_CFA_advance_loc: 1 to 00000000008e29c8
  DW_CFA_def_cfa_offset: 16
  DW_CFA_offset: r6 (rbp) at cfa-16
  DW_CFA_advance_loc: 3 to 00000000008e29cb
  DW_CFA_def_cfa_register: r6 (rbp)
  DW_CFA_advance_loc2: 501 to 00000000008e2bc0
  DW_CFA_def_cfa: r7 (rsp) ofs 8
  DW_CFA_nop

00005c20 000000000000001c 00005c24 FDE cie=00000000 pc=00000000008e2bc1..00000000008e2d72
  DW_CFA_advance_loc: 1 to 00000000008e2bc2
  DW_CFA_def_cfa_offset: 16
  DW_CFA_offset: r6 (rbp) at cfa-16
  DW_CFA_advance_loc: 3 to 00000000008e2bc5
  DW_CFA_def_cfa_register: r6 (rbp)
  DW_CFA_advance_loc2: 428 to 00000000008e2d71
  DW_CFA_def_cfa: r7 (rsp) ofs 8
  DW_CFA_nop

00005c40 000000000000001c 00005c44 FDE cie=00000000 pc=00000000008e2d72..00000000008e2db5
  DW_CFA_advance_loc: 1 to 00000000008e2d73
  DW_CFA_def_cfa_offset: 16
  DW_CFA_offset: r6 (rbp) at cfa-16
  DW_CFA_advance_loc: 3 to 00000000008e2d76
  DW_CFA_def_cfa_register: r6 (rbp)
  DW_CFA_advance_loc: 62 to 00000000008e2db4
  DW_CFA_def_cfa: r7 (rsp) ofs 8
  DW_CFA_nop
  DW_CFA_nop
  DW_CFA_nop

00005c60 000000000000001c 00005c64 FDE cie=00000000 pc=00000000008e2db5..00000000008e2df8
  DW_CFA_advance_loc: 1 to 00000000008e2db6
  DW_CFA_def_cfa_offset: 16
  DW_CFA_offset: r6 (rbp) at cfa-16
  DW_CFA_advance_loc: 3 to 00000000008e2db9
  DW_CFA_def_cfa_register: r6 (rbp)
  DW_CFA_advance_loc: 62 to 00000000008e2df7
  DW_CFA_def_cfa: r7 (rsp) ofs 8
  DW_CFA_nop
  DW_CFA_nop
  DW_CFA_nop

00005c80 000000000000001c 00005c84 FDE cie=00000000 pc=00000000008e2df8..00000000008e2e55
  DW_CFA_advance_loc: 1 to 00000000008e2df9
  DW_CFA_def_cfa_offset: 16
  DW_CFA_offset: r6 (rbp) at cfa-16
  DW_CFA_advance_loc: 3 to 00000000008e2dfc
  DW_CFA_def_cfa_register: r6 (rbp)
  DW_CFA_advance_loc1: 88 to 00000000008e2e54
  DW_CFA_def_cfa: r7 (rsp) ofs 8
  DW_CFA_nop
  DW_CFA_nop

00005ca0 000000000000001c 00005ca4 FDE cie=00000000 pc=00000000008e2e55..00000000008e31bf
  DW_CFA_advance_loc: 1 to 00000000008e2e56
  DW_CFA_def_cfa_offset: 16
  DW_CFA_offset: r6 (rbp) at cfa-16
  DW_CFA_advance_loc: 3 to 00000000008e2e59
  DW_CFA_def_cfa_register: r6 (rbp)
  DW_CFA_advance_loc2: 869 to 00000000008e31be
  DW_CFA_def_cfa: r7 (rsp) ofs 8
  DW_CFA_nop

00005cc0 000000000000001c 00005cc4 FDE cie=00000000 pc=00000000008e31bf..00000000008e34a3
  DW_CFA_advance_loc: 1 to 00000000008e31c0
  DW_CFA_def_cfa_offset: 16
  DW_CFA_offset: r6 (rbp) at cfa-16
  DW_CFA_advance_loc: 3 to 00000000008e31c3
  DW_CFA_def_cfa_register: r6 (rbp)
  DW_CFA_advance_loc2: 735 to 00000000008e34a2
  DW_CFA_def_cfa: r7 (rsp) ofs 8
  DW_CFA_nop

00005ce0 000000000000001c 00005ce4 FDE cie=00000000 pc=00000000008e34a3..00000000008e3a3d
  DW_CFA_advance_loc: 1 to 00000000008e34a4
  DW_CFA_def_cfa_offset: 16
  DW_CFA_offset: r6 (rbp) at cfa-16
  DW_CFA_advance_loc: 3 to 00000000008e34a7
  DW_CFA_def_cfa_register: r6 (rbp)
  DW_CFA_advance_loc2: 1429 to 00000000008e3a3c
  DW_CFA_def_cfa: r7 (rsp) ofs 8
  DW_CFA_nop

00005d00 000000000000001c 00005d04 FDE cie=00000000 pc=00000000008e3a3d..00000000008e3a55
  DW_CFA_advance_loc: 1 to 00000000008e3a3e
  DW_CFA_def_cfa_offset: 16
  DW_CFA_offset: r6 (rbp) at cfa-16
  DW_CFA_advance_loc: 3 to 00000000008e3a41
  DW_CFA_def_cfa_register: r6 (rbp)
  DW_CFA_advance_loc: 19 to 00000000008e3a54
  DW_CFA_def_cfa: r7 (rsp) ofs 8
  DW_CFA_nop
  DW_CFA_nop
  DW_CFA_nop

00005d20 000000000000001c 00005d24 FDE cie=00000000 pc=00000000008e3a55..00000000008e3a61
  DW_CFA_advance_loc: 1 to 00000000008e3a56
  DW_CFA_def_cfa_offset: 16
  DW_CFA_offset: r6 (rbp) at cfa-16
  DW_CFA_advance_loc: 3 to 00000000008e3a59
  DW_CFA_def_cfa_register: r6 (rbp)
  DW_CFA_advance_loc: 7 to 00000000008e3a60
  DW_CFA_def_cfa: r7 (rsp) ofs 8
  DW_CFA_nop
  DW_CFA_nop
  DW_CFA_nop

00005d40 0000000000000018 00005d44 FDE cie=00000000 pc=00000000008e3a61..00000000008e3aa1
  DW_CFA_advance_loc: 1 to 00000000008e3a62
  DW_CFA_def_cfa_offset: 16
  DW_CFA_offset: r6 (rbp) at cfa-16
  DW_CFA_advance_loc: 3 to 00000000008e3a65
  DW_CFA_def_cfa_register: r6 (rbp)
  DW_CFA_nop
  DW_CFA_nop
  DW_CFA_nop

00005d5c 000000000000001c 00005d60 FDE cie=00000000 pc=00000000008e3aa1..00000000008e3b72
  DW_CFA_advance_loc: 1 to 00000000008e3aa2
  DW_CFA_def_cfa_offset: 16
  DW_CFA_offset: r6 (rbp) at cfa-16
  DW_CFA_advance_loc: 3 to 00000000008e3aa5
  DW_CFA_def_cfa_register: r6 (rbp)
  DW_CFA_advance_loc1: 204 to 00000000008e3b71
  DW_CFA_def_cfa: r7 (rsp) ofs 8
  DW_CFA_nop
  DW_CFA_nop

00005d7c 000000000000001c 00005d80 FDE cie=00000000 pc=00000000008e3b72..00000000008e3bb3
  DW_CFA_advance_loc: 1 to 00000000008e3b73
  DW_CFA_def_cfa_offset: 16
  DW_CFA_offset: r6 (rbp) at cfa-16
  DW_CFA_advance_loc: 3 to 00000000008e3b76
  DW_CFA_def_cfa_register: r6 (rbp)
  DW_CFA_advance_loc: 60 to 00000000008e3bb2
  DW_CFA_def_cfa: r7 (rsp) ofs 8
  DW_CFA_nop
  DW_CFA_nop
  DW_CFA_nop

00005d9c 000000000000001c 00005da0 FDE cie=00000000 pc=00000000008e3bb3..00000000008e3e06
  DW_CFA_advance_loc: 1 to 00000000008e3bb4
  DW_CFA_def_cfa_offset: 16
  DW_CFA_offset: r6 (rbp) at cfa-16
  DW_CFA_advance_loc: 3 to 00000000008e3bb7
  DW_CFA_def_cfa_register: r6 (rbp)
  DW_CFA_advance_loc2: 590 to 00000000008e3e05
  DW_CFA_def_cfa: r7 (rsp) ofs 8
  DW_CFA_nop

00005dbc 000000000000001c 00005dc0 FDE cie=00000000 pc=00000000008e3e06..00000000008e3f11
  DW_CFA_advance_loc: 1 to 00000000008e3e07
  DW_CFA_def_cfa_offset: 16
  DW_CFA_offset: r6 (rbp) at cfa-16
  DW_CFA_advance_loc: 3 to 00000000008e3e0a
  DW_CFA_def_cfa_register: r6 (rbp)
  DW_CFA_advance_loc2: 262 to 00000000008e3f10
  DW_CFA_def_cfa: r7 (rsp) ofs 8
  DW_CFA_nop

00005ddc 000000000000001c 00005de0 FDE cie=00000000 pc=00000000008e3f11..00000000008e3f7e
  DW_CFA_advance_loc: 1 to 00000000008e3f12
  DW_CFA_def_cfa_offset: 16
  DW_CFA_offset: r6 (rbp) at cfa-16
  DW_CFA_advance_loc: 3 to 00000000008e3f15
  DW_CFA_def_cfa_register: r6 (rbp)
  DW_CFA_advance_loc1: 104 to 00000000008e3f7d
  DW_CFA_def_cfa: r7 (rsp) ofs 8
  DW_CFA_nop
  DW_CFA_nop

00005dfc 000000000000001c 00005e00 FDE cie=00000000 pc=00000000008e3f7e..00000000008e3fc4
  DW_CFA_advance_loc: 1 to 00000000008e3f7f
  DW_CFA_def_cfa_offset: 16
  DW_CFA_offset: r6 (rbp) at cfa-16
  DW_CFA_advance_loc: 3 to 00000000008e3f82
  DW_CFA_def_cfa_register: r6 (rbp)
  DW_CFA_advance_loc1: 65 to 00000000008e3fc3
  DW_CFA_def_cfa: r7 (rsp) ofs 8
  DW_CFA_nop
  DW_CFA_nop

00005e1c 000000000000001c 00005e20 FDE cie=00000000 pc=00000000008e3fc4..00000000008e4014
  DW_CFA_advance_loc: 1 to 00000000008e3fc5
  DW_CFA_def_cfa_offset: 16
  DW_CFA_offset: r6 (rbp) at cfa-16
  DW_CFA_advance_loc: 3 to 00000000008e3fc8
  DW_CFA_def_cfa_register: r6 (rbp)
  DW_CFA_advance_loc1: 75 to 00000000008e4013
  DW_CFA_def_cfa: r7 (rsp) ofs 8
  DW_CFA_nop
  DW_CFA_nop

00005e3c 000000000000001c 00005e40 FDE cie=00000000 pc=00000000008e4014..00000000008e4077
  DW_CFA_advance_loc: 1 to 00000000008e4015
  DW_CFA_def_cfa_offset: 16
  DW_CFA_offset: r6 (rbp) at cfa-16
  DW_CFA_advance_loc: 3 to 00000000008e4018
  DW_CFA_def_cfa_register: r6 (rbp)
  DW_CFA_advance_loc1: 94 to 00000000008e4076
  DW_CFA_def_cfa: r7 (rsp) ofs 8
  DW_CFA_nop
  DW_CFA_nop

00005e5c 000000000000001c 00005e60 FDE cie=00000000 pc=00000000008e4077..00000000008e4119
  DW_CFA_advance_loc: 1 to 00000000008e4078
  DW_CFA_def_cfa_offset: 16
  DW_CFA_offset: r6 (rbp) at cfa-16
  DW_CFA_advance_loc: 3 to 00000000008e407b
  DW_CFA_def_cfa_register: r6 (rbp)
  DW_CFA_advance_loc1: 157 to 00000000008e4118
  DW_CFA_def_cfa: r7 (rsp) ofs 8
  DW_CFA_nop
  DW_CFA_nop

00005e7c 000000000000001c 00005e80 FDE cie=00000000 pc=00000000008e4119..00000000008e41ac
  DW_CFA_advance_loc: 1 to 00000000008e411a
  DW_CFA_def_cfa_offset: 16
  DW_CFA_offset: r6 (rbp) at cfa-16
  DW_CFA_advance_loc: 3 to 00000000008e411d
  DW_CFA_def_cfa_register: r6 (rbp)
  DW_CFA_advance_loc1: 142 to 00000000008e41ab
  DW_CFA_def_cfa: r7 (rsp) ofs 8
  DW_CFA_nop
  DW_CFA_nop

00005e9c 000000000000001c 00005ea0 FDE cie=00000000 pc=00000000008e41ac..00000000008e439d
  DW_CFA_advance_loc: 1 to 00000000008e41ad
  DW_CFA_def_cfa_offset: 16
  DW_CFA_offset: r6 (rbp) at cfa-16
  DW_CFA_advance_loc: 3 to 00000000008e41b0
  DW_CFA_def_cfa_register: r6 (rbp)
  DW_CFA_advance_loc2: 492 to 00000000008e439c
  DW_CFA_def_cfa: r7 (rsp) ofs 8
  DW_CFA_nop

00005ebc 000000000000001c 00005ec0 FDE cie=00000000 pc=00000000008e439d..00000000008e4490
  DW_CFA_advance_loc: 1 to 00000000008e439e
  DW_CFA_def_cfa_offset: 16
  DW_CFA_offset: r6 (rbp) at cfa-16
  DW_CFA_advance_loc: 3 to 00000000008e43a1
  DW_CFA_def_cfa_register: r6 (rbp)
  DW_CFA_advance_loc1: 238 to 00000000008e448f
  DW_CFA_def_cfa: r7 (rsp) ofs 8
  DW_CFA_nop
  DW_CFA_nop

00005edc 000000000000001c 00005ee0 FDE cie=00000000 pc=00000000008e4490..00000000008e4583
  DW_CFA_advance_loc: 1 to 00000000008e4491
  DW_CFA_def_cfa_offset: 16
  DW_CFA_offset: r6 (rbp) at cfa-16
  DW_CFA_advance_loc: 3 to 00000000008e4494
  DW_CFA_def_cfa_register: r6 (rbp)
  DW_CFA_advance_loc1: 238 to 00000000008e4582
  DW_CFA_def_cfa: r7 (rsp) ofs 8
  DW_CFA_nop
  DW_CFA_nop

00005efc 000000000000001c 00005f00 FDE cie=00000000 pc=00000000008e4583..00000000008e45ea
  DW_CFA_advance_loc: 1 to 00000000008e4584
  DW_CFA_def_cfa_offset: 16
  DW_CFA_offset: r6 (rbp) at cfa-16
  DW_CFA_advance_loc: 3 to 00000000008e4587
  DW_CFA_def_cfa_register: r6 (rbp)
  DW_CFA_advance_loc1: 98 to 00000000008e45e9
  DW_CFA_def_cfa: r7 (rsp) ofs 8
  DW_CFA_nop
  DW_CFA_nop

00005f1c 000000000000001c 00005f20 FDE cie=00000000 pc=00000000008e45ea..00000000008e4842
  DW_CFA_advance_loc: 1 to 00000000008e45eb
  DW_CFA_def_cfa_offset: 16
  DW_CFA_offset: r6 (rbp) at cfa-16
  DW_CFA_advance_loc: 3 to 00000000008e45ee
  DW_CFA_def_cfa_register: r6 (rbp)
  DW_CFA_advance_loc2: 595 to 00000000008e4841
  DW_CFA_def_cfa: r7 (rsp) ofs 8
  DW_CFA_nop

00005f3c 000000000000001c 00005f40 FDE cie=00000000 pc=00000000008e4842..00000000008e499c
  DW_CFA_advance_loc: 1 to 00000000008e4843
  DW_CFA_def_cfa_offset: 16
  DW_CFA_offset: r6 (rbp) at cfa-16
  DW_CFA_advance_loc: 3 to 00000000008e4846
  DW_CFA_def_cfa_register: r6 (rbp)
  DW_CFA_advance_loc2: 341 to 00000000008e499b
  DW_CFA_def_cfa: r7 (rsp) ofs 8
  DW_CFA_nop

00005f5c 000000000000001c 00005f60 FDE cie=00000000 pc=00000000008e499c..00000000008e4b77
  DW_CFA_advance_loc: 1 to 00000000008e499d
  DW_CFA_def_cfa_offset: 16
  DW_CFA_offset: r6 (rbp) at cfa-16
  DW_CFA_advance_loc: 3 to 00000000008e49a0
  DW_CFA_def_cfa_register: r6 (rbp)
  DW_CFA_advance_loc2: 470 to 00000000008e4b76
  DW_CFA_def_cfa: r7 (rsp) ofs 8
  DW_CFA_nop

00005f7c 000000000000001c 00005f80 FDE cie=00000000 pc=00000000008e4b77..00000000008e4c25
  DW_CFA_advance_loc: 1 to 00000000008e4b78
  DW_CFA_def_cfa_offset: 16
  DW_CFA_offset: r6 (rbp) at cfa-16
  DW_CFA_advance_loc: 3 to 00000000008e4b7b
  DW_CFA_def_cfa_register: r6 (rbp)
  DW_CFA_advance_loc1: 169 to 00000000008e4c24
  DW_CFA_def_cfa: r7 (rsp) ofs 8
  DW_CFA_nop
  DW_CFA_nop

00005f9c 000000000000001c 00005fa0 FDE cie=00000000 pc=00000000008e4c25..00000000008e4cb7
  DW_CFA_advance_loc: 1 to 00000000008e4c26
  DW_CFA_def_cfa_offset: 16
  DW_CFA_offset: r6 (rbp) at cfa-16
  DW_CFA_advance_loc: 3 to 00000000008e4c29
  DW_CFA_def_cfa_register: r6 (rbp)
  DW_CFA_advance_loc1: 141 to 00000000008e4cb6
  DW_CFA_def_cfa: r7 (rsp) ofs 8
  DW_CFA_nop
  DW_CFA_nop

00005fbc 000000000000001c 00005fc0 FDE cie=00000000 pc=00000000008e4cb7..00000000008e4e09
  DW_CFA_advance_loc: 1 to 00000000008e4cb8
  DW_CFA_def_cfa_offset: 16
  DW_CFA_offset: r6 (rbp) at cfa-16
  DW_CFA_advance_loc: 3 to 00000000008e4cbb
  DW_CFA_def_cfa_register: r6 (rbp)
  DW_CFA_advance_loc2: 333 to 00000000008e4e08
  DW_CFA_def_cfa: r7 (rsp) ofs 8
  DW_CFA_nop

00005fdc 000000000000001c 00005fe0 FDE cie=00000000 pc=00000000008e4e09..00000000008e4f51
  DW_CFA_advance_loc: 1 to 00000000008e4e0a
  DW_CFA_def_cfa_offset: 16
  DW_CFA_offset: r6 (rbp) at cfa-16
  DW_CFA_advance_loc: 3 to 00000000008e4e0d
  DW_CFA_def_cfa_register: r6 (rbp)
  DW_CFA_advance_loc2: 323 to 00000000008e4f50
  DW_CFA_def_cfa: r7 (rsp) ofs 8
  DW_CFA_nop

00005ffc 000000000000001c 00006000 FDE cie=00000000 pc=00000000008e4f51..00000000008e4fb7
  DW_CFA_advance_loc: 1 to 00000000008e4f52
  DW_CFA_def_cfa_offset: 16
  DW_CFA_offset: r6 (rbp) at cfa-16
  DW_CFA_advance_loc: 3 to 00000000008e4f55
  DW_CFA_def_cfa_register: r6 (rbp)
  DW_CFA_advance_loc1: 97 to 00000000008e4fb6
  DW_CFA_def_cfa: r7 (rsp) ofs 8
  DW_CFA_nop
  DW_CFA_nop

0000601c 000000000000001c 00006020 FDE cie=00000000 pc=00000000008e4fb7..00000000008e58e7
  DW_CFA_advance_loc: 1 to 00000000008e4fb8
  DW_CFA_def_cfa_offset: 16
  DW_CFA_offset: r6 (rbp) at cfa-16
  DW_CFA_advance_loc: 3 to 00000000008e4fbb
  DW_CFA_def_cfa_register: r6 (rbp)
  DW_CFA_advance_loc2: 2347 to 00000000008e58e6
  DW_CFA_def_cfa: r7 (rsp) ofs 8
  DW_CFA_nop

0000603c 000000000000001c 00006040 FDE cie=00000000 pc=00000000008e58e7..00000000008e59c8
  DW_CFA_advance_loc: 1 to 00000000008e58e8
  DW_CFA_def_cfa_offset: 16
  DW_CFA_offset: r6 (rbp) at cfa-16
  DW_CFA_advance_loc: 3 to 00000000008e58eb
  DW_CFA_def_cfa_register: r6 (rbp)
  DW_CFA_advance_loc1: 220 to 00000000008e59c7
  DW_CFA_def_cfa: r7 (rsp) ofs 8
  DW_CFA_nop
  DW_CFA_nop

0000605c 000000000000001c 00006060 FDE cie=00000000 pc=00000000008e59c8..00000000008e5add
  DW_CFA_advance_loc: 1 to 00000000008e59c9
  DW_CFA_def_cfa_offset: 16
  DW_CFA_offset: r6 (rbp) at cfa-16
  DW_CFA_advance_loc: 3 to 00000000008e59cc
  DW_CFA_def_cfa_register: r6 (rbp)
  DW_CFA_advance_loc2: 272 to 00000000008e5adc
  DW_CFA_def_cfa: r7 (rsp) ofs 8
  DW_CFA_nop

0000607c 000000000000001c 00006080 FDE cie=00000000 pc=00000000008e5add..00000000008e5bf2
  DW_CFA_advance_loc: 1 to 00000000008e5ade
  DW_CFA_def_cfa_offset: 16
  DW_CFA_offset: r6 (rbp) at cfa-16
  DW_CFA_advance_loc: 3 to 00000000008e5ae1
  DW_CFA_def_cfa_register: r6 (rbp)
  DW_CFA_advance_loc2: 272 to 00000000008e5bf1
  DW_CFA_def_cfa: r7 (rsp) ofs 8
  DW_CFA_nop

0000609c 000000000000001c 000060a0 FDE cie=00000000 pc=00000000008e5bf2..00000000008e5c50
  DW_CFA_advance_loc: 1 to 00000000008e5bf3
  DW_CFA_def_cfa_offset: 16
  DW_CFA_offset: r6 (rbp) at cfa-16
  DW_CFA_advance_loc: 3 to 00000000008e5bf6
  DW_CFA_def_cfa_register: r6 (rbp)
  DW_CFA_advance_loc1: 89 to 00000000008e5c4f
  DW_CFA_def_cfa: r7 (rsp) ofs 8
  DW_CFA_nop
  DW_CFA_nop

000060bc 000000000000001c 000060c0 FDE cie=00000000 pc=00000000008e5c50..00000000008e5cb1
  DW_CFA_advance_loc: 1 to 00000000008e5c51
  DW_CFA_def_cfa_offset: 16
  DW_CFA_offset: r6 (rbp) at cfa-16
  DW_CFA_advance_loc: 3 to 00000000008e5c54
  DW_CFA_def_cfa_register: r6 (rbp)
  DW_CFA_advance_loc1: 92 to 00000000008e5cb0
  DW_CFA_def_cfa: r7 (rsp) ofs 8
  DW_CFA_nop
  DW_CFA_nop

000060dc 000000000000001c 000060e0 FDE cie=00000000 pc=00000000008e5cb1..00000000008e5d8e
  DW_CFA_advance_loc: 1 to 00000000008e5cb2
  DW_CFA_def_cfa_offset: 16
  DW_CFA_offset: r6 (rbp) at cfa-16
  DW_CFA_advance_loc: 3 to 00000000008e5cb5
  DW_CFA_def_cfa_register: r6 (rbp)
  DW_CFA_advance_loc1: 216 to 00000000008e5d8d
  DW_CFA_def_cfa: r7 (rsp) ofs 8
  DW_CFA_nop
  DW_CFA_nop

000060fc 000000000000001c 00006100 FDE cie=00000000 pc=00000000008e5d8e..00000000008e5ea8
  DW_CFA_advance_loc: 1 to 00000000008e5d8f
  DW_CFA_def_cfa_offset: 16
  DW_CFA_offset: r6 (rbp) at cfa-16
  DW_CFA_advance_loc: 3 to 00000000008e5d92
  DW_CFA_def_cfa_register: r6 (rbp)
  DW_CFA_advance_loc2: 277 to 00000000008e5ea7
  DW_CFA_def_cfa: r7 (rsp) ofs 8
  DW_CFA_nop

0000611c 000000000000001c 00006120 FDE cie=00000000 pc=00000000008e5ea8..00000000008e5f0f
  DW_CFA_advance_loc: 1 to 00000000008e5ea9
  DW_CFA_def_cfa_offset: 16
  DW_CFA_offset: r6 (rbp) at cfa-16
  DW_CFA_advance_loc: 3 to 00000000008e5eac
  DW_CFA_def_cfa_register: r6 (rbp)
  DW_CFA_advance_loc1: 98 to 00000000008e5f0e
  DW_CFA_def_cfa: r7 (rsp) ofs 8
  DW_CFA_nop
  DW_CFA_nop

0000613c 000000000000001c 00006140 FDE cie=00000000 pc=00000000008e5f0f..00000000008e5f76
  DW_CFA_advance_loc: 1 to 00000000008e5f10
  DW_CFA_def_cfa_offset: 16
  DW_CFA_offset: r6 (rbp) at cfa-16
  DW_CFA_advance_loc: 3 to 00000000008e5f13
  DW_CFA_def_cfa_register: r6 (rbp)
  DW_CFA_advance_loc1: 98 to 00000000008e5f75
  DW_CFA_def_cfa: r7 (rsp) ofs 8
  DW_CFA_nop
  DW_CFA_nop

0000615c 000000000000001c 00006160 FDE cie=00000000 pc=00000000008e5f76..00000000008e5fdb
  DW_CFA_advance_loc: 1 to 00000000008e5f77
  DW_CFA_def_cfa_offset: 16
  DW_CFA_offset: r6 (rbp) at cfa-16
  DW_CFA_advance_loc: 3 to 00000000008e5f7a
  DW_CFA_def_cfa_register: r6 (rbp)
  DW_CFA_advance_loc1: 96 to 00000000008e5fda
  DW_CFA_def_cfa: r7 (rsp) ofs 8
  DW_CFA_nop
  DW_CFA_nop

0000617c 000000000000001c 00006180 FDE cie=00000000 pc=00000000008e5fdb..00000000008e604a
  DW_CFA_advance_loc: 1 to 00000000008e5fdc
  DW_CFA_def_cfa_offset: 16
  DW_CFA_offset: r6 (rbp) at cfa-16
  DW_CFA_advance_loc: 3 to 00000000008e5fdf
  DW_CFA_def_cfa_register: r6 (rbp)
  DW_CFA_advance_loc1: 106 to 00000000008e6049
  DW_CFA_def_cfa: r7 (rsp) ofs 8
  DW_CFA_nop
  DW_CFA_nop

0000619c 000000000000001c 000061a0 FDE cie=00000000 pc=00000000008e604a..00000000008e6086
  DW_CFA_advance_loc: 1 to 00000000008e604b
  DW_CFA_def_cfa_offset: 16
  DW_CFA_offset: r6 (rbp) at cfa-16
  DW_CFA_advance_loc: 3 to 00000000008e604e
  DW_CFA_def_cfa_register: r6 (rbp)
  DW_CFA_advance_loc: 55 to 00000000008e6085
  DW_CFA_def_cfa: r7 (rsp) ofs 8
  DW_CFA_nop
  DW_CFA_nop
  DW_CFA_nop

000061bc 000000000000001c 000061c0 FDE cie=00000000 pc=00000000008e6086..00000000008e60c2
  DW_CFA_advance_loc: 1 to 00000000008e6087
  DW_CFA_def_cfa_offset: 16
  DW_CFA_offset: r6 (rbp) at cfa-16
  DW_CFA_advance_loc: 3 to 00000000008e608a
  DW_CFA_def_cfa_register: r6 (rbp)
  DW_CFA_advance_loc: 55 to 00000000008e60c1
  DW_CFA_def_cfa: r7 (rsp) ofs 8
  DW_CFA_nop
  DW_CFA_nop
  DW_CFA_nop

000061dc 000000000000001c 000061e0 FDE cie=00000000 pc=00000000008e60c2..00000000008e6100
  DW_CFA_advance_loc: 1 to 00000000008e60c3
  DW_CFA_def_cfa_offset: 16
  DW_CFA_offset: r6 (rbp) at cfa-16
  DW_CFA_advance_loc: 3 to 00000000008e60c6
  DW_CFA_def_cfa_register: r6 (rbp)
  DW_CFA_advance_loc: 57 to 00000000008e60ff
  DW_CFA_def_cfa: r7 (rsp) ofs 8
  DW_CFA_nop
  DW_CFA_nop
  DW_CFA_nop

000061fc 000000000000001c 00006200 FDE cie=00000000 pc=00000000008e6100..00000000008e613e
  DW_CFA_advance_loc: 1 to 00000000008e6101
  DW_CFA_def_cfa_offset: 16
  DW_CFA_offset: r6 (rbp) at cfa-16
  DW_CFA_advance_loc: 3 to 00000000008e6104
  DW_CFA_def_cfa_register: r6 (rbp)
  DW_CFA_advance_loc: 57 to 00000000008e613d
  DW_CFA_def_cfa: r7 (rsp) ofs 8
  DW_CFA_nop
  DW_CFA_nop
  DW_CFA_nop

0000621c 000000000000001c 00006220 FDE cie=00000000 pc=00000000008e613e..00000000008e6177
  DW_CFA_advance_loc: 1 to 00000000008e613f
