  DW_CFA_def_cfa_offset: 16
  DW_CFA_offset: r6 (rbp) at cfa-16
  DW_CFA_advance_loc: 3 to 000000000098deb2
  DW_CFA_def_cfa_register: r6 (rbp)
  DW_CFA_advance_loc2: 391 to 000000000098e039
  DW_CFA_def_cfa: r7 (rsp) ofs 8
  DW_CFA_nop

000115ec 000000000000001c 000115f0 FDE cie=00000000 pc=000000000098e03a..000000000098e18a
  DW_CFA_advance_loc: 1 to 000000000098e03b
  DW_CFA_def_cfa_offset: 16
  DW_CFA_offset: r6 (rbp) at cfa-16
  DW_CFA_advance_loc: 3 to 000000000098e03e
  DW_CFA_def_cfa_register: r6 (rbp)
  DW_CFA_advance_loc2: 331 to 000000000098e189
  DW_CFA_def_cfa: r7 (rsp) ofs 8
  DW_CFA_nop

0001160c 000000000000001c 00011610 FDE cie=00000000 pc=000000000098e18a..000000000098e310
  DW_CFA_advance_loc: 1 to 000000000098e18b
  DW_CFA_def_cfa_offset: 16
  DW_CFA_offset: r6 (rbp) at cfa-16
  DW_CFA_advance_loc: 3 to 000000000098e18e
  DW_CFA_def_cfa_register: r6 (rbp)
  DW_CFA_advance_loc2: 385 to 000000000098e30f
  DW_CFA_def_cfa: r7 (rsp) ofs 8
  DW_CFA_nop

0001162c 000000000000001c 00011630 FDE cie=00000000 pc=000000000098e310..000000000098e471
  DW_CFA_advance_loc: 1 to 000000000098e311
  DW_CFA_def_cfa_offset: 16
  DW_CFA_offset: r6 (rbp) at cfa-16
  DW_CFA_advance_loc: 3 to 000000000098e314
  DW_CFA_def_cfa_register: r6 (rbp)
  DW_CFA_advance_loc2: 348 to 000000000098e470
  DW_CFA_def_cfa: r7 (rsp) ofs 8
  DW_CFA_nop

0001164c 000000000000001c 00011650 FDE cie=00000000 pc=000000000098e471..000000000098e691
  DW_CFA_advance_loc: 1 to 000000000098e472
  DW_CFA_def_cfa_offset: 16
  DW_CFA_offset: r6 (rbp) at cfa-16
  DW_CFA_advance_loc: 3 to 000000000098e475
  DW_CFA_def_cfa_register: r6 (rbp)
  DW_CFA_advance_loc2: 539 to 000000000098e690
  DW_CFA_def_cfa: r7 (rsp) ofs 8
  DW_CFA_nop

0001166c 000000000000001c 00011670 FDE cie=00000000 pc=000000000098e691..000000000098e9ac
  DW_CFA_advance_loc: 1 to 000000000098e692
  DW_CFA_def_cfa_offset: 16
  DW_CFA_offset: r6 (rbp) at cfa-16
  DW_CFA_advance_loc: 3 to 000000000098e695
  DW_CFA_def_cfa_register: r6 (rbp)
  DW_CFA_advance_loc2: 790 to 000000000098e9ab
  DW_CFA_def_cfa: r7 (rsp) ofs 8
  DW_CFA_nop

0001168c 000000000000001c 00011690 FDE cie=00000000 pc=000000000098e9ac..000000000098ea64
  DW_CFA_advance_loc: 1 to 000000000098e9ad
  DW_CFA_def_cfa_offset: 16
  DW_CFA_offset: r6 (rbp) at cfa-16
  DW_CFA_advance_loc: 3 to 000000000098e9b0
  DW_CFA_def_cfa_register: r6 (rbp)
  DW_CFA_advance_loc1: 179 to 000000000098ea63
  DW_CFA_def_cfa: r7 (rsp) ofs 8
  DW_CFA_nop
  DW_CFA_nop

000116ac 000000000000001c 000116b0 FDE cie=00000000 pc=000000000098ea64..000000000098ee05
  DW_CFA_advance_loc: 1 to 000000000098ea65
  DW_CFA_def_cfa_offset: 16
  DW_CFA_offset: r6 (rbp) at cfa-16
  DW_CFA_advance_loc: 3 to 000000000098ea68
  DW_CFA_def_cfa_register: r6 (rbp)
  DW_CFA_advance_loc2: 924 to 000000000098ee04
  DW_CFA_def_cfa: r7 (rsp) ofs 8
  DW_CFA_nop

000116cc 000000000000001c 000116d0 FDE cie=00000000 pc=000000000098ee05..000000000098ef26
  DW_CFA_advance_loc: 1 to 000000000098ee06
  DW_CFA_def_cfa_offset: 16
  DW_CFA_offset: r6 (rbp) at cfa-16
  DW_CFA_advance_loc: 3 to 000000000098ee09
  DW_CFA_def_cfa_register: r6 (rbp)
  DW_CFA_advance_loc2: 284 to 000000000098ef25
  DW_CFA_def_cfa: r7 (rsp) ofs 8
  DW_CFA_nop

000116ec 000000000000001c 000116f0 FDE cie=00000000 pc=000000000098ef26..000000000098f2ac
  DW_CFA_advance_loc: 1 to 000000000098ef27
  DW_CFA_def_cfa_offset: 16
  DW_CFA_offset: r6 (rbp) at cfa-16
  DW_CFA_advance_loc: 3 to 000000000098ef2a
  DW_CFA_def_cfa_register: r6 (rbp)
  DW_CFA_advance_loc2: 897 to 000000000098f2ab
  DW_CFA_def_cfa: r7 (rsp) ofs 8
  DW_CFA_nop

0001170c 000000000000001c 00011710 FDE cie=00000000 pc=000000000098f2ac..000000000098f5d4
  DW_CFA_advance_loc: 1 to 000000000098f2ad
  DW_CFA_def_cfa_offset: 16
  DW_CFA_offset: r6 (rbp) at cfa-16
  DW_CFA_advance_loc: 3 to 000000000098f2b0
  DW_CFA_def_cfa_register: r6 (rbp)
  DW_CFA_advance_loc2: 803 to 000000000098f5d3
  DW_CFA_def_cfa: r7 (rsp) ofs 8
  DW_CFA_nop

0001172c 000000000000001c 00011730 FDE cie=00000000 pc=000000000098f5d4..000000000098f967
  DW_CFA_advance_loc: 1 to 000000000098f5d5
  DW_CFA_def_cfa_offset: 16
  DW_CFA_offset: r6 (rbp) at cfa-16
  DW_CFA_advance_loc: 3 to 000000000098f5d8
  DW_CFA_def_cfa_register: r6 (rbp)
  DW_CFA_advance_loc2: 910 to 000000000098f966
  DW_CFA_def_cfa: r7 (rsp) ofs 8
  DW_CFA_nop

0001174c 000000000000001c 00011750 FDE cie=00000000 pc=000000000098f967..0000000000990328
  DW_CFA_advance_loc: 1 to 000000000098f968
  DW_CFA_def_cfa_offset: 16
  DW_CFA_offset: r6 (rbp) at cfa-16
  DW_CFA_advance_loc: 3 to 000000000098f96b
  DW_CFA_def_cfa_register: r6 (rbp)
  DW_CFA_advance_loc2: 2492 to 0000000000990327
  DW_CFA_def_cfa: r7 (rsp) ofs 8
  DW_CFA_nop

0001176c 000000000000001c 00011770 FDE cie=00000000 pc=0000000000990328..00000000009905fd
  DW_CFA_advance_loc: 1 to 0000000000990329
  DW_CFA_def_cfa_offset: 16
  DW_CFA_offset: r6 (rbp) at cfa-16
  DW_CFA_advance_loc: 3 to 000000000099032c
  DW_CFA_def_cfa_register: r6 (rbp)
  DW_CFA_advance_loc2: 720 to 00000000009905fc
  DW_CFA_def_cfa: r7 (rsp) ofs 8
  DW_CFA_nop

0001178c 000000000000001c 00011790 FDE cie=00000000 pc=00000000009905fd..0000000000990613
  DW_CFA_advance_loc: 1 to 00000000009905fe
  DW_CFA_def_cfa_offset: 16
  DW_CFA_offset: r6 (rbp) at cfa-16
  DW_CFA_advance_loc: 3 to 0000000000990601
  DW_CFA_def_cfa_register: r6 (rbp)
  DW_CFA_advance_loc: 17 to 0000000000990612
  DW_CFA_def_cfa: r7 (rsp) ofs 8
  DW_CFA_nop
  DW_CFA_nop
  DW_CFA_nop

000117ac 000000000000001c 000117b0 FDE cie=00000000 pc=0000000000990613..0000000000990687
  DW_CFA_advance_loc: 1 to 0000000000990614
  DW_CFA_def_cfa_offset: 16
  DW_CFA_offset: r6 (rbp) at cfa-16
  DW_CFA_advance_loc: 3 to 0000000000990617
  DW_CFA_def_cfa_register: r6 (rbp)
  DW_CFA_advance_loc1: 111 to 0000000000990686
  DW_CFA_def_cfa: r7 (rsp) ofs 8
  DW_CFA_nop
  DW_CFA_nop

000117cc 000000000000001c 000117d0 FDE cie=00000000 pc=0000000000990687..00000000009906e3
  DW_CFA_advance_loc: 1 to 0000000000990688
  DW_CFA_def_cfa_offset: 16
  DW_CFA_offset: r6 (rbp) at cfa-16
  DW_CFA_advance_loc: 3 to 000000000099068b
  DW_CFA_def_cfa_register: r6 (rbp)
  DW_CFA_advance_loc1: 87 to 00000000009906e2
  DW_CFA_def_cfa: r7 (rsp) ofs 8
  DW_CFA_nop
  DW_CFA_nop

000117ec 000000000000001c 000117f0 FDE cie=00000000 pc=00000000009906e3..0000000000990811
  DW_CFA_advance_loc: 1 to 00000000009906e4
  DW_CFA_def_cfa_offset: 16
  DW_CFA_offset: r6 (rbp) at cfa-16
  DW_CFA_advance_loc: 3 to 00000000009906e7
  DW_CFA_def_cfa_register: r6 (rbp)
  DW_CFA_advance_loc2: 297 to 0000000000990810
  DW_CFA_def_cfa: r7 (rsp) ofs 8
  DW_CFA_nop

0001180c 000000000000001c 00011810 FDE cie=00000000 pc=0000000000990811..00000000009908b4
  DW_CFA_advance_loc: 1 to 0000000000990812
  DW_CFA_def_cfa_offset: 16
  DW_CFA_offset: r6 (rbp) at cfa-16
  DW_CFA_advance_loc: 3 to 0000000000990815
  DW_CFA_def_cfa_register: r6 (rbp)
  DW_CFA_advance_loc1: 158 to 00000000009908b3
  DW_CFA_def_cfa: r7 (rsp) ofs 8
  DW_CFA_nop
  DW_CFA_nop

0001182c 000000000000001c 00011830 FDE cie=00000000 pc=00000000009908b4..0000000000990ac6
  DW_CFA_advance_loc: 1 to 00000000009908b5
  DW_CFA_def_cfa_offset: 16
  DW_CFA_offset: r6 (rbp) at cfa-16
  DW_CFA_advance_loc: 3 to 00000000009908b8
  DW_CFA_def_cfa_register: r6 (rbp)
  DW_CFA_advance_loc2: 525 to 0000000000990ac5
  DW_CFA_def_cfa: r7 (rsp) ofs 8
  DW_CFA_nop

0001184c 000000000000001c 00011850 FDE cie=00000000 pc=0000000000990ac6..0000000000990e7f
  DW_CFA_advance_loc: 1 to 0000000000990ac7
  DW_CFA_def_cfa_offset: 16
  DW_CFA_offset: r6 (rbp) at cfa-16
  DW_CFA_advance_loc: 3 to 0000000000990aca
  DW_CFA_def_cfa_register: r6 (rbp)
  DW_CFA_advance_loc2: 948 to 0000000000990e7e
  DW_CFA_def_cfa: r7 (rsp) ofs 8
  DW_CFA_nop

0001186c 000000000000001c 00011870 FDE cie=00000000 pc=0000000000990e7f..0000000000990eb2
  DW_CFA_advance_loc: 1 to 0000000000990e80
  DW_CFA_def_cfa_offset: 16
  DW_CFA_offset: r6 (rbp) at cfa-16
  DW_CFA_advance_loc: 3 to 0000000000990e83
  DW_CFA_def_cfa_register: r6 (rbp)
  DW_CFA_advance_loc: 46 to 0000000000990eb1
  DW_CFA_def_cfa: r7 (rsp) ofs 8
  DW_CFA_nop
  DW_CFA_nop
  DW_CFA_nop

0001188c 000000000000001c 00011890 FDE cie=00000000 pc=0000000000990eb2..0000000000990ec5
  DW_CFA_advance_loc: 1 to 0000000000990eb3
  DW_CFA_def_cfa_offset: 16
  DW_CFA_offset: r6 (rbp) at cfa-16
  DW_CFA_advance_loc: 3 to 0000000000990eb6
  DW_CFA_def_cfa_register: r6 (rbp)
  DW_CFA_advance_loc: 14 to 0000000000990ec4
  DW_CFA_def_cfa: r7 (rsp) ofs 8
  DW_CFA_nop
  DW_CFA_nop
  DW_CFA_nop

000118ac 000000000000001c 000118b0 FDE cie=00000000 pc=0000000000990ec5..0000000000991002
  DW_CFA_advance_loc: 1 to 0000000000990ec6
  DW_CFA_def_cfa_offset: 16
  DW_CFA_offset: r6 (rbp) at cfa-16
  DW_CFA_advance_loc: 3 to 0000000000990ec9
  DW_CFA_def_cfa_register: r6 (rbp)
  DW_CFA_advance_loc2: 312 to 0000000000991001
  DW_CFA_def_cfa: r7 (rsp) ofs 8
  DW_CFA_nop

000118cc 000000000000001c 000118d0 FDE cie=00000000 pc=0000000000991002..00000000009913c5
  DW_CFA_advance_loc: 1 to 0000000000991003
  DW_CFA_def_cfa_offset: 16
  DW_CFA_offset: r6 (rbp) at cfa-16
  DW_CFA_advance_loc: 3 to 0000000000991006
  DW_CFA_def_cfa_register: r6 (rbp)
  DW_CFA_advance_loc2: 958 to 00000000009913c4
  DW_CFA_def_cfa: r7 (rsp) ofs 8
  DW_CFA_nop

000118ec 000000000000001c 000118f0 FDE cie=00000000 pc=00000000009913c5..00000000009913d0
  DW_CFA_advance_loc: 1 to 00000000009913c6
  DW_CFA_def_cfa_offset: 16
  DW_CFA_offset: r6 (rbp) at cfa-16
  DW_CFA_advance_loc: 3 to 00000000009913c9
  DW_CFA_def_cfa_register: r6 (rbp)
  DW_CFA_advance_loc: 6 to 00000000009913cf
  DW_CFA_def_cfa: r7 (rsp) ofs 8
  DW_CFA_nop
  DW_CFA_nop
  DW_CFA_nop

0001190c 000000000000001c 00011910 FDE cie=00000000 pc=00000000009913d0..0000000000991a39
  DW_CFA_advance_loc: 1 to 00000000009913d1
  DW_CFA_def_cfa_offset: 16
  DW_CFA_offset: r6 (rbp) at cfa-16
  DW_CFA_advance_loc: 3 to 00000000009913d4
  DW_CFA_def_cfa_register: r6 (rbp)
  DW_CFA_advance_loc2: 1636 to 0000000000991a38
  DW_CFA_def_cfa: r7 (rsp) ofs 8
  DW_CFA_nop

0001192c 000000000000001c 00011930 FDE cie=00000000 pc=0000000000991a39..0000000000991c90
  DW_CFA_advance_loc: 1 to 0000000000991a3a
  DW_CFA_def_cfa_offset: 16
  DW_CFA_offset: r6 (rbp) at cfa-16
  DW_CFA_advance_loc: 3 to 0000000000991a3d
  DW_CFA_def_cfa_register: r6 (rbp)
  DW_CFA_advance_loc2: 594 to 0000000000991c8f
  DW_CFA_def_cfa: r7 (rsp) ofs 8
  DW_CFA_nop

0001194c 000000000000001c 00011950 FDE cie=00000000 pc=0000000000991c90..0000000000991ef2
  DW_CFA_advance_loc: 1 to 0000000000991c91
  DW_CFA_def_cfa_offset: 16
  DW_CFA_offset: r6 (rbp) at cfa-16
  DW_CFA_advance_loc: 3 to 0000000000991c94
  DW_CFA_def_cfa_register: r6 (rbp)
  DW_CFA_advance_loc2: 605 to 0000000000991ef1
  DW_CFA_def_cfa: r7 (rsp) ofs 8
  DW_CFA_nop

0001196c 000000000000001c 00011970 FDE cie=00000000 pc=0000000000991ef2..0000000000991f01
  DW_CFA_advance_loc: 1 to 0000000000991ef3
  DW_CFA_def_cfa_offset: 16
  DW_CFA_offset: r6 (rbp) at cfa-16
  DW_CFA_advance_loc: 3 to 0000000000991ef6
  DW_CFA_def_cfa_register: r6 (rbp)
  DW_CFA_advance_loc: 10 to 0000000000991f00
  DW_CFA_def_cfa: r7 (rsp) ofs 8
  DW_CFA_nop
  DW_CFA_nop
  DW_CFA_nop

0001198c 000000000000001c 00011990 FDE cie=00000000 pc=0000000000991f01..0000000000991f0c
  DW_CFA_advance_loc: 1 to 0000000000991f02
  DW_CFA_def_cfa_offset: 16
  DW_CFA_offset: r6 (rbp) at cfa-16
  DW_CFA_advance_loc: 3 to 0000000000991f05
  DW_CFA_def_cfa_register: r6 (rbp)
  DW_CFA_advance_loc: 6 to 0000000000991f0b
  DW_CFA_def_cfa: r7 (rsp) ofs 8
  DW_CFA_nop
  DW_CFA_nop
  DW_CFA_nop

000119ac 000000000000001c 000119b0 FDE cie=00000000 pc=0000000000991f0c..0000000000991fb1
  DW_CFA_advance_loc: 1 to 0000000000991f0d
  DW_CFA_def_cfa_offset: 16
  DW_CFA_offset: r6 (rbp) at cfa-16
  DW_CFA_advance_loc: 3 to 0000000000991f10
  DW_CFA_def_cfa_register: r6 (rbp)
  DW_CFA_advance_loc1: 160 to 0000000000991fb0
  DW_CFA_def_cfa: r7 (rsp) ofs 8
  DW_CFA_nop
  DW_CFA_nop

000119cc 000000000000001c 000119d0 FDE cie=00000000 pc=0000000000991fb1..0000000000991fe7
  DW_CFA_advance_loc: 1 to 0000000000991fb2
  DW_CFA_def_cfa_offset: 16
  DW_CFA_offset: r6 (rbp) at cfa-16
  DW_CFA_advance_loc: 3 to 0000000000991fb5
  DW_CFA_def_cfa_register: r6 (rbp)
  DW_CFA_advance_loc: 49 to 0000000000991fe6
  DW_CFA_def_cfa: r7 (rsp) ofs 8
  DW_CFA_nop
  DW_CFA_nop
  DW_CFA_nop

000119ec 000000000000001c 000119f0 FDE cie=00000000 pc=0000000000991fe7..000000000099207b
  DW_CFA_advance_loc: 1 to 0000000000991fe8
  DW_CFA_def_cfa_offset: 16
  DW_CFA_offset: r6 (rbp) at cfa-16
  DW_CFA_advance_loc: 3 to 0000000000991feb
  DW_CFA_def_cfa_register: r6 (rbp)
  DW_CFA_advance_loc1: 143 to 000000000099207a
  DW_CFA_def_cfa: r7 (rsp) ofs 8
  DW_CFA_nop
  DW_CFA_nop

00011a0c 000000000000001c 00011a10 FDE cie=00000000 pc=000000000099207b..000000000099208e
  DW_CFA_advance_loc: 1 to 000000000099207c
  DW_CFA_def_cfa_offset: 16
  DW_CFA_offset: r6 (rbp) at cfa-16
  DW_CFA_advance_loc: 3 to 000000000099207f
  DW_CFA_def_cfa_register: r6 (rbp)
  DW_CFA_advance_loc: 14 to 000000000099208d
  DW_CFA_def_cfa: r7 (rsp) ofs 8
  DW_CFA_nop
  DW_CFA_nop
  DW_CFA_nop

00011a2c 0000000000000020 00011a30 FDE cie=00000000 pc=000000000099208e..00000000009922b9
  DW_CFA_advance_loc: 1 to 000000000099208f
  DW_CFA_def_cfa_offset: 16
  DW_CFA_offset: r6 (rbp) at cfa-16
  DW_CFA_advance_loc: 3 to 0000000000992092
  DW_CFA_def_cfa_register: r6 (rbp)
  DW_CFA_advance_loc: 5 to 0000000000992097
  DW_CFA_offset: r3 (rbx) at cfa-24
  DW_CFA_advance_loc2: 545 to 00000000009922b8
  DW_CFA_def_cfa: r7 (rsp) ofs 8
  DW_CFA_nop
  DW_CFA_nop

00011a50 000000000000001c 00011a54 FDE cie=00000000 pc=00000000009922b9..000000000099230f
  DW_CFA_advance_loc: 1 to 00000000009922ba
  DW_CFA_def_cfa_offset: 16
  DW_CFA_offset: r6 (rbp) at cfa-16
  DW_CFA_advance_loc: 3 to 00000000009922bd
  DW_CFA_def_cfa_register: r6 (rbp)
  DW_CFA_advance_loc1: 81 to 000000000099230e
  DW_CFA_def_cfa: r7 (rsp) ofs 8
  DW_CFA_nop
  DW_CFA_nop

00011a70 000000000000001c 00011a74 FDE cie=00000000 pc=000000000099230f..000000000099234e
  DW_CFA_advance_loc: 1 to 0000000000992310
  DW_CFA_def_cfa_offset: 16
  DW_CFA_offset: r6 (rbp) at cfa-16
  DW_CFA_advance_loc: 3 to 0000000000992313
  DW_CFA_def_cfa_register: r6 (rbp)
  DW_CFA_advance_loc: 58 to 000000000099234d
  DW_CFA_def_cfa: r7 (rsp) ofs 8
  DW_CFA_nop
  DW_CFA_nop
  DW_CFA_nop

00011a90 000000000000001c 00011a94 FDE cie=00000000 pc=000000000099234e..00000000009923e0
  DW_CFA_advance_loc: 1 to 000000000099234f
  DW_CFA_def_cfa_offset: 16
  DW_CFA_offset: r6 (rbp) at cfa-16
  DW_CFA_advance_loc: 3 to 0000000000992352
  DW_CFA_def_cfa_register: r6 (rbp)
  DW_CFA_advance_loc1: 141 to 00000000009923df
  DW_CFA_def_cfa: r7 (rsp) ofs 8
  DW_CFA_nop
  DW_CFA_nop

00011ab0 000000000000001c 00011ab4 FDE cie=00000000 pc=00000000009923e0..000000000099243c
  DW_CFA_advance_loc: 1 to 00000000009923e1
  DW_CFA_def_cfa_offset: 16
  DW_CFA_offset: r6 (rbp) at cfa-16
  DW_CFA_advance_loc: 3 to 00000000009923e4
  DW_CFA_def_cfa_register: r6 (rbp)
  DW_CFA_advance_loc1: 87 to 000000000099243b
  DW_CFA_def_cfa: r7 (rsp) ofs 8
  DW_CFA_nop
  DW_CFA_nop

00011ad0 000000000000001c 00011ad4 FDE cie=00000000 pc=000000000099243c..00000000009928a3
  DW_CFA_advance_loc: 1 to 000000000099243d
  DW_CFA_def_cfa_offset: 16
  DW_CFA_offset: r6 (rbp) at cfa-16
  DW_CFA_advance_loc: 3 to 0000000000992440
  DW_CFA_def_cfa_register: r6 (rbp)
  DW_CFA_advance_loc2: 1122 to 00000000009928a2
  DW_CFA_def_cfa: r7 (rsp) ofs 8
  DW_CFA_nop

00011af0 000000000000001c 00011af4 FDE cie=00000000 pc=00000000009928a3..0000000000992916
  DW_CFA_advance_loc: 1 to 00000000009928a4
  DW_CFA_def_cfa_offset: 16
  DW_CFA_offset: r6 (rbp) at cfa-16
  DW_CFA_advance_loc: 3 to 00000000009928a7
  DW_CFA_def_cfa_register: r6 (rbp)
  DW_CFA_advance_loc1: 110 to 0000000000992915
  DW_CFA_def_cfa: r7 (rsp) ofs 8
  DW_CFA_nop
  DW_CFA_nop

00011b10 000000000000001c 00011b14 FDE cie=00000000 pc=0000000000992916..0000000000992993
  DW_CFA_advance_loc: 1 to 0000000000992917
  DW_CFA_def_cfa_offset: 16
  DW_CFA_offset: r6 (rbp) at cfa-16
  DW_CFA_advance_loc: 3 to 000000000099291a
  DW_CFA_def_cfa_register: r6 (rbp)
  DW_CFA_advance_loc1: 120 to 0000000000992992
  DW_CFA_def_cfa: r7 (rsp) ofs 8
  DW_CFA_nop
  DW_CFA_nop

00011b30 000000000000001c 00011b34 FDE cie=00000000 pc=0000000000992993..0000000000992bff
  DW_CFA_advance_loc: 1 to 0000000000992994
  DW_CFA_def_cfa_offset: 16
  DW_CFA_offset: r6 (rbp) at cfa-16
  DW_CFA_advance_loc: 3 to 0000000000992997
  DW_CFA_def_cfa_register: r6 (rbp)
  DW_CFA_advance_loc2: 615 to 0000000000992bfe
  DW_CFA_def_cfa: r7 (rsp) ofs 8
  DW_CFA_nop

00011b50 000000000000001c 00011b54 FDE cie=00000000 pc=0000000000992bff..0000000000992e6e
  DW_CFA_advance_loc: 1 to 0000000000992c00
  DW_CFA_def_cfa_offset: 16
  DW_CFA_offset: r6 (rbp) at cfa-16
  DW_CFA_advance_loc: 3 to 0000000000992c03
  DW_CFA_def_cfa_register: r6 (rbp)
  DW_CFA_advance_loc2: 618 to 0000000000992e6d
  DW_CFA_def_cfa: r7 (rsp) ofs 8
  DW_CFA_nop

00011b70 000000000000001c 00011b74 FDE cie=00000000 pc=0000000000992e6e..0000000000992f5f
  DW_CFA_advance_loc: 1 to 0000000000992e6f
  DW_CFA_def_cfa_offset: 16
  DW_CFA_offset: r6 (rbp) at cfa-16
  DW_CFA_advance_loc: 3 to 0000000000992e72
  DW_CFA_def_cfa_register: r6 (rbp)
  DW_CFA_advance_loc1: 236 to 0000000000992f5e
  DW_CFA_def_cfa: r7 (rsp) ofs 8
  DW_CFA_nop
  DW_CFA_nop

00011b90 000000000000001c 00011b94 FDE cie=00000000 pc=0000000000992f5f..0000000000992fda
  DW_CFA_advance_loc: 1 to 0000000000992f60
  DW_CFA_def_cfa_offset: 16
  DW_CFA_offset: r6 (rbp) at cfa-16
  DW_CFA_advance_loc: 3 to 0000000000992f63
  DW_CFA_def_cfa_register: r6 (rbp)
  DW_CFA_advance_loc1: 118 to 0000000000992fd9
  DW_CFA_def_cfa: r7 (rsp) ofs 8
  DW_CFA_nop
  DW_CFA_nop

00011bb0 000000000000001c 00011bb4 FDE cie=00000000 pc=0000000000992fda..0000000000993004
  DW_CFA_advance_loc: 1 to 0000000000992fdb
  DW_CFA_def_cfa_offset: 16
  DW_CFA_offset: r6 (rbp) at cfa-16
  DW_CFA_advance_loc: 3 to 0000000000992fde
  DW_CFA_def_cfa_register: r6 (rbp)
  DW_CFA_advance_loc: 37 to 0000000000993003
  DW_CFA_def_cfa: r7 (rsp) ofs 8
  DW_CFA_nop
  DW_CFA_nop
  DW_CFA_nop

00011bd0 000000000000001c 00011bd4 FDE cie=00000000 pc=0000000000993004..000000000099302e
  DW_CFA_advance_loc: 1 to 0000000000993005
  DW_CFA_def_cfa_offset: 16
  DW_CFA_offset: r6 (rbp) at cfa-16
  DW_CFA_advance_loc: 3 to 0000000000993008
  DW_CFA_def_cfa_register: r6 (rbp)
  DW_CFA_advance_loc: 37 to 000000000099302d
  DW_CFA_def_cfa: r7 (rsp) ofs 8
  DW_CFA_nop
  DW_CFA_nop
  DW_CFA_nop

00011bf0 000000000000001c 00011bf4 FDE cie=00000000 pc=000000000099302e..00000000009931ba
  DW_CFA_advance_loc: 1 to 000000000099302f
  DW_CFA_def_cfa_offset: 16
  DW_CFA_offset: r6 (rbp) at cfa-16
  DW_CFA_advance_loc: 3 to 0000000000993032
  DW_CFA_def_cfa_register: r6 (rbp)
  DW_CFA_advance_loc2: 391 to 00000000009931b9
  DW_CFA_def_cfa: r7 (rsp) ofs 8
  DW_CFA_nop

00011c10 000000000000001c 00011c14 FDE cie=00000000 pc=00000000009931ba..0000000000993473
  DW_CFA_advance_loc: 1 to 00000000009931bb
  DW_CFA_def_cfa_offset: 16
  DW_CFA_offset: r6 (rbp) at cfa-16
  DW_CFA_advance_loc: 3 to 00000000009931be
  DW_CFA_def_cfa_register: r6 (rbp)
  DW_CFA_advance_loc2: 692 to 0000000000993472
  DW_CFA_def_cfa: r7 (rsp) ofs 8
  DW_CFA_nop

00011c30 000000000000001c 00011c34 FDE cie=00000000 pc=0000000000993473..0000000000993546
  DW_CFA_advance_loc: 1 to 0000000000993474
  DW_CFA_def_cfa_offset: 16
  DW_CFA_offset: r6 (rbp) at cfa-16
  DW_CFA_advance_loc: 3 to 0000000000993477
  DW_CFA_def_cfa_register: r6 (rbp)
  DW_CFA_advance_loc1: 206 to 0000000000993545
  DW_CFA_def_cfa: r7 (rsp) ofs 8
  DW_CFA_nop
  DW_CFA_nop

00011c50 000000000000001c 00011c54 FDE cie=00000000 pc=0000000000993546..00000000009935d5
  DW_CFA_advance_loc: 1 to 0000000000993547
  DW_CFA_def_cfa_offset: 16
  DW_CFA_offset: r6 (rbp) at cfa-16
  DW_CFA_advance_loc: 3 to 000000000099354a
  DW_CFA_def_cfa_register: r6 (rbp)
  DW_CFA_advance_loc1: 138 to 00000000009935d4
  DW_CFA_def_cfa: r7 (rsp) ofs 8
  DW_CFA_nop
  DW_CFA_nop

00011c70 000000000000001c 00011c74 FDE cie=00000000 pc=00000000009935d5..0000000000993714
  DW_CFA_advance_loc: 1 to 00000000009935d6
  DW_CFA_def_cfa_offset: 16
  DW_CFA_offset: r6 (rbp) at cfa-16
  DW_CFA_advance_loc: 3 to 00000000009935d9
  DW_CFA_def_cfa_register: r6 (rbp)
  DW_CFA_advance_loc2: 314 to 0000000000993713
  DW_CFA_def_cfa: r7 (rsp) ofs 8
  DW_CFA_nop

00011c90 000000000000001c 00011c94 FDE cie=00000000 pc=0000000000993714..0000000000993797
  DW_CFA_advance_loc: 1 to 0000000000993715
  DW_CFA_def_cfa_offset: 16
  DW_CFA_offset: r6 (rbp) at cfa-16
  DW_CFA_advance_loc: 3 to 0000000000993718
  DW_CFA_def_cfa_register: r6 (rbp)
  DW_CFA_advance_loc1: 126 to 0000000000993796
  DW_CFA_def_cfa: r7 (rsp) ofs 8
  DW_CFA_nop
  DW_CFA_nop

00011cb0 000000000000001c 00011cb4 FDE cie=00000000 pc=0000000000993797..000000000099380f
  DW_CFA_advance_loc: 1 to 0000000000993798
  DW_CFA_def_cfa_offset: 16
  DW_CFA_offset: r6 (rbp) at cfa-16
  DW_CFA_advance_loc: 3 to 000000000099379b
  DW_CFA_def_cfa_register: r6 (rbp)
  DW_CFA_advance_loc1: 115 to 000000000099380e
  DW_CFA_def_cfa: r7 (rsp) ofs 8
  DW_CFA_nop
  DW_CFA_nop

00011cd0 0000000000000020 00011cd4 FDE cie=00000000 pc=000000000099380f..0000000000993a21
  DW_CFA_advance_loc: 1 to 0000000000993810
  DW_CFA_def_cfa_offset: 16
  DW_CFA_offset: r6 (rbp) at cfa-16
  DW_CFA_advance_loc: 3 to 0000000000993813
  DW_CFA_def_cfa_register: r6 (rbp)
  DW_CFA_advance_loc: 5 to 0000000000993818
  DW_CFA_offset: r3 (rbx) at cfa-24
  DW_CFA_advance_loc2: 520 to 0000000000993a20
  DW_CFA_def_cfa: r7 (rsp) ofs 8
  DW_CFA_nop
  DW_CFA_nop

00011cf4 000000000000001c 00011cf8 FDE cie=00000000 pc=0000000000993a21..0000000000993f0a
  DW_CFA_advance_loc: 1 to 0000000000993a22
  DW_CFA_def_cfa_offset: 16
  DW_CFA_offset: r6 (rbp) at cfa-16
  DW_CFA_advance_loc: 3 to 0000000000993a25
  DW_CFA_def_cfa_register: r6 (rbp)
  DW_CFA_advance_loc2: 1252 to 0000000000993f09
  DW_CFA_def_cfa: r7 (rsp) ofs 8
  DW_CFA_nop

00011d14 000000000000001c 00011d18 FDE cie=00000000 pc=0000000000993f0a..0000000000993ff5
  DW_CFA_advance_loc: 1 to 0000000000993f0b
  DW_CFA_def_cfa_offset: 16
  DW_CFA_offset: r6 (rbp) at cfa-16
  DW_CFA_advance_loc: 3 to 0000000000993f0e
  DW_CFA_def_cfa_register: r6 (rbp)
  DW_CFA_advance_loc1: 230 to 0000000000993ff4
  DW_CFA_def_cfa: r7 (rsp) ofs 8
  DW_CFA_nop
  DW_CFA_nop

00011d34 000000000000001c 00011d38 FDE cie=00000000 pc=0000000000993ff5..0000000000994115
  DW_CFA_advance_loc: 1 to 0000000000993ff6
  DW_CFA_def_cfa_offset: 16
  DW_CFA_offset: r6 (rbp) at cfa-16
  DW_CFA_advance_loc: 3 to 0000000000993ff9
  DW_CFA_def_cfa_register: r6 (rbp)
  DW_CFA_advance_loc2: 283 to 0000000000994114
  DW_CFA_def_cfa: r7 (rsp) ofs 8
  DW_CFA_nop

00011d54 000000000000001c 00011d58 FDE cie=00000000 pc=0000000000994115..0000000000994134
  DW_CFA_advance_loc: 1 to 0000000000994116
  DW_CFA_def_cfa_offset: 16
  DW_CFA_offset: r6 (rbp) at cfa-16
  DW_CFA_advance_loc: 3 to 0000000000994119
  DW_CFA_def_cfa_register: r6 (rbp)
  DW_CFA_advance_loc: 26 to 0000000000994133
  DW_CFA_def_cfa: r7 (rsp) ofs 8
  DW_CFA_nop
  DW_CFA_nop
  DW_CFA_nop

00011d74 000000000000001c 00011d78 FDE cie=00000000 pc=0000000000994134..0000000000994231
  DW_CFA_advance_loc: 1 to 0000000000994135
  DW_CFA_def_cfa_offset: 16
  DW_CFA_offset: r6 (rbp) at cfa-16
  DW_CFA_advance_loc: 3 to 0000000000994138
  DW_CFA_def_cfa_register: r6 (rbp)
  DW_CFA_advance_loc1: 248 to 0000000000994230
  DW_CFA_def_cfa: r7 (rsp) ofs 8
  DW_CFA_nop
  DW_CFA_nop

00011d94 000000000000001c 00011d98 FDE cie=00000000 pc=0000000000994231..000000000099426f
  DW_CFA_advance_loc: 1 to 0000000000994232
  DW_CFA_def_cfa_offset: 16
  DW_CFA_offset: r6 (rbp) at cfa-16
  DW_CFA_advance_loc: 3 to 0000000000994235
  DW_CFA_def_cfa_register: r6 (rbp)
  DW_CFA_advance_loc: 57 to 000000000099426e
  DW_CFA_def_cfa: r7 (rsp) ofs 8
  DW_CFA_nop
  DW_CFA_nop
  DW_CFA_nop

00011db4 000000000000001c 00011db8 FDE cie=00000000 pc=000000000099426f..00000000009942e6
  DW_CFA_advance_loc: 1 to 0000000000994270
  DW_CFA_def_cfa_offset: 16
  DW_CFA_offset: r6 (rbp) at cfa-16
  DW_CFA_advance_loc: 3 to 0000000000994273
  DW_CFA_def_cfa_register: r6 (rbp)
  DW_CFA_advance_loc1: 114 to 00000000009942e5
  DW_CFA_def_cfa: r7 (rsp) ofs 8
  DW_CFA_nop
  DW_CFA_nop

00011dd4 000000000000001c 00011dd8 FDE cie=00000000 pc=00000000009942e6..000000000099433e
  DW_CFA_advance_loc: 1 to 00000000009942e7
  DW_CFA_def_cfa_offset: 16
  DW_CFA_offset: r6 (rbp) at cfa-16
  DW_CFA_advance_loc: 3 to 00000000009942ea
  DW_CFA_def_cfa_register: r6 (rbp)
  DW_CFA_advance_loc1: 83 to 000000000099433d
  DW_CFA_def_cfa: r7 (rsp) ofs 8
  DW_CFA_nop
  DW_CFA_nop

00011df4 000000000000001c 00011df8 FDE cie=00000000 pc=000000000099433e..00000000009946d0
  DW_CFA_advance_loc: 1 to 000000000099433f
  DW_CFA_def_cfa_offset: 16
  DW_CFA_offset: r6 (rbp) at cfa-16
  DW_CFA_advance_loc: 3 to 0000000000994342
  DW_CFA_def_cfa_register: r6 (rbp)
  DW_CFA_advance_loc2: 909 to 00000000009946cf
  DW_CFA_def_cfa: r7 (rsp) ofs 8
  DW_CFA_nop

00011e14 000000000000001c 00011e18 FDE cie=00000000 pc=00000000009946d0..00000000009947b7
  DW_CFA_advance_loc: 1 to 00000000009946d1
  DW_CFA_def_cfa_offset: 16
  DW_CFA_offset: r6 (rbp) at cfa-16
  DW_CFA_advance_loc: 3 to 00000000009946d4
  DW_CFA_def_cfa_register: r6 (rbp)
  DW_CFA_advance_loc1: 226 to 00000000009947b6
  DW_CFA_def_cfa: r7 (rsp) ofs 8
  DW_CFA_nop
  DW_CFA_nop

00011e34 000000000000001c 00011e38 FDE cie=00000000 pc=00000000009947b7..0000000000994928
  DW_CFA_advance_loc: 1 to 00000000009947b8
  DW_CFA_def_cfa_offset: 16
  DW_CFA_offset: r6 (rbp) at cfa-16
  DW_CFA_advance_loc: 3 to 00000000009947bb
  DW_CFA_def_cfa_register: r6 (rbp)
  DW_CFA_advance_loc2: 364 to 0000000000994927
  DW_CFA_def_cfa: r7 (rsp) ofs 8
  DW_CFA_nop

00011e54 000000000000001c 00011e58 FDE cie=00000000 pc=0000000000994928..0000000000994b2e
  DW_CFA_advance_loc: 1 to 0000000000994929
  DW_CFA_def_cfa_offset: 16
  DW_CFA_offset: r6 (rbp) at cfa-16
  DW_CFA_advance_loc: 3 to 000000000099492c
  DW_CFA_def_cfa_register: r6 (rbp)
  DW_CFA_advance_loc2: 513 to 0000000000994b2d
  DW_CFA_def_cfa: r7 (rsp) ofs 8
  DW_CFA_nop

00011e74 000000000000001c 00011e78 FDE cie=00000000 pc=0000000000994b2e..0000000000994b86
  DW_CFA_advance_loc: 1 to 0000000000994b2f
  DW_CFA_def_cfa_offset: 16
  DW_CFA_offset: r6 (rbp) at cfa-16
  DW_CFA_advance_loc: 3 to 0000000000994b32
  DW_CFA_def_cfa_register: r6 (rbp)
  DW_CFA_advance_loc1: 83 to 0000000000994b85
  DW_CFA_def_cfa: r7 (rsp) ofs 8
  DW_CFA_nop
  DW_CFA_nop

00011e94 000000000000001c 00011e98 FDE cie=00000000 pc=0000000000994b86..0000000000994bf3
  DW_CFA_advance_loc: 1 to 0000000000994b87
  DW_CFA_def_cfa_offset: 16
  DW_CFA_offset: r6 (rbp) at cfa-16
  DW_CFA_advance_loc: 3 to 0000000000994b8a
  DW_CFA_def_cfa_register: r6 (rbp)
  DW_CFA_advance_loc1: 104 to 0000000000994bf2
  DW_CFA_def_cfa: r7 (rsp) ofs 8
  DW_CFA_nop
  DW_CFA_nop

00011eb4 000000000000001c 00011eb8 FDE cie=00000000 pc=0000000000994bf3..0000000000994dbe
  DW_CFA_advance_loc: 1 to 0000000000994bf4
  DW_CFA_def_cfa_offset: 16
  DW_CFA_offset: r6 (rbp) at cfa-16
  DW_CFA_advance_loc: 3 to 0000000000994bf7
  DW_CFA_def_cfa_register: r6 (rbp)
  DW_CFA_advance_loc2: 454 to 0000000000994dbd
  DW_CFA_def_cfa: r7 (rsp) ofs 8
  DW_CFA_nop

00011ed4 000000000000001c 00011ed8 FDE cie=00000000 pc=0000000000994dbe..0000000000994f62
  DW_CFA_advance_loc: 1 to 0000000000994dbf
  DW_CFA_def_cfa_offset: 16
  DW_CFA_offset: r6 (rbp) at cfa-16
  DW_CFA_advance_loc: 3 to 0000000000994dc2
  DW_CFA_def_cfa_register: r6 (rbp)
  DW_CFA_advance_loc2: 415 to 0000000000994f61
  DW_CFA_def_cfa: r7 (rsp) ofs 8
  DW_CFA_nop

00011ef4 000000000000001c 00011ef8 FDE cie=00000000 pc=0000000000994f62..0000000000995664
  DW_CFA_advance_loc: 1 to 0000000000994f63
  DW_CFA_def_cfa_offset: 16
  DW_CFA_offset: r6 (rbp) at cfa-16
  DW_CFA_advance_loc: 3 to 0000000000994f66
  DW_CFA_def_cfa_register: r6 (rbp)
  DW_CFA_advance_loc2: 1789 to 0000000000995663
  DW_CFA_def_cfa: r7 (rsp) ofs 8
  DW_CFA_nop

00011f14 000000000000001c 00011f18 FDE cie=00000000 pc=0000000000995664..0000000000995921
  DW_CFA_advance_loc: 1 to 0000000000995665
  DW_CFA_def_cfa_offset: 16
  DW_CFA_offset: r6 (rbp) at cfa-16
  DW_CFA_advance_loc: 3 to 0000000000995668
  DW_CFA_def_cfa_register: r6 (rbp)
  DW_CFA_advance_loc2: 696 to 0000000000995920
  DW_CFA_def_cfa: r7 (rsp) ofs 8
  DW_CFA_nop

00011f34 000000000000001c 00011f38 FDE cie=00000000 pc=0000000000995921..0000000000996085
  DW_CFA_advance_loc: 1 to 0000000000995922
  DW_CFA_def_cfa_offset: 16
  DW_CFA_offset: r6 (rbp) at cfa-16
  DW_CFA_advance_loc: 3 to 0000000000995925
  DW_CFA_def_cfa_register: r6 (rbp)
  DW_CFA_advance_loc2: 1887 to 0000000000996084
  DW_CFA_def_cfa: r7 (rsp) ofs 8
  DW_CFA_nop

00011f54 000000000000001c 00011f58 FDE cie=00000000 pc=0000000000996085..00000000009960e8
  DW_CFA_advance_loc: 1 to 0000000000996086
  DW_CFA_def_cfa_offset: 16
  DW_CFA_offset: r6 (rbp) at cfa-16
  DW_CFA_advance_loc: 3 to 0000000000996089
  DW_CFA_def_cfa_register: r6 (rbp)
  DW_CFA_advance_loc1: 94 to 00000000009960e7
  DW_CFA_def_cfa: r7 (rsp) ofs 8
  DW_CFA_nop
  DW_CFA_nop

00011f74 000000000000001c 00011f78 FDE cie=00000000 pc=00000000009960e8..000000000099619e
  DW_CFA_advance_loc: 1 to 00000000009960e9
  DW_CFA_def_cfa_offset: 16
  DW_CFA_offset: r6 (rbp) at cfa-16
  DW_CFA_advance_loc: 3 to 00000000009960ec
  DW_CFA_def_cfa_register: r6 (rbp)
  DW_CFA_advance_loc1: 177 to 000000000099619d
  DW_CFA_def_cfa: r7 (rsp) ofs 8
  DW_CFA_nop
  DW_CFA_nop

00011f94 000000000000001c 00011f98 FDE cie=00000000 pc=000000000099619e..00000000009961f6
  DW_CFA_advance_loc: 1 to 000000000099619f
  DW_CFA_def_cfa_offset: 16
  DW_CFA_offset: r6 (rbp) at cfa-16
  DW_CFA_advance_loc: 3 to 00000000009961a2
  DW_CFA_def_cfa_register: r6 (rbp)
  DW_CFA_advance_loc1: 83 to 00000000009961f5
  DW_CFA_def_cfa: r7 (rsp) ofs 8
  DW_CFA_nop
  DW_CFA_nop

00011fb4 000000000000001c 00011fb8 FDE cie=00000000 pc=00000000009961f6..0000000000996367
  DW_CFA_advance_loc: 1 to 00000000009961f7
  DW_CFA_def_cfa_offset: 16
  DW_CFA_offset: r6 (rbp) at cfa-16
  DW_CFA_advance_loc: 3 to 00000000009961fa
  DW_CFA_def_cfa_register: r6 (rbp)
  DW_CFA_advance_loc2: 364 to 0000000000996366
  DW_CFA_def_cfa: r7 (rsp) ofs 8
  DW_CFA_nop

00011fd4 000000000000001c 00011fd8 FDE cie=00000000 pc=0000000000996367..000000000099643b
  DW_CFA_advance_loc: 1 to 0000000000996368
  DW_CFA_def_cfa_offset: 16
  DW_CFA_offset: r6 (rbp) at cfa-16
  DW_CFA_advance_loc: 3 to 000000000099636b
  DW_CFA_def_cfa_register: r6 (rbp)
  DW_CFA_advance_loc1: 207 to 000000000099643a
  DW_CFA_def_cfa: r7 (rsp) ofs 8
  DW_CFA_nop
  DW_CFA_nop

00011ff4 000000000000001c 00011ff8 FDE cie=00000000 pc=000000000099643b..000000000099656b
  DW_CFA_advance_loc: 1 to 000000000099643c
  DW_CFA_def_cfa_offset: 16
  DW_CFA_offset: r6 (rbp) at cfa-16
  DW_CFA_advance_loc: 3 to 000000000099643f
  DW_CFA_def_cfa_register: r6 (rbp)
  DW_CFA_advance_loc2: 299 to 000000000099656a
  DW_CFA_def_cfa: r7 (rsp) ofs 8
  DW_CFA_nop

00012014 000000000000001c 00012018 FDE cie=00000000 pc=000000000099656b..00000000009965c3
  DW_CFA_advance_loc: 1 to 000000000099656c
  DW_CFA_def_cfa_offset: 16
  DW_CFA_offset: r6 (rbp) at cfa-16
  DW_CFA_advance_loc: 3 to 000000000099656f
  DW_CFA_def_cfa_register: r6 (rbp)
  DW_CFA_advance_loc1: 83 to 00000000009965c2
  DW_CFA_def_cfa: r7 (rsp) ofs 8
  DW_CFA_nop
  DW_CFA_nop

00012034 000000000000001c 00012038 FDE cie=00000000 pc=00000000009965c3..0000000000996a45
  DW_CFA_advance_loc: 1 to 00000000009965c4
  DW_CFA_def_cfa_offset: 16
  DW_CFA_offset: r6 (rbp) at cfa-16
  DW_CFA_advance_loc: 3 to 00000000009965c7
  DW_CFA_def_cfa_register: r6 (rbp)
  DW_CFA_advance_loc2: 1149 to 0000000000996a44
  DW_CFA_def_cfa: r7 (rsp) ofs 8
  DW_CFA_nop

00012054 000000000000001c 00012058 FDE cie=00000000 pc=0000000000996a45..0000000000996c20
  DW_CFA_advance_loc: 1 to 0000000000996a46
  DW_CFA_def_cfa_offset: 16
  DW_CFA_offset: r6 (rbp) at cfa-16
  DW_CFA_advance_loc: 3 to 0000000000996a49
  DW_CFA_def_cfa_register: r6 (rbp)
  DW_CFA_advance_loc2: 470 to 0000000000996c1f
  DW_CFA_def_cfa: r7 (rsp) ofs 8
  DW_CFA_nop

00012074 000000000000001c 00012078 FDE cie=00000000 pc=0000000000996c20..0000000000996e38
  DW_CFA_advance_loc: 1 to 0000000000996c21
  DW_CFA_def_cfa_offset: 16
  DW_CFA_offset: r6 (rbp) at cfa-16
  DW_CFA_advance_loc: 3 to 0000000000996c24
  DW_CFA_def_cfa_register: r6 (rbp)
  DW_CFA_advance_loc2: 531 to 0000000000996e37
  DW_CFA_def_cfa: r7 (rsp) ofs 8
  DW_CFA_nop

00012094 000000000000001c 00012098 FDE cie=00000000 pc=0000000000996e38..0000000000996eb5
  DW_CFA_advance_loc: 1 to 0000000000996e39
  DW_CFA_def_cfa_offset: 16
  DW_CFA_offset: r6 (rbp) at cfa-16
  DW_CFA_advance_loc: 3 to 0000000000996e3c
  DW_CFA_def_cfa_register: r6 (rbp)
  DW_CFA_advance_loc1: 120 to 0000000000996eb4
  DW_CFA_def_cfa: r7 (rsp) ofs 8
  DW_CFA_nop
  DW_CFA_nop

000120b4 000000000000001c 000120b8 FDE cie=00000000 pc=0000000000996eb5..0000000000997083
  DW_CFA_advance_loc: 1 to 0000000000996eb6
  DW_CFA_def_cfa_offset: 16
  DW_CFA_offset: r6 (rbp) at cfa-16
  DW_CFA_advance_loc: 3 to 0000000000996eb9
  DW_CFA_def_cfa_register: r6 (rbp)
  DW_CFA_advance_loc2: 457 to 0000000000997082
  DW_CFA_def_cfa: r7 (rsp) ofs 8
  DW_CFA_nop

000120d4 000000000000001c 000120d8 FDE cie=00000000 pc=0000000000997083..00000000009971ad
  DW_CFA_advance_loc: 1 to 0000000000997084
  DW_CFA_def_cfa_offset: 16
  DW_CFA_offset: r6 (rbp) at cfa-16
  DW_CFA_advance_loc: 3 to 0000000000997087
  DW_CFA_def_cfa_register: r6 (rbp)
  DW_CFA_advance_loc2: 293 to 00000000009971ac
  DW_CFA_def_cfa: r7 (rsp) ofs 8
  DW_CFA_nop

000120f4 000000000000001c 000120f8 FDE cie=00000000 pc=00000000009971ad..000000000099731b
  DW_CFA_advance_loc: 1 to 00000000009971ae
  DW_CFA_def_cfa_offset: 16
  DW_CFA_offset: r6 (rbp) at cfa-16
  DW_CFA_advance_loc: 3 to 00000000009971b1
  DW_CFA_def_cfa_register: r6 (rbp)
  DW_CFA_advance_loc2: 361 to 000000000099731a
  DW_CFA_def_cfa: r7 (rsp) ofs 8
  DW_CFA_nop

00012114 000000000000001c 00012118 FDE cie=00000000 pc=000000000099731b..0000000000997398
  DW_CFA_advance_loc: 1 to 000000000099731c
  DW_CFA_def_cfa_offset: 16
  DW_CFA_offset: r6 (rbp) at cfa-16
  DW_CFA_advance_loc: 3 to 000000000099731f
  DW_CFA_def_cfa_register: r6 (rbp)
  DW_CFA_advance_loc1: 120 to 0000000000997397
  DW_CFA_def_cfa: r7 (rsp) ofs 8
  DW_CFA_nop
  DW_CFA_nop

00012134 000000000000001c 00012138 FDE cie=00000000 pc=0000000000997398..0000000000997413
  DW_CFA_advance_loc: 1 to 0000000000997399
  DW_CFA_def_cfa_offset: 16
  DW_CFA_offset: r6 (rbp) at cfa-16
  DW_CFA_advance_loc: 3 to 000000000099739c
  DW_CFA_def_cfa_register: r6 (rbp)
  DW_CFA_advance_loc1: 118 to 0000000000997412
  DW_CFA_def_cfa: r7 (rsp) ofs 8
  DW_CFA_nop
  DW_CFA_nop

00012154 000000000000001c 00012158 FDE cie=00000000 pc=0000000000997413..000000000099774c
  DW_CFA_advance_loc: 1 to 0000000000997414
  DW_CFA_def_cfa_offset: 16
  DW_CFA_offset: r6 (rbp) at cfa-16
  DW_CFA_advance_loc: 3 to 0000000000997417
  DW_CFA_def_cfa_register: r6 (rbp)
  DW_CFA_advance_loc2: 820 to 000000000099774b
  DW_CFA_def_cfa: r7 (rsp) ofs 8
  DW_CFA_nop

00012174 000000000000001c 00012178 FDE cie=00000000 pc=000000000099774c..0000000000997950
  DW_CFA_advance_loc: 1 to 000000000099774d
  DW_CFA_def_cfa_offset: 16
  DW_CFA_offset: r6 (rbp) at cfa-16
  DW_CFA_advance_loc: 3 to 0000000000997750
  DW_CFA_def_cfa_register: r6 (rbp)
  DW_CFA_advance_loc2: 511 to 000000000099794f
  DW_CFA_def_cfa: r7 (rsp) ofs 8
  DW_CFA_nop

00012194 000000000000001c 00012198 FDE cie=00000000 pc=0000000000997950..0000000000997c0f
  DW_CFA_advance_loc: 1 to 0000000000997951
  DW_CFA_def_cfa_offset: 16
  DW_CFA_offset: r6 (rbp) at cfa-16
  DW_CFA_advance_loc: 3 to 0000000000997954
  DW_CFA_def_cfa_register: r6 (rbp)
  DW_CFA_advance_loc2: 698 to 0000000000997c0e
  DW_CFA_def_cfa: r7 (rsp) ofs 8
  DW_CFA_nop

000121b4 000000000000001c 000121b8 FDE cie=00000000 pc=0000000000997c0f..0000000000997c38
  DW_CFA_advance_loc: 1 to 0000000000997c10
  DW_CFA_def_cfa_offset: 16
  DW_CFA_offset: r6 (rbp) at cfa-16
  DW_CFA_advance_loc: 3 to 0000000000997c13
  DW_CFA_def_cfa_register: r6 (rbp)
  DW_CFA_advance_loc: 36 to 0000000000997c37
  DW_CFA_def_cfa: r7 (rsp) ofs 8
  DW_CFA_nop
  DW_CFA_nop
  DW_CFA_nop

000121d4 000000000000001c 000121d8 FDE cie=00000000 pc=0000000000997c38..0000000000997cfc
  DW_CFA_advance_loc: 1 to 0000000000997c39
  DW_CFA_def_cfa_offset: 16
  DW_CFA_offset: r6 (rbp) at cfa-16
  DW_CFA_advance_loc: 3 to 0000000000997c3c
  DW_CFA_def_cfa_register: r6 (rbp)
  DW_CFA_advance_loc1: 191 to 0000000000997cfb
  DW_CFA_def_cfa: r7 (rsp) ofs 8
  DW_CFA_nop
  DW_CFA_nop

000121f4 000000000000001c 000121f8 FDE cie=00000000 pc=0000000000997cfc..0000000000997d79
  DW_CFA_advance_loc: 1 to 0000000000997cfd
  DW_CFA_def_cfa_offset: 16
  DW_CFA_offset: r6 (rbp) at cfa-16
  DW_CFA_advance_loc: 3 to 0000000000997d00
  DW_CFA_def_cfa_register: r6 (rbp)
  DW_CFA_advance_loc1: 120 to 0000000000997d78
  DW_CFA_def_cfa: r7 (rsp) ofs 8
  DW_CFA_nop
  DW_CFA_nop

00012214 000000000000001c 00012218 FDE cie=00000000 pc=0000000000997d79..0000000000997df4
  DW_CFA_advance_loc: 1 to 0000000000997d7a
  DW_CFA_def_cfa_offset: 16
  DW_CFA_offset: r6 (rbp) at cfa-16
  DW_CFA_advance_loc: 3 to 0000000000997d7d
  DW_CFA_def_cfa_register: r6 (rbp)
  DW_CFA_advance_loc1: 118 to 0000000000997df3
  DW_CFA_def_cfa: r7 (rsp) ofs 8
  DW_CFA_nop
  DW_CFA_nop

00012234 000000000000001c 00012238 FDE cie=00000000 pc=0000000000997df4..000000000099811c
  DW_CFA_advance_loc: 1 to 0000000000997df5
  DW_CFA_def_cfa_offset: 16
  DW_CFA_offset: r6 (rbp) at cfa-16
  DW_CFA_advance_loc: 3 to 0000000000997df8
  DW_CFA_def_cfa_register: r6 (rbp)
  DW_CFA_advance_loc2: 803 to 000000000099811b
  DW_CFA_def_cfa: r7 (rsp) ofs 8
  DW_CFA_nop

00012254 000000000000001c 00012258 FDE cie=00000000 pc=000000000099811c..0000000000998307
  DW_CFA_advance_loc: 1 to 000000000099811d
  DW_CFA_def_cfa_offset: 16
  DW_CFA_offset: r6 (rbp) at cfa-16
  DW_CFA_advance_loc: 3 to 0000000000998120
  DW_CFA_def_cfa_register: r6 (rbp)
  DW_CFA_advance_loc2: 486 to 0000000000998306
  DW_CFA_def_cfa: r7 (rsp) ofs 8
  DW_CFA_nop

00012274 000000000000001c 00012278 FDE cie=00000000 pc=0000000000998307..00000000009985b8
  DW_CFA_advance_loc: 1 to 0000000000998308
  DW_CFA_def_cfa_offset: 16
  DW_CFA_offset: r6 (rbp) at cfa-16
  DW_CFA_advance_loc: 3 to 000000000099830b
  DW_CFA_def_cfa_register: r6 (rbp)
  DW_CFA_advance_loc2: 684 to 00000000009985b7
  DW_CFA_def_cfa: r7 (rsp) ofs 8
  DW_CFA_nop

00012294 000000000000001c 00012298 FDE cie=00000000 pc=00000000009985b8..00000000009985e1
  DW_CFA_advance_loc: 1 to 00000000009985b9
  DW_CFA_def_cfa_offset: 16
  DW_CFA_offset: r6 (rbp) at cfa-16
  DW_CFA_advance_loc: 3 to 00000000009985bc
  DW_CFA_def_cfa_register: r6 (rbp)
  DW_CFA_advance_loc: 36 to 00000000009985e0
  DW_CFA_def_cfa: r7 (rsp) ofs 8
  DW_CFA_nop
  DW_CFA_nop
  DW_CFA_nop

000122b4 000000000000001c 000122b8 FDE cie=00000000 pc=00000000009985e1..000000000099869c
  DW_CFA_advance_loc: 1 to 00000000009985e2
  DW_CFA_def_cfa_offset: 16
  DW_CFA_offset: r6 (rbp) at cfa-16
  DW_CFA_advance_loc: 3 to 00000000009985e5
  DW_CFA_def_cfa_register: r6 (rbp)
  DW_CFA_advance_loc1: 182 to 000000000099869b
  DW_CFA_def_cfa: r7 (rsp) ofs 8
  DW_CFA_nop
  DW_CFA_nop

000122d4 000000000000001c 000122d8 FDE cie=00000000 pc=000000000099869c..0000000000998719
  DW_CFA_advance_loc: 1 to 000000000099869d
  DW_CFA_def_cfa_offset: 16
  DW_CFA_offset: r6 (rbp) at cfa-16
  DW_CFA_advance_loc: 3 to 00000000009986a0
  DW_CFA_def_cfa_register: r6 (rbp)
  DW_CFA_advance_loc1: 120 to 0000000000998718
  DW_CFA_def_cfa: r7 (rsp) ofs 8
  DW_CFA_nop
  DW_CFA_nop

000122f4 000000000000001c 000122f8 FDE cie=00000000 pc=0000000000998719..0000000000998776
  DW_CFA_advance_loc: 1 to 000000000099871a
  DW_CFA_def_cfa_offset: 16
  DW_CFA_offset: r6 (rbp) at cfa-16
  DW_CFA_advance_loc: 3 to 000000000099871d
  DW_CFA_def_cfa_register: r6 (rbp)
  DW_CFA_advance_loc1: 88 to 0000000000998775
  DW_CFA_def_cfa: r7 (rsp) ofs 8
  DW_CFA_nop
  DW_CFA_nop

00012314 000000000000001c 00012318 FDE cie=00000000 pc=0000000000998776..000000000099883c
  DW_CFA_advance_loc: 1 to 0000000000998777
  DW_CFA_def_cfa_offset: 16
  DW_CFA_offset: r6 (rbp) at cfa-16
  DW_CFA_advance_loc: 3 to 000000000099877a
  DW_CFA_def_cfa_register: r6 (rbp)
  DW_CFA_advance_loc1: 193 to 000000000099883b
  DW_CFA_def_cfa: r7 (rsp) ofs 8
  DW_CFA_nop
  DW_CFA_nop

00012334 000000000000001c 00012338 FDE cie=00000000 pc=000000000099883c..00000000009988c6
  DW_CFA_advance_loc: 1 to 000000000099883d
  DW_CFA_def_cfa_offset: 16
  DW_CFA_offset: r6 (rbp) at cfa-16
  DW_CFA_advance_loc: 3 to 0000000000998840
  DW_CFA_def_cfa_register: r6 (rbp)
  DW_CFA_advance_loc1: 133 to 00000000009988c5
  DW_CFA_def_cfa: r7 (rsp) ofs 8
  DW_CFA_nop
  DW_CFA_nop

00012354 000000000000001c 00012358 FDE cie=00000000 pc=00000000009988c6..0000000000998f97
  DW_CFA_advance_loc: 1 to 00000000009988c7
  DW_CFA_def_cfa_offset: 16
  DW_CFA_offset: r6 (rbp) at cfa-16
  DW_CFA_advance_loc: 3 to 00000000009988ca
  DW_CFA_def_cfa_register: r6 (rbp)
  DW_CFA_advance_loc2: 1740 to 0000000000998f96
  DW_CFA_def_cfa: r7 (rsp) ofs 8
  DW_CFA_nop

00012374 000000000000001c 00012378 FDE cie=00000000 pc=0000000000998f97..0000000000998fa9
  DW_CFA_advance_loc: 1 to 0000000000998f98
  DW_CFA_def_cfa_offset: 16
  DW_CFA_offset: r6 (rbp) at cfa-16
  DW_CFA_advance_loc: 3 to 0000000000998f9b
  DW_CFA_def_cfa_register: r6 (rbp)
  DW_CFA_advance_loc: 13 to 0000000000998fa8
  DW_CFA_def_cfa: r7 (rsp) ofs 8
  DW_CFA_nop
  DW_CFA_nop
  DW_CFA_nop

00012394 000000000000001c 00012398 FDE cie=00000000 pc=0000000000998fa9..0000000000998fc6
  DW_CFA_advance_loc: 1 to 0000000000998faa
  DW_CFA_def_cfa_offset: 16
  DW_CFA_offset: r6 (rbp) at cfa-16
  DW_CFA_advance_loc: 3 to 0000000000998fad
  DW_CFA_def_cfa_register: r6 (rbp)
  DW_CFA_advance_loc: 24 to 0000000000998fc5
  DW_CFA_def_cfa: r7 (rsp) ofs 8
  DW_CFA_nop
  DW_CFA_nop
  DW_CFA_nop

000123b4 000000000000001c 000123b8 FDE cie=00000000 pc=0000000000998fc6..0000000000998ff1
  DW_CFA_advance_loc: 1 to 0000000000998fc7
  DW_CFA_def_cfa_offset: 16
  DW_CFA_offset: r6 (rbp) at cfa-16
  DW_CFA_advance_loc: 3 to 0000000000998fca
  DW_CFA_def_cfa_register: r6 (rbp)
  DW_CFA_advance_loc: 38 to 0000000000998ff0
  DW_CFA_def_cfa: r7 (rsp) ofs 8
  DW_CFA_nop
  DW_CFA_nop
  DW_CFA_nop

000123d4 000000000000001c 000123d8 FDE cie=00000000 pc=0000000000998ff1..0000000000999121
  DW_CFA_advance_loc: 1 to 0000000000998ff2
  DW_CFA_def_cfa_offset: 16
  DW_CFA_offset: r6 (rbp) at cfa-16
  DW_CFA_advance_loc: 3 to 0000000000998ff5
  DW_CFA_def_cfa_register: r6 (rbp)
  DW_CFA_advance_loc2: 299 to 0000000000999120
  DW_CFA_def_cfa: r7 (rsp) ofs 8
  DW_CFA_nop

000123f4 000000000000001c 000123f8 FDE cie=00000000 pc=0000000000999121..000000000099924f
  DW_CFA_advance_loc: 1 to 0000000000999122
  DW_CFA_def_cfa_offset: 16
  DW_CFA_offset: r6 (rbp) at cfa-16
  DW_CFA_advance_loc: 3 to 0000000000999125
  DW_CFA_def_cfa_register: r6 (rbp)
  DW_CFA_advance_loc2: 297 to 000000000099924e
  DW_CFA_def_cfa: r7 (rsp) ofs 8
  DW_CFA_nop

00012414 000000000000001c 00012418 FDE cie=00000000 pc=000000000099924f..0000000000999368
  DW_CFA_advance_loc: 1 to 0000000000999250
  DW_CFA_def_cfa_offset: 16
  DW_CFA_offset: r6 (rbp) at cfa-16
  DW_CFA_advance_loc: 3 to 0000000000999253
  DW_CFA_def_cfa_register: r6 (rbp)
  DW_CFA_advance_loc2: 276 to 0000000000999367
  DW_CFA_def_cfa: r7 (rsp) ofs 8
  DW_CFA_nop

00012434 000000000000001c 00012438 FDE cie=00000000 pc=0000000000999368..00000000009994d6
  DW_CFA_advance_loc: 1 to 0000000000999369
  DW_CFA_def_cfa_offset: 16
  DW_CFA_offset: r6 (rbp) at cfa-16
  DW_CFA_advance_loc: 3 to 000000000099936c
  DW_CFA_def_cfa_register: r6 (rbp)
  DW_CFA_advance_loc2: 361 to 00000000009994d5
  DW_CFA_def_cfa: r7 (rsp) ofs 8
  DW_CFA_nop

00012454 000000000000001c 00012458 FDE cie=00000000 pc=00000000009994d6..0000000000999659
  DW_CFA_advance_loc: 1 to 00000000009994d7
  DW_CFA_def_cfa_offset: 16
  DW_CFA_offset: r6 (rbp) at cfa-16
  DW_CFA_advance_loc: 3 to 00000000009994da
  DW_CFA_def_cfa_register: r6 (rbp)
  DW_CFA_advance_loc2: 382 to 0000000000999658
  DW_CFA_def_cfa: r7 (rsp) ofs 8
  DW_CFA_nop

00012474 000000000000001c 00012478 FDE cie=00000000 pc=0000000000999659..0000000000999754
  DW_CFA_advance_loc: 1 to 000000000099965a
  DW_CFA_def_cfa_offset: 16
  DW_CFA_offset: r6 (rbp) at cfa-16
  DW_CFA_advance_loc: 3 to 000000000099965d
  DW_CFA_def_cfa_register: r6 (rbp)
  DW_CFA_advance_loc1: 246 to 0000000000999753
  DW_CFA_def_cfa: r7 (rsp) ofs 8
  DW_CFA_nop
  DW_CFA_nop

00012494 000000000000001c 00012498 FDE cie=00000000 pc=0000000000999754..000000000099995a
  DW_CFA_advance_loc: 1 to 0000000000999755
  DW_CFA_def_cfa_offset: 16
  DW_CFA_offset: r6 (rbp) at cfa-16
  DW_CFA_advance_loc: 3 to 0000000000999758
  DW_CFA_def_cfa_register: r6 (rbp)
  DW_CFA_advance_loc2: 513 to 0000000000999959
  DW_CFA_def_cfa: r7 (rsp) ofs 8
  DW_CFA_nop

000124b4 000000000000001c 000124b8 FDE cie=00000000 pc=000000000099995a..00000000009999f6
  DW_CFA_advance_loc: 1 to 000000000099995b
  DW_CFA_def_cfa_offset: 16
  DW_CFA_offset: r6 (rbp) at cfa-16
  DW_CFA_advance_loc: 3 to 000000000099995e
  DW_CFA_def_cfa_register: r6 (rbp)
  DW_CFA_advance_loc1: 151 to 00000000009999f5
  DW_CFA_def_cfa: r7 (rsp) ofs 8
  DW_CFA_nop
  DW_CFA_nop

000124d4 000000000000001c 000124d8 FDE cie=00000000 pc=00000000009999f6..0000000000999b5b
  DW_CFA_advance_loc: 1 to 00000000009999f7
  DW_CFA_def_cfa_offset: 16
  DW_CFA_offset: r6 (rbp) at cfa-16
  DW_CFA_advance_loc: 3 to 00000000009999fa
  DW_CFA_def_cfa_register: r6 (rbp)
  DW_CFA_advance_loc2: 352 to 0000000000999b5a
  DW_CFA_def_cfa: r7 (rsp) ofs 8
  DW_CFA_nop

000124f4 000000000000001c 000124f8 FDE cie=00000000 pc=0000000000999b5b..0000000000999c9c
  DW_CFA_advance_loc: 1 to 0000000000999b5c
  DW_CFA_def_cfa_offset: 16
  DW_CFA_offset: r6 (rbp) at cfa-16
  DW_CFA_advance_loc: 3 to 0000000000999b5f
  DW_CFA_def_cfa_register: r6 (rbp)
  DW_CFA_advance_loc2: 316 to 0000000000999c9b
  DW_CFA_def_cfa: r7 (rsp) ofs 8
  DW_CFA_nop

00012514 000000000000001c 00012518 FDE cie=00000000 pc=0000000000999c9c..000000000099a33b
  DW_CFA_advance_loc: 1 to 0000000000999c9d
  DW_CFA_def_cfa_offset: 16
  DW_CFA_offset: r6 (rbp) at cfa-16
  DW_CFA_advance_loc: 3 to 0000000000999ca0
  DW_CFA_def_cfa_register: r6 (rbp)
  DW_CFA_advance_loc2: 1690 to 000000000099a33a
  DW_CFA_def_cfa: r7 (rsp) ofs 8
  DW_CFA_nop

00012534 000000000000001c 00012538 FDE cie=00000000 pc=000000000099a33b..000000000099a7ca
  DW_CFA_advance_loc: 1 to 000000000099a33c
  DW_CFA_def_cfa_offset: 16
  DW_CFA_offset: r6 (rbp) at cfa-16
  DW_CFA_advance_loc: 3 to 000000000099a33f
  DW_CFA_def_cfa_register: r6 (rbp)
  DW_CFA_advance_loc2: 1162 to 000000000099a7c9
  DW_CFA_def_cfa: r7 (rsp) ofs 8
  DW_CFA_nop

00012554 000000000000001c 00012558 FDE cie=00000000 pc=000000000099a7ca..000000000099a808
  DW_CFA_advance_loc: 1 to 000000000099a7cb
  DW_CFA_def_cfa_offset: 16
  DW_CFA_offset: r6 (rbp) at cfa-16
  DW_CFA_advance_loc: 3 to 000000000099a7ce
  DW_CFA_def_cfa_register: r6 (rbp)
  DW_CFA_advance_loc: 57 to 000000000099a807
  DW_CFA_def_cfa: r7 (rsp) ofs 8
  DW_CFA_nop
  DW_CFA_nop
  DW_CFA_nop

00012574 000000000000001c 00012578 FDE cie=00000000 pc=000000000099a808..000000000099abf6
  DW_CFA_advance_loc: 1 to 000000000099a809
  DW_CFA_def_cfa_offset: 16
  DW_CFA_offset: r6 (rbp) at cfa-16
  DW_CFA_advance_loc: 3 to 000000000099a80c
  DW_CFA_def_cfa_register: r6 (rbp)
  DW_CFA_advance_loc2: 1001 to 000000000099abf5
  DW_CFA_def_cfa: r7 (rsp) ofs 8
  DW_CFA_nop

00012594 000000000000001c 00012598 FDE cie=00000000 pc=000000000099abf6..000000000099ac67
  DW_CFA_advance_loc: 1 to 000000000099abf7
  DW_CFA_def_cfa_offset: 16
  DW_CFA_offset: r6 (rbp) at cfa-16
  DW_CFA_advance_loc: 3 to 000000000099abfa
  DW_CFA_def_cfa_register: r6 (rbp)
  DW_CFA_advance_loc1: 108 to 000000000099ac66
  DW_CFA_def_cfa: r7 (rsp) ofs 8
  DW_CFA_nop
  DW_CFA_nop

000125b4 000000000000001c 000125b8 FDE cie=00000000 pc=000000000099ac67..000000000099b063
  DW_CFA_advance_loc: 1 to 000000000099ac68
  DW_CFA_def_cfa_offset: 16
  DW_CFA_offset: r6 (rbp) at cfa-16
  DW_CFA_advance_loc: 3 to 000000000099ac6b
  DW_CFA_def_cfa_register: r6 (rbp)
  DW_CFA_advance_loc2: 1015 to 000000000099b062
  DW_CFA_def_cfa: r7 (rsp) ofs 8
  DW_CFA_nop

000125d4 000000000000001c 000125d8 FDE cie=00000000 pc=000000000099b063..000000000099b197
  DW_CFA_advance_loc: 1 to 000000000099b064
  DW_CFA_def_cfa_offset: 16
  DW_CFA_offset: r6 (rbp) at cfa-16
  DW_CFA_advance_loc: 3 to 000000000099b067
  DW_CFA_def_cfa_register: r6 (rbp)
  DW_CFA_advance_loc2: 303 to 000000000099b196
  DW_CFA_def_cfa: r7 (rsp) ofs 8
  DW_CFA_nop

000125f4 000000000000001c 000125f8 FDE cie=00000000 pc=000000000099b197..000000000099b2a8
  DW_CFA_advance_loc: 1 to 000000000099b198
  DW_CFA_def_cfa_offset: 16
  DW_CFA_offset: r6 (rbp) at cfa-16
  DW_CFA_advance_loc: 3 to 000000000099b19b
  DW_CFA_def_cfa_register: r6 (rbp)
  DW_CFA_advance_loc2: 268 to 000000000099b2a7
  DW_CFA_def_cfa: r7 (rsp) ofs 8
  DW_CFA_nop

00012614 000000000000001c 00012618 FDE cie=00000000 pc=000000000099b2a8..000000000099b677
  DW_CFA_advance_loc: 1 to 000000000099b2a9
  DW_CFA_def_cfa_offset: 16
  DW_CFA_offset: r6 (rbp) at cfa-16
  DW_CFA_advance_loc: 3 to 000000000099b2ac
  DW_CFA_def_cfa_register: r6 (rbp)
  DW_CFA_advance_loc2: 970 to 000000000099b676
  DW_CFA_def_cfa: r7 (rsp) ofs 8
  DW_CFA_nop

00012634 000000000000001c 00012638 FDE cie=00000000 pc=000000000099b677..000000000099b6de
  DW_CFA_advance_loc: 1 to 000000000099b678
  DW_CFA_def_cfa_offset: 16
  DW_CFA_offset: r6 (rbp) at cfa-16
  DW_CFA_advance_loc: 3 to 000000000099b67b
  DW_CFA_def_cfa_register: r6 (rbp)
  DW_CFA_advance_loc1: 98 to 000000000099b6dd
  DW_CFA_def_cfa: r7 (rsp) ofs 8
  DW_CFA_nop
  DW_CFA_nop

00012654 0000000000000020 00012658 FDE cie=00000000 pc=000000000099b6de..000000000099b9e0
  DW_CFA_advance_loc: 1 to 000000000099b6df
  DW_CFA_def_cfa_offset: 16
  DW_CFA_offset: r6 (rbp) at cfa-16
  DW_CFA_advance_loc: 3 to 000000000099b6e2
  DW_CFA_def_cfa_register: r6 (rbp)
  DW_CFA_advance_loc: 5 to 000000000099b6e7
  DW_CFA_offset: r3 (rbx) at cfa-24
  DW_CFA_advance_loc2: 760 to 000000000099b9df
  DW_CFA_def_cfa: r7 (rsp) ofs 8
  DW_CFA_nop
  DW_CFA_nop

00012678 000000000000001c 0001267c FDE cie=00000000 pc=000000000099b9e0..000000000099bb8c
  DW_CFA_advance_loc: 1 to 000000000099b9e1
  DW_CFA_def_cfa_offset: 16
  DW_CFA_offset: r6 (rbp) at cfa-16
  DW_CFA_advance_loc: 3 to 000000000099b9e4
  DW_CFA_def_cfa_register: r6 (rbp)
  DW_CFA_advance_loc2: 423 to 000000000099bb8b
  DW_CFA_def_cfa: r7 (rsp) ofs 8
  DW_CFA_nop

00012698 000000000000001c 0001269c FDE cie=00000000 pc=000000000099bb8c..000000000099cbec
  DW_CFA_advance_loc: 1 to 000000000099bb8d
  DW_CFA_def_cfa_offset: 16
  DW_CFA_offset: r6 (rbp) at cfa-16
  DW_CFA_advance_loc: 3 to 000000000099bb90
  DW_CFA_def_cfa_register: r6 (rbp)
  DW_CFA_advance_loc2: 4187 to 000000000099cbeb
  DW_CFA_def_cfa: r7 (rsp) ofs 8
  DW_CFA_nop

000126b8 000000000000001c 000126bc FDE cie=00000000 pc=000000000099cbec..000000000099ceeb
  DW_CFA_advance_loc: 1 to 000000000099cbed
  DW_CFA_def_cfa_offset: 16
  DW_CFA_offset: r6 (rbp) at cfa-16
  DW_CFA_advance_loc: 3 to 000000000099cbf0
  DW_CFA_def_cfa_register: r6 (rbp)
  DW_CFA_advance_loc2: 762 to 000000000099ceea
  DW_CFA_def_cfa: r7 (rsp) ofs 8
  DW_CFA_nop

000126d8 000000000000001c 000126dc FDE cie=00000000 pc=000000000099ceeb..000000000099cfed
  DW_CFA_advance_loc: 1 to 000000000099ceec
  DW_CFA_def_cfa_offset: 16
  DW_CFA_offset: r6 (rbp) at cfa-16
  DW_CFA_advance_loc: 3 to 000000000099ceef
  DW_CFA_def_cfa_register: r6 (rbp)
  DW_CFA_advance_loc1: 253 to 000000000099cfec
  DW_CFA_def_cfa: r7 (rsp) ofs 8
  DW_CFA_nop
  DW_CFA_nop

000126f8 000000000000001c 000126fc FDE cie=00000000 pc=000000000099cfed..000000000099d0ba
  DW_CFA_advance_loc: 1 to 000000000099cfee
  DW_CFA_def_cfa_offset: 16
  DW_CFA_offset: r6 (rbp) at cfa-16
  DW_CFA_advance_loc: 3 to 000000000099cff1
  DW_CFA_def_cfa_register: r6 (rbp)
  DW_CFA_advance_loc1: 200 to 000000000099d0b9
  DW_CFA_def_cfa: r7 (rsp) ofs 8
  DW_CFA_nop
  DW_CFA_nop

00012718 000000000000001c 0001271c FDE cie=00000000 pc=000000000099d0ba..000000000099d12c
  DW_CFA_advance_loc: 1 to 000000000099d0bb
  DW_CFA_def_cfa_offset: 16
  DW_CFA_offset: r6 (rbp) at cfa-16
  DW_CFA_advance_loc: 3 to 000000000099d0be
  DW_CFA_def_cfa_register: r6 (rbp)
  DW_CFA_advance_loc1: 109 to 000000000099d12b
  DW_CFA_def_cfa: r7 (rsp) ofs 8
  DW_CFA_nop
  DW_CFA_nop

00012738 000000000000001c 0001273c FDE cie=00000000 pc=000000000099d12c..000000000099d1f9
  DW_CFA_advance_loc: 1 to 000000000099d12d
  DW_CFA_def_cfa_offset: 16
  DW_CFA_offset: r6 (rbp) at cfa-16
  DW_CFA_advance_loc: 3 to 000000000099d130
  DW_CFA_def_cfa_register: r6 (rbp)
  DW_CFA_advance_loc1: 200 to 000000000099d1f8
  DW_CFA_def_cfa: r7 (rsp) ofs 8
  DW_CFA_nop
  DW_CFA_nop

00012758 000000000000001c 0001275c FDE cie=00000000 pc=000000000099d1f9..000000000099d66b
  DW_CFA_advance_loc: 1 to 000000000099d1fa
  DW_CFA_def_cfa_offset: 16
  DW_CFA_offset: r6 (rbp) at cfa-16
  DW_CFA_advance_loc: 3 to 000000000099d1fd
  DW_CFA_def_cfa_register: r6 (rbp)
  DW_CFA_advance_loc2: 1133 to 000000000099d66a
  DW_CFA_def_cfa: r7 (rsp) ofs 8
  DW_CFA_nop

00012778 000000000000001c 0001277c FDE cie=00000000 pc=000000000099d66b..000000000099d71c
  DW_CFA_advance_loc: 1 to 000000000099d66c
  DW_CFA_def_cfa_offset: 16
  DW_CFA_offset: r6 (rbp) at cfa-16
  DW_CFA_advance_loc: 3 to 000000000099d66f
  DW_CFA_def_cfa_register: r6 (rbp)
  DW_CFA_advance_loc1: 172 to 000000000099d71b
  DW_CFA_def_cfa: r7 (rsp) ofs 8
  DW_CFA_nop
  DW_CFA_nop

00012798 000000000000001c 0001279c FDE cie=00000000 pc=000000000099d71c..000000000099d744
  DW_CFA_advance_loc: 1 to 000000000099d71d
  DW_CFA_def_cfa_offset: 16
  DW_CFA_offset: r6 (rbp) at cfa-16
  DW_CFA_advance_loc: 3 to 000000000099d720
  DW_CFA_def_cfa_register: r6 (rbp)
  DW_CFA_advance_loc: 35 to 000000000099d743
  DW_CFA_def_cfa: r7 (rsp) ofs 8
  DW_CFA_nop
  DW_CFA_nop
  DW_CFA_nop

000127b8 000000000000001c 000127bc FDE cie=00000000 pc=000000000099d744..000000000099d75f
  DW_CFA_advance_loc: 1 to 000000000099d745
  DW_CFA_def_cfa_offset: 16
  DW_CFA_offset: r6 (rbp) at cfa-16
  DW_CFA_advance_loc: 3 to 000000000099d748
  DW_CFA_def_cfa_register: r6 (rbp)
  DW_CFA_advance_loc: 22 to 000000000099d75e
  DW_CFA_def_cfa: r7 (rsp) ofs 8
  DW_CFA_nop
  DW_CFA_nop
  DW_CFA_nop

000127d8 000000000000001c 000127dc FDE cie=00000000 pc=000000000099d75f..000000000099d776
  DW_CFA_advance_loc: 1 to 000000000099d760
  DW_CFA_def_cfa_offset: 16
  DW_CFA_offset: r6 (rbp) at cfa-16
  DW_CFA_advance_loc: 3 to 000000000099d763
  DW_CFA_def_cfa_register: r6 (rbp)
  DW_CFA_advance_loc: 18 to 000000000099d775
  DW_CFA_def_cfa: r7 (rsp) ofs 8
  DW_CFA_nop
  DW_CFA_nop
  DW_CFA_nop

000127f8 000000000000001c 000127fc FDE cie=00000000 pc=000000000099d776..000000000099d789
  DW_CFA_advance_loc: 1 to 000000000099d777
  DW_CFA_def_cfa_offset: 16
  DW_CFA_offset: r6 (rbp) at cfa-16
  DW_CFA_advance_loc: 3 to 000000000099d77a
  DW_CFA_def_cfa_register: r6 (rbp)
  DW_CFA_advance_loc: 14 to 000000000099d788
  DW_CFA_def_cfa: r7 (rsp) ofs 8
  DW_CFA_nop
  DW_CFA_nop
  DW_CFA_nop

00012818 000000000000001c 0001281c FDE cie=00000000 pc=000000000099d789..000000000099d794
  DW_CFA_advance_loc: 1 to 000000000099d78a
  DW_CFA_def_cfa_offset: 16
  DW_CFA_offset: r6 (rbp) at cfa-16
  DW_CFA_advance_loc: 3 to 000000000099d78d
  DW_CFA_def_cfa_register: r6 (rbp)
  DW_CFA_advance_loc: 6 to 000000000099d793
  DW_CFA_def_cfa: r7 (rsp) ofs 8
  DW_CFA_nop
  DW_CFA_nop
  DW_CFA_nop

00012838 000000000000001c 0001283c FDE cie=00000000 pc=000000000099d794..000000000099d814
  DW_CFA_advance_loc: 1 to 000000000099d795
  DW_CFA_def_cfa_offset: 16
  DW_CFA_offset: r6 (rbp) at cfa-16
  DW_CFA_advance_loc: 3 to 000000000099d798
  DW_CFA_def_cfa_register: r6 (rbp)
  DW_CFA_advance_loc1: 123 to 000000000099d813
  DW_CFA_def_cfa: r7 (rsp) ofs 8
  DW_CFA_nop
  DW_CFA_nop

00012858 000000000000001c 0001285c FDE cie=00000000 pc=000000000099d814..000000000099d827
  DW_CFA_advance_loc: 1 to 000000000099d815
  DW_CFA_def_cfa_offset: 16
  DW_CFA_offset: r6 (rbp) at cfa-16
  DW_CFA_advance_loc: 3 to 000000000099d818
  DW_CFA_def_cfa_register: r6 (rbp)
  DW_CFA_advance_loc: 14 to 000000000099d826
  DW_CFA_def_cfa: r7 (rsp) ofs 8
  DW_CFA_nop
  DW_CFA_nop
  DW_CFA_nop

00012878 000000000000001c 0001287c FDE cie=00000000 pc=000000000099d827..000000000099d832
  DW_CFA_advance_loc: 1 to 000000000099d828
  DW_CFA_def_cfa_offset: 16
  DW_CFA_offset: r6 (rbp) at cfa-16
  DW_CFA_advance_loc: 3 to 000000000099d82b
  DW_CFA_def_cfa_register: r6 (rbp)
  DW_CFA_advance_loc: 6 to 000000000099d831
  DW_CFA_def_cfa: r7 (rsp) ofs 8
  DW_CFA_nop
  DW_CFA_nop
  DW_CFA_nop

00012898 000000000000001c 0001289c FDE cie=00000000 pc=000000000099d832..000000000099d849
  DW_CFA_advance_loc: 1 to 000000000099d833
  DW_CFA_def_cfa_offset: 16
  DW_CFA_offset: r6 (rbp) at cfa-16
  DW_CFA_advance_loc: 3 to 000000000099d836
  DW_CFA_def_cfa_register: r6 (rbp)
  DW_CFA_advance_loc: 18 to 000000000099d848
  DW_CFA_def_cfa: r7 (rsp) ofs 8
  DW_CFA_nop
  DW_CFA_nop
  DW_CFA_nop

000128b8 000000000000001c 000128bc FDE cie=00000000 pc=000000000099d849..000000000099d85c
  DW_CFA_advance_loc: 1 to 000000000099d84a
  DW_CFA_def_cfa_offset: 16
  DW_CFA_offset: r6 (rbp) at cfa-16
  DW_CFA_advance_loc: 3 to 000000000099d84d
  DW_CFA_def_cfa_register: r6 (rbp)
  DW_CFA_advance_loc: 14 to 000000000099d85b
  DW_CFA_def_cfa: r7 (rsp) ofs 8
  DW_CFA_nop
  DW_CFA_nop
  DW_CFA_nop

000128d8 000000000000001c 000128dc FDE cie=00000000 pc=000000000099d85c..000000000099daaf
  DW_CFA_advance_loc: 1 to 000000000099d85d
  DW_CFA_def_cfa_offset: 16
  DW_CFA_offset: r6 (rbp) at cfa-16
  DW_CFA_advance_loc: 3 to 000000000099d860
  DW_CFA_def_cfa_register: r6 (rbp)
  DW_CFA_advance_loc2: 590 to 000000000099daae
  DW_CFA_def_cfa: r7 (rsp) ofs 8
  DW_CFA_nop

000128f8 000000000000001c 000128fc FDE cie=00000000 pc=000000000099daaf..000000000099db3c
  DW_CFA_advance_loc: 1 to 000000000099dab0
  DW_CFA_def_cfa_offset: 16
  DW_CFA_offset: r6 (rbp) at cfa-16
  DW_CFA_advance_loc: 3 to 000000000099dab3
  DW_CFA_def_cfa_register: r6 (rbp)
  DW_CFA_advance_loc1: 136 to 000000000099db3b
  DW_CFA_def_cfa: r7 (rsp) ofs 8
  DW_CFA_nop
  DW_CFA_nop

00012918 0000000000000020 0001291c FDE cie=00000000 pc=000000000099db3c..000000000099dd3a
  DW_CFA_advance_loc: 1 to 000000000099db3d
  DW_CFA_def_cfa_offset: 16
  DW_CFA_offset: r6 (rbp) at cfa-16
  DW_CFA_advance_loc: 3 to 000000000099db40
  DW_CFA_def_cfa_register: r6 (rbp)
  DW_CFA_advance_loc: 5 to 000000000099db45
  DW_CFA_offset: r3 (rbx) at cfa-24
  DW_CFA_advance_loc2: 500 to 000000000099dd39
  DW_CFA_def_cfa: r7 (rsp) ofs 8
  DW_CFA_nop
  DW_CFA_nop

0001293c 0000000000000020 00012940 FDE cie=00000000 pc=000000000099dd3a..000000000099dfa4
  DW_CFA_advance_loc: 1 to 000000000099dd3b
  DW_CFA_def_cfa_offset: 16
  DW_CFA_offset: r6 (rbp) at cfa-16
  DW_CFA_advance_loc: 3 to 000000000099dd3e
  DW_CFA_def_cfa_register: r6 (rbp)
  DW_CFA_advance_loc: 5 to 000000000099dd43
  DW_CFA_offset: r3 (rbx) at cfa-24
  DW_CFA_advance_loc2: 608 to 000000000099dfa3
  DW_CFA_def_cfa: r7 (rsp) ofs 8
  DW_CFA_nop
  DW_CFA_nop

00012960 0000000000000020 00012964 FDE cie=00000000 pc=000000000099dfa4..000000000099e4e3
  DW_CFA_advance_loc: 1 to 000000000099dfa5
  DW_CFA_def_cfa_offset: 16
  DW_CFA_offset: r6 (rbp) at cfa-16
  DW_CFA_advance_loc: 3 to 000000000099dfa8
  DW_CFA_def_cfa_register: r6 (rbp)
  DW_CFA_advance_loc: 5 to 000000000099dfad
  DW_CFA_offset: r3 (rbx) at cfa-24
  DW_CFA_advance_loc2: 1333 to 000000000099e4e2
  DW_CFA_def_cfa: r7 (rsp) ofs 8
  DW_CFA_nop
  DW_CFA_nop

00012984 000000000000001c 00012988 FDE cie=00000000 pc=000000000099e4e3..000000000099e639
  DW_CFA_advance_loc: 1 to 000000000099e4e4
  DW_CFA_def_cfa_offset: 16
  DW_CFA_offset: r6 (rbp) at cfa-16
  DW_CFA_advance_loc: 3 to 000000000099e4e7
  DW_CFA_def_cfa_register: r6 (rbp)
  DW_CFA_advance_loc2: 337 to 000000000099e638
  DW_CFA_def_cfa: r7 (rsp) ofs 8
  DW_CFA_nop

000129a4 000000000000001c 000129a8 FDE cie=00000000 pc=000000000099e639..000000000099e66b
  DW_CFA_advance_loc: 1 to 000000000099e63a
  DW_CFA_def_cfa_offset: 16
  DW_CFA_offset: r6 (rbp) at cfa-16
  DW_CFA_advance_loc: 3 to 000000000099e63d
  DW_CFA_def_cfa_register: r6 (rbp)
  DW_CFA_advance_loc: 45 to 000000000099e66a
  DW_CFA_def_cfa: r7 (rsp) ofs 8
  DW_CFA_nop
  DW_CFA_nop
  DW_CFA_nop

000129c4 000000000000001c 000129c8 FDE cie=00000000 pc=000000000099e66b..000000000099e75c
  DW_CFA_advance_loc: 1 to 000000000099e66c
  DW_CFA_def_cfa_offset: 16
  DW_CFA_offset: r6 (rbp) at cfa-16
  DW_CFA_advance_loc: 3 to 000000000099e66f
  DW_CFA_def_cfa_register: r6 (rbp)
  DW_CFA_advance_loc1: 236 to 000000000099e75b
  DW_CFA_def_cfa: r7 (rsp) ofs 8
  DW_CFA_nop
  DW_CFA_nop

000129e4 000000000000001c 000129e8 FDE cie=00000000 pc=000000000099e75c..000000000099e95d
  DW_CFA_advance_loc: 1 to 000000000099e75d
  DW_CFA_def_cfa_offset: 16
  DW_CFA_offset: r6 (rbp) at cfa-16
  DW_CFA_advance_loc: 3 to 000000000099e760
  DW_CFA_def_cfa_register: r6 (rbp)
  DW_CFA_advance_loc2: 508 to 000000000099e95c
  DW_CFA_def_cfa: r7 (rsp) ofs 8
  DW_CFA_nop

00012a04 000000000000001c 00012a08 FDE cie=00000000 pc=000000000099e95d..000000000099ea14
  DW_CFA_advance_loc: 1 to 000000000099e95e
  DW_CFA_def_cfa_offset: 16
  DW_CFA_offset: r6 (rbp) at cfa-16
  DW_CFA_advance_loc: 3 to 000000000099e961
  DW_CFA_def_cfa_register: r6 (rbp)
  DW_CFA_advance_loc1: 178 to 000000000099ea13
  DW_CFA_def_cfa: r7 (rsp) ofs 8
  DW_CFA_nop
  DW_CFA_nop

00012a24 000000000000001c 00012a28 FDE cie=00000000 pc=000000000099ea14..000000000099eb77
  DW_CFA_advance_loc: 1 to 000000000099ea15
  DW_CFA_def_cfa_offset: 16
  DW_CFA_offset: r6 (rbp) at cfa-16
  DW_CFA_advance_loc: 3 to 000000000099ea18
  DW_CFA_def_cfa_register: r6 (rbp)
  DW_CFA_advance_loc2: 350 to 000000000099eb76
  DW_CFA_def_cfa: r7 (rsp) ofs 8
  DW_CFA_nop

00012a44 000000000000001c 00012a48 FDE cie=00000000 pc=000000000099eb77..000000000099ef73
  DW_CFA_advance_loc: 1 to 000000000099eb78
  DW_CFA_def_cfa_offset: 16
  DW_CFA_offset: r6 (rbp) at cfa-16
  DW_CFA_advance_loc: 3 to 000000000099eb7b
  DW_CFA_def_cfa_register: r6 (rbp)
  DW_CFA_advance_loc2: 1015 to 000000000099ef72
  DW_CFA_def_cfa: r7 (rsp) ofs 8
  DW_CFA_nop

00012a64 000000000000001c 00012a68 FDE cie=00000000 pc=000000000099ef73..000000000099f12f
  DW_CFA_advance_loc: 1 to 000000000099ef74
  DW_CFA_def_cfa_offset: 16
  DW_CFA_offset: r6 (rbp) at cfa-16
  DW_CFA_advance_loc: 3 to 000000000099ef77
  DW_CFA_def_cfa_register: r6 (rbp)
  DW_CFA_advance_loc2: 439 to 000000000099f12e
  DW_CFA_def_cfa: r7 (rsp) ofs 8
  DW_CFA_nop

00012a84 000000000000001c 00012a88 FDE cie=00000000 pc=000000000099f12f..000000000099f61a
  DW_CFA_advance_loc: 1 to 000000000099f130
  DW_CFA_def_cfa_offset: 16
  DW_CFA_offset: r6 (rbp) at cfa-16
  DW_CFA_advance_loc: 3 to 000000000099f133
  DW_CFA_def_cfa_register: r6 (rbp)
  DW_CFA_advance_loc2: 1254 to 000000000099f619
  DW_CFA_def_cfa: r7 (rsp) ofs 8
  DW_CFA_nop

00012aa4 000000000000001c 00012aa8 FDE cie=00000000 pc=000000000099f61a..000000000099f819
  DW_CFA_advance_loc: 1 to 000000000099f61b
  DW_CFA_def_cfa_offset: 16
  DW_CFA_offset: r6 (rbp) at cfa-16
  DW_CFA_advance_loc: 3 to 000000000099f61e
  DW_CFA_def_cfa_register: r6 (rbp)
  DW_CFA_advance_loc2: 506 to 000000000099f818
  DW_CFA_def_cfa: r7 (rsp) ofs 8
  DW_CFA_nop

00012ac4 0000000000000020 00012ac8 FDE cie=00000000 pc=000000000099f819..000000000099fd79
  DW_CFA_advance_loc: 1 to 000000000099f81a
  DW_CFA_def_cfa_offset: 16
  DW_CFA_offset: r6 (rbp) at cfa-16
  DW_CFA_advance_loc: 3 to 000000000099f81d
  DW_CFA_def_cfa_register: r6 (rbp)
  DW_CFA_advance_loc: 5 to 000000000099f822
  DW_CFA_offset: r3 (rbx) at cfa-24
  DW_CFA_advance_loc2: 1366 to 000000000099fd78
  DW_CFA_def_cfa: r7 (rsp) ofs 8
  DW_CFA_nop
  DW_CFA_nop

00012ae8 000000000000001c 00012aec FDE cie=00000000 pc=000000000099fd79..000000000099ff33
  DW_CFA_advance_loc: 1 to 000000000099fd7a
  DW_CFA_def_cfa_offset: 16
  DW_CFA_offset: r6 (rbp) at cfa-16
  DW_CFA_advance_loc: 3 to 000000000099fd7d
  DW_CFA_def_cfa_register: r6 (rbp)
  DW_CFA_advance_loc2: 437 to 000000000099ff32
  DW_CFA_def_cfa: r7 (rsp) ofs 8
  DW_CFA_nop

00012b08 000000000000001c 00012b0c FDE cie=00000000 pc=000000000099ff33..00000000009a0051
  DW_CFA_advance_loc: 1 to 000000000099ff34
  DW_CFA_def_cfa_offset: 16
  DW_CFA_offset: r6 (rbp) at cfa-16
  DW_CFA_advance_loc: 3 to 000000000099ff37
  DW_CFA_def_cfa_register: r6 (rbp)
  DW_CFA_advance_loc2: 281 to 00000000009a0050
  DW_CFA_def_cfa: r7 (rsp) ofs 8
  DW_CFA_nop

00012b28 000000000000001c 00012b2c FDE cie=00000000 pc=00000000009a0051..00000000009a01b9
  DW_CFA_advance_loc: 1 to 00000000009a0052
  DW_CFA_def_cfa_offset: 16
  DW_CFA_offset: r6 (rbp) at cfa-16
  DW_CFA_advance_loc: 3 to 00000000009a0055
  DW_CFA_def_cfa_register: r6 (rbp)
  DW_CFA_advance_loc2: 355 to 00000000009a01b8
  DW_CFA_def_cfa: r7 (rsp) ofs 8
  DW_CFA_nop

00012b48 000000000000001c 00012b4c FDE cie=00000000 pc=00000000009a01b9..00000000009a03b3
  DW_CFA_advance_loc: 1 to 00000000009a01ba
  DW_CFA_def_cfa_offset: 16
  DW_CFA_offset: r6 (rbp) at cfa-16
  DW_CFA_advance_loc: 3 to 00000000009a01bd
  DW_CFA_def_cfa_register: r6 (rbp)
  DW_CFA_advance_loc2: 501 to 00000000009a03b2
  DW_CFA_def_cfa: r7 (rsp) ofs 8
  DW_CFA_nop

00012b68 000000000000001c 00012b6c FDE cie=00000000 pc=00000000009a03b3..00000000009a042e
  DW_CFA_advance_loc: 1 to 00000000009a03b4
  DW_CFA_def_cfa_offset: 16
  DW_CFA_offset: r6 (rbp) at cfa-16
  DW_CFA_advance_loc: 3 to 00000000009a03b7
  DW_CFA_def_cfa_register: r6 (rbp)
  DW_CFA_advance_loc1: 118 to 00000000009a042d
  DW_CFA_def_cfa: r7 (rsp) ofs 8
  DW_CFA_nop
  DW_CFA_nop

00012b88 000000000000001c 00012b8c FDE cie=00000000 pc=00000000009a042e..00000000009a0719
  DW_CFA_advance_loc: 1 to 00000000009a042f
  DW_CFA_def_cfa_offset: 16
  DW_CFA_offset: r6 (rbp) at cfa-16
  DW_CFA_advance_loc: 3 to 00000000009a0432
  DW_CFA_def_cfa_register: r6 (rbp)
  DW_CFA_advance_loc2: 742 to 00000000009a0718
  DW_CFA_def_cfa: r7 (rsp) ofs 8
  DW_CFA_nop

00012ba8 000000000000001c 00012bac FDE cie=00000000 pc=00000000009a0719..00000000009a0acc
  DW_CFA_advance_loc: 1 to 00000000009a071a
  DW_CFA_def_cfa_offset: 16
  DW_CFA_offset: r6 (rbp) at cfa-16
  DW_CFA_advance_loc: 3 to 00000000009a071d
  DW_CFA_def_cfa_register: r6 (rbp)
  DW_CFA_advance_loc2: 942 to 00000000009a0acb
  DW_CFA_def_cfa: r7 (rsp) ofs 8
  DW_CFA_nop

00012bc8 000000000000001c 00012bcc FDE cie=00000000 pc=00000000009a0acc..00000000009a0b45
  DW_CFA_advance_loc: 1 to 00000000009a0acd
  DW_CFA_def_cfa_offset: 16
  DW_CFA_offset: r6 (rbp) at cfa-16
  DW_CFA_advance_loc: 3 to 00000000009a0ad0
  DW_CFA_def_cfa_register: r6 (rbp)
  DW_CFA_advance_loc1: 116 to 00000000009a0b44
  DW_CFA_def_cfa: r7 (rsp) ofs 8
  DW_CFA_nop
  DW_CFA_nop

00012be8 000000000000001c 00012bec FDE cie=00000000 pc=00000000009a0b45..00000000009a0c3b
  DW_CFA_advance_loc: 1 to 00000000009a0b46
  DW_CFA_def_cfa_offset: 16
  DW_CFA_offset: r6 (rbp) at cfa-16
  DW_CFA_advance_loc: 3 to 00000000009a0b49
  DW_CFA_def_cfa_register: r6 (rbp)
  DW_CFA_advance_loc1: 241 to 00000000009a0c3a
  DW_CFA_def_cfa: r7 (rsp) ofs 8
  DW_CFA_nop
  DW_CFA_nop

00012c08 000000000000001c 00012c0c FDE cie=00000000 pc=00000000009a0c3b..00000000009a0d04
  DW_CFA_advance_loc: 1 to 00000000009a0c3c
  DW_CFA_def_cfa_offset: 16
  DW_CFA_offset: r6 (rbp) at cfa-16
  DW_CFA_advance_loc: 3 to 00000000009a0c3f
  DW_CFA_def_cfa_register: r6 (rbp)
  DW_CFA_advance_loc1: 196 to 00000000009a0d03
  DW_CFA_def_cfa: r7 (rsp) ofs 8
  DW_CFA_nop
  DW_CFA_nop

00012c28 0000000000000020 00012c2c FDE cie=00000000 pc=00000000009a0d04..00000000009a0e4e
  DW_CFA_advance_loc: 1 to 00000000009a0d05
  DW_CFA_def_cfa_offset: 16
  DW_CFA_offset: r6 (rbp) at cfa-16
  DW_CFA_advance_loc: 3 to 00000000009a0d08
  DW_CFA_def_cfa_register: r6 (rbp)
  DW_CFA_advance_loc: 5 to 00000000009a0d0d
  DW_CFA_offset: r3 (rbx) at cfa-24
  DW_CFA_advance_loc2: 320 to 00000000009a0e4d
  DW_CFA_def_cfa: r7 (rsp) ofs 8
  DW_CFA_nop
  DW_CFA_nop

00012c4c 000000000000001c 00012c50 FDE cie=00000000 pc=00000000009a0e4e..00000000009a0f58
  DW_CFA_advance_loc: 1 to 00000000009a0e4f
  DW_CFA_def_cfa_offset: 16
  DW_CFA_offset: r6 (rbp) at cfa-16
  DW_CFA_advance_loc: 3 to 00000000009a0e52
  DW_CFA_def_cfa_register: r6 (rbp)
  DW_CFA_advance_loc2: 261 to 00000000009a0f57
  DW_CFA_def_cfa: r7 (rsp) ofs 8
  DW_CFA_nop

00012c6c 000000000000001c 00012c70 FDE cie=00000000 pc=00000000009a0f58..00000000009a100f
  DW_CFA_advance_loc: 1 to 00000000009a0f59
  DW_CFA_def_cfa_offset: 16
  DW_CFA_offset: r6 (rbp) at cfa-16
  DW_CFA_advance_loc: 3 to 00000000009a0f5c
  DW_CFA_def_cfa_register: r6 (rbp)
  DW_CFA_advance_loc1: 178 to 00000000009a100e
  DW_CFA_def_cfa: r7 (rsp) ofs 8
  DW_CFA_nop
  DW_CFA_nop

00012c8c 000000000000001c 00012c90 FDE cie=00000000 pc=00000000009a100f..00000000009a129d
  DW_CFA_advance_loc: 1 to 00000000009a1010
  DW_CFA_def_cfa_offset: 16
  DW_CFA_offset: r6 (rbp) at cfa-16
  DW_CFA_advance_loc: 3 to 00000000009a1013
  DW_CFA_def_cfa_register: r6 (rbp)
  DW_CFA_advance_loc2: 649 to 00000000009a129c
  DW_CFA_def_cfa: r7 (rsp) ofs 8
  DW_CFA_nop

00012cac 000000000000001c 00012cb0 FDE cie=00000000 pc=00000000009a129d..00000000009a153d
  DW_CFA_advance_loc: 1 to 00000000009a129e
  DW_CFA_def_cfa_offset: 16
  DW_CFA_offset: r6 (rbp) at cfa-16
  DW_CFA_advance_loc: 3 to 00000000009a12a1
  DW_CFA_def_cfa_register: r6 (rbp)
  DW_CFA_advance_loc2: 667 to 00000000009a153c
  DW_CFA_def_cfa: r7 (rsp) ofs 8
  DW_CFA_nop

00012ccc 000000000000001c 00012cd0 FDE cie=00000000 pc=00000000009a153d..00000000009a1584
  DW_CFA_advance_loc: 1 to 00000000009a153e
  DW_CFA_def_cfa_offset: 16
  DW_CFA_offset: r6 (rbp) at cfa-16
  DW_CFA_advance_loc: 3 to 00000000009a1541
  DW_CFA_def_cfa_register: r6 (rbp)
  DW_CFA_advance_loc1: 66 to 00000000009a1583
  DW_CFA_def_cfa: r7 (rsp) ofs 8
  DW_CFA_nop
  DW_CFA_nop

00012cec 000000000000001c 00012cf0 FDE cie=00000000 pc=00000000009a1584..00000000009a1752
  DW_CFA_advance_loc: 1 to 00000000009a1585
  DW_CFA_def_cfa_offset: 16
  DW_CFA_offset: r6 (rbp) at cfa-16
  DW_CFA_advance_loc: 3 to 00000000009a1588
  DW_CFA_def_cfa_register: r6 (rbp)
  DW_CFA_advance_loc2: 457 to 00000000009a1751
  DW_CFA_def_cfa: r7 (rsp) ofs 8
  DW_CFA_nop

00012d0c 000000000000001c 00012d10 FDE cie=00000000 pc=00000000009a1752..00000000009a1816
  DW_CFA_advance_loc: 1 to 00000000009a1753
  DW_CFA_def_cfa_offset: 16
  DW_CFA_offset: r6 (rbp) at cfa-16
  DW_CFA_advance_loc: 3 to 00000000009a1756
  DW_CFA_def_cfa_register: r6 (rbp)
  DW_CFA_advance_loc1: 191 to 00000000009a1815
  DW_CFA_def_cfa: r7 (rsp) ofs 8
  DW_CFA_nop
  DW_CFA_nop

00012d2c 000000000000001c 00012d30 FDE cie=00000000 pc=00000000009a1816..00000000009a18da
  DW_CFA_advance_loc: 1 to 00000000009a1817
  DW_CFA_def_cfa_offset: 16
  DW_CFA_offset: r6 (rbp) at cfa-16
  DW_CFA_advance_loc: 3 to 00000000009a181a
  DW_CFA_def_cfa_register: r6 (rbp)
  DW_CFA_advance_loc1: 191 to 00000000009a18d9
  DW_CFA_def_cfa: r7 (rsp) ofs 8
  DW_CFA_nop
  DW_CFA_nop

00012d4c 000000000000001c 00012d50 FDE cie=00000000 pc=00000000009a18da..00000000009a1ba9
  DW_CFA_advance_loc: 1 to 00000000009a18db
  DW_CFA_def_cfa_offset: 16
  DW_CFA_offset: r6 (rbp) at cfa-16
  DW_CFA_advance_loc: 3 to 00000000009a18de
  DW_CFA_def_cfa_register: r6 (rbp)
  DW_CFA_advance_loc2: 714 to 00000000009a1ba8
  DW_CFA_def_cfa: r7 (rsp) ofs 8
  DW_CFA_nop

00012d6c 000000000000001c 00012d70 FDE cie=00000000 pc=00000000009a1ba9..00000000009a1c16
  DW_CFA_advance_loc: 1 to 00000000009a1baa
  DW_CFA_def_cfa_offset: 16
  DW_CFA_offset: r6 (rbp) at cfa-16
  DW_CFA_advance_loc: 3 to 00000000009a1bad
  DW_CFA_def_cfa_register: r6 (rbp)
  DW_CFA_advance_loc1: 104 to 00000000009a1c15
  DW_CFA_def_cfa: r7 (rsp) ofs 8
  DW_CFA_nop
  DW_CFA_nop

00012d8c 000000000000001c 00012d90 FDE cie=00000000 pc=00000000009a1c16..00000000009a1cba
  DW_CFA_advance_loc: 1 to 00000000009a1c17
  DW_CFA_def_cfa_offset: 16
  DW_CFA_offset: r6 (rbp) at cfa-16
  DW_CFA_advance_loc: 3 to 00000000009a1c1a
  DW_CFA_def_cfa_register: r6 (rbp)
  DW_CFA_advance_loc1: 159 to 00000000009a1cb9
  DW_CFA_def_cfa: r7 (rsp) ofs 8
  DW_CFA_nop
  DW_CFA_nop

00012dac 000000000000001c 00012db0 FDE cie=00000000 pc=00000000009a1cba..00000000009a1d03
  DW_CFA_advance_loc: 1 to 00000000009a1cbb
  DW_CFA_def_cfa_offset: 16
  DW_CFA_offset: r6 (rbp) at cfa-16
  DW_CFA_advance_loc: 3 to 00000000009a1cbe
  DW_CFA_def_cfa_register: r6 (rbp)
  DW_CFA_advance_loc1: 68 to 00000000009a1d02
  DW_CFA_def_cfa: r7 (rsp) ofs 8
  DW_CFA_nop
  DW_CFA_nop

00012dcc 000000000000001c 00012dd0 FDE cie=00000000 pc=00000000009a1d03..00000000009a1d78
  DW_CFA_advance_loc: 1 to 00000000009a1d04
  DW_CFA_def_cfa_offset: 16
  DW_CFA_offset: r6 (rbp) at cfa-16
  DW_CFA_advance_loc: 3 to 00000000009a1d07
  DW_CFA_def_cfa_register: r6 (rbp)
  DW_CFA_advance_loc1: 112 to 00000000009a1d77
  DW_CFA_def_cfa: r7 (rsp) ofs 8
  DW_CFA_nop
  DW_CFA_nop

00012dec 000000000000001c 00012df0 FDE cie=00000000 pc=00000000009a1d78..00000000009a1e5e
  DW_CFA_advance_loc: 1 to 00000000009a1d79
  DW_CFA_def_cfa_offset: 16
  DW_CFA_offset: r6 (rbp) at cfa-16
  DW_CFA_advance_loc: 3 to 00000000009a1d7c
  DW_CFA_def_cfa_register: r6 (rbp)
  DW_CFA_advance_loc1: 225 to 00000000009a1e5d
  DW_CFA_def_cfa: r7 (rsp) ofs 8
  DW_CFA_nop
  DW_CFA_nop

00012e0c 000000000000001c 00012e10 FDE cie=00000000 pc=00000000009a1e5e..00000000009a1fc6
  DW_CFA_advance_loc: 1 to 00000000009a1e5f
  DW_CFA_def_cfa_offset: 16
  DW_CFA_offset: r6 (rbp) at cfa-16
  DW_CFA_advance_loc: 3 to 00000000009a1e62
  DW_CFA_def_cfa_register: r6 (rbp)
  DW_CFA_advance_loc2: 355 to 00000000009a1fc5
  DW_CFA_def_cfa: r7 (rsp) ofs 8
  DW_CFA_nop

00012e2c 000000000000001c 00012e30 FDE cie=00000000 pc=00000000009a1fc6..00000000009a2074
  DW_CFA_advance_loc: 1 to 00000000009a1fc7
  DW_CFA_def_cfa_offset: 16
  DW_CFA_offset: r6 (rbp) at cfa-16
  DW_CFA_advance_loc: 3 to 00000000009a1fca
  DW_CFA_def_cfa_register: r6 (rbp)
  DW_CFA_advance_loc1: 169 to 00000000009a2073
  DW_CFA_def_cfa: r7 (rsp) ofs 8
  DW_CFA_nop
  DW_CFA_nop

00012e4c 000000000000001c 00012e50 FDE cie=00000000 pc=00000000009a2074..00000000009a210f
  DW_CFA_advance_loc: 1 to 00000000009a2075
  DW_CFA_def_cfa_offset: 16
  DW_CFA_offset: r6 (rbp) at cfa-16
  DW_CFA_advance_loc: 3 to 00000000009a2078
  DW_CFA_def_cfa_register: r6 (rbp)
  DW_CFA_advance_loc1: 150 to 00000000009a210e
  DW_CFA_def_cfa: r7 (rsp) ofs 8
  DW_CFA_nop
  DW_CFA_nop

00012e6c 000000000000001c 00012e70 FDE cie=00000000 pc=00000000009a210f..00000000009a2136
  DW_CFA_advance_loc: 1 to 00000000009a2110
  DW_CFA_def_cfa_offset: 16
  DW_CFA_offset: r6 (rbp) at cfa-16
  DW_CFA_advance_loc: 3 to 00000000009a2113
  DW_CFA_def_cfa_register: r6 (rbp)
  DW_CFA_advance_loc: 34 to 00000000009a2135
  DW_CFA_def_cfa: r7 (rsp) ofs 8
  DW_CFA_nop
  DW_CFA_nop
  DW_CFA_nop

00012e8c 000000000000001c 00012e90 FDE cie=00000000 pc=00000000009a2136..00000000009a229e
  DW_CFA_advance_loc: 1 to 00000000009a2137
  DW_CFA_def_cfa_offset: 16
  DW_CFA_offset: r6 (rbp) at cfa-16
  DW_CFA_advance_loc: 3 to 00000000009a213a
  DW_CFA_def_cfa_register: r6 (rbp)
  DW_CFA_advance_loc2: 355 to 00000000009a229d
  DW_CFA_def_cfa: r7 (rsp) ofs 8
  DW_CFA_nop

00012eac 000000000000001c 00012eb0 FDE cie=00000000 pc=00000000009a229e..00000000009a2a05
  DW_CFA_advance_loc: 1 to 00000000009a229f
  DW_CFA_def_cfa_offset: 16
  DW_CFA_offset: r6 (rbp) at cfa-16
  DW_CFA_advance_loc: 3 to 00000000009a22a2
  DW_CFA_def_cfa_register: r6 (rbp)
  DW_CFA_advance_loc2: 1890 to 00000000009a2a04
  DW_CFA_def_cfa: r7 (rsp) ofs 8
  DW_CFA_nop

00012ecc 000000000000001c 00012ed0 FDE cie=00000000 pc=00000000009a2a05..00000000009a2eed
  DW_CFA_advance_loc: 1 to 00000000009a2a06
  DW_CFA_def_cfa_offset: 16
  DW_CFA_offset: r6 (rbp) at cfa-16
  DW_CFA_advance_loc: 3 to 00000000009a2a09
  DW_CFA_def_cfa_register: r6 (rbp)
  DW_CFA_advance_loc2: 1251 to 00000000009a2eec
  DW_CFA_def_cfa: r7 (rsp) ofs 8
  DW_CFA_nop

00012eec 000000000000001c 00012ef0 FDE cie=00000000 pc=00000000009a2eed..00000000009a2f52
  DW_CFA_advance_loc: 1 to 00000000009a2eee
  DW_CFA_def_cfa_offset: 16
  DW_CFA_offset: r6 (rbp) at cfa-16
  DW_CFA_advance_loc: 3 to 00000000009a2ef1
  DW_CFA_def_cfa_register: r6 (rbp)
  DW_CFA_advance_loc1: 96 to 00000000009a2f51
  DW_CFA_def_cfa: r7 (rsp) ofs 8
  DW_CFA_nop
  DW_CFA_nop

00012f0c 000000000000001c 00012f10 FDE cie=00000000 pc=00000000009a2f52..00000000009a3024
  DW_CFA_advance_loc: 1 to 00000000009a2f53
  DW_CFA_def_cfa_offset: 16
  DW_CFA_offset: r6 (rbp) at cfa-16
  DW_CFA_advance_loc: 3 to 00000000009a2f56
  DW_CFA_def_cfa_register: r6 (rbp)
  DW_CFA_advance_loc1: 205 to 00000000009a3023
  DW_CFA_def_cfa: r7 (rsp) ofs 8
  DW_CFA_nop
  DW_CFA_nop

00012f2c 0000000000000020 00012f30 FDE cie=00000000 pc=00000000009a3024..00000000009a3563
  DW_CFA_advance_loc: 1 to 00000000009a3025
  DW_CFA_def_cfa_offset: 16
  DW_CFA_offset: r6 (rbp) at cfa-16
  DW_CFA_advance_loc: 3 to 00000000009a3028
  DW_CFA_def_cfa_register: r6 (rbp)
  DW_CFA_advance_loc: 5 to 00000000009a302d
  DW_CFA_offset: r3 (rbx) at cfa-24
  DW_CFA_advance_loc2: 1333 to 00000000009a3562
  DW_CFA_def_cfa: r7 (rsp) ofs 8
  DW_CFA_nop
  DW_CFA_nop

00012f50 000000000000001c 00012f54 FDE cie=00000000 pc=00000000009a3563..00000000009a3a03
  DW_CFA_advance_loc: 1 to 00000000009a3564
  DW_CFA_def_cfa_offset: 16
  DW_CFA_offset: r6 (rbp) at cfa-16
  DW_CFA_advance_loc: 3 to 00000000009a3567
  DW_CFA_def_cfa_register: r6 (rbp)
  DW_CFA_advance_loc2: 1179 to 00000000009a3a02
  DW_CFA_def_cfa: r7 (rsp) ofs 8
  DW_CFA_nop

00012f70 0000000000000020 00012f74 FDE cie=00000000 pc=00000000009a3a03..00000000009a3d72
  DW_CFA_advance_loc: 1 to 00000000009a3a04
  DW_CFA_def_cfa_offset: 16
  DW_CFA_offset: r6 (rbp) at cfa-16
  DW_CFA_advance_loc: 3 to 00000000009a3a07
  DW_CFA_def_cfa_register: r6 (rbp)
  DW_CFA_advance_loc: 8 to 00000000009a3a0f
  DW_CFA_offset: r3 (rbx) at cfa-24
  DW_CFA_advance_loc2: 866 to 00000000009a3d71
  DW_CFA_def_cfa: r7 (rsp) ofs 8
  DW_CFA_nop
  DW_CFA_nop

00012f94 000000000000001c 00012f98 FDE cie=00000000 pc=00000000009a3d72..00000000009a41d0
  DW_CFA_advance_loc: 1 to 00000000009a3d73
  DW_CFA_def_cfa_offset: 16
  DW_CFA_offset: r6 (rbp) at cfa-16
  DW_CFA_advance_loc: 3 to 00000000009a3d76
  DW_CFA_def_cfa_register: r6 (rbp)
  DW_CFA_advance_loc2: 1113 to 00000000009a41cf
  DW_CFA_def_cfa: r7 (rsp) ofs 8
  DW_CFA_nop

00012fb4 000000000000001c 00012fb8 FDE cie=00000000 pc=00000000009a41d0..00000000009a5376
  DW_CFA_advance_loc: 1 to 00000000009a41d1
  DW_CFA_def_cfa_offset: 16
  DW_CFA_offset: r6 (rbp) at cfa-16
  DW_CFA_advance_loc: 3 to 00000000009a41d4
  DW_CFA_def_cfa_register: r6 (rbp)
  DW_CFA_advance_loc2: 4513 to 00000000009a5375
  DW_CFA_def_cfa: r7 (rsp) ofs 8
  DW_CFA_nop

00012fd4 000000000000001c 00012fd8 FDE cie=00000000 pc=00000000009a5376..00000000009a5812
  DW_CFA_advance_loc: 1 to 00000000009a5377
  DW_CFA_def_cfa_offset: 16
  DW_CFA_offset: r6 (rbp) at cfa-16
  DW_CFA_advance_loc: 3 to 00000000009a537a
  DW_CFA_def_cfa_register: r6 (rbp)
  DW_CFA_advance_loc2: 1175 to 00000000009a5811
  DW_CFA_def_cfa: r7 (rsp) ofs 8
  DW_CFA_nop

00012ff4 000000000000001c 00012ff8 FDE cie=00000000 pc=00000000009a5812..00000000009a59f8
  DW_CFA_advance_loc: 1 to 00000000009a5813
  DW_CFA_def_cfa_offset: 16
  DW_CFA_offset: r6 (rbp) at cfa-16
  DW_CFA_advance_loc: 3 to 00000000009a5816
  DW_CFA_def_cfa_register: r6 (rbp)
  DW_CFA_advance_loc2: 481 to 00000000009a59f7
  DW_CFA_def_cfa: r7 (rsp) ofs 8
  DW_CFA_nop

00013014 0000000000000020 00013018 FDE cie=00000000 pc=00000000009a59f8..00000000009a5e50
  DW_CFA_advance_loc: 1 to 00000000009a59f9
  DW_CFA_def_cfa_offset: 16
  DW_CFA_offset: r6 (rbp) at cfa-16
  DW_CFA_advance_loc: 3 to 00000000009a59fc
  DW_CFA_def_cfa_register: r6 (rbp)
  DW_CFA_advance_loc: 5 to 00000000009a5a01
  DW_CFA_offset: r3 (rbx) at cfa-24
  DW_CFA_advance_loc2: 1102 to 00000000009a5e4f
  DW_CFA_def_cfa: r7 (rsp) ofs 8
  DW_CFA_nop
  DW_CFA_nop

00013038 0000000000000020 0001303c FDE cie=00000000 pc=00000000009a5e50..00000000009a62db
  DW_CFA_advance_loc: 1 to 00000000009a5e51
  DW_CFA_def_cfa_offset: 16
  DW_CFA_offset: r6 (rbp) at cfa-16
  DW_CFA_advance_loc: 3 to 00000000009a5e54
  DW_CFA_def_cfa_register: r6 (rbp)
  DW_CFA_advance_loc: 8 to 00000000009a5e5c
  DW_CFA_offset: r3 (rbx) at cfa-24
  DW_CFA_advance_loc2: 1150 to 00000000009a62da
  DW_CFA_def_cfa: r7 (rsp) ofs 8
  DW_CFA_nop
  DW_CFA_nop

0001305c 000000000000001c 00013060 FDE cie=00000000 pc=00000000009a62db..00000000009a63e8
  DW_CFA_advance_loc: 1 to 00000000009a62dc
  DW_CFA_def_cfa_offset: 16
  DW_CFA_offset: r6 (rbp) at cfa-16
  DW_CFA_advance_loc: 3 to 00000000009a62df
  DW_CFA_def_cfa_register: r6 (rbp)
  DW_CFA_advance_loc2: 264 to 00000000009a63e7
  DW_CFA_def_cfa: r7 (rsp) ofs 8
  DW_CFA_nop

0001307c 000000000000001c 00013080 FDE cie=00000000 pc=00000000009a63e8..00000000009a661b
  DW_CFA_advance_loc: 1 to 00000000009a63e9
  DW_CFA_def_cfa_offset: 16
  DW_CFA_offset: r6 (rbp) at cfa-16
  DW_CFA_advance_loc: 3 to 00000000009a63ec
  DW_CFA_def_cfa_register: r6 (rbp)
  DW_CFA_advance_loc2: 558 to 00000000009a661a
  DW_CFA_def_cfa: r7 (rsp) ofs 8
  DW_CFA_nop

0001309c 000000000000001c 000130a0 FDE cie=00000000 pc=00000000009a661b..00000000009a6676
  DW_CFA_advance_loc: 1 to 00000000009a661c
  DW_CFA_def_cfa_offset: 16
  DW_CFA_offset: r6 (rbp) at cfa-16
  DW_CFA_advance_loc: 3 to 00000000009a661f
  DW_CFA_def_cfa_register: r6 (rbp)
  DW_CFA_advance_loc1: 86 to 00000000009a6675
  DW_CFA_def_cfa: r7 (rsp) ofs 8
  DW_CFA_nop
  DW_CFA_nop

000130bc 000000000000001c 000130c0 FDE cie=00000000 pc=00000000009a6676..00000000009a6718
  DW_CFA_advance_loc: 1 to 00000000009a6677
  DW_CFA_def_cfa_offset: 16
  DW_CFA_offset: r6 (rbp) at cfa-16
  DW_CFA_advance_loc: 3 to 00000000009a667a
  DW_CFA_def_cfa_register: r6 (rbp)
  DW_CFA_advance_loc1: 157 to 00000000009a6717
  DW_CFA_def_cfa: r7 (rsp) ofs 8
  DW_CFA_nop
  DW_CFA_nop

000130dc 000000000000001c 000130e0 FDE cie=00000000 pc=00000000009a6718..00000000009a67c6
  DW_CFA_advance_loc: 1 to 00000000009a6719
  DW_CFA_def_cfa_offset: 16
  DW_CFA_offset: r6 (rbp) at cfa-16
  DW_CFA_advance_loc: 3 to 00000000009a671c
  DW_CFA_def_cfa_register: r6 (rbp)
  DW_CFA_advance_loc1: 169 to 00000000009a67c5
  DW_CFA_def_cfa: r7 (rsp) ofs 8
  DW_CFA_nop
  DW_CFA_nop

000130fc 000000000000001c 00013100 FDE cie=00000000 pc=00000000009a67c6..00000000009a6a8b
  DW_CFA_advance_loc: 1 to 00000000009a67c7
  DW_CFA_def_cfa_offset: 16
  DW_CFA_offset: r6 (rbp) at cfa-16
  DW_CFA_advance_loc: 3 to 00000000009a67ca
  DW_CFA_def_cfa_register: r6 (rbp)
  DW_CFA_advance_loc2: 704 to 00000000009a6a8a
  DW_CFA_def_cfa: r7 (rsp) ofs 8
  DW_CFA_nop

0001311c 000000000000001c 00013120 FDE cie=00000000 pc=00000000009a6a8b..00000000009a6b00
  DW_CFA_advance_loc: 1 to 00000000009a6a8c
  DW_CFA_def_cfa_offset: 16
  DW_CFA_offset: r6 (rbp) at cfa-16
  DW_CFA_advance_loc: 3 to 00000000009a6a8f
  DW_CFA_def_cfa_register: r6 (rbp)
  DW_CFA_advance_loc1: 112 to 00000000009a6aff
  DW_CFA_def_cfa: r7 (rsp) ofs 8
  DW_CFA_nop
  DW_CFA_nop

0001313c 000000000000001c 00013140 FDE cie=00000000 pc=00000000009a6b00..00000000009a6c01
  DW_CFA_advance_loc: 1 to 00000000009a6b01
  DW_CFA_def_cfa_offset: 16
  DW_CFA_offset: r6 (rbp) at cfa-16
  DW_CFA_advance_loc: 3 to 00000000009a6b04
  DW_CFA_def_cfa_register: r6 (rbp)
  DW_CFA_advance_loc1: 252 to 00000000009a6c00
  DW_CFA_def_cfa: r7 (rsp) ofs 8
  DW_CFA_nop
  DW_CFA_nop

0001315c 000000000000001c 00013160 FDE cie=00000000 pc=00000000009a6c01..00000000009a6eb5
  DW_CFA_advance_loc: 1 to 00000000009a6c02
  DW_CFA_def_cfa_offset: 16
  DW_CFA_offset: r6 (rbp) at cfa-16
  DW_CFA_advance_loc: 3 to 00000000009a6c05
  DW_CFA_def_cfa_register: r6 (rbp)
  DW_CFA_advance_loc2: 687 to 00000000009a6eb4
  DW_CFA_def_cfa: r7 (rsp) ofs 8
  DW_CFA_nop

0001317c 000000000000001c 00013180 FDE cie=00000000 pc=00000000009a6eb5..00000000009a7014
  DW_CFA_advance_loc: 1 to 00000000009a6eb6
  DW_CFA_def_cfa_offset: 16
  DW_CFA_offset: r6 (rbp) at cfa-16
  DW_CFA_advance_loc: 3 to 00000000009a6eb9
  DW_CFA_def_cfa_register: r6 (rbp)
  DW_CFA_advance_loc2: 346 to 00000000009a7013
  DW_CFA_def_cfa: r7 (rsp) ofs 8
  DW_CFA_nop

0001319c 000000000000001c 000131a0 FDE cie=00000000 pc=00000000009a7014..00000000009a721c
  DW_CFA_advance_loc: 1 to 00000000009a7015
  DW_CFA_def_cfa_offset: 16
  DW_CFA_offset: r6 (rbp) at cfa-16
  DW_CFA_advance_loc: 3 to 00000000009a7018
  DW_CFA_def_cfa_register: r6 (rbp)
  DW_CFA_advance_loc2: 515 to 00000000009a721b
  DW_CFA_def_cfa: r7 (rsp) ofs 8
  DW_CFA_nop

000131bc 0000000000000020 000131c0 FDE cie=00000000 pc=00000000009a721c..00000000009a742c
  DW_CFA_advance_loc: 1 to 00000000009a721d
  DW_CFA_def_cfa_offset: 16
  DW_CFA_offset: r6 (rbp) at cfa-16
  DW_CFA_advance_loc: 3 to 00000000009a7220
  DW_CFA_def_cfa_register: r6 (rbp)
  DW_CFA_advance_loc: 5 to 00000000009a7225
  DW_CFA_offset: r3 (rbx) at cfa-24
  DW_CFA_advance_loc2: 518 to 00000000009a742b
  DW_CFA_def_cfa: r7 (rsp) ofs 8
  DW_CFA_nop
  DW_CFA_nop

000131e0 000000000000001c 000131e4 FDE cie=00000000 pc=00000000009a742c..00000000009a75c2
  DW_CFA_advance_loc: 1 to 00000000009a742d
  DW_CFA_def_cfa_offset: 16
  DW_CFA_offset: r6 (rbp) at cfa-16
  DW_CFA_advance_loc: 3 to 00000000009a7430
  DW_CFA_def_cfa_register: r6 (rbp)
  DW_CFA_advance_loc2: 401 to 00000000009a75c1
  DW_CFA_def_cfa: r7 (rsp) ofs 8
  DW_CFA_nop

00013200 000000000000001c 00013204 FDE cie=00000000 pc=00000000009a75c2..00000000009a7aa7
  DW_CFA_advance_loc: 1 to 00000000009a75c3
  DW_CFA_def_cfa_offset: 16
  DW_CFA_offset: r6 (rbp) at cfa-16
  DW_CFA_advance_loc: 3 to 00000000009a75c6
  DW_CFA_def_cfa_register: r6 (rbp)
  DW_CFA_advance_loc2: 1248 to 00000000009a7aa6
  DW_CFA_def_cfa: r7 (rsp) ofs 8
  DW_CFA_nop

00013220 0000000000000020 00013224 FDE cie=00000000 pc=00000000009a7aa7..00000000009a7dbb
  DW_CFA_advance_loc: 1 to 00000000009a7aa8
  DW_CFA_def_cfa_offset: 16
  DW_CFA_offset: r6 (rbp) at cfa-16
  DW_CFA_advance_loc: 3 to 00000000009a7aab
  DW_CFA_def_cfa_register: r6 (rbp)
  DW_CFA_advance_loc: 5 to 00000000009a7ab0
  DW_CFA_offset: r3 (rbx) at cfa-24
  DW_CFA_advance_loc2: 778 to 00000000009a7dba
  DW_CFA_def_cfa: r7 (rsp) ofs 8
  DW_CFA_nop
  DW_CFA_nop

00013244 000000000000001c 00013248 FDE cie=00000000 pc=00000000009a7dbb..00000000009a7e08
  DW_CFA_advance_loc: 1 to 00000000009a7dbc
  DW_CFA_def_cfa_offset: 16
  DW_CFA_offset: r6 (rbp) at cfa-16
  DW_CFA_advance_loc: 3 to 00000000009a7dbf
  DW_CFA_def_cfa_register: r6 (rbp)
  DW_CFA_advance_loc1: 72 to 00000000009a7e07
  DW_CFA_def_cfa: r7 (rsp) ofs 8
  DW_CFA_nop
  DW_CFA_nop

00013264 000000000000001c 00013268 FDE cie=00000000 pc=00000000009a7e08..00000000009a7e45
  DW_CFA_advance_loc: 1 to 00000000009a7e09
  DW_CFA_def_cfa_offset: 16
  DW_CFA_offset: r6 (rbp) at cfa-16
  DW_CFA_advance_loc: 3 to 00000000009a7e0c
  DW_CFA_def_cfa_register: r6 (rbp)
  DW_CFA_advance_loc: 56 to 00000000009a7e44
  DW_CFA_def_cfa: r7 (rsp) ofs 8
  DW_CFA_nop
  DW_CFA_nop
  DW_CFA_nop

00013284 0000000000000020 00013288 FDE cie=00000000 pc=00000000009a7e45..00000000009a8129
  DW_CFA_advance_loc: 1 to 00000000009a7e46
  DW_CFA_def_cfa_offset: 16
  DW_CFA_offset: r6 (rbp) at cfa-16
  DW_CFA_advance_loc: 3 to 00000000009a7e49
  DW_CFA_def_cfa_register: r6 (rbp)
  DW_CFA_advance_loc: 5 to 00000000009a7e4e
  DW_CFA_offset: r3 (rbx) at cfa-24
  DW_CFA_advance_loc2: 730 to 00000000009a8128
  DW_CFA_def_cfa: r7 (rsp) ofs 8
  DW_CFA_nop
  DW_CFA_nop

000132a8 000000000000001c 000132ac FDE cie=00000000 pc=00000000009a8129..00000000009a8161
  DW_CFA_advance_loc: 1 to 00000000009a812a
  DW_CFA_def_cfa_offset: 16
  DW_CFA_offset: r6 (rbp) at cfa-16
  DW_CFA_advance_loc: 3 to 00000000009a812d
  DW_CFA_def_cfa_register: r6 (rbp)
  DW_CFA_advance_loc: 51 to 00000000009a8160
  DW_CFA_def_cfa: r7 (rsp) ofs 8
  DW_CFA_nop
  DW_CFA_nop
  DW_CFA_nop

000132c8 000000000000001c 000132cc FDE cie=00000000 pc=00000000009a8161..00000000009a81a1
  DW_CFA_advance_loc: 1 to 00000000009a8162
  DW_CFA_def_cfa_offset: 16
  DW_CFA_offset: r6 (rbp) at cfa-16
  DW_CFA_advance_loc: 3 to 00000000009a8165
  DW_CFA_def_cfa_register: r6 (rbp)
  DW_CFA_advance_loc: 59 to 00000000009a81a0
  DW_CFA_def_cfa: r7 (rsp) ofs 8
  DW_CFA_nop
  DW_CFA_nop
  DW_CFA_nop

000132e8 000000000000001c 000132ec FDE cie=00000000 pc=00000000009a81a1..00000000009a81c5
  DW_CFA_advance_loc: 1 to 00000000009a81a2
  DW_CFA_def_cfa_offset: 16
  DW_CFA_offset: r6 (rbp) at cfa-16
  DW_CFA_advance_loc: 3 to 00000000009a81a5
  DW_CFA_def_cfa_register: r6 (rbp)
  DW_CFA_advance_loc: 31 to 00000000009a81c4
  DW_CFA_def_cfa: r7 (rsp) ofs 8
  DW_CFA_nop
  DW_CFA_nop
  DW_CFA_nop

00013308 000000000000001c 0001330c FDE cie=00000000 pc=00000000009a81c5..00000000009a823d
  DW_CFA_advance_loc: 1 to 00000000009a81c6
  DW_CFA_def_cfa_offset: 16
  DW_CFA_offset: r6 (rbp) at cfa-16
  DW_CFA_advance_loc: 3 to 00000000009a81c9
  DW_CFA_def_cfa_register: r6 (rbp)
  DW_CFA_advance_loc1: 115 to 00000000009a823c
  DW_CFA_def_cfa: r7 (rsp) ofs 8
  DW_CFA_nop
  DW_CFA_nop

00013328 000000000000001c 0001332c FDE cie=00000000 pc=00000000009a823d..00000000009a8298
  DW_CFA_advance_loc: 1 to 00000000009a823e
  DW_CFA_def_cfa_offset: 16
  DW_CFA_offset: r6 (rbp) at cfa-16
  DW_CFA_advance_loc: 3 to 00000000009a8241
  DW_CFA_def_cfa_register: r6 (rbp)
  DW_CFA_advance_loc1: 86 to 00000000009a8297
  DW_CFA_def_cfa: r7 (rsp) ofs 8
  DW_CFA_nop
  DW_CFA_nop

00013348 000000000000001c 0001334c FDE cie=00000000 pc=00000000009a8298..00000000009a82ea
  DW_CFA_advance_loc: 1 to 00000000009a8299
  DW_CFA_def_cfa_offset: 16
  DW_CFA_offset: r6 (rbp) at cfa-16
  DW_CFA_advance_loc: 3 to 00000000009a829c
  DW_CFA_def_cfa_register: r6 (rbp)
  DW_CFA_advance_loc1: 77 to 00000000009a82e9
  DW_CFA_def_cfa: r7 (rsp) ofs 8
  DW_CFA_nop
  DW_CFA_nop

00013368 000000000000001c 0001336c FDE cie=00000000 pc=00000000009a82ea..00000000009a83ff
  DW_CFA_advance_loc: 1 to 00000000009a82eb
  DW_CFA_def_cfa_offset: 16
  DW_CFA_offset: r6 (rbp) at cfa-16
  DW_CFA_advance_loc: 3 to 00000000009a82ee
  DW_CFA_def_cfa_register: r6 (rbp)
  DW_CFA_advance_loc2: 272 to 00000000009a83fe
  DW_CFA_def_cfa: r7 (rsp) ofs 8
  DW_CFA_nop

00013388 000000000000001c 0001338c FDE cie=00000000 pc=00000000009a83ff..00000000009a852d
  DW_CFA_advance_loc: 1 to 00000000009a8400
  DW_CFA_def_cfa_offset: 16
  DW_CFA_offset: r6 (rbp) at cfa-16
  DW_CFA_advance_loc: 3 to 00000000009a8403
  DW_CFA_def_cfa_register: r6 (rbp)
  DW_CFA_advance_loc2: 297 to 00000000009a852c
  DW_CFA_def_cfa: r7 (rsp) ofs 8
  DW_CFA_nop

000133a8 000000000000001c 000133ac FDE cie=00000000 pc=00000000009a852d..00000000009a8606
  DW_CFA_advance_loc: 1 to 00000000009a852e
  DW_CFA_def_cfa_offset: 16
  DW_CFA_offset: r6 (rbp) at cfa-16
  DW_CFA_advance_loc: 3 to 00000000009a8531
  DW_CFA_def_cfa_register: r6 (rbp)
  DW_CFA_advance_loc1: 212 to 00000000009a8605
  DW_CFA_def_cfa: r7 (rsp) ofs 8
  DW_CFA_nop
  DW_CFA_nop

000133c8 0000000000000020 000133cc FDE cie=00000000 pc=00000000009a8606..00000000009a8cf8
  DW_CFA_advance_loc: 1 to 00000000009a8607
  DW_CFA_def_cfa_offset: 16
  DW_CFA_offset: r6 (rbp) at cfa-16
  DW_CFA_advance_loc: 3 to 00000000009a860a
  DW_CFA_def_cfa_register: r6 (rbp)
  DW_CFA_advance_loc: 5 to 00000000009a860f
  DW_CFA_offset: r3 (rbx) at cfa-24
  DW_CFA_advance_loc2: 1768 to 00000000009a8cf7
  DW_CFA_def_cfa: r7 (rsp) ofs 8
  DW_CFA_nop
  DW_CFA_nop

000133ec 000000000000001c 000133f0 FDE cie=00000000 pc=00000000009a8cf8..00000000009a8da5
  DW_CFA_advance_loc: 1 to 00000000009a8cf9
  DW_CFA_def_cfa_offset: 16
  DW_CFA_offset: r6 (rbp) at cfa-16
  DW_CFA_advance_loc: 3 to 00000000009a8cfc
  DW_CFA_def_cfa_register: r6 (rbp)
  DW_CFA_advance_loc1: 168 to 00000000009a8da4
  DW_CFA_def_cfa: r7 (rsp) ofs 8
  DW_CFA_nop
  DW_CFA_nop

0001340c 0000000000000020 00013410 FDE cie=00000000 pc=00000000009a8da5..00000000009a8ff4
  DW_CFA_advance_loc: 1 to 00000000009a8da6
  DW_CFA_def_cfa_offset: 16
  DW_CFA_offset: r6 (rbp) at cfa-16
  DW_CFA_advance_loc: 3 to 00000000009a8da9
  DW_CFA_def_cfa_register: r6 (rbp)
  DW_CFA_advance_loc: 5 to 00000000009a8dae
  DW_CFA_offset: r3 (rbx) at cfa-24
  DW_CFA_advance_loc2: 581 to 00000000009a8ff3
  DW_CFA_def_cfa: r7 (rsp) ofs 8
  DW_CFA_nop
  DW_CFA_nop

00013430 000000000000001c 00013434 FDE cie=00000000 pc=00000000009a8ff4..00000000009a90bd
  DW_CFA_advance_loc: 1 to 00000000009a8ff5
  DW_CFA_def_cfa_offset: 16
  DW_CFA_offset: r6 (rbp) at cfa-16
  DW_CFA_advance_loc: 3 to 00000000009a8ff8
  DW_CFA_def_cfa_register: r6 (rbp)
  DW_CFA_advance_loc1: 196 to 00000000009a90bc
  DW_CFA_def_cfa: r7 (rsp) ofs 8
  DW_CFA_nop
  DW_CFA_nop

00013450 000000000000001c 00013454 FDE cie=00000000 pc=00000000009a90bd..00000000009a915c
  DW_CFA_advance_loc: 1 to 00000000009a90be
  DW_CFA_def_cfa_offset: 16
  DW_CFA_offset: r6 (rbp) at cfa-16
  DW_CFA_advance_loc: 3 to 00000000009a90c1
  DW_CFA_def_cfa_register: r6 (rbp)
  DW_CFA_advance_loc1: 154 to 00000000009a915b
  DW_CFA_def_cfa: r7 (rsp) ofs 8
  DW_CFA_nop
  DW_CFA_nop

00013470 000000000000001c 00013474 FDE cie=00000000 pc=00000000009a915c..00000000009a928c
  DW_CFA_advance_loc: 1 to 00000000009a915d
  DW_CFA_def_cfa_offset: 16
  DW_CFA_offset: r6 (rbp) at cfa-16
  DW_CFA_advance_loc: 3 to 00000000009a9160
  DW_CFA_def_cfa_register: r6 (rbp)
  DW_CFA_advance_loc2: 299 to 00000000009a928b
  DW_CFA_def_cfa: r7 (rsp) ofs 8
  DW_CFA_nop

00013490 000000000000001c 00013494 FDE cie=00000000 pc=00000000009a928c..00000000009a92dd
  DW_CFA_advance_loc: 1 to 00000000009a928d
  DW_CFA_def_cfa_offset: 16
  DW_CFA_offset: r6 (rbp) at cfa-16
  DW_CFA_advance_loc: 3 to 00000000009a9290
  DW_CFA_def_cfa_register: r6 (rbp)
  DW_CFA_advance_loc1: 76 to 00000000009a92dc
  DW_CFA_def_cfa: r7 (rsp) ofs 8
  DW_CFA_nop
  DW_CFA_nop

000134b0 000000000000001c 000134b4 FDE cie=00000000 pc=00000000009a92dd..00000000009a93d7
  DW_CFA_advance_loc: 1 to 00000000009a92de
  DW_CFA_def_cfa_offset: 16
  DW_CFA_offset: r6 (rbp) at cfa-16
  DW_CFA_advance_loc: 3 to 00000000009a92e1
  DW_CFA_def_cfa_register: r6 (rbp)
  DW_CFA_advance_loc1: 245 to 00000000009a93d6
  DW_CFA_def_cfa: r7 (rsp) ofs 8
  DW_CFA_nop
  DW_CFA_nop

000134d0 000000000000001c 000134d4 FDE cie=00000000 pc=00000000009a93d7..00000000009a940d
  DW_CFA_advance_loc: 1 to 00000000009a93d8
  DW_CFA_def_cfa_offset: 16
  DW_CFA_offset: r6 (rbp) at cfa-16
  DW_CFA_advance_loc: 3 to 00000000009a93db
  DW_CFA_def_cfa_register: r6 (rbp)
  DW_CFA_advance_loc: 49 to 00000000009a940c
  DW_CFA_def_cfa: r7 (rsp) ofs 8
  DW_CFA_nop
  DW_CFA_nop
  DW_CFA_nop

000134f0 000000000000001c 000134f4 FDE cie=00000000 pc=00000000009a940d..00000000009a9434
  DW_CFA_advance_loc: 1 to 00000000009a940e
  DW_CFA_def_cfa_offset: 16
  DW_CFA_offset: r6 (rbp) at cfa-16
  DW_CFA_advance_loc: 3 to 00000000009a9411
  DW_CFA_def_cfa_register: r6 (rbp)
  DW_CFA_advance_loc: 34 to 00000000009a9433
  DW_CFA_def_cfa: r7 (rsp) ofs 8
  DW_CFA_nop
  DW_CFA_nop
  DW_CFA_nop

00013510 000000000000001c 00013514 FDE cie=00000000 pc=00000000009a9434..00000000009a9479
  DW_CFA_advance_loc: 1 to 00000000009a9435
  DW_CFA_def_cfa_offset: 16
  DW_CFA_offset: r6 (rbp) at cfa-16
  DW_CFA_advance_loc: 3 to 00000000009a9438
  DW_CFA_def_cfa_register: r6 (rbp)
  DW_CFA_advance_loc1: 64 to 00000000009a9478
  DW_CFA_def_cfa: r7 (rsp) ofs 8
  DW_CFA_nop
  DW_CFA_nop

00013530 000000000000001c 00013534 FDE cie=00000000 pc=00000000009a9479..00000000009a94a9
  DW_CFA_advance_loc: 1 to 00000000009a947a
  DW_CFA_def_cfa_offset: 16
  DW_CFA_offset: r6 (rbp) at cfa-16
  DW_CFA_advance_loc: 3 to 00000000009a947d
  DW_CFA_def_cfa_register: r6 (rbp)
  DW_CFA_advance_loc: 43 to 00000000009a94a8
  DW_CFA_def_cfa: r7 (rsp) ofs 8
  DW_CFA_nop
  DW_CFA_nop
  DW_CFA_nop

00013550 0000000000000020 00013554 FDE cie=00000000 pc=00000000009a94a9..00000000009a94fd
  DW_CFA_advance_loc: 1 to 00000000009a94aa
  DW_CFA_def_cfa_offset: 16
  DW_CFA_offset: r6 (rbp) at cfa-16
  DW_CFA_advance_loc: 3 to 00000000009a94ad
  DW_CFA_def_cfa_register: r6 (rbp)
  DW_CFA_advance_loc: 5 to 00000000009a94b2
  DW_CFA_offset: r3 (rbx) at cfa-24
  DW_CFA_advance_loc1: 74 to 00000000009a94fc
  DW_CFA_def_cfa: r7 (rsp) ofs 8
  DW_CFA_nop
  DW_CFA_nop
  DW_CFA_nop

00013574 000000000000001c 00013578 FDE cie=00000000 pc=00000000009a94fd..00000000009a9549
  DW_CFA_advance_loc: 1 to 00000000009a94fe
  DW_CFA_def_cfa_offset: 16
  DW_CFA_offset: r6 (rbp) at cfa-16
  DW_CFA_advance_loc: 3 to 00000000009a9501
  DW_CFA_def_cfa_register: r6 (rbp)
  DW_CFA_advance_loc1: 71 to 00000000009a9548
  DW_CFA_def_cfa: r7 (rsp) ofs 8
  DW_CFA_nop
  DW_CFA_nop

00013594 000000000000001c 00013598 FDE cie=00000000 pc=00000000009a9549..00000000009a95b6
  DW_CFA_advance_loc: 1 to 00000000009a954a
  DW_CFA_def_cfa_offset: 16
  DW_CFA_offset: r6 (rbp) at cfa-16
  DW_CFA_advance_loc: 3 to 00000000009a954d
  DW_CFA_def_cfa_register: r6 (rbp)
  DW_CFA_advance_loc1: 104 to 00000000009a95b5
  DW_CFA_def_cfa: r7 (rsp) ofs 8
  DW_CFA_nop
  DW_CFA_nop

000135b4 000000000000001c 000135b8 FDE cie=00000000 pc=00000000009a95b6..00000000009a9627
  DW_CFA_advance_loc: 1 to 00000000009a95b7
  DW_CFA_def_cfa_offset: 16
  DW_CFA_offset: r6 (rbp) at cfa-16
  DW_CFA_advance_loc: 3 to 00000000009a95ba
  DW_CFA_def_cfa_register: r6 (rbp)
  DW_CFA_advance_loc1: 108 to 00000000009a9626
  DW_CFA_def_cfa: r7 (rsp) ofs 8
  DW_CFA_nop
  DW_CFA_nop

000135d4 000000000000001c 000135d8 FDE cie=00000000 pc=00000000009a9627..00000000009a96fe
  DW_CFA_advance_loc: 1 to 00000000009a9628
  DW_CFA_def_cfa_offset: 16
  DW_CFA_offset: r6 (rbp) at cfa-16
  DW_CFA_advance_loc: 3 to 00000000009a962b
  DW_CFA_def_cfa_register: r6 (rbp)
  DW_CFA_advance_loc1: 210 to 00000000009a96fd
  DW_CFA_def_cfa: r7 (rsp) ofs 8
  DW_CFA_nop
  DW_CFA_nop

000135f4 000000000000001c 000135f8 FDE cie=00000000 pc=00000000009a96fe..00000000009a984b
  DW_CFA_advance_loc: 1 to 00000000009a96ff
  DW_CFA_def_cfa_offset: 16
  DW_CFA_offset: r6 (rbp) at cfa-16
  DW_CFA_advance_loc: 3 to 00000000009a9702
  DW_CFA_def_cfa_register: r6 (rbp)
  DW_CFA_advance_loc2: 328 to 00000000009a984a
  DW_CFA_def_cfa: r7 (rsp) ofs 8
  DW_CFA_nop

00013614 000000000000001c 00013618 FDE cie=00000000 pc=00000000009a984b..00000000009a994c
  DW_CFA_advance_loc: 1 to 00000000009a984c
  DW_CFA_def_cfa_offset: 16
  DW_CFA_offset: r6 (rbp) at cfa-16
  DW_CFA_advance_loc: 3 to 00000000009a984f
  DW_CFA_def_cfa_register: r6 (rbp)
  DW_CFA_advance_loc1: 252 to 00000000009a994b
  DW_CFA_def_cfa: r7 (rsp) ofs 8
  DW_CFA_nop
  DW_CFA_nop

00013634 000000000000001c 00013638 FDE cie=00000000 pc=00000000009a994c..00000000009a99be
  DW_CFA_advance_loc: 1 to 00000000009a994d
  DW_CFA_def_cfa_offset: 16
  DW_CFA_offset: r6 (rbp) at cfa-16
  DW_CFA_advance_loc: 3 to 00000000009a9950
  DW_CFA_def_cfa_register: r6 (rbp)
  DW_CFA_advance_loc1: 109 to 00000000009a99bd
  DW_CFA_def_cfa: r7 (rsp) ofs 8
  DW_CFA_nop
  DW_CFA_nop

00013654 000000000000001c 00013658 FDE cie=00000000 pc=00000000009a99be..00000000009a9a32
  DW_CFA_advance_loc: 1 to 00000000009a99bf
  DW_CFA_def_cfa_offset: 16
  DW_CFA_offset: r6 (rbp) at cfa-16
  DW_CFA_advance_loc: 3 to 00000000009a99c2
  DW_CFA_def_cfa_register: r6 (rbp)
  DW_CFA_advance_loc1: 111 to 00000000009a9a31
  DW_CFA_def_cfa: r7 (rsp) ofs 8
  DW_CFA_nop
  DW_CFA_nop

00013674 000000000000001c 00013678 FDE cie=00000000 pc=00000000009a9a32..00000000009a9a7e
  DW_CFA_advance_loc: 1 to 00000000009a9a33
  DW_CFA_def_cfa_offset: 16
  DW_CFA_offset: r6 (rbp) at cfa-16
  DW_CFA_advance_loc: 3 to 00000000009a9a36
  DW_CFA_def_cfa_register: r6 (rbp)
  DW_CFA_advance_loc1: 71 to 00000000009a9a7d
  DW_CFA_def_cfa: r7 (rsp) ofs 8
  DW_CFA_nop
  DW_CFA_nop

00013694 000000000000001c 00013698 FDE cie=00000000 pc=00000000009a9a7e..00000000009a9acc
  DW_CFA_advance_loc: 1 to 00000000009a9a7f
  DW_CFA_def_cfa_offset: 16
  DW_CFA_offset: r6 (rbp) at cfa-16
  DW_CFA_advance_loc: 3 to 00000000009a9a82
  DW_CFA_def_cfa_register: r6 (rbp)
  DW_CFA_advance_loc1: 73 to 00000000009a9acb
  DW_CFA_def_cfa: r7 (rsp) ofs 8
  DW_CFA_nop
  DW_CFA_nop

000136b4 000000000000001c 000136b8 FDE cie=00000000 pc=00000000009a9acc..00000000009a9b2b
  DW_CFA_advance_loc: 1 to 00000000009a9acd
  DW_CFA_def_cfa_offset: 16
  DW_CFA_offset: r6 (rbp) at cfa-16
  DW_CFA_advance_loc: 3 to 00000000009a9ad0
  DW_CFA_def_cfa_register: r6 (rbp)
  DW_CFA_advance_loc1: 90 to 00000000009a9b2a
  DW_CFA_def_cfa: r7 (rsp) ofs 8
  DW_CFA_nop
  DW_CFA_nop

000136d4 000000000000001c 000136d8 FDE cie=00000000 pc=00000000009a9b2b..00000000009a9ba0
  DW_CFA_advance_loc: 1 to 00000000009a9b2c
  DW_CFA_def_cfa_offset: 16
  DW_CFA_offset: r6 (rbp) at cfa-16
  DW_CFA_advance_loc: 3 to 00000000009a9b2f
  DW_CFA_def_cfa_register: r6 (rbp)
  DW_CFA_advance_loc1: 112 to 00000000009a9b9f
  DW_CFA_def_cfa: r7 (rsp) ofs 8
  DW_CFA_nop
  DW_CFA_nop

000136f4 000000000000001c 000136f8 FDE cie=00000000 pc=00000000009a9ba0..00000000009a9c18
  DW_CFA_advance_loc: 1 to 00000000009a9ba1
  DW_CFA_def_cfa_offset: 16
  DW_CFA_offset: r6 (rbp) at cfa-16
  DW_CFA_advance_loc: 3 to 00000000009a9ba4
  DW_CFA_def_cfa_register: r6 (rbp)
  DW_CFA_advance_loc1: 115 to 00000000009a9c17
  DW_CFA_def_cfa: r7 (rsp) ofs 8
  DW_CFA_nop
  DW_CFA_nop

00013714 000000000000001c 00013718 FDE cie=00000000 pc=00000000009a9c18..00000000009a9c85
  DW_CFA_advance_loc: 1 to 00000000009a9c19
  DW_CFA_def_cfa_offset: 16
  DW_CFA_offset: r6 (rbp) at cfa-16
  DW_CFA_advance_loc: 3 to 00000000009a9c1c
  DW_CFA_def_cfa_register: r6 (rbp)
  DW_CFA_advance_loc1: 104 to 00000000009a9c84
  DW_CFA_def_cfa: r7 (rsp) ofs 8
  DW_CFA_nop
  DW_CFA_nop

00013734 000000000000001c 00013738 FDE cie=00000000 pc=00000000009a9c85..00000000009a9cfa
  DW_CFA_advance_loc: 1 to 00000000009a9c86
  DW_CFA_def_cfa_offset: 16
  DW_CFA_offset: r6 (rbp) at cfa-16
  DW_CFA_advance_loc: 3 to 00000000009a9c89
  DW_CFA_def_cfa_register: r6 (rbp)
  DW_CFA_advance_loc1: 112 to 00000000009a9cf9
  DW_CFA_def_cfa: r7 (rsp) ofs 8
  DW_CFA_nop
  DW_CFA_nop

00013754 000000000000001c 00013758 FDE cie=00000000 pc=00000000009a9cfa..00000000009a9d6f
  DW_CFA_advance_loc: 1 to 00000000009a9cfb
  DW_CFA_def_cfa_offset: 16
  DW_CFA_offset: r6 (rbp) at cfa-16
  DW_CFA_advance_loc: 3 to 00000000009a9cfe
  DW_CFA_def_cfa_register: r6 (rbp)
  DW_CFA_advance_loc1: 112 to 00000000009a9d6e
  DW_CFA_def_cfa: r7 (rsp) ofs 8
  DW_CFA_nop
  DW_CFA_nop

00013774 000000000000001c 00013778 FDE cie=00000000 pc=00000000009a9d6f..00000000009a9e53
  DW_CFA_advance_loc: 1 to 00000000009a9d70
  DW_CFA_def_cfa_offset: 16
  DW_CFA_offset: r6 (rbp) at cfa-16
  DW_CFA_advance_loc: 3 to 00000000009a9d73
  DW_CFA_def_cfa_register: r6 (rbp)
  DW_CFA_advance_loc1: 223 to 00000000009a9e52
  DW_CFA_def_cfa: r7 (rsp) ofs 8
  DW_CFA_nop
  DW_CFA_nop

00013794 000000000000001c 00013798 FDE cie=00000000 pc=00000000009a9e53..00000000009a9f61
  DW_CFA_advance_loc: 1 to 00000000009a9e54
  DW_CFA_def_cfa_offset: 16
  DW_CFA_offset: r6 (rbp) at cfa-16
  DW_CFA_advance_loc: 3 to 00000000009a9e57
  DW_CFA_def_cfa_register: r6 (rbp)
  DW_CFA_advance_loc2: 265 to 00000000009a9f60
  DW_CFA_def_cfa: r7 (rsp) ofs 8
  DW_CFA_nop

000137b4 000000000000001c 000137b8 FDE cie=00000000 pc=00000000009a9f61..00000000009aa042
  DW_CFA_advance_loc: 1 to 00000000009a9f62
  DW_CFA_def_cfa_offset: 16
  DW_CFA_offset: r6 (rbp) at cfa-16
  DW_CFA_advance_loc: 3 to 00000000009a9f65
  DW_CFA_def_cfa_register: r6 (rbp)
  DW_CFA_advance_loc1: 220 to 00000000009aa041
  DW_CFA_def_cfa: r7 (rsp) ofs 8
  DW_CFA_nop
  DW_CFA_nop

000137d4 000000000000001c 000137d8 FDE cie=00000000 pc=00000000009aa042..00000000009aa28b
  DW_CFA_advance_loc: 1 to 00000000009aa043
  DW_CFA_def_cfa_offset: 16
  DW_CFA_offset: r6 (rbp) at cfa-16
  DW_CFA_advance_loc: 3 to 00000000009aa046
  DW_CFA_def_cfa_register: r6 (rbp)
  DW_CFA_advance_loc2: 580 to 00000000009aa28a
  DW_CFA_def_cfa: r7 (rsp) ofs 8
  DW_CFA_nop

000137f4 000000000000001c 000137f8 FDE cie=00000000 pc=00000000009aa28b..00000000009aa2d2
  DW_CFA_advance_loc: 1 to 00000000009aa28c
  DW_CFA_def_cfa_offset: 16
  DW_CFA_offset: r6 (rbp) at cfa-16
  DW_CFA_advance_loc: 3 to 00000000009aa28f
  DW_CFA_def_cfa_register: r6 (rbp)
  DW_CFA_advance_loc1: 66 to 00000000009aa2d1
  DW_CFA_def_cfa: r7 (rsp) ofs 8
  DW_CFA_nop
  DW_CFA_nop

00013814 000000000000001c 00013818 FDE cie=00000000 pc=00000000009aa2d2..00000000009aa319
  DW_CFA_advance_loc: 1 to 00000000009aa2d3
  DW_CFA_def_cfa_offset: 16
  DW_CFA_offset: r6 (rbp) at cfa-16
  DW_CFA_advance_loc: 3 to 00000000009aa2d6
  DW_CFA_def_cfa_register: r6 (rbp)
  DW_CFA_advance_loc1: 66 to 00000000009aa318
  DW_CFA_def_cfa: r7 (rsp) ofs 8
  DW_CFA_nop
  DW_CFA_nop

00013834 000000000000001c 00013838 FDE cie=00000000 pc=00000000009aa319..00000000009aa32f
  DW_CFA_advance_loc: 1 to 00000000009aa31a
  DW_CFA_def_cfa_offset: 16
  DW_CFA_offset: r6 (rbp) at cfa-16
  DW_CFA_advance_loc: 3 to 00000000009aa31d
  DW_CFA_def_cfa_register: r6 (rbp)
  DW_CFA_advance_loc: 17 to 00000000009aa32e
  DW_CFA_def_cfa: r7 (rsp) ofs 8
  DW_CFA_nop
  DW_CFA_nop
  DW_CFA_nop

00013854 000000000000001c 00013858 FDE cie=00000000 pc=00000000009aa32f..00000000009aa345
  DW_CFA_advance_loc: 1 to 00000000009aa330
  DW_CFA_def_cfa_offset: 16
  DW_CFA_offset: r6 (rbp) at cfa-16
  DW_CFA_advance_loc: 3 to 00000000009aa333
  DW_CFA_def_cfa_register: r6 (rbp)
  DW_CFA_advance_loc: 17 to 00000000009aa344
  DW_CFA_def_cfa: r7 (rsp) ofs 8
  DW_CFA_nop
  DW_CFA_nop
  DW_CFA_nop

00013874 000000000000001c 00013878 FDE cie=00000000 pc=00000000009aa345..00000000009aa5ae
  DW_CFA_advance_loc: 1 to 00000000009aa346
  DW_CFA_def_cfa_offset: 16
  DW_CFA_offset: r6 (rbp) at cfa-16
  DW_CFA_advance_loc: 3 to 00000000009aa349
  DW_CFA_def_cfa_register: r6 (rbp)
  DW_CFA_advance_loc2: 612 to 00000000009aa5ad
  DW_CFA_def_cfa: r7 (rsp) ofs 8
  DW_CFA_nop

00013894 000000000000001c 00013898 FDE cie=00000000 pc=00000000009aa5ae..00000000009aa7aa
  DW_CFA_advance_loc: 1 to 00000000009aa5af
  DW_CFA_def_cfa_offset: 16
  DW_CFA_offset: r6 (rbp) at cfa-16
  DW_CFA_advance_loc: 3 to 00000000009aa5b2
  DW_CFA_def_cfa_register: r6 (rbp)
  DW_CFA_advance_loc2: 503 to 00000000009aa7a9
  DW_CFA_def_cfa: r7 (rsp) ofs 8
  DW_CFA_nop

000138b4 000000000000001c 000138b8 FDE cie=00000000 pc=00000000009aa7aa..00000000009aa8d6
  DW_CFA_advance_loc: 1 to 00000000009aa7ab
  DW_CFA_def_cfa_offset: 16
  DW_CFA_offset: r6 (rbp) at cfa-16
  DW_CFA_advance_loc: 3 to 00000000009aa7ae
  DW_CFA_def_cfa_register: r6 (rbp)
  DW_CFA_advance_loc2: 295 to 00000000009aa8d5
  DW_CFA_def_cfa: r7 (rsp) ofs 8
  DW_CFA_nop

000138d4 000000000000001c 000138d8 FDE cie=00000000 pc=00000000009aa8d6..00000000009aa9c6
  DW_CFA_advance_loc: 1 to 00000000009aa8d7
  DW_CFA_def_cfa_offset: 16
  DW_CFA_offset: r6 (rbp) at cfa-16
  DW_CFA_advance_loc: 3 to 00000000009aa8da
  DW_CFA_def_cfa_register: r6 (rbp)
  DW_CFA_advance_loc1: 235 to 00000000009aa9c5
  DW_CFA_def_cfa: r7 (rsp) ofs 8
  DW_CFA_nop
  DW_CFA_nop

000138f4 000000000000001c 000138f8 FDE cie=00000000 pc=00000000009aa9c6..00000000009aaa21
  DW_CFA_advance_loc: 1 to 00000000009aa9c7
  DW_CFA_def_cfa_offset: 16
  DW_CFA_offset: r6 (rbp) at cfa-16
  DW_CFA_advance_loc: 3 to 00000000009aa9ca
  DW_CFA_def_cfa_register: r6 (rbp)
  DW_CFA_advance_loc1: 86 to 00000000009aaa20
  DW_CFA_def_cfa: r7 (rsp) ofs 8
  DW_CFA_nop
  DW_CFA_nop

00013914 000000000000001c 00013918 FDE cie=00000000 pc=00000000009aaa21..00000000009aab70
  DW_CFA_advance_loc: 1 to 00000000009aaa22
  DW_CFA_def_cfa_offset: 16
  DW_CFA_offset: r6 (rbp) at cfa-16
  DW_CFA_advance_loc: 3 to 00000000009aaa25
  DW_CFA_def_cfa_register: r6 (rbp)
  DW_CFA_advance_loc2: 330 to 00000000009aab6f
  DW_CFA_def_cfa: r7 (rsp) ofs 8
  DW_CFA_nop

00013934 000000000000001c 00013938 FDE cie=00000000 pc=00000000009aab70..00000000009aabfd
  DW_CFA_advance_loc: 1 to 00000000009aab71
  DW_CFA_def_cfa_offset: 16
  DW_CFA_offset: r6 (rbp) at cfa-16
  DW_CFA_advance_loc: 3 to 00000000009aab74
  DW_CFA_def_cfa_register: r6 (rbp)
  DW_CFA_advance_loc1: 136 to 00000000009aabfc
  DW_CFA_def_cfa: r7 (rsp) ofs 8
  DW_CFA_nop
  DW_CFA_nop

00013954 000000000000001c 00013958 FDE cie=00000000 pc=00000000009aabfd..00000000009aac59
  DW_CFA_advance_loc: 1 to 00000000009aabfe
  DW_CFA_def_cfa_offset: 16
  DW_CFA_offset: r6 (rbp) at cfa-16
  DW_CFA_advance_loc: 3 to 00000000009aac01
  DW_CFA_def_cfa_register: r6 (rbp)
  DW_CFA_advance_loc1: 87 to 00000000009aac58
  DW_CFA_def_cfa: r7 (rsp) ofs 8
  DW_CFA_nop
  DW_CFA_nop

00013974 000000000000001c 00013978 FDE cie=00000000 pc=00000000009aac59..00000000009aadea
  DW_CFA_advance_loc: 1 to 00000000009aac5a
  DW_CFA_def_cfa_offset: 16
  DW_CFA_offset: r6 (rbp) at cfa-16
  DW_CFA_advance_loc: 3 to 00000000009aac5d
  DW_CFA_def_cfa_register: r6 (rbp)
  DW_CFA_advance_loc2: 396 to 00000000009aade9
  DW_CFA_def_cfa: r7 (rsp) ofs 8
  DW_CFA_nop

00013994 000000000000001c 00013998 FDE cie=00000000 pc=00000000009aadea..00000000009aaed5
  DW_CFA_advance_loc: 1 to 00000000009aadeb
  DW_CFA_def_cfa_offset: 16
  DW_CFA_offset: r6 (rbp) at cfa-16
  DW_CFA_advance_loc: 3 to 00000000009aadee
  DW_CFA_def_cfa_register: r6 (rbp)
  DW_CFA_advance_loc1: 230 to 00000000009aaed4
  DW_CFA_def_cfa: r7 (rsp) ofs 8
  DW_CFA_nop
  DW_CFA_nop

000139b4 000000000000001c 000139b8 FDE cie=00000000 pc=00000000009aaed5..00000000009ab0b7
  DW_CFA_advance_loc: 1 to 00000000009aaed6
  DW_CFA_def_cfa_offset: 16
  DW_CFA_offset: r6 (rbp) at cfa-16
  DW_CFA_advance_loc: 3 to 00000000009aaed9
  DW_CFA_def_cfa_register: r6 (rbp)
  DW_CFA_advance_loc2: 477 to 00000000009ab0b6
  DW_CFA_def_cfa: r7 (rsp) ofs 8
  DW_CFA_nop

000139d4 000000000000001c 000139d8 FDE cie=00000000 pc=00000000009ab0b7..00000000009ab2b6
  DW_CFA_advance_loc: 1 to 00000000009ab0b8
  DW_CFA_def_cfa_offset: 16
  DW_CFA_offset: r6 (rbp) at cfa-16
  DW_CFA_advance_loc: 3 to 00000000009ab0bb
  DW_CFA_def_cfa_register: r6 (rbp)
  DW_CFA_advance_loc2: 506 to 00000000009ab2b5
  DW_CFA_def_cfa: r7 (rsp) ofs 8
  DW_CFA_nop

000139f4 000000000000001c 000139f8 FDE cie=00000000 pc=00000000009ab2b6..00000000009ab450
  DW_CFA_advance_loc: 1 to 00000000009ab2b7
  DW_CFA_def_cfa_offset: 16
  DW_CFA_offset: r6 (rbp) at cfa-16
  DW_CFA_advance_loc: 3 to 00000000009ab2ba
  DW_CFA_def_cfa_register: r6 (rbp)
  DW_CFA_advance_loc2: 405 to 00000000009ab44f
  DW_CFA_def_cfa: r7 (rsp) ofs 8
  DW_CFA_nop

00013a14 000000000000001c 00013a18 FDE cie=00000000 pc=00000000009ab450..00000000009ab523
  DW_CFA_advance_loc: 1 to 00000000009ab451
  DW_CFA_def_cfa_offset: 16
  DW_CFA_offset: r6 (rbp) at cfa-16
  DW_CFA_advance_loc: 3 to 00000000009ab454
  DW_CFA_def_cfa_register: r6 (rbp)
  DW_CFA_advance_loc1: 206 to 00000000009ab522
  DW_CFA_def_cfa: r7 (rsp) ofs 8
  DW_CFA_nop
  DW_CFA_nop

00013a34 000000000000001c 00013a38 FDE cie=00000000 pc=00000000009ab523..00000000009ab605
  DW_CFA_advance_loc: 1 to 00000000009ab524
  DW_CFA_def_cfa_offset: 16
  DW_CFA_offset: r6 (rbp) at cfa-16
  DW_CFA_advance_loc: 3 to 00000000009ab527
  DW_CFA_def_cfa_register: r6 (rbp)
  DW_CFA_advance_loc1: 221 to 00000000009ab604
  DW_CFA_def_cfa: r7 (rsp) ofs 8
  DW_CFA_nop
  DW_CFA_nop

00013a54 000000000000001c 00013a58 FDE cie=00000000 pc=00000000009ab605..00000000009ab6af
  DW_CFA_advance_loc: 1 to 00000000009ab606
  DW_CFA_def_cfa_offset: 16
  DW_CFA_offset: r6 (rbp) at cfa-16
  DW_CFA_advance_loc: 3 to 00000000009ab609
  DW_CFA_def_cfa_register: r6 (rbp)
  DW_CFA_advance_loc1: 165 to 00000000009ab6ae
  DW_CFA_def_cfa: r7 (rsp) ofs 8
  DW_CFA_nop
  DW_CFA_nop

00013a74 000000000000001c 00013a78 FDE cie=00000000 pc=00000000009ab6af..00000000009ab76c
  DW_CFA_advance_loc: 1 to 00000000009ab6b0
  DW_CFA_def_cfa_offset: 16
  DW_CFA_offset: r6 (rbp) at cfa-16
  DW_CFA_advance_loc: 3 to 00000000009ab6b3
  DW_CFA_def_cfa_register: r6 (rbp)
  DW_CFA_advance_loc1: 184 to 00000000009ab76b
  DW_CFA_def_cfa: r7 (rsp) ofs 8
  DW_CFA_nop
  DW_CFA_nop

00013a94 000000000000001c 00013a98 FDE cie=00000000 pc=00000000009ab76c..00000000009ab885
  DW_CFA_advance_loc: 1 to 00000000009ab76d
  DW_CFA_def_cfa_offset: 16
  DW_CFA_offset: r6 (rbp) at cfa-16
  DW_CFA_advance_loc: 3 to 00000000009ab770
  DW_CFA_def_cfa_register: r6 (rbp)
  DW_CFA_advance_loc2: 276 to 00000000009ab884
  DW_CFA_def_cfa: r7 (rsp) ofs 8
  DW_CFA_nop

00013ab4 000000000000001c 00013ab8 FDE cie=00000000 pc=00000000009ab885..00000000009ab9a8
  DW_CFA_advance_loc: 1 to 00000000009ab886
  DW_CFA_def_cfa_offset: 16
  DW_CFA_offset: r6 (rbp) at cfa-16
  DW_CFA_advance_loc: 3 to 00000000009ab889
  DW_CFA_def_cfa_register: r6 (rbp)
  DW_CFA_advance_loc2: 286 to 00000000009ab9a7
  DW_CFA_def_cfa: r7 (rsp) ofs 8
  DW_CFA_nop

00013ad4 000000000000001c 00013ad8 FDE cie=00000000 pc=00000000009ab9a8..00000000009abca4
  DW_CFA_advance_loc: 1 to 00000000009ab9a9
  DW_CFA_def_cfa_offset: 16
  DW_CFA_offset: r6 (rbp) at cfa-16
  DW_CFA_advance_loc: 3 to 00000000009ab9ac
  DW_CFA_def_cfa_register: r6 (rbp)
  DW_CFA_advance_loc2: 759 to 00000000009abca3
  DW_CFA_def_cfa: r7 (rsp) ofs 8
  DW_CFA_nop

00013af4 000000000000001c 00013af8 FDE cie=00000000 pc=00000000009abca4..00000000009abea6
  DW_CFA_advance_loc: 1 to 00000000009abca5
  DW_CFA_def_cfa_offset: 16
  DW_CFA_offset: r6 (rbp) at cfa-16
  DW_CFA_advance_loc: 3 to 00000000009abca8
  DW_CFA_def_cfa_register: r6 (rbp)
  DW_CFA_advance_loc2: 509 to 00000000009abea5
  DW_CFA_def_cfa: r7 (rsp) ofs 8
  DW_CFA_nop

00013b14 0000000000000020 00013b18 FDE cie=00000000 pc=00000000009abea6..00000000009abfce
  DW_CFA_advance_loc: 1 to 00000000009abea7
  DW_CFA_def_cfa_offset: 16
  DW_CFA_offset: r6 (rbp) at cfa-16
  DW_CFA_advance_loc: 3 to 00000000009abeaa
  DW_CFA_def_cfa_register: r6 (rbp)
  DW_CFA_advance_loc: 1 to 00000000009abeab
  DW_CFA_offset: r3 (rbx) at cfa-24
  DW_CFA_advance_loc2: 290 to 00000000009abfcd
  DW_CFA_def_cfa: r7 (rsp) ofs 8
  DW_CFA_nop
  DW_CFA_nop

00013b38 0000000000000020 00013b3c FDE cie=00000000 pc=00000000009abfce..00000000009ac124
  DW_CFA_advance_loc: 1 to 00000000009abfcf
  DW_CFA_def_cfa_offset: 16
  DW_CFA_offset: r6 (rbp) at cfa-16
  DW_CFA_advance_loc: 3 to 00000000009abfd2
  DW_CFA_def_cfa_register: r6 (rbp)
  DW_CFA_advance_loc: 1 to 00000000009abfd3
  DW_CFA_offset: r3 (rbx) at cfa-24
  DW_CFA_advance_loc2: 336 to 00000000009ac123
  DW_CFA_def_cfa: r7 (rsp) ofs 8
  DW_CFA_nop
  DW_CFA_nop

00013b5c 0000000000000020 00013b60 FDE cie=00000000 pc=00000000009ac124..00000000009ac27a
  DW_CFA_advance_loc: 1 to 00000000009ac125
  DW_CFA_def_cfa_offset: 16
  DW_CFA_offset: r6 (rbp) at cfa-16
  DW_CFA_advance_loc: 3 to 00000000009ac128
  DW_CFA_def_cfa_register: r6 (rbp)
  DW_CFA_advance_loc: 1 to 00000000009ac129
  DW_CFA_offset: r3 (rbx) at cfa-24
  DW_CFA_advance_loc2: 336 to 00000000009ac279
  DW_CFA_def_cfa: r7 (rsp) ofs 8
  DW_CFA_nop
  DW_CFA_nop

00013b80 0000000000000020 00013b84 FDE cie=00000000 pc=00000000009ac27a..00000000009ac497
  DW_CFA_advance_loc: 1 to 00000000009ac27b
  DW_CFA_def_cfa_offset: 16
  DW_CFA_offset: r6 (rbp) at cfa-16
  DW_CFA_advance_loc: 3 to 00000000009ac27e
  DW_CFA_def_cfa_register: r6 (rbp)
  DW_CFA_advance_loc: 1 to 00000000009ac27f
  DW_CFA_offset: r3 (rbx) at cfa-24
  DW_CFA_advance_loc2: 535 to 00000000009ac496
  DW_CFA_def_cfa: r7 (rsp) ofs 8
  DW_CFA_nop
  DW_CFA_nop

00013ba4 000000000000001c 00013ba8 FDE cie=00000000 pc=00000000009ac497..00000000009ac51f
  DW_CFA_advance_loc: 1 to 00000000009ac498
  DW_CFA_def_cfa_offset: 16
  DW_CFA_offset: r6 (rbp) at cfa-16
  DW_CFA_advance_loc: 3 to 00000000009ac49b
  DW_CFA_def_cfa_register: r6 (rbp)
  DW_CFA_advance_loc1: 131 to 00000000009ac51e
  DW_CFA_def_cfa: r7 (rsp) ofs 8
  DW_CFA_nop
  DW_CFA_nop

00013bc4 000000000000001c 00013bc8 FDE cie=00000000 pc=00000000009ac51f..00000000009ac675
  DW_CFA_advance_loc: 1 to 00000000009ac520
  DW_CFA_def_cfa_offset: 16
  DW_CFA_offset: r6 (rbp) at cfa-16
  DW_CFA_advance_loc: 3 to 00000000009ac523
  DW_CFA_def_cfa_register: r6 (rbp)
  DW_CFA_advance_loc2: 337 to 00000000009ac674
  DW_CFA_def_cfa: r7 (rsp) ofs 8
  DW_CFA_nop

00013be4 000000000000001c 00013be8 FDE cie=00000000 pc=00000000009ac675..00000000009ac6a3
  DW_CFA_advance_loc: 1 to 00000000009ac676
  DW_CFA_def_cfa_offset: 16
  DW_CFA_offset: r6 (rbp) at cfa-16
  DW_CFA_advance_loc: 3 to 00000000009ac679
  DW_CFA_def_cfa_register: r6 (rbp)
  DW_CFA_advance_loc: 41 to 00000000009ac6a2
  DW_CFA_def_cfa: r7 (rsp) ofs 8
  DW_CFA_nop
  DW_CFA_nop
  DW_CFA_nop

00013c04 000000000000001c 00013c08 FDE cie=00000000 pc=00000000009ac6a3..00000000009ac7cc
  DW_CFA_advance_loc: 1 to 00000000009ac6a4
  DW_CFA_def_cfa_offset: 16
  DW_CFA_offset: r6 (rbp) at cfa-16
  DW_CFA_advance_loc: 3 to 00000000009ac6a7
  DW_CFA_def_cfa_register: r6 (rbp)
  DW_CFA_advance_loc2: 292 to 00000000009ac7cb
  DW_CFA_def_cfa: r7 (rsp) ofs 8
  DW_CFA_nop

00013c24 000000000000001c 00013c28 FDE cie=00000000 pc=00000000009ac7cc..00000000009ac880
  DW_CFA_advance_loc: 1 to 00000000009ac7cd
  DW_CFA_def_cfa_offset: 16
  DW_CFA_offset: r6 (rbp) at cfa-16
  DW_CFA_advance_loc: 3 to 00000000009ac7d0
  DW_CFA_def_cfa_register: r6 (rbp)
  DW_CFA_advance_loc1: 175 to 00000000009ac87f
  DW_CFA_def_cfa: r7 (rsp) ofs 8
  DW_CFA_nop
  DW_CFA_nop

00013c44 000000000000001c 00013c48 FDE cie=00000000 pc=00000000009ac880..00000000009ac934
  DW_CFA_advance_loc: 1 to 00000000009ac881
  DW_CFA_def_cfa_offset: 16
  DW_CFA_offset: r6 (rbp) at cfa-16
  DW_CFA_advance_loc: 3 to 00000000009ac884
  DW_CFA_def_cfa_register: r6 (rbp)
  DW_CFA_advance_loc1: 175 to 00000000009ac933
  DW_CFA_def_cfa: r7 (rsp) ofs 8
  DW_CFA_nop
  DW_CFA_nop

00013c64 0000000000000020 00013c68 FDE cie=00000000 pc=00000000009ac934..00000000009acbd0
  DW_CFA_advance_loc: 1 to 00000000009ac935
  DW_CFA_def_cfa_offset: 16
  DW_CFA_offset: r6 (rbp) at cfa-16
  DW_CFA_advance_loc: 3 to 00000000009ac938
  DW_CFA_def_cfa_register: r6 (rbp)
  DW_CFA_advance_loc: 8 to 00000000009ac940
  DW_CFA_offset: r3 (rbx) at cfa-24
  DW_CFA_advance_loc2: 655 to 00000000009acbcf
  DW_CFA_def_cfa: r7 (rsp) ofs 8
  DW_CFA_nop
  DW_CFA_nop

00013c88 000000000000001c 00013c8c FDE cie=00000000 pc=00000000009acbd0..00000000009acce9
  DW_CFA_advance_loc: 1 to 00000000009acbd1
  DW_CFA_def_cfa_offset: 16
  DW_CFA_offset: r6 (rbp) at cfa-16
  DW_CFA_advance_loc: 3 to 00000000009acbd4
  DW_CFA_def_cfa_register: r6 (rbp)
  DW_CFA_advance_loc2: 276 to 00000000009acce8
  DW_CFA_def_cfa: r7 (rsp) ofs 8
  DW_CFA_nop

00013ca8 000000000000001c 00013cac FDE cie=00000000 pc=00000000009acce9..00000000009ace5b
  DW_CFA_advance_loc: 1 to 00000000009accea
  DW_CFA_def_cfa_offset: 16
  DW_CFA_offset: r6 (rbp) at cfa-16
  DW_CFA_advance_loc: 3 to 00000000009acced
  DW_CFA_def_cfa_register: r6 (rbp)
  DW_CFA_advance_loc2: 365 to 00000000009ace5a
  DW_CFA_def_cfa: r7 (rsp) ofs 8
  DW_CFA_nop

00013cc8 000000000000001c 00013ccc FDE cie=00000000 pc=00000000009ace5b..00000000009ad00f
  DW_CFA_advance_loc: 1 to 00000000009ace5c
  DW_CFA_def_cfa_offset: 16
  DW_CFA_offset: r6 (rbp) at cfa-16
  DW_CFA_advance_loc: 3 to 00000000009ace5f
  DW_CFA_def_cfa_register: r6 (rbp)
  DW_CFA_advance_loc2: 431 to 00000000009ad00e
  DW_CFA_def_cfa: r7 (rsp) ofs 8
  DW_CFA_nop

00013ce8 000000000000001c 00013cec FDE cie=00000000 pc=00000000009ad00f..00000000009ad176
  DW_CFA_advance_loc: 1 to 00000000009ad010
  DW_CFA_def_cfa_offset: 16
  DW_CFA_offset: r6 (rbp) at cfa-16
  DW_CFA_advance_loc: 3 to 00000000009ad013
  DW_CFA_def_cfa_register: r6 (rbp)
  DW_CFA_advance_loc2: 354 to 00000000009ad175
  DW_CFA_def_cfa: r7 (rsp) ofs 8
  DW_CFA_nop

00013d08 000000000000001c 00013d0c FDE cie=00000000 pc=00000000009ad176..00000000009ad2da
  DW_CFA_advance_loc: 1 to 00000000009ad177
  DW_CFA_def_cfa_offset: 16
  DW_CFA_offset: r6 (rbp) at cfa-16
  DW_CFA_advance_loc: 3 to 00000000009ad17a
  DW_CFA_def_cfa_register: r6 (rbp)
  DW_CFA_advance_loc2: 351 to 00000000009ad2d9
  DW_CFA_def_cfa: r7 (rsp) ofs 8
  DW_CFA_nop

00013d28 000000000000001c 00013d2c FDE cie=00000000 pc=00000000009ad2da..00000000009ad515
  DW_CFA_advance_loc: 1 to 00000000009ad2db
  DW_CFA_def_cfa_offset: 16
  DW_CFA_offset: r6 (rbp) at cfa-16
  DW_CFA_advance_loc: 3 to 00000000009ad2de
  DW_CFA_def_cfa_register: r6 (rbp)
  DW_CFA_advance_loc2: 566 to 00000000009ad514
  DW_CFA_def_cfa: r7 (rsp) ofs 8
  DW_CFA_nop

00013d48 000000000000001c 00013d4c FDE cie=00000000 pc=00000000009ad515..00000000009ad640
  DW_CFA_advance_loc: 1 to 00000000009ad516
  DW_CFA_def_cfa_offset: 16
  DW_CFA_offset: r6 (rbp) at cfa-16
  DW_CFA_advance_loc: 3 to 00000000009ad519
  DW_CFA_def_cfa_register: r6 (rbp)
  DW_CFA_advance_loc2: 294 to 00000000009ad63f
  DW_CFA_def_cfa: r7 (rsp) ofs 8
  DW_CFA_nop

00013d68 000000000000001c 00013d6c FDE cie=00000000 pc=00000000009ad640..00000000009ad879
  DW_CFA_advance_loc: 1 to 00000000009ad641
  DW_CFA_def_cfa_offset: 16
  DW_CFA_offset: r6 (rbp) at cfa-16
  DW_CFA_advance_loc: 3 to 00000000009ad644
  DW_CFA_def_cfa_register: r6 (rbp)
  DW_CFA_advance_loc2: 564 to 00000000009ad878
  DW_CFA_def_cfa: r7 (rsp) ofs 8
  DW_CFA_nop

00013d88 000000000000001c 00013d8c FDE cie=00000000 pc=00000000009ad879..00000000009add34
  DW_CFA_advance_loc: 1 to 00000000009ad87a
  DW_CFA_def_cfa_offset: 16
  DW_CFA_offset: r6 (rbp) at cfa-16
  DW_CFA_advance_loc: 3 to 00000000009ad87d
  DW_CFA_def_cfa_register: r6 (rbp)
  DW_CFA_advance_loc2: 1206 to 00000000009add33
  DW_CFA_def_cfa: r7 (rsp) ofs 8
  DW_CFA_nop

00013da8 0000000000000020 00013dac FDE cie=00000000 pc=00000000009add34..00000000009ae255
  DW_CFA_advance_loc: 1 to 00000000009add35
  DW_CFA_def_cfa_offset: 16
  DW_CFA_offset: r6 (rbp) at cfa-16
  DW_CFA_advance_loc: 3 to 00000000009add38
  DW_CFA_def_cfa_register: r6 (rbp)
  DW_CFA_advance_loc: 5 to 00000000009add3d
  DW_CFA_offset: r3 (rbx) at cfa-24
  DW_CFA_advance_loc2: 1303 to 00000000009ae254
  DW_CFA_def_cfa: r7 (rsp) ofs 8
  DW_CFA_nop
  DW_CFA_nop

00013dcc 000000000000001c 00013dd0 FDE cie=00000000 pc=00000000009ae255..00000000009ae435
  DW_CFA_advance_loc: 1 to 00000000009ae256
  DW_CFA_def_cfa_offset: 16
  DW_CFA_offset: r6 (rbp) at cfa-16
  DW_CFA_advance_loc: 3 to 00000000009ae259
  DW_CFA_def_cfa_register: r6 (rbp)
  DW_CFA_advance_loc2: 475 to 00000000009ae434
  DW_CFA_def_cfa: r7 (rsp) ofs 8
  DW_CFA_nop

00013dec 0000000000000020 00013df0 FDE cie=00000000 pc=00000000009ae435..00000000009ae902
  DW_CFA_advance_loc: 1 to 00000000009ae436
  DW_CFA_def_cfa_offset: 16
  DW_CFA_offset: r6 (rbp) at cfa-16
  DW_CFA_advance_loc: 3 to 00000000009ae439
  DW_CFA_def_cfa_register: r6 (rbp)
  DW_CFA_advance_loc: 5 to 00000000009ae43e
  DW_CFA_offset: r3 (rbx) at cfa-24
  DW_CFA_advance_loc2: 1219 to 00000000009ae901
  DW_CFA_def_cfa: r7 (rsp) ofs 8
  DW_CFA_nop
  DW_CFA_nop

00013e10 000000000000001c 00013e14 FDE cie=00000000 pc=00000000009ae902..00000000009aea51
  DW_CFA_advance_loc: 1 to 00000000009ae903
  DW_CFA_def_cfa_offset: 16
  DW_CFA_offset: r6 (rbp) at cfa-16
  DW_CFA_advance_loc: 3 to 00000000009ae906
  DW_CFA_def_cfa_register: r6 (rbp)
  DW_CFA_advance_loc2: 330 to 00000000009aea50
  DW_CFA_def_cfa: r7 (rsp) ofs 8
  DW_CFA_nop

00013e30 000000000000001c 00013e34 FDE cie=00000000 pc=00000000009aea51..00000000009af148
  DW_CFA_advance_loc: 1 to 00000000009aea52
  DW_CFA_def_cfa_offset: 16
  DW_CFA_offset: r6 (rbp) at cfa-16
  DW_CFA_advance_loc: 3 to 00000000009aea55
  DW_CFA_def_cfa_register: r6 (rbp)
  DW_CFA_advance_loc2: 1778 to 00000000009af147
  DW_CFA_def_cfa: r7 (rsp) ofs 8
  DW_CFA_nop

00013e50 000000000000001c 00013e54 FDE cie=00000000 pc=00000000009af148..00000000009af1e0
  DW_CFA_advance_loc: 1 to 00000000009af149
  DW_CFA_def_cfa_offset: 16
  DW_CFA_offset: r6 (rbp) at cfa-16
  DW_CFA_advance_loc: 3 to 00000000009af14c
  DW_CFA_def_cfa_register: r6 (rbp)
  DW_CFA_advance_loc1: 147 to 00000000009af1df
  DW_CFA_def_cfa: r7 (rsp) ofs 8
  DW_CFA_nop
  DW_CFA_nop

00013e70 000000000000001c 00013e74 FDE cie=00000000 pc=00000000009af1e0..00000000009af2bf
  DW_CFA_advance_loc: 1 to 00000000009af1e1
  DW_CFA_def_cfa_offset: 16
  DW_CFA_offset: r6 (rbp) at cfa-16
  DW_CFA_advance_loc: 3 to 00000000009af1e4
  DW_CFA_def_cfa_register: r6 (rbp)
  DW_CFA_advance_loc1: 218 to 00000000009af2be
  DW_CFA_def_cfa: r7 (rsp) ofs 8
  DW_CFA_nop
  DW_CFA_nop

00013e90 0000000000000020 00013e94 FDE cie=00000000 pc=00000000009af2bf..00000000009af57e
  DW_CFA_advance_loc: 1 to 00000000009af2c0
  DW_CFA_def_cfa_offset: 16
  DW_CFA_offset: r6 (rbp) at cfa-16
  DW_CFA_advance_loc: 3 to 00000000009af2c3
  DW_CFA_def_cfa_register: r6 (rbp)
  DW_CFA_advance_loc: 8 to 00000000009af2cb
  DW_CFA_offset: r3 (rbx) at cfa-24
  DW_CFA_advance_loc2: 690 to 00000000009af57d
  DW_CFA_def_cfa: r7 (rsp) ofs 8
  DW_CFA_nop
  DW_CFA_nop

00013eb4 000000000000001c 00013eb8 FDE cie=00000000 pc=00000000009af57e..00000000009af7ec
  DW_CFA_advance_loc: 1 to 00000000009af57f
  DW_CFA_def_cfa_offset: 16
  DW_CFA_offset: r6 (rbp) at cfa-16
  DW_CFA_advance_loc: 3 to 00000000009af582
  DW_CFA_def_cfa_register: r6 (rbp)
  DW_CFA_advance_loc2: 617 to 00000000009af7eb
  DW_CFA_def_cfa: r7 (rsp) ofs 8
  DW_CFA_nop

00013ed4 000000000000001c 00013ed8 FDE cie=00000000 pc=00000000009af7ec..00000000009af9d8
  DW_CFA_advance_loc: 1 to 00000000009af7ed
  DW_CFA_def_cfa_offset: 16
  DW_CFA_offset: r6 (rbp) at cfa-16
  DW_CFA_advance_loc: 3 to 00000000009af7f0
  DW_CFA_def_cfa_register: r6 (rbp)
  DW_CFA_advance_loc2: 487 to 00000000009af9d7
  DW_CFA_def_cfa: r7 (rsp) ofs 8
  DW_CFA_nop

00013ef4 000000000000001c 00013ef8 FDE cie=00000000 pc=00000000009af9d8..00000000009afbc0
  DW_CFA_advance_loc: 1 to 00000000009af9d9
  DW_CFA_def_cfa_offset: 16
  DW_CFA_offset: r6 (rbp) at cfa-16
  DW_CFA_advance_loc: 3 to 00000000009af9dc
  DW_CFA_def_cfa_register: r6 (rbp)
  DW_CFA_advance_loc2: 483 to 00000000009afbbf
  DW_CFA_def_cfa: r7 (rsp) ofs 8
  DW_CFA_nop

00013f14 000000000000001c 00013f18 FDE cie=00000000 pc=00000000009afbc0..00000000009afc6b
  DW_CFA_advance_loc: 1 to 00000000009afbc1
  DW_CFA_def_cfa_offset: 16
  DW_CFA_offset: r6 (rbp) at cfa-16
  DW_CFA_advance_loc: 3 to 00000000009afbc4
  DW_CFA_def_cfa_register: r6 (rbp)
  DW_CFA_advance_loc1: 166 to 00000000009afc6a
  DW_CFA_def_cfa: r7 (rsp) ofs 8
  DW_CFA_nop
  DW_CFA_nop

00013f34 000000000000001c 00013f38 FDE cie=00000000 pc=00000000009afc6b..00000000009afdda
  DW_CFA_advance_loc: 1 to 00000000009afc6c
  DW_CFA_def_cfa_offset: 16
  DW_CFA_offset: r6 (rbp) at cfa-16
  DW_CFA_advance_loc: 3 to 00000000009afc6f
  DW_CFA_def_cfa_register: r6 (rbp)
  DW_CFA_advance_loc2: 362 to 00000000009afdd9
  DW_CFA_def_cfa: r7 (rsp) ofs 8
  DW_CFA_nop

00013f54 0000000000000020 00013f58 FDE cie=00000000 pc=00000000009afdda..00000000009b1b28
  DW_CFA_advance_loc: 1 to 00000000009afddb
  DW_CFA_def_cfa_offset: 16
  DW_CFA_offset: r6 (rbp) at cfa-16
  DW_CFA_advance_loc: 3 to 00000000009afdde
  DW_CFA_def_cfa_register: r6 (rbp)
  DW_CFA_advance_loc: 8 to 00000000009afde6
  DW_CFA_offset: r3 (rbx) at cfa-24
  DW_CFA_advance_loc2: 7489 to 00000000009b1b27
  DW_CFA_def_cfa: r7 (rsp) ofs 8
  DW_CFA_nop
  DW_CFA_nop

00013f78 000000000000001c 00013f7c FDE cie=00000000 pc=00000000009b1b28..00000000009b1d90
  DW_CFA_advance_loc: 1 to 00000000009b1b29
  DW_CFA_def_cfa_offset: 16
  DW_CFA_offset: r6 (rbp) at cfa-16
  DW_CFA_advance_loc: 3 to 00000000009b1b2c
  DW_CFA_def_cfa_register: r6 (rbp)
  DW_CFA_advance_loc2: 611 to 00000000009b1d8f
  DW_CFA_def_cfa: r7 (rsp) ofs 8
  DW_CFA_nop

00013f98 000000000000001c 00013f9c FDE cie=00000000 pc=00000000009b1d90..00000000009b1f8c
  DW_CFA_advance_loc: 1 to 00000000009b1d91
  DW_CFA_def_cfa_offset: 16
  DW_CFA_offset: r6 (rbp) at cfa-16
  DW_CFA_advance_loc: 3 to 00000000009b1d94
  DW_CFA_def_cfa_register: r6 (rbp)
  DW_CFA_advance_loc2: 503 to 00000000009b1f8b
  DW_CFA_def_cfa: r7 (rsp) ofs 8
  DW_CFA_nop

00013fb8 000000000000001c 00013fbc FDE cie=00000000 pc=00000000009b1f8c..00000000009b22b1
  DW_CFA_advance_loc: 1 to 00000000009b1f8d
  DW_CFA_def_cfa_offset: 16
  DW_CFA_offset: r6 (rbp) at cfa-16
  DW_CFA_advance_loc: 3 to 00000000009b1f90
  DW_CFA_def_cfa_register: r6 (rbp)
  DW_CFA_advance_loc2: 800 to 00000000009b22b0
  DW_CFA_def_cfa: r7 (rsp) ofs 8
  DW_CFA_nop

00013fd8 000000000000001c 00013fdc FDE cie=00000000 pc=00000000009b22b1..00000000009b26c9
  DW_CFA_advance_loc: 1 to 00000000009b22b2
  DW_CFA_def_cfa_offset: 16
  DW_CFA_offset: r6 (rbp) at cfa-16
  DW_CFA_advance_loc: 3 to 00000000009b22b5
  DW_CFA_def_cfa_register: r6 (rbp)
  DW_CFA_advance_loc2: 1043 to 00000000009b26c8
  DW_CFA_def_cfa: r7 (rsp) ofs 8
  DW_CFA_nop

00013ff8 000000000000001c 00013ffc FDE cie=00000000 pc=00000000009b26c9..00000000009b29ca
  DW_CFA_advance_loc: 1 to 00000000009b26ca
  DW_CFA_def_cfa_offset: 16
  DW_CFA_offset: r6 (rbp) at cfa-16
  DW_CFA_advance_loc: 3 to 00000000009b26cd
  DW_CFA_def_cfa_register: r6 (rbp)
  DW_CFA_advance_loc2: 764 to 00000000009b29c9
  DW_CFA_def_cfa: r7 (rsp) ofs 8
  DW_CFA_nop

00014018 000000000000001c 0001401c FDE cie=00000000 pc=00000000009b29ca..00000000009b32f3
  DW_CFA_advance_loc: 1 to 00000000009b29cb
  DW_CFA_def_cfa_offset: 16
  DW_CFA_offset: r6 (rbp) at cfa-16
  DW_CFA_advance_loc: 3 to 00000000009b29ce
  DW_CFA_def_cfa_register: r6 (rbp)
  DW_CFA_advance_loc2: 2340 to 00000000009b32f2
  DW_CFA_def_cfa: r7 (rsp) ofs 8
  DW_CFA_nop

00014038 000000000000001c 0001403c FDE cie=00000000 pc=00000000009b32f3..00000000009b35e4
  DW_CFA_advance_loc: 1 to 00000000009b32f4
  DW_CFA_def_cfa_offset: 16
  DW_CFA_offset: r6 (rbp) at cfa-16
  DW_CFA_advance_loc: 3 to 00000000009b32f7
  DW_CFA_def_cfa_register: r6 (rbp)
  DW_CFA_advance_loc2: 748 to 00000000009b35e3
  DW_CFA_def_cfa: r7 (rsp) ofs 8
  DW_CFA_nop

00014058 0000000000000020 0001405c FDE cie=00000000 pc=00000000009b35e4..00000000009b3a5f
  DW_CFA_advance_loc: 1 to 00000000009b35e5
  DW_CFA_def_cfa_offset: 16
  DW_CFA_offset: r6 (rbp) at cfa-16
  DW_CFA_advance_loc: 3 to 00000000009b35e8
  DW_CFA_def_cfa_register: r6 (rbp)
  DW_CFA_advance_loc: 5 to 00000000009b35ed
  DW_CFA_offset: r3 (rbx) at cfa-24
  DW_CFA_advance_loc2: 1137 to 00000000009b3a5e
  DW_CFA_def_cfa: r7 (rsp) ofs 8
  DW_CFA_nop
  DW_CFA_nop

0001407c 0000000000000020 00014080 FDE cie=00000000 pc=00000000009b3a5f..00000000009b41db
  DW_CFA_advance_loc: 1 to 00000000009b3a60
  DW_CFA_def_cfa_offset: 16
  DW_CFA_offset: r6 (rbp) at cfa-16
  DW_CFA_advance_loc: 3 to 00000000009b3a63
  DW_CFA_def_cfa_register: r6 (rbp)
  DW_CFA_advance_loc: 8 to 00000000009b3a6b
  DW_CFA_offset: r3 (rbx) at cfa-24
  DW_CFA_advance_loc2: 1903 to 00000000009b41da
  DW_CFA_def_cfa: r7 (rsp) ofs 8
  DW_CFA_nop
  DW_CFA_nop

000140a0 000000000000001c 000140a4 FDE cie=00000000 pc=00000000009b41db..00000000009b4c4d
  DW_CFA_advance_loc: 1 to 00000000009b41dc
  DW_CFA_def_cfa_offset: 16
  DW_CFA_offset: r6 (rbp) at cfa-16
  DW_CFA_advance_loc: 3 to 00000000009b41df
  DW_CFA_def_cfa_register: r6 (rbp)
  DW_CFA_advance_loc2: 2669 to 00000000009b4c4c
  DW_CFA_def_cfa: r7 (rsp) ofs 8
  DW_CFA_nop

000140c0 000000000000001c 000140c4 FDE cie=00000000 pc=00000000009b4c4d..00000000009b4d99
  DW_CFA_advance_loc: 1 to 00000000009b4c4e
  DW_CFA_def_cfa_offset: 16
  DW_CFA_offset: r6 (rbp) at cfa-16
  DW_CFA_advance_loc: 3 to 00000000009b4c51
  DW_CFA_def_cfa_register: r6 (rbp)
  DW_CFA_advance_loc2: 327 to 00000000009b4d98
  DW_CFA_def_cfa: r7 (rsp) ofs 8
  DW_CFA_nop

000140e0 000000000000001c 000140e4 FDE cie=00000000 pc=00000000009b4d99..00000000009b4e55
  DW_CFA_advance_loc: 1 to 00000000009b4d9a
  DW_CFA_def_cfa_offset: 16
  DW_CFA_offset: r6 (rbp) at cfa-16
  DW_CFA_advance_loc: 3 to 00000000009b4d9d
  DW_CFA_def_cfa_register: r6 (rbp)
  DW_CFA_advance_loc1: 183 to 00000000009b4e54
  DW_CFA_def_cfa: r7 (rsp) ofs 8
  DW_CFA_nop
  DW_CFA_nop

00014100 000000000000001c 00014104 FDE cie=00000000 pc=00000000009b4e55..00000000009b4f72
  DW_CFA_advance_loc: 1 to 00000000009b4e56
  DW_CFA_def_cfa_offset: 16
  DW_CFA_offset: r6 (rbp) at cfa-16
  DW_CFA_advance_loc: 3 to 00000000009b4e59
  DW_CFA_def_cfa_register: r6 (rbp)
  DW_CFA_advance_loc2: 280 to 00000000009b4f71
  DW_CFA_def_cfa: r7 (rsp) ofs 8
  DW_CFA_nop

00014120 000000000000001c 00014124 FDE cie=00000000 pc=00000000009b4f72..00000000009b52bf
  DW_CFA_advance_loc: 1 to 00000000009b4f73
  DW_CFA_def_cfa_offset: 16
  DW_CFA_offset: r6 (rbp) at cfa-16
  DW_CFA_advance_loc: 3 to 00000000009b4f76
  DW_CFA_def_cfa_register: r6 (rbp)
  DW_CFA_advance_loc2: 840 to 00000000009b52be
  DW_CFA_def_cfa: r7 (rsp) ofs 8
  DW_CFA_nop

00014140 000000000000001c 00014144 FDE cie=00000000 pc=00000000009b52bf..00000000009b534c
  DW_CFA_advance_loc: 1 to 00000000009b52c0
  DW_CFA_def_cfa_offset: 16
  DW_CFA_offset: r6 (rbp) at cfa-16
  DW_CFA_advance_loc: 3 to 00000000009b52c3
  DW_CFA_def_cfa_register: r6 (rbp)
  DW_CFA_advance_loc1: 136 to 00000000009b534b
  DW_CFA_def_cfa: r7 (rsp) ofs 8
  DW_CFA_nop
  DW_CFA_nop

00014160 000000000000001c 00014164 FDE cie=00000000 pc=00000000009b534c..00000000009b5ae8
  DW_CFA_advance_loc: 1 to 00000000009b534d
  DW_CFA_def_cfa_offset: 16
  DW_CFA_offset: r6 (rbp) at cfa-16
  DW_CFA_advance_loc: 3 to 00000000009b5350
  DW_CFA_def_cfa_register: r6 (rbp)
  DW_CFA_advance_loc2: 1943 to 00000000009b5ae7
  DW_CFA_def_cfa: r7 (rsp) ofs 8
  DW_CFA_nop

00014180 000000000000001c 00014184 FDE cie=00000000 pc=00000000009b5ae8..00000000009b5f4c
  DW_CFA_advance_loc: 1 to 00000000009b5ae9
  DW_CFA_def_cfa_offset: 16
  DW_CFA_offset: r6 (rbp) at cfa-16
  DW_CFA_advance_loc: 3 to 00000000009b5aec
  DW_CFA_def_cfa_register: r6 (rbp)
  DW_CFA_advance_loc2: 1119 to 00000000009b5f4b
  DW_CFA_def_cfa: r7 (rsp) ofs 8
  DW_CFA_nop

000141a0 000000000000001c 000141a4 FDE cie=00000000 pc=00000000009b5f4c..00000000009b604e
  DW_CFA_advance_loc: 1 to 00000000009b5f4d
  DW_CFA_def_cfa_offset: 16
  DW_CFA_offset: r6 (rbp) at cfa-16
  DW_CFA_advance_loc: 3 to 00000000009b5f50
  DW_CFA_def_cfa_register: r6 (rbp)
  DW_CFA_advance_loc1: 253 to 00000000009b604d
  DW_CFA_def_cfa: r7 (rsp) ofs 8
  DW_CFA_nop
  DW_CFA_nop

000141c0 0000000000000020 000141c4 FDE cie=00000000 pc=00000000009b604e..00000000009b61cd
  DW_CFA_advance_loc: 1 to 00000000009b604f
  DW_CFA_def_cfa_offset: 16
  DW_CFA_offset: r6 (rbp) at cfa-16
  DW_CFA_advance_loc: 3 to 00000000009b6052
  DW_CFA_def_cfa_register: r6 (rbp)
  DW_CFA_advance_loc: 5 to 00000000009b6057
  DW_CFA_offset: r3 (rbx) at cfa-24
  DW_CFA_advance_loc2: 373 to 00000000009b61cc
  DW_CFA_def_cfa: r7 (rsp) ofs 8
  DW_CFA_nop
  DW_CFA_nop

000141e4 000000000000001c 000141e8 FDE cie=00000000 pc=00000000009b61cd..00000000009b64f4
  DW_CFA_advance_loc: 1 to 00000000009b61ce
  DW_CFA_def_cfa_offset: 16
  DW_CFA_offset: r6 (rbp) at cfa-16
  DW_CFA_advance_loc: 3 to 00000000009b61d1
  DW_CFA_def_cfa_register: r6 (rbp)
  DW_CFA_advance_loc2: 802 to 00000000009b64f3
  DW_CFA_def_cfa: r7 (rsp) ofs 8
  DW_CFA_nop

00014204 0000000000000020 00014208 FDE cie=00000000 pc=00000000009b64f4..00000000009b6a39
  DW_CFA_advance_loc: 1 to 00000000009b64f5
  DW_CFA_def_cfa_offset: 16
  DW_CFA_offset: r6 (rbp) at cfa-16
  DW_CFA_advance_loc: 3 to 00000000009b64f8
  DW_CFA_def_cfa_register: r6 (rbp)
  DW_CFA_advance_loc: 8 to 00000000009b6500
  DW_CFA_offset: r3 (rbx) at cfa-24
  DW_CFA_advance_loc2: 1336 to 00000000009b6a38
  DW_CFA_def_cfa: r7 (rsp) ofs 8
  DW_CFA_nop
  DW_CFA_nop

00014228 000000000000001c 0001422c FDE cie=00000000 pc=00000000009b6a39..00000000009b6b63
  DW_CFA_advance_loc: 1 to 00000000009b6a3a
  DW_CFA_def_cfa_offset: 16
  DW_CFA_offset: r6 (rbp) at cfa-16
  DW_CFA_advance_loc: 3 to 00000000009b6a3d
  DW_CFA_def_cfa_register: r6 (rbp)
  DW_CFA_advance_loc2: 293 to 00000000009b6b62
  DW_CFA_def_cfa: r7 (rsp) ofs 8
  DW_CFA_nop

00014248 000000000000001c 0001424c FDE cie=00000000 pc=00000000009b6b63..00000000009b6e9d
  DW_CFA_advance_loc: 1 to 00000000009b6b64
  DW_CFA_def_cfa_offset: 16
  DW_CFA_offset: r6 (rbp) at cfa-16
  DW_CFA_advance_loc: 3 to 00000000009b6b67
  DW_CFA_def_cfa_register: r6 (rbp)
  DW_CFA_advance_loc2: 821 to 00000000009b6e9c
  DW_CFA_def_cfa: r7 (rsp) ofs 8
  DW_CFA_nop

00014268 000000000000001c 0001426c FDE cie=00000000 pc=00000000009b6e9d..00000000009b6f44
  DW_CFA_advance_loc: 1 to 00000000009b6e9e
  DW_CFA_def_cfa_offset: 16
  DW_CFA_offset: r6 (rbp) at cfa-16
  DW_CFA_advance_loc: 3 to 00000000009b6ea1
  DW_CFA_def_cfa_register: r6 (rbp)
  DW_CFA_advance_loc1: 162 to 00000000009b6f43
  DW_CFA_def_cfa: r7 (rsp) ofs 8
  DW_CFA_nop
  DW_CFA_nop

00014288 000000000000001c 0001428c FDE cie=00000000 pc=00000000009b6f44..00000000009b71a7
  DW_CFA_advance_loc: 1 to 00000000009b6f45
  DW_CFA_def_cfa_offset: 16
  DW_CFA_offset: r6 (rbp) at cfa-16
  DW_CFA_advance_loc: 3 to 00000000009b6f48
  DW_CFA_def_cfa_register: r6 (rbp)
  DW_CFA_advance_loc2: 606 to 00000000009b71a6
  DW_CFA_def_cfa: r7 (rsp) ofs 8
  DW_CFA_nop

000142a8 000000000000001c 000142ac FDE cie=00000000 pc=00000000009b71a7..00000000009b7421
  DW_CFA_advance_loc: 1 to 00000000009b71a8
  DW_CFA_def_cfa_offset: 16
  DW_CFA_offset: r6 (rbp) at cfa-16
  DW_CFA_advance_loc: 3 to 00000000009b71ab
  DW_CFA_def_cfa_register: r6 (rbp)
  DW_CFA_advance_loc2: 629 to 00000000009b7420
  DW_CFA_def_cfa: r7 (rsp) ofs 8
  DW_CFA_nop

000142c8 0000000000000020 000142cc FDE cie=00000000 pc=00000000009b7421..00000000009b776e
  DW_CFA_advance_loc: 1 to 00000000009b7422
  DW_CFA_def_cfa_offset: 16
  DW_CFA_offset: r6 (rbp) at cfa-16
  DW_CFA_advance_loc: 3 to 00000000009b7425
  DW_CFA_def_cfa_register: r6 (rbp)
  DW_CFA_advance_loc: 8 to 00000000009b742d
  DW_CFA_offset: r3 (rbx) at cfa-24
  DW_CFA_advance_loc2: 832 to 00000000009b776d
  DW_CFA_def_cfa: r7 (rsp) ofs 8
  DW_CFA_nop
  DW_CFA_nop

000142ec 0000000000000020 000142f0 FDE cie=00000000 pc=00000000009b776e..00000000009b7b80
  DW_CFA_advance_loc: 1 to 00000000009b776f
  DW_CFA_def_cfa_offset: 16
  DW_CFA_offset: r6 (rbp) at cfa-16
  DW_CFA_advance_loc: 3 to 00000000009b7772
  DW_CFA_def_cfa_register: r6 (rbp)
  DW_CFA_advance_loc: 8 to 00000000009b777a
  DW_CFA_offset: r3 (rbx) at cfa-24
  DW_CFA_advance_loc2: 1029 to 00000000009b7b7f
  DW_CFA_def_cfa: r7 (rsp) ofs 8
  DW_CFA_nop
  DW_CFA_nop

00014310 0000000000000020 00014314 FDE cie=00000000 pc=00000000009b7b80..00000000009b7e13
  DW_CFA_advance_loc: 1 to 00000000009b7b81
  DW_CFA_def_cfa_offset: 16
  DW_CFA_offset: r6 (rbp) at cfa-16
  DW_CFA_advance_loc: 3 to 00000000009b7b84
  DW_CFA_def_cfa_register: r6 (rbp)
  DW_CFA_advance_loc: 8 to 00000000009b7b8c
  DW_CFA_offset: r3 (rbx) at cfa-24
  DW_CFA_advance_loc2: 646 to 00000000009b7e12
  DW_CFA_def_cfa: r7 (rsp) ofs 8
  DW_CFA_nop
  DW_CFA_nop

00014334 000000000000001c 00014338 FDE cie=00000000 pc=00000000009b7e13..00000000009b7e53
  DW_CFA_advance_loc: 1 to 00000000009b7e14
  DW_CFA_def_cfa_offset: 16
  DW_CFA_offset: r6 (rbp) at cfa-16
  DW_CFA_advance_loc: 3 to 00000000009b7e17
  DW_CFA_def_cfa_register: r6 (rbp)
  DW_CFA_advance_loc: 59 to 00000000009b7e52
  DW_CFA_def_cfa: r7 (rsp) ofs 8
  DW_CFA_nop
  DW_CFA_nop
  DW_CFA_nop

00014354 000000000000001c 00014358 FDE cie=00000000 pc=00000000009b7e53..00000000009b80eb
  DW_CFA_advance_loc: 1 to 00000000009b7e54
  DW_CFA_def_cfa_offset: 16
  DW_CFA_offset: r6 (rbp) at cfa-16
  DW_CFA_advance_loc: 3 to 00000000009b7e57
  DW_CFA_def_cfa_register: r6 (rbp)
  DW_CFA_advance_loc2: 659 to 00000000009b80ea
  DW_CFA_def_cfa: r7 (rsp) ofs 8
  DW_CFA_nop

00014374 000000000000001c 00014378 FDE cie=00000000 pc=00000000009b80eb..00000000009b8113
  DW_CFA_advance_loc: 1 to 00000000009b80ec
  DW_CFA_def_cfa_offset: 16
  DW_CFA_offset: r6 (rbp) at cfa-16
  DW_CFA_advance_loc: 3 to 00000000009b80ef
  DW_CFA_def_cfa_register: r6 (rbp)
  DW_CFA_advance_loc: 35 to 00000000009b8112
  DW_CFA_def_cfa: r7 (rsp) ofs 8
  DW_CFA_nop
  DW_CFA_nop
  DW_CFA_nop

00014394 000000000000001c 00014398 FDE cie=00000000 pc=00000000009b8113..00000000009b8218
  DW_CFA_advance_loc: 1 to 00000000009b8114
  DW_CFA_def_cfa_offset: 16
  DW_CFA_offset: r6 (rbp) at cfa-16
  DW_CFA_advance_loc: 3 to 00000000009b8117
  DW_CFA_def_cfa_register: r6 (rbp)
  DW_CFA_advance_loc2: 256 to 00000000009b8217
  DW_CFA_def_cfa: r7 (rsp) ofs 8
  DW_CFA_nop

000143b4 000000000000001c 000143b8 FDE cie=00000000 pc=00000000009b8218..00000000009b83ed
  DW_CFA_advance_loc: 1 to 00000000009b8219
  DW_CFA_def_cfa_offset: 16
  DW_CFA_offset: r6 (rbp) at cfa-16
  DW_CFA_advance_loc: 3 to 00000000009b821c
  DW_CFA_def_cfa_register: r6 (rbp)
  DW_CFA_advance_loc2: 464 to 00000000009b83ec
  DW_CFA_def_cfa: r7 (rsp) ofs 8
  DW_CFA_nop

000143d4 000000000000001c 000143d8 FDE cie=00000000 pc=00000000009b83ed..00000000009b8a70
  DW_CFA_advance_loc: 1 to 00000000009b83ee
  DW_CFA_def_cfa_offset: 16
  DW_CFA_offset: r6 (rbp) at cfa-16
  DW_CFA_advance_loc: 3 to 00000000009b83f1
  DW_CFA_def_cfa_register: r6 (rbp)
  DW_CFA_advance_loc2: 1662 to 00000000009b8a6f
  DW_CFA_def_cfa: r7 (rsp) ofs 8
  DW_CFA_nop

000143f4 000000000000001c 000143f8 FDE cie=00000000 pc=00000000009b8a70..00000000009b8eaa
  DW_CFA_advance_loc: 1 to 00000000009b8a71
  DW_CFA_def_cfa_offset: 16
  DW_CFA_offset: r6 (rbp) at cfa-16
  DW_CFA_advance_loc: 3 to 00000000009b8a74
  DW_CFA_def_cfa_register: r6 (rbp)
  DW_CFA_advance_loc2: 1077 to 00000000009b8ea9
  DW_CFA_def_cfa: r7 (rsp) ofs 8
  DW_CFA_nop

00014414 000000000000001c 00014418 FDE cie=00000000 pc=00000000009b8eaa..00000000009b9965
  DW_CFA_advance_loc: 1 to 00000000009b8eab
  DW_CFA_def_cfa_offset: 16
  DW_CFA_offset: r6 (rbp) at cfa-16
  DW_CFA_advance_loc: 3 to 00000000009b8eae
  DW_CFA_def_cfa_register: r6 (rbp)
  DW_CFA_advance_loc2: 2742 to 00000000009b9964
  DW_CFA_def_cfa: r7 (rsp) ofs 8
  DW_CFA_nop

00014434 000000000000001c 00014438 FDE cie=00000000 pc=00000000009b9965..00000000009ba1cd
  DW_CFA_advance_loc: 1 to 00000000009b9966
  DW_CFA_def_cfa_offset: 16
  DW_CFA_offset: r6 (rbp) at cfa-16
  DW_CFA_advance_loc: 3 to 00000000009b9969
  DW_CFA_def_cfa_register: r6 (rbp)
  DW_CFA_advance_loc2: 2147 to 00000000009ba1cc
  DW_CFA_def_cfa: r7 (rsp) ofs 8
  DW_CFA_nop

00014454 000000000000001c 00014458 FDE cie=00000000 pc=00000000009ba1cd..00000000009ba276
  DW_CFA_advance_loc: 1 to 00000000009ba1ce
  DW_CFA_def_cfa_offset: 16
  DW_CFA_offset: r6 (rbp) at cfa-16
  DW_CFA_advance_loc: 3 to 00000000009ba1d1
  DW_CFA_def_cfa_register: r6 (rbp)
  DW_CFA_advance_loc1: 164 to 00000000009ba275
  DW_CFA_def_cfa: r7 (rsp) ofs 8
  DW_CFA_nop
  DW_CFA_nop

00014474 000000000000001c 00014478 FDE cie=00000000 pc=00000000009ba276..00000000009ba370
  DW_CFA_advance_loc: 1 to 00000000009ba277
  DW_CFA_def_cfa_offset: 16
  DW_CFA_offset: r6 (rbp) at cfa-16
  DW_CFA_advance_loc: 3 to 00000000009ba27a
  DW_CFA_def_cfa_register: r6 (rbp)
  DW_CFA_advance_loc1: 245 to 00000000009ba36f
  DW_CFA_def_cfa: r7 (rsp) ofs 8
  DW_CFA_nop
  DW_CFA_nop

00014494 000000000000001c 00014498 FDE cie=00000000 pc=00000000009ba370..00000000009bab19
  DW_CFA_advance_loc: 1 to 00000000009ba371
  DW_CFA_def_cfa_offset: 16
  DW_CFA_offset: r6 (rbp) at cfa-16
  DW_CFA_advance_loc: 3 to 00000000009ba374
  DW_CFA_def_cfa_register: r6 (rbp)
  DW_CFA_advance_loc2: 1956 to 00000000009bab18
  DW_CFA_def_cfa: r7 (rsp) ofs 8
  DW_CFA_nop

000144b4 000000000000001c 000144b8 FDE cie=00000000 pc=00000000009bab19..00000000009bab9a
  DW_CFA_advance_loc: 1 to 00000000009bab1a
  DW_CFA_def_cfa_offset: 16
  DW_CFA_offset: r6 (rbp) at cfa-16
  DW_CFA_advance_loc: 3 to 00000000009bab1d
  DW_CFA_def_cfa_register: r6 (rbp)
  DW_CFA_advance_loc1: 124 to 00000000009bab99
  DW_CFA_def_cfa: r7 (rsp) ofs 8
  DW_CFA_nop
  DW_CFA_nop

000144d4 000000000000001c 000144d8 FDE cie=00000000 pc=00000000009bab9a..00000000009babf6
  DW_CFA_advance_loc: 1 to 00000000009bab9b
  DW_CFA_def_cfa_offset: 16
  DW_CFA_offset: r6 (rbp) at cfa-16
  DW_CFA_advance_loc: 3 to 00000000009bab9e
  DW_CFA_def_cfa_register: r6 (rbp)
  DW_CFA_advance_loc1: 87 to 00000000009babf5
  DW_CFA_def_cfa: r7 (rsp) ofs 8
  DW_CFA_nop
  DW_CFA_nop

000144f4 000000000000001c 000144f8 FDE cie=00000000 pc=00000000009babf6..00000000009bac99
  DW_CFA_advance_loc: 1 to 00000000009babf7
  DW_CFA_def_cfa_offset: 16
  DW_CFA_offset: r6 (rbp) at cfa-16
  DW_CFA_advance_loc: 3 to 00000000009babfa
  DW_CFA_def_cfa_register: r6 (rbp)
  DW_CFA_advance_loc1: 158 to 00000000009bac98
  DW_CFA_def_cfa: r7 (rsp) ofs 8
  DW_CFA_nop
  DW_CFA_nop

00014514 000000000000001c 00014518 FDE cie=00000000 pc=00000000009bac99..00000000009bad16
  DW_CFA_advance_loc: 1 to 00000000009bac9a
  DW_CFA_def_cfa_offset: 16
  DW_CFA_offset: r6 (rbp) at cfa-16
  DW_CFA_advance_loc: 3 to 00000000009bac9d
  DW_CFA_def_cfa_register: r6 (rbp)
  DW_CFA_advance_loc1: 120 to 00000000009bad15
  DW_CFA_def_cfa: r7 (rsp) ofs 8
  DW_CFA_nop
  DW_CFA_nop

00014534 000000000000001c 00014538 FDE cie=00000000 pc=00000000009bad16..00000000009bad34
  DW_CFA_advance_loc: 1 to 00000000009bad17
  DW_CFA_def_cfa_offset: 16
  DW_CFA_offset: r6 (rbp) at cfa-16
  DW_CFA_advance_loc: 3 to 00000000009bad1a
  DW_CFA_def_cfa_register: r6 (rbp)
  DW_CFA_advance_loc: 25 to 00000000009bad33
  DW_CFA_def_cfa: r7 (rsp) ofs 8
  DW_CFA_nop
  DW_CFA_nop
  DW_CFA_nop

00014554 000000000000001c 00014558 FDE cie=00000000 pc=00000000009bad34..00000000009badc1
  DW_CFA_advance_loc: 1 to 00000000009bad35
  DW_CFA_def_cfa_offset: 16
  DW_CFA_offset: r6 (rbp) at cfa-16
  DW_CFA_advance_loc: 3 to 00000000009bad38
  DW_CFA_def_cfa_register: r6 (rbp)
  DW_CFA_advance_loc1: 136 to 00000000009badc0
  DW_CFA_def_cfa: r7 (rsp) ofs 8
  DW_CFA_nop
  DW_CFA_nop

00014574 000000000000001c 00014578 FDE cie=00000000 pc=00000000009badc1..00000000009bb12d
  DW_CFA_advance_loc: 1 to 00000000009badc2
  DW_CFA_def_cfa_offset: 16
  DW_CFA_offset: r6 (rbp) at cfa-16
  DW_CFA_advance_loc: 3 to 00000000009badc5
  DW_CFA_def_cfa_register: r6 (rbp)
  DW_CFA_advance_loc2: 871 to 00000000009bb12c
  DW_CFA_def_cfa: r7 (rsp) ofs 8
  DW_CFA_nop

00014594 000000000000001c 00014598 FDE cie=00000000 pc=00000000009bb12d..00000000009bb8b3
  DW_CFA_advance_loc: 1 to 00000000009bb12e
  DW_CFA_def_cfa_offset: 16
  DW_CFA_offset: r6 (rbp) at cfa-16
  DW_CFA_advance_loc: 3 to 00000000009bb131
  DW_CFA_def_cfa_register: r6 (rbp)
  DW_CFA_advance_loc2: 1921 to 00000000009bb8b2
  DW_CFA_def_cfa: r7 (rsp) ofs 8
  DW_CFA_nop

000145b4 000000000000001c 000145b8 FDE cie=00000000 pc=00000000009bb8b3..00000000009bb8c2
  DW_CFA_advance_loc: 1 to 00000000009bb8b4
  DW_CFA_def_cfa_offset: 16
  DW_CFA_offset: r6 (rbp) at cfa-16
  DW_CFA_advance_loc: 3 to 00000000009bb8b7
  DW_CFA_def_cfa_register: r6 (rbp)
  DW_CFA_advance_loc: 10 to 00000000009bb8c1
  DW_CFA_def_cfa: r7 (rsp) ofs 8
  DW_CFA_nop
  DW_CFA_nop
  DW_CFA_nop

000145d4 000000000000001c 000145d8 FDE cie=00000000 pc=00000000009bb8c2..00000000009bb8cd
  DW_CFA_advance_loc: 1 to 00000000009bb8c3
  DW_CFA_def_cfa_offset: 16
  DW_CFA_offset: r6 (rbp) at cfa-16
  DW_CFA_advance_loc: 3 to 00000000009bb8c6
  DW_CFA_def_cfa_register: r6 (rbp)
  DW_CFA_advance_loc: 6 to 00000000009bb8cc
  DW_CFA_def_cfa: r7 (rsp) ofs 8
  DW_CFA_nop
  DW_CFA_nop
  DW_CFA_nop

000145f4 000000000000001c 000145f8 FDE cie=00000000 pc=00000000009bb8cd..00000000009bb914
  DW_CFA_advance_loc: 1 to 00000000009bb8ce
  DW_CFA_def_cfa_offset: 16
  DW_CFA_offset: r6 (rbp) at cfa-16
  DW_CFA_advance_loc: 3 to 00000000009bb8d1
  DW_CFA_def_cfa_register: r6 (rbp)
  DW_CFA_advance_loc1: 66 to 00000000009bb913
  DW_CFA_def_cfa: r7 (rsp) ofs 8
  DW_CFA_nop
  DW_CFA_nop

00014614 000000000000001c 00014618 FDE cie=00000000 pc=00000000009bb914..00000000009bb981
  DW_CFA_advance_loc: 1 to 00000000009bb915
  DW_CFA_def_cfa_offset: 16
  DW_CFA_offset: r6 (rbp) at cfa-16
  DW_CFA_advance_loc: 3 to 00000000009bb918
  DW_CFA_def_cfa_register: r6 (rbp)
  DW_CFA_advance_loc1: 104 to 00000000009bb980
  DW_CFA_def_cfa: r7 (rsp) ofs 8
  DW_CFA_nop
  DW_CFA_nop

00014634 000000000000001c 00014638 FDE cie=00000000 pc=00000000009bb981..00000000009bb996
  DW_CFA_advance_loc: 1 to 00000000009bb982
  DW_CFA_def_cfa_offset: 16
  DW_CFA_offset: r6 (rbp) at cfa-16
  DW_CFA_advance_loc: 3 to 00000000009bb985
  DW_CFA_def_cfa_register: r6 (rbp)
  DW_CFA_advance_loc: 16 to 00000000009bb995
  DW_CFA_def_cfa: r7 (rsp) ofs 8
  DW_CFA_nop
  DW_CFA_nop
  DW_CFA_nop

00014654 0000000000000020 00014658 FDE cie=00000000 pc=00000000009bb996..00000000009bba02
  DW_CFA_advance_loc: 1 to 00000000009bb997
  DW_CFA_def_cfa_offset: 16
  DW_CFA_offset: r6 (rbp) at cfa-16
  DW_CFA_advance_loc: 3 to 00000000009bb99a
  DW_CFA_def_cfa_register: r6 (rbp)
  DW_CFA_advance_loc: 1 to 00000000009bb99b
  DW_CFA_offset: r3 (rbx) at cfa-24
  DW_CFA_advance_loc1: 102 to 00000000009bba01
  DW_CFA_def_cfa: r7 (rsp) ofs 8
  DW_CFA_nop
  DW_CFA_nop
  DW_CFA_nop

00014678 000000000000001c 0001467c FDE cie=00000000 pc=00000000009bba02..00000000009bba27
  DW_CFA_advance_loc: 1 to 00000000009bba03
  DW_CFA_def_cfa_offset: 16
  DW_CFA_offset: r6 (rbp) at cfa-16
  DW_CFA_advance_loc: 3 to 00000000009bba06
  DW_CFA_def_cfa_register: r6 (rbp)
  DW_CFA_advance_loc: 32 to 00000000009bba26
  DW_CFA_def_cfa: r7 (rsp) ofs 8
  DW_CFA_nop
  DW_CFA_nop
  DW_CFA_nop

00014698 000000000000001c 0001469c FDE cie=00000000 pc=00000000009bba27..00000000009bba36
  DW_CFA_advance_loc: 1 to 00000000009bba28
  DW_CFA_def_cfa_offset: 16
  DW_CFA_offset: r6 (rbp) at cfa-16
  DW_CFA_advance_loc: 3 to 00000000009bba2b
  DW_CFA_def_cfa_register: r6 (rbp)
  DW_CFA_advance_loc: 10 to 00000000009bba35
  DW_CFA_def_cfa: r7 (rsp) ofs 8
  DW_CFA_nop
  DW_CFA_nop
  DW_CFA_nop

000146b8 0000000000000020 000146bc FDE cie=00000000 pc=00000000009bba36..00000000009bbbad
  DW_CFA_advance_loc: 1 to 00000000009bba37
  DW_CFA_def_cfa_offset: 16
  DW_CFA_offset: r6 (rbp) at cfa-16
  DW_CFA_advance_loc: 3 to 00000000009bba3a
  DW_CFA_def_cfa_register: r6 (rbp)
  DW_CFA_advance_loc: 1 to 00000000009bba3b
  DW_CFA_offset: r3 (rbx) at cfa-24
  DW_CFA_advance_loc2: 369 to 00000000009bbbac
  DW_CFA_def_cfa: r7 (rsp) ofs 8
  DW_CFA_nop
  DW_CFA_nop

000146dc 000000000000001c 000146e0 FDE cie=00000000 pc=00000000009bbbad..00000000009bca43
  DW_CFA_advance_loc: 1 to 00000000009bbbae
  DW_CFA_def_cfa_offset: 16
  DW_CFA_offset: r6 (rbp) at cfa-16
  DW_CFA_advance_loc: 3 to 00000000009bbbb1
  DW_CFA_def_cfa_register: r6 (rbp)
  DW_CFA_advance_loc2: 3729 to 00000000009bca42
  DW_CFA_def_cfa: r7 (rsp) ofs 8
  DW_CFA_nop

000146fc 000000000000001c 00014700 FDE cie=00000000 pc=00000000009bca43..00000000009bca6b
  DW_CFA_advance_loc: 1 to 00000000009bca44
  DW_CFA_def_cfa_offset: 16
  DW_CFA_offset: r6 (rbp) at cfa-16
  DW_CFA_advance_loc: 3 to 00000000009bca47
  DW_CFA_def_cfa_register: r6 (rbp)
  DW_CFA_advance_loc: 35 to 00000000009bca6a
  DW_CFA_def_cfa: r7 (rsp) ofs 8
  DW_CFA_nop
  DW_CFA_nop
  DW_CFA_nop

0001471c 000000000000001c 00014720 FDE cie=00000000 pc=00000000009bca6b..00000000009bcad4
  DW_CFA_advance_loc: 1 to 00000000009bca6c
  DW_CFA_def_cfa_offset: 16
  DW_CFA_offset: r6 (rbp) at cfa-16
  DW_CFA_advance_loc: 3 to 00000000009bca6f
  DW_CFA_def_cfa_register: r6 (rbp)
  DW_CFA_advance_loc1: 100 to 00000000009bcad3
  DW_CFA_def_cfa: r7 (rsp) ofs 8
  DW_CFA_nop
  DW_CFA_nop

0001473c 000000000000001c 00014740 FDE cie=00000000 pc=00000000009bcad4..00000000009bcd22
  DW_CFA_advance_loc: 1 to 00000000009bcad5
  DW_CFA_def_cfa_offset: 16
  DW_CFA_offset: r6 (rbp) at cfa-16
  DW_CFA_advance_loc: 3 to 00000000009bcad8
  DW_CFA_def_cfa_register: r6 (rbp)
  DW_CFA_advance_loc2: 585 to 00000000009bcd21
  DW_CFA_def_cfa: r7 (rsp) ofs 8
  DW_CFA_nop

0001475c 000000000000001c 00014760 FDE cie=00000000 pc=00000000009bcd22..00000000009bcdcc
  DW_CFA_advance_loc: 1 to 00000000009bcd23
  DW_CFA_def_cfa_offset: 16
  DW_CFA_offset: r6 (rbp) at cfa-16
  DW_CFA_advance_loc: 3 to 00000000009bcd26
  DW_CFA_def_cfa_register: r6 (rbp)
  DW_CFA_advance_loc1: 165 to 00000000009bcdcb
  DW_CFA_def_cfa: r7 (rsp) ofs 8
  DW_CFA_nop
  DW_CFA_nop

0001477c 000000000000001c 00014780 FDE cie=00000000 pc=00000000009bcdcc..00000000009bcfcd
  DW_CFA_advance_loc: 1 to 00000000009bcdcd
  DW_CFA_def_cfa_offset: 16
  DW_CFA_offset: r6 (rbp) at cfa-16
  DW_CFA_advance_loc: 3 to 00000000009bcdd0
  DW_CFA_def_cfa_register: r6 (rbp)
  DW_CFA_advance_loc2: 508 to 00000000009bcfcc
  DW_CFA_def_cfa: r7 (rsp) ofs 8
  DW_CFA_nop

0001479c 000000000000001c 000147a0 FDE cie=00000000 pc=00000000009bcfcd..00000000009bd241
  DW_CFA_advance_loc: 1 to 00000000009bcfce
  DW_CFA_def_cfa_offset: 16
  DW_CFA_offset: r6 (rbp) at cfa-16
  DW_CFA_advance_loc: 3 to 00000000009bcfd1
  DW_CFA_def_cfa_register: r6 (rbp)
  DW_CFA_advance_loc2: 623 to 00000000009bd240
  DW_CFA_def_cfa: r7 (rsp) ofs 8
  DW_CFA_nop

000147bc 0000000000000020 000147c0 FDE cie=00000000 pc=00000000009bd241..00000000009bdc2f
  DW_CFA_advance_loc: 1 to 00000000009bd242
  DW_CFA_def_cfa_offset: 16
  DW_CFA_offset: r6 (rbp) at cfa-16
  DW_CFA_advance_loc: 3 to 00000000009bd245
  DW_CFA_def_cfa_register: r6 (rbp)
  DW_CFA_advance_loc: 8 to 00000000009bd24d
  DW_CFA_offset: r3 (rbx) at cfa-24
  DW_CFA_advance_loc2: 2529 to 00000000009bdc2e
  DW_CFA_def_cfa: r7 (rsp) ofs 8
  DW_CFA_nop
  DW_CFA_nop

000147e0 000000000000001c 000147e4 FDE cie=00000000 pc=00000000009bdc2f..00000000009bdcb9
  DW_CFA_advance_loc: 1 to 00000000009bdc30
  DW_CFA_def_cfa_offset: 16
  DW_CFA_offset: r6 (rbp) at cfa-16
  DW_CFA_advance_loc: 3 to 00000000009bdc33
  DW_CFA_def_cfa_register: r6 (rbp)
  DW_CFA_advance_loc1: 133 to 00000000009bdcb8
  DW_CFA_def_cfa: r7 (rsp) ofs 8
  DW_CFA_nop
  DW_CFA_nop

00014800 000000000000001c 00014804 FDE cie=00000000 pc=00000000009bdcb9..00000000009bdd75
  DW_CFA_advance_loc: 1 to 00000000009bdcba
  DW_CFA_def_cfa_offset: 16
  DW_CFA_offset: r6 (rbp) at cfa-16
  DW_CFA_advance_loc: 3 to 00000000009bdcbd
  DW_CFA_def_cfa_register: r6 (rbp)
  DW_CFA_advance_loc1: 183 to 00000000009bdd74
  DW_CFA_def_cfa: r7 (rsp) ofs 8
  DW_CFA_nop
  DW_CFA_nop

00014820 000000000000001c 00014824 FDE cie=00000000 pc=00000000009bdd75..00000000009bddf8
  DW_CFA_advance_loc: 1 to 00000000009bdd76
  DW_CFA_def_cfa_offset: 16
  DW_CFA_offset: r6 (rbp) at cfa-16
  DW_CFA_advance_loc: 3 to 00000000009bdd79
  DW_CFA_def_cfa_register: r6 (rbp)
  DW_CFA_advance_loc1: 126 to 00000000009bddf7
  DW_CFA_def_cfa: r7 (rsp) ofs 8
  DW_CFA_nop
  DW_CFA_nop

00014840 000000000000001c 00014844 FDE cie=00000000 pc=00000000009bddf8..00000000009be20f
  DW_CFA_advance_loc: 1 to 00000000009bddf9
  DW_CFA_def_cfa_offset: 16
  DW_CFA_offset: r6 (rbp) at cfa-16
  DW_CFA_advance_loc: 3 to 00000000009bddfc
  DW_CFA_def_cfa_register: r6 (rbp)
  DW_CFA_advance_loc2: 1042 to 00000000009be20e
  DW_CFA_def_cfa: r7 (rsp) ofs 8
  DW_CFA_nop

00014860 000000000000001c 00014864 FDE cie=00000000 pc=00000000009be20f..00000000009be5cd
  DW_CFA_advance_loc: 1 to 00000000009be210
  DW_CFA_def_cfa_offset: 16
  DW_CFA_offset: r6 (rbp) at cfa-16
  DW_CFA_advance_loc: 3 to 00000000009be213
  DW_CFA_def_cfa_register: r6 (rbp)
  DW_CFA_advance_loc2: 953 to 00000000009be5cc
  DW_CFA_def_cfa: r7 (rsp) ofs 8
  DW_CFA_nop

00014880 000000000000001c 00014884 FDE cie=00000000 pc=00000000009be5cd..00000000009be6e4
  DW_CFA_advance_loc: 1 to 00000000009be5ce
  DW_CFA_def_cfa_offset: 16
  DW_CFA_offset: r6 (rbp) at cfa-16
  DW_CFA_advance_loc: 3 to 00000000009be5d1
  DW_CFA_def_cfa_register: r6 (rbp)
  DW_CFA_advance_loc2: 274 to 00000000009be6e3
  DW_CFA_def_cfa: r7 (rsp) ofs 8
  DW_CFA_nop

000148a0 000000000000001c 000148a4 FDE cie=00000000 pc=00000000009be6e4..00000000009be80a
  DW_CFA_advance_loc: 1 to 00000000009be6e5
  DW_CFA_def_cfa_offset: 16
  DW_CFA_offset: r6 (rbp) at cfa-16
  DW_CFA_advance_loc: 3 to 00000000009be6e8
  DW_CFA_def_cfa_register: r6 (rbp)
  DW_CFA_advance_loc2: 289 to 00000000009be809
  DW_CFA_def_cfa: r7 (rsp) ofs 8
  DW_CFA_nop

000148c0 0000000000000020 000148c4 FDE cie=00000000 pc=00000000009be80a..00000000009bef19
  DW_CFA_advance_loc: 1 to 00000000009be80b
  DW_CFA_def_cfa_offset: 16
  DW_CFA_offset: r6 (rbp) at cfa-16
  DW_CFA_advance_loc: 3 to 00000000009be80e
  DW_CFA_def_cfa_register: r6 (rbp)
  DW_CFA_advance_loc: 8 to 00000000009be816
  DW_CFA_offset: r3 (rbx) at cfa-24
  DW_CFA_advance_loc2: 1794 to 00000000009bef18
  DW_CFA_def_cfa: r7 (rsp) ofs 8
  DW_CFA_nop
  DW_CFA_nop

000148e4 000000000000001c 000148e8 FDE cie=00000000 pc=00000000009bef19..00000000009bef72
  DW_CFA_advance_loc: 1 to 00000000009bef1a
  DW_CFA_def_cfa_offset: 16
  DW_CFA_offset: r6 (rbp) at cfa-16
  DW_CFA_advance_loc: 3 to 00000000009bef1d
  DW_CFA_def_cfa_register: r6 (rbp)
  DW_CFA_advance_loc1: 84 to 00000000009bef71
  DW_CFA_def_cfa: r7 (rsp) ofs 8
  DW_CFA_nop
  DW_CFA_nop

00014904 000000000000001c 00014908 FDE cie=00000000 pc=00000000009bef72..00000000009befd0
  DW_CFA_advance_loc: 1 to 00000000009bef73
  DW_CFA_def_cfa_offset: 16
  DW_CFA_offset: r6 (rbp) at cfa-16
  DW_CFA_advance_loc: 3 to 00000000009bef76
  DW_CFA_def_cfa_register: r6 (rbp)
  DW_CFA_advance_loc1: 89 to 00000000009befcf
  DW_CFA_def_cfa: r7 (rsp) ofs 8
  DW_CFA_nop
  DW_CFA_nop

00014924 000000000000001c 00014928 FDE cie=00000000 pc=00000000009befd0..00000000009bf1b9
  DW_CFA_advance_loc: 1 to 00000000009befd1
  DW_CFA_def_cfa_offset: 16
  DW_CFA_offset: r6 (rbp) at cfa-16
  DW_CFA_advance_loc: 3 to 00000000009befd4
  DW_CFA_def_cfa_register: r6 (rbp)
  DW_CFA_advance_loc2: 484 to 00000000009bf1b8
  DW_CFA_def_cfa: r7 (rsp) ofs 8
  DW_CFA_nop

00014944 000000000000001c 00014948 FDE cie=00000000 pc=00000000009bf1b9..00000000009bf3af
  DW_CFA_advance_loc: 1 to 00000000009bf1ba
  DW_CFA_def_cfa_offset: 16
  DW_CFA_offset: r6 (rbp) at cfa-16
  DW_CFA_advance_loc: 3 to 00000000009bf1bd
  DW_CFA_def_cfa_register: r6 (rbp)
  DW_CFA_advance_loc2: 497 to 00000000009bf3ae
  DW_CFA_def_cfa: r7 (rsp) ofs 8
  DW_CFA_nop

00014964 000000000000001c 00014968 FDE cie=00000000 pc=00000000009bf3af..00000000009bf4f8
  DW_CFA_advance_loc: 1 to 00000000009bf3b0
  DW_CFA_def_cfa_offset: 16
  DW_CFA_offset: r6 (rbp) at cfa-16
  DW_CFA_advance_loc: 3 to 00000000009bf3b3
  DW_CFA_def_cfa_register: r6 (rbp)
  DW_CFA_advance_loc2: 324 to 00000000009bf4f7
  DW_CFA_def_cfa: r7 (rsp) ofs 8
  DW_CFA_nop

00014984 000000000000001c 00014988 FDE cie=00000000 pc=00000000009bf4f8..00000000009bf5a4
  DW_CFA_advance_loc: 1 to 00000000009bf4f9
  DW_CFA_def_cfa_offset: 16
  DW_CFA_offset: r6 (rbp) at cfa-16
  DW_CFA_advance_loc: 3 to 00000000009bf4fc
  DW_CFA_def_cfa_register: r6 (rbp)
  DW_CFA_advance_loc1: 167 to 00000000009bf5a3
  DW_CFA_def_cfa: r7 (rsp) ofs 8
  DW_CFA_nop
  DW_CFA_nop

000149a4 000000000000001c 000149a8 FDE cie=00000000 pc=00000000009bf5a4..00000000009bf828
  DW_CFA_advance_loc: 1 to 00000000009bf5a5
  DW_CFA_def_cfa_offset: 16
  DW_CFA_offset: r6 (rbp) at cfa-16
  DW_CFA_advance_loc: 3 to 00000000009bf5a8
  DW_CFA_def_cfa_register: r6 (rbp)
  DW_CFA_advance_loc2: 639 to 00000000009bf827
  DW_CFA_def_cfa: r7 (rsp) ofs 8
  DW_CFA_nop

000149c4 0000000000000020 000149c8 FDE cie=00000000 pc=00000000009bf828..00000000009bff6c
  DW_CFA_advance_loc: 1 to 00000000009bf829
  DW_CFA_def_cfa_offset: 16
  DW_CFA_offset: r6 (rbp) at cfa-16
  DW_CFA_advance_loc: 3 to 00000000009bf82c
  DW_CFA_def_cfa_register: r6 (rbp)
  DW_CFA_advance_loc: 8 to 00000000009bf834
  DW_CFA_offset: r3 (rbx) at cfa-24
  DW_CFA_advance_loc2: 1847 to 00000000009bff6b
  DW_CFA_def_cfa: r7 (rsp) ofs 8
  DW_CFA_nop
  DW_CFA_nop

000149e8 000000000000001c 000149ec FDE cie=00000000 pc=00000000009bff6c..00000000009bff95
  DW_CFA_advance_loc: 1 to 00000000009bff6d
  DW_CFA_def_cfa_offset: 16
  DW_CFA_offset: r6 (rbp) at cfa-16
  DW_CFA_advance_loc: 3 to 00000000009bff70
  DW_CFA_def_cfa_register: r6 (rbp)
  DW_CFA_advance_loc: 36 to 00000000009bff94
  DW_CFA_def_cfa: r7 (rsp) ofs 8
  DW_CFA_nop
  DW_CFA_nop
  DW_CFA_nop

00014a08 000000000000001c 00014a0c FDE cie=00000000 pc=00000000009bff95..00000000009bffb8
  DW_CFA_advance_loc: 1 to 00000000009bff96
  DW_CFA_def_cfa_offset: 16
  DW_CFA_offset: r6 (rbp) at cfa-16
  DW_CFA_advance_loc: 3 to 00000000009bff99
  DW_CFA_def_cfa_register: r6 (rbp)
  DW_CFA_advance_loc: 30 to 00000000009bffb7
  DW_CFA_def_cfa: r7 (rsp) ofs 8
  DW_CFA_nop
  DW_CFA_nop
  DW_CFA_nop

00014a28 000000000000001c 00014a2c FDE cie=00000000 pc=00000000009bffb8..00000000009c032d
  DW_CFA_advance_loc: 1 to 00000000009bffb9
  DW_CFA_def_cfa_offset: 16
  DW_CFA_offset: r6 (rbp) at cfa-16
  DW_CFA_advance_loc: 3 to 00000000009bffbc
  DW_CFA_def_cfa_register: r6 (rbp)
  DW_CFA_advance_loc2: 880 to 00000000009c032c
  DW_CFA_def_cfa: r7 (rsp) ofs 8
  DW_CFA_nop

00014a48 0000000000000020 00014a4c FDE cie=00000000 pc=00000000009c032d..00000000009c0667
  DW_CFA_advance_loc: 1 to 00000000009c032e
  DW_CFA_def_cfa_offset: 16
  DW_CFA_offset: r6 (rbp) at cfa-16
  DW_CFA_advance_loc: 3 to 00000000009c0331
  DW_CFA_def_cfa_register: r6 (rbp)
  DW_CFA_advance_loc: 8 to 00000000009c0339
  DW_CFA_offset: r3 (rbx) at cfa-24
  DW_CFA_advance_loc2: 813 to 00000000009c0666
  DW_CFA_def_cfa: r7 (rsp) ofs 8
  DW_CFA_nop
  DW_CFA_nop

00014a6c 000000000000001c 00014a70 FDE cie=00000000 pc=00000000009c0667..00000000009c0685
  DW_CFA_advance_loc: 1 to 00000000009c0668
  DW_CFA_def_cfa_offset: 16
  DW_CFA_offset: r6 (rbp) at cfa-16
  DW_CFA_advance_loc: 3 to 00000000009c066b
  DW_CFA_def_cfa_register: r6 (rbp)
  DW_CFA_advance_loc: 25 to 00000000009c0684
  DW_CFA_def_cfa: r7 (rsp) ofs 8
  DW_CFA_nop
  DW_CFA_nop
  DW_CFA_nop

00014a8c 000000000000001c 00014a90 FDE cie=00000000 pc=00000000009c0685..00000000009c0712
  DW_CFA_advance_loc: 1 to 00000000009c0686
  DW_CFA_def_cfa_offset: 16
  DW_CFA_offset: r6 (rbp) at cfa-16
  DW_CFA_advance_loc: 3 to 00000000009c0689
  DW_CFA_def_cfa_register: r6 (rbp)
  DW_CFA_advance_loc1: 136 to 00000000009c0711
  DW_CFA_def_cfa: r7 (rsp) ofs 8
  DW_CFA_nop
  DW_CFA_nop

00014aac 000000000000001c 00014ab0 FDE cie=00000000 pc=00000000009c0712..00000000009c0793
  DW_CFA_advance_loc: 1 to 00000000009c0713
  DW_CFA_def_cfa_offset: 16
  DW_CFA_offset: r6 (rbp) at cfa-16
  DW_CFA_advance_loc: 3 to 00000000009c0716
  DW_CFA_def_cfa_register: r6 (rbp)
  DW_CFA_advance_loc1: 124 to 00000000009c0792
  DW_CFA_def_cfa: r7 (rsp) ofs 8
  DW_CFA_nop
  DW_CFA_nop

00014acc 000000000000001c 00014ad0 FDE cie=00000000 pc=00000000009c0793..00000000009c07ef
  DW_CFA_advance_loc: 1 to 00000000009c0794
  DW_CFA_def_cfa_offset: 16
  DW_CFA_offset: r6 (rbp) at cfa-16
  DW_CFA_advance_loc: 3 to 00000000009c0797
  DW_CFA_def_cfa_register: r6 (rbp)
  DW_CFA_advance_loc1: 87 to 00000000009c07ee
  DW_CFA_def_cfa: r7 (rsp) ofs 8
  DW_CFA_nop
  DW_CFA_nop

00014aec 000000000000001c 00014af0 FDE cie=00000000 pc=00000000009c07ef..00000000009c08cd
  DW_CFA_advance_loc: 1 to 00000000009c07f0
  DW_CFA_def_cfa_offset: 16
  DW_CFA_offset: r6 (rbp) at cfa-16
  DW_CFA_advance_loc: 3 to 00000000009c07f3
  DW_CFA_def_cfa_register: r6 (rbp)
  DW_CFA_advance_loc1: 217 to 00000000009c08cc
  DW_CFA_def_cfa: r7 (rsp) ofs 8
  DW_CFA_nop
  DW_CFA_nop

00014b0c 000000000000001c 00014b10 FDE cie=00000000 pc=00000000009c08cd..00000000009c0942
  DW_CFA_advance_loc: 1 to 00000000009c08ce
  DW_CFA_def_cfa_offset: 16
  DW_CFA_offset: r6 (rbp) at cfa-16
  DW_CFA_advance_loc: 3 to 00000000009c08d1
  DW_CFA_def_cfa_register: r6 (rbp)
  DW_CFA_advance_loc1: 112 to 00000000009c0941
  DW_CFA_def_cfa: r7 (rsp) ofs 8
  DW_CFA_nop
  DW_CFA_nop

00014b2c 000000000000001c 00014b30 FDE cie=00000000 pc=00000000009c0942..00000000009c0c15
  DW_CFA_advance_loc: 1 to 00000000009c0943
  DW_CFA_def_cfa_offset: 16
  DW_CFA_offset: r6 (rbp) at cfa-16
  DW_CFA_advance_loc: 3 to 00000000009c0946
  DW_CFA_def_cfa_register: r6 (rbp)
  DW_CFA_advance_loc2: 718 to 00000000009c0c14
  DW_CFA_def_cfa: r7 (rsp) ofs 8
  DW_CFA_nop

00014b4c 000000000000001c 00014b50 FDE cie=00000000 pc=00000000009c0c15..00000000009c10df
  DW_CFA_advance_loc: 1 to 00000000009c0c16
  DW_CFA_def_cfa_offset: 16
  DW_CFA_offset: r6 (rbp) at cfa-16
  DW_CFA_advance_loc: 3 to 00000000009c0c19
  DW_CFA_def_cfa_register: r6 (rbp)
  DW_CFA_advance_loc2: 1221 to 00000000009c10de
  DW_CFA_def_cfa: r7 (rsp) ofs 8
  DW_CFA_nop

00014b6c 000000000000001c 00014b70 FDE cie=00000000 pc=00000000009c10df..00000000009c10ee
  DW_CFA_advance_loc: 1 to 00000000009c10e0
  DW_CFA_def_cfa_offset: 16
  DW_CFA_offset: r6 (rbp) at cfa-16
  DW_CFA_advance_loc: 3 to 00000000009c10e3
  DW_CFA_def_cfa_register: r6 (rbp)
  DW_CFA_advance_loc: 10 to 00000000009c10ed
  DW_CFA_def_cfa: r7 (rsp) ofs 8
  DW_CFA_nop
  DW_CFA_nop
  DW_CFA_nop

00014b8c 000000000000001c 00014b90 FDE cie=00000000 pc=00000000009c10ee..00000000009c10f9
  DW_CFA_advance_loc: 1 to 00000000009c10ef
  DW_CFA_def_cfa_offset: 16
  DW_CFA_offset: r6 (rbp) at cfa-16
  DW_CFA_advance_loc: 3 to 00000000009c10f2
  DW_CFA_def_cfa_register: r6 (rbp)
  DW_CFA_advance_loc: 6 to 00000000009c10f8
  DW_CFA_def_cfa: r7 (rsp) ofs 8
  DW_CFA_nop
  DW_CFA_nop
  DW_CFA_nop

00014bac 000000000000001c 00014bb0 FDE cie=00000000 pc=00000000009c10f9..00000000009c112d
  DW_CFA_advance_loc: 1 to 00000000009c10fa
  DW_CFA_def_cfa_offset: 16
  DW_CFA_offset: r6 (rbp) at cfa-16
  DW_CFA_advance_loc: 3 to 00000000009c10fd
  DW_CFA_def_cfa_register: r6 (rbp)
  DW_CFA_advance_loc: 47 to 00000000009c112c
  DW_CFA_def_cfa: r7 (rsp) ofs 8
  DW_CFA_nop
  DW_CFA_nop
  DW_CFA_nop

00014bcc 0000000000000020 00014bd0 FDE cie=00000000 pc=00000000009c112d..00000000009c1199
  DW_CFA_advance_loc: 1 to 00000000009c112e
  DW_CFA_def_cfa_offset: 16
  DW_CFA_offset: r6 (rbp) at cfa-16
  DW_CFA_advance_loc: 3 to 00000000009c1131
  DW_CFA_def_cfa_register: r6 (rbp)
  DW_CFA_advance_loc: 1 to 00000000009c1132
  DW_CFA_offset: r3 (rbx) at cfa-24
  DW_CFA_advance_loc1: 102 to 00000000009c1198
  DW_CFA_def_cfa: r7 (rsp) ofs 8
  DW_CFA_nop
  DW_CFA_nop
  DW_CFA_nop

00014bf0 000000000000001c 00014bf4 FDE cie=00000000 pc=00000000009c1199..00000000009c11be
  DW_CFA_advance_loc: 1 to 00000000009c119a
  DW_CFA_def_cfa_offset: 16
  DW_CFA_offset: r6 (rbp) at cfa-16
  DW_CFA_advance_loc: 3 to 00000000009c119d
  DW_CFA_def_cfa_register: r6 (rbp)
  DW_CFA_advance_loc: 32 to 00000000009c11bd
  DW_CFA_def_cfa: r7 (rsp) ofs 8
  DW_CFA_nop
  DW_CFA_nop
  DW_CFA_nop

00014c10 000000000000001c 00014c14 FDE cie=00000000 pc=00000000009c11be..00000000009c1227
  DW_CFA_advance_loc: 1 to 00000000009c11bf
  DW_CFA_def_cfa_offset: 16
  DW_CFA_offset: r6 (rbp) at cfa-16
  DW_CFA_advance_loc: 3 to 00000000009c11c2
  DW_CFA_def_cfa_register: r6 (rbp)
  DW_CFA_advance_loc1: 100 to 00000000009c1226
  DW_CFA_def_cfa: r7 (rsp) ofs 8
  DW_CFA_nop
  DW_CFA_nop

00014c30 000000000000001c 00014c34 FDE cie=00000000 pc=00000000009c1227..00000000009c124d
  DW_CFA_advance_loc: 1 to 00000000009c1228
  DW_CFA_def_cfa_offset: 16
  DW_CFA_offset: r6 (rbp) at cfa-16
  DW_CFA_advance_loc: 3 to 00000000009c122b
  DW_CFA_def_cfa_register: r6 (rbp)
  DW_CFA_advance_loc: 33 to 00000000009c124c
  DW_CFA_def_cfa: r7 (rsp) ofs 8
  DW_CFA_nop
  DW_CFA_nop
  DW_CFA_nop

00014c50 000000000000001c 00014c54 FDE cie=00000000 pc=00000000009c124d..00000000009c1278
  DW_CFA_advance_loc: 1 to 00000000009c124e
  DW_CFA_def_cfa_offset: 16
  DW_CFA_offset: r6 (rbp) at cfa-16
  DW_CFA_advance_loc: 3 to 00000000009c1251
  DW_CFA_def_cfa_register: r6 (rbp)
  DW_CFA_advance_loc: 38 to 00000000009c1277
  DW_CFA_def_cfa: r7 (rsp) ofs 8
  DW_CFA_nop
  DW_CFA_nop
  DW_CFA_nop

00014c70 000000000000001c 00014c74 FDE cie=00000000 pc=00000000009c1278..00000000009c12a0
  DW_CFA_advance_loc: 1 to 00000000009c1279
  DW_CFA_def_cfa_offset: 16
  DW_CFA_offset: r6 (rbp) at cfa-16
  DW_CFA_advance_loc: 3 to 00000000009c127c
  DW_CFA_def_cfa_register: r6 (rbp)
  DW_CFA_advance_loc: 35 to 00000000009c129f
  DW_CFA_def_cfa: r7 (rsp) ofs 8
  DW_CFA_nop
  DW_CFA_nop
  DW_CFA_nop

00014c90 000000000000001c 00014c94 FDE cie=00000000 pc=00000000009c12a0..00000000009c1948
  DW_CFA_advance_loc: 1 to 00000000009c12a1
  DW_CFA_def_cfa_offset: 16
  DW_CFA_offset: r6 (rbp) at cfa-16
  DW_CFA_advance_loc: 3 to 00000000009c12a4
  DW_CFA_def_cfa_register: r6 (rbp)
  DW_CFA_advance_loc2: 1699 to 00000000009c1947
  DW_CFA_def_cfa: r7 (rsp) ofs 8
  DW_CFA_nop

00014cb0 000000000000001c 00014cb4 FDE cie=00000000 pc=00000000009c1948..00000000009c20a4
  DW_CFA_advance_loc: 1 to 00000000009c1949
  DW_CFA_def_cfa_offset: 16
  DW_CFA_offset: r6 (rbp) at cfa-16
  DW_CFA_advance_loc: 3 to 00000000009c194c
  DW_CFA_def_cfa_register: r6 (rbp)
  DW_CFA_advance_loc2: 1879 to 00000000009c20a3
  DW_CFA_def_cfa: r7 (rsp) ofs 8
  DW_CFA_nop

00014cd0 000000000000001c 00014cd4 FDE cie=00000000 pc=00000000009c20a4..00000000009c2533
  DW_CFA_advance_loc: 1 to 00000000009c20a5
  DW_CFA_def_cfa_offset: 16
  DW_CFA_offset: r6 (rbp) at cfa-16
  DW_CFA_advance_loc: 3 to 00000000009c20a8
  DW_CFA_def_cfa_register: r6 (rbp)
  DW_CFA_advance_loc2: 1162 to 00000000009c2532
  DW_CFA_def_cfa: r7 (rsp) ofs 8
  DW_CFA_nop

00014cf0 000000000000001c 00014cf4 FDE cie=00000000 pc=00000000009c2533..00000000009c2cdc
  DW_CFA_advance_loc: 1 to 00000000009c2534
  DW_CFA_def_cfa_offset: 16
  DW_CFA_offset: r6 (rbp) at cfa-16
  DW_CFA_advance_loc: 3 to 00000000009c2537
  DW_CFA_def_cfa_register: r6 (rbp)
  DW_CFA_advance_loc2: 1956 to 00000000009c2cdb
  DW_CFA_def_cfa: r7 (rsp) ofs 8
  DW_CFA_nop

00014d10 000000000000001c 00014d14 FDE cie=00000000 pc=00000000009c2cdc..00000000009c2fb5
  DW_CFA_advance_loc: 1 to 00000000009c2cdd
  DW_CFA_def_cfa_offset: 16
  DW_CFA_offset: r6 (rbp) at cfa-16
  DW_CFA_advance_loc: 3 to 00000000009c2ce0
  DW_CFA_def_cfa_register: r6 (rbp)
  DW_CFA_advance_loc2: 724 to 00000000009c2fb4
  DW_CFA_def_cfa: r7 (rsp) ofs 8
  DW_CFA_nop

00014d30 000000000000001c 00014d34 FDE cie=00000000 pc=00000000009c2fb5..00000000009c300b
  DW_CFA_advance_loc: 1 to 00000000009c2fb6
  DW_CFA_def_cfa_offset: 16
  DW_CFA_offset: r6 (rbp) at cfa-16
  DW_CFA_advance_loc: 3 to 00000000009c2fb9
  DW_CFA_def_cfa_register: r6 (rbp)
  DW_CFA_advance_loc1: 81 to 00000000009c300a
  DW_CFA_def_cfa: r7 (rsp) ofs 8
  DW_CFA_nop
  DW_CFA_nop

00014d50 000000000000001c 00014d54 FDE cie=00000000 pc=00000000009c300b..00000000009c3016
  DW_CFA_advance_loc: 1 to 00000000009c300c
  DW_CFA_def_cfa_offset: 16
  DW_CFA_offset: r6 (rbp) at cfa-16
  DW_CFA_advance_loc: 3 to 00000000009c300f
  DW_CFA_def_cfa_register: r6 (rbp)
  DW_CFA_advance_loc: 6 to 00000000009c3015
  DW_CFA_def_cfa: r7 (rsp) ofs 8
  DW_CFA_nop
  DW_CFA_nop
  DW_CFA_nop

00014d70 000000000000001c 00014d74 FDE cie=00000000 pc=00000000009c3016..00000000009c30a1
  DW_CFA_advance_loc: 1 to 00000000009c3017
  DW_CFA_def_cfa_offset: 16
  DW_CFA_offset: r6 (rbp) at cfa-16
  DW_CFA_advance_loc: 3 to 00000000009c301a
  DW_CFA_def_cfa_register: r6 (rbp)
  DW_CFA_advance_loc1: 134 to 00000000009c30a0
  DW_CFA_def_cfa: r7 (rsp) ofs 8
  DW_CFA_nop
  DW_CFA_nop

00014d90 0000000000000020 00014d94 FDE cie=00000000 pc=00000000009c30a1..00000000009c314f
  DW_CFA_advance_loc: 1 to 00000000009c30a2
  DW_CFA_def_cfa_offset: 16
  DW_CFA_offset: r6 (rbp) at cfa-16
  DW_CFA_advance_loc: 3 to 00000000009c30a5
  DW_CFA_def_cfa_register: r6 (rbp)
  DW_CFA_advance_loc: 5 to 00000000009c30aa
  DW_CFA_offset: r3 (rbx) at cfa-24
  DW_CFA_advance_loc1: 164 to 00000000009c314e
  DW_CFA_def_cfa: r7 (rsp) ofs 8
  DW_CFA_nop
  DW_CFA_nop
  DW_CFA_nop

00014db4 0000000000000020 00014db8 FDE cie=00000000 pc=00000000009c314f..00000000009c31fe
  DW_CFA_advance_loc: 1 to 00000000009c3150
  DW_CFA_def_cfa_offset: 16
  DW_CFA_offset: r6 (rbp) at cfa-16
  DW_CFA_advance_loc: 3 to 00000000009c3153
  DW_CFA_def_cfa_register: r6 (rbp)
  DW_CFA_advance_loc: 5 to 00000000009c3158
  DW_CFA_offset: r3 (rbx) at cfa-24
  DW_CFA_advance_loc1: 165 to 00000000009c31fd
  DW_CFA_def_cfa: r7 (rsp) ofs 8
  DW_CFA_nop
  DW_CFA_nop
  DW_CFA_nop

00014dd8 000000000000001c 00014ddc FDE cie=00000000 pc=00000000009c31fe..00000000009c3274
  DW_CFA_advance_loc: 1 to 00000000009c31ff
  DW_CFA_def_cfa_offset: 16
  DW_CFA_offset: r6 (rbp) at cfa-16
  DW_CFA_advance_loc: 3 to 00000000009c3202
  DW_CFA_def_cfa_register: r6 (rbp)
  DW_CFA_advance_loc1: 113 to 00000000009c3273
  DW_CFA_def_cfa: r7 (rsp) ofs 8
  DW_CFA_nop
  DW_CFA_nop

00014df8 000000000000001c 00014dfc FDE cie=00000000 pc=00000000009c3274..00000000009c3326
  DW_CFA_advance_loc: 1 to 00000000009c3275
  DW_CFA_def_cfa_offset: 16
  DW_CFA_offset: r6 (rbp) at cfa-16
  DW_CFA_advance_loc: 3 to 00000000009c3278
  DW_CFA_def_cfa_register: r6 (rbp)
  DW_CFA_advance_loc1: 173 to 00000000009c3325
  DW_CFA_def_cfa: r7 (rsp) ofs 8
  DW_CFA_nop
  DW_CFA_nop

00014e18 000000000000001c 00014e1c FDE cie=00000000 pc=00000000009c3326..00000000009c3350
  DW_CFA_advance_loc: 1 to 00000000009c3327
  DW_CFA_def_cfa_offset: 16
  DW_CFA_offset: r6 (rbp) at cfa-16
  DW_CFA_advance_loc: 3 to 00000000009c332a
  DW_CFA_def_cfa_register: r6 (rbp)
  DW_CFA_advance_loc: 37 to 00000000009c334f
  DW_CFA_def_cfa: r7 (rsp) ofs 8
  DW_CFA_nop
  DW_CFA_nop
  DW_CFA_nop

00014e38 000000000000001c 00014e3c FDE cie=00000000 pc=00000000009c3350..00000000009c3449
  DW_CFA_advance_loc: 1 to 00000000009c3351
  DW_CFA_def_cfa_offset: 16
  DW_CFA_offset: r6 (rbp) at cfa-16
  DW_CFA_advance_loc: 3 to 00000000009c3354
  DW_CFA_def_cfa_register: r6 (rbp)
  DW_CFA_advance_loc1: 244 to 00000000009c3448
  DW_CFA_def_cfa: r7 (rsp) ofs 8
  DW_CFA_nop
  DW_CFA_nop

00014e58 0000000000000020 00014e5c FDE cie=00000000 pc=00000000009c3449..00000000009c36c9
  DW_CFA_advance_loc: 1 to 00000000009c344a
  DW_CFA_def_cfa_offset: 16
  DW_CFA_offset: r6 (rbp) at cfa-16
  DW_CFA_advance_loc: 3 to 00000000009c344d
  DW_CFA_def_cfa_register: r6 (rbp)
  DW_CFA_advance_loc: 5 to 00000000009c3452
  DW_CFA_offset: r3 (rbx) at cfa-24
  DW_CFA_advance_loc2: 630 to 00000000009c36c8
  DW_CFA_def_cfa: r7 (rsp) ofs 8
  DW_CFA_nop
  DW_CFA_nop

00014e7c 000000000000001c 00014e80 FDE cie=00000000 pc=00000000009c36c9..00000000009c39b2
  DW_CFA_advance_loc: 1 to 00000000009c36ca
  DW_CFA_def_cfa_offset: 16
  DW_CFA_offset: r6 (rbp) at cfa-16
  DW_CFA_advance_loc: 3 to 00000000009c36cd
  DW_CFA_def_cfa_register: r6 (rbp)
  DW_CFA_advance_loc2: 740 to 00000000009c39b1
  DW_CFA_def_cfa: r7 (rsp) ofs 8
  DW_CFA_nop

00014e9c 000000000000001c 00014ea0 FDE cie=00000000 pc=00000000009c39b2..00000000009c3a16
  DW_CFA_advance_loc: 1 to 00000000009c39b3
  DW_CFA_def_cfa_offset: 16
  DW_CFA_offset: r6 (rbp) at cfa-16
  DW_CFA_advance_loc: 3 to 00000000009c39b6
  DW_CFA_def_cfa_register: r6 (rbp)
  DW_CFA_advance_loc1: 95 to 00000000009c3a15
  DW_CFA_def_cfa: r7 (rsp) ofs 8
  DW_CFA_nop
  DW_CFA_nop

00014ebc 000000000000001c 00014ec0 FDE cie=00000000 pc=00000000009c3a16..00000000009c3a54
  DW_CFA_advance_loc: 1 to 00000000009c3a17
  DW_CFA_def_cfa_offset: 16
  DW_CFA_offset: r6 (rbp) at cfa-16
  DW_CFA_advance_loc: 3 to 00000000009c3a1a
  DW_CFA_def_cfa_register: r6 (rbp)
  DW_CFA_advance_loc: 57 to 00000000009c3a53
  DW_CFA_def_cfa: r7 (rsp) ofs 8
  DW_CFA_nop
  DW_CFA_nop
  DW_CFA_nop

00014edc 000000000000001c 00014ee0 FDE cie=00000000 pc=00000000009c3a54..00000000009c3be3
  DW_CFA_advance_loc: 1 to 00000000009c3a55
  DW_CFA_def_cfa_offset: 16
  DW_CFA_offset: r6 (rbp) at cfa-16
  DW_CFA_advance_loc: 3 to 00000000009c3a58
  DW_CFA_def_cfa_register: r6 (rbp)
  DW_CFA_advance_loc2: 394 to 00000000009c3be2
  DW_CFA_def_cfa: r7 (rsp) ofs 8
  DW_CFA_nop

00014efc 000000000000001c 00014f00 FDE cie=00000000 pc=00000000009c3be3..00000000009c4158
  DW_CFA_advance_loc: 1 to 00000000009c3be4
  DW_CFA_def_cfa_offset: 16
  DW_CFA_offset: r6 (rbp) at cfa-16
  DW_CFA_advance_loc: 3 to 00000000009c3be7
  DW_CFA_def_cfa_register: r6 (rbp)
  DW_CFA_advance_loc2: 1392 to 00000000009c4157
  DW_CFA_def_cfa: r7 (rsp) ofs 8
  DW_CFA_nop

00014f1c 000000000000001c 00014f20 FDE cie=00000000 pc=00000000009c4158..00000000009c47ca
  DW_CFA_advance_loc: 1 to 00000000009c4159
  DW_CFA_def_cfa_offset: 16
  DW_CFA_offset: r6 (rbp) at cfa-16
  DW_CFA_advance_loc: 3 to 00000000009c415c
  DW_CFA_def_cfa_register: r6 (rbp)
  DW_CFA_advance_loc2: 1645 to 00000000009c47c9
  DW_CFA_def_cfa: r7 (rsp) ofs 8
  DW_CFA_nop

00014f3c 000000000000001c 00014f40 FDE cie=00000000 pc=00000000009c47ca..00000000009c4f05
  DW_CFA_advance_loc: 1 to 00000000009c47cb
  DW_CFA_def_cfa_offset: 16
  DW_CFA_offset: r6 (rbp) at cfa-16
  DW_CFA_advance_loc: 3 to 00000000009c47ce
  DW_CFA_def_cfa_register: r6 (rbp)
  DW_CFA_advance_loc2: 1846 to 00000000009c4f04
  DW_CFA_def_cfa: r7 (rsp) ofs 8
  DW_CFA_nop

00014f5c 000000000000001c 00014f60 FDE cie=00000000 pc=00000000009c4f05..00000000009c5048
  DW_CFA_advance_loc: 1 to 00000000009c4f06
  DW_CFA_def_cfa_offset: 16
  DW_CFA_offset: r6 (rbp) at cfa-16
  DW_CFA_advance_loc: 3 to 00000000009c4f09
  DW_CFA_def_cfa_register: r6 (rbp)
  DW_CFA_advance_loc2: 318 to 00000000009c5047
  DW_CFA_def_cfa: r7 (rsp) ofs 8
  DW_CFA_nop

00014f7c 000000000000001c 00014f80 FDE cie=00000000 pc=00000000009c5048..00000000009c53da
  DW_CFA_advance_loc: 1 to 00000000009c5049
  DW_CFA_def_cfa_offset: 16
  DW_CFA_offset: r6 (rbp) at cfa-16
  DW_CFA_advance_loc: 3 to 00000000009c504c
  DW_CFA_def_cfa_register: r6 (rbp)
  DW_CFA_advance_loc2: 909 to 00000000009c53d9
  DW_CFA_def_cfa: r7 (rsp) ofs 8
  DW_CFA_nop

00014f9c 000000000000001c 00014fa0 FDE cie=00000000 pc=00000000009c53da..00000000009c544c
  DW_CFA_advance_loc: 1 to 00000000009c53db
  DW_CFA_def_cfa_offset: 16
  DW_CFA_offset: r6 (rbp) at cfa-16
  DW_CFA_advance_loc: 3 to 00000000009c53de
  DW_CFA_def_cfa_register: r6 (rbp)
  DW_CFA_advance_loc1: 109 to 00000000009c544b
  DW_CFA_def_cfa: r7 (rsp) ofs 8
  DW_CFA_nop
  DW_CFA_nop

00014fbc 000000000000001c 00014fc0 FDE cie=00000000 pc=00000000009c544c..00000000009c551b
  DW_CFA_advance_loc: 1 to 00000000009c544d
  DW_CFA_def_cfa_offset: 16
  DW_CFA_offset: r6 (rbp) at cfa-16
  DW_CFA_advance_loc: 3 to 00000000009c5450
  DW_CFA_def_cfa_register: r6 (rbp)
  DW_CFA_advance_loc1: 202 to 00000000009c551a
  DW_CFA_def_cfa: r7 (rsp) ofs 8
  DW_CFA_nop
  DW_CFA_nop

00014fdc 000000000000001c 00014fe0 FDE cie=00000000 pc=00000000009c551b..00000000009c5562
  DW_CFA_advance_loc: 1 to 00000000009c551c
  DW_CFA_def_cfa_offset: 16
  DW_CFA_offset: r6 (rbp) at cfa-16
  DW_CFA_advance_loc: 3 to 00000000009c551f
  DW_CFA_def_cfa_register: r6 (rbp)
  DW_CFA_advance_loc1: 66 to 00000000009c5561
  DW_CFA_def_cfa: r7 (rsp) ofs 8
  DW_CFA_nop
  DW_CFA_nop

00014ffc 000000000000001c 00015000 FDE cie=00000000 pc=00000000009c5562..00000000009c5600
  DW_CFA_advance_loc: 1 to 00000000009c5563
  DW_CFA_def_cfa_offset: 16
  DW_CFA_offset: r6 (rbp) at cfa-16
  DW_CFA_advance_loc: 3 to 00000000009c5566
  DW_CFA_def_cfa_register: r6 (rbp)
  DW_CFA_advance_loc1: 153 to 00000000009c55ff
  DW_CFA_def_cfa: r7 (rsp) ofs 8
  DW_CFA_nop
  DW_CFA_nop

0001501c 000000000000001c 00015020 FDE cie=00000000 pc=00000000009c5600..00000000009c5615
  DW_CFA_advance_loc: 1 to 00000000009c5601
  DW_CFA_def_cfa_offset: 16
  DW_CFA_offset: r6 (rbp) at cfa-16
  DW_CFA_advance_loc: 3 to 00000000009c5604
  DW_CFA_def_cfa_register: r6 (rbp)
  DW_CFA_advance_loc: 16 to 00000000009c5614
  DW_CFA_def_cfa: r7 (rsp) ofs 8
  DW_CFA_nop
  DW_CFA_nop
  DW_CFA_nop

0001503c 0000000000000020 00015040 FDE cie=00000000 pc=00000000009c5615..00000000009c5681
  DW_CFA_advance_loc: 1 to 00000000009c5616
  DW_CFA_def_cfa_offset: 16
  DW_CFA_offset: r6 (rbp) at cfa-16
  DW_CFA_advance_loc: 3 to 00000000009c5619
  DW_CFA_def_cfa_register: r6 (rbp)
  DW_CFA_advance_loc: 1 to 00000000009c561a
  DW_CFA_offset: r3 (rbx) at cfa-24
  DW_CFA_advance_loc1: 102 to 00000000009c5680
  DW_CFA_def_cfa: r7 (rsp) ofs 8
  DW_CFA_nop
  DW_CFA_nop
  DW_CFA_nop

00015060 000000000000001c 00015064 FDE cie=00000000 pc=00000000009c5681..00000000009c56a6
  DW_CFA_advance_loc: 1 to 00000000009c5682
  DW_CFA_def_cfa_offset: 16
  DW_CFA_offset: r6 (rbp) at cfa-16
  DW_CFA_advance_loc: 3 to 00000000009c5685
  DW_CFA_def_cfa_register: r6 (rbp)
  DW_CFA_advance_loc: 32 to 00000000009c56a5
  DW_CFA_def_cfa: r7 (rsp) ofs 8
  DW_CFA_nop
  DW_CFA_nop
  DW_CFA_nop

00015080 000000000000001c 00015084 FDE cie=00000000 pc=00000000009c56a6..00000000009c56b5
  DW_CFA_advance_loc: 1 to 00000000009c56a7
  DW_CFA_def_cfa_offset: 16
  DW_CFA_offset: r6 (rbp) at cfa-16
  DW_CFA_advance_loc: 3 to 00000000009c56aa
  DW_CFA_def_cfa_register: r6 (rbp)
  DW_CFA_advance_loc: 10 to 00000000009c56b4
  DW_CFA_def_cfa: r7 (rsp) ofs 8
  DW_CFA_nop
  DW_CFA_nop
  DW_CFA_nop

000150a0 0000000000000020 000150a4 FDE cie=00000000 pc=00000000009c56b5..00000000009c582c
  DW_CFA_advance_loc: 1 to 00000000009c56b6
  DW_CFA_def_cfa_offset: 16
  DW_CFA_offset: r6 (rbp) at cfa-16
  DW_CFA_advance_loc: 3 to 00000000009c56b9
  DW_CFA_def_cfa_register: r6 (rbp)
  DW_CFA_advance_loc: 1 to 00000000009c56ba
  DW_CFA_offset: r3 (rbx) at cfa-24
  DW_CFA_advance_loc2: 369 to 00000000009c582b
  DW_CFA_def_cfa: r7 (rsp) ofs 8
  DW_CFA_nop
  DW_CFA_nop

000150c4 000000000000001c 000150c8 FDE cie=00000000 pc=00000000009c582c..00000000009c5854
  DW_CFA_advance_loc: 1 to 00000000009c582d
  DW_CFA_def_cfa_offset: 16
  DW_CFA_offset: r6 (rbp) at cfa-16
  DW_CFA_advance_loc: 3 to 00000000009c5830
  DW_CFA_def_cfa_register: r6 (rbp)
  DW_CFA_advance_loc: 35 to 00000000009c5853
  DW_CFA_def_cfa: r7 (rsp) ofs 8
  DW_CFA_nop
  DW_CFA_nop
  DW_CFA_nop

000150e4 000000000000001c 000150e8 FDE cie=00000000 pc=00000000009c5854..00000000009c5916
  DW_CFA_advance_loc: 1 to 00000000009c5855
  DW_CFA_def_cfa_offset: 16
  DW_CFA_offset: r6 (rbp) at cfa-16
  DW_CFA_advance_loc: 3 to 00000000009c5858
  DW_CFA_def_cfa_register: r6 (rbp)
  DW_CFA_advance_loc1: 189 to 00000000009c5915
  DW_CFA_def_cfa: r7 (rsp) ofs 8
  DW_CFA_nop
  DW_CFA_nop

00015104 000000000000001c 00015108 FDE cie=00000000 pc=00000000009c5916..00000000009c5abc
  DW_CFA_advance_loc: 1 to 00000000009c5917
  DW_CFA_def_cfa_offset: 16
  DW_CFA_offset: r6 (rbp) at cfa-16
  DW_CFA_advance_loc: 3 to 00000000009c591a
  DW_CFA_def_cfa_register: r6 (rbp)
  DW_CFA_advance_loc2: 417 to 00000000009c5abb
  DW_CFA_def_cfa: r7 (rsp) ofs 8
  DW_CFA_nop

00015124 000000000000001c 00015128 FDE cie=00000000 pc=00000000009c5abc..00000000009c67ac
  DW_CFA_advance_loc: 1 to 00000000009c5abd
  DW_CFA_def_cfa_offset: 16
  DW_CFA_offset: r6 (rbp) at cfa-16
  DW_CFA_advance_loc: 3 to 00000000009c5ac0
  DW_CFA_def_cfa_register: r6 (rbp)
  DW_CFA_advance_loc2: 3307 to 00000000009c67ab
  DW_CFA_def_cfa: r7 (rsp) ofs 8
  DW_CFA_nop

00015144 000000000000001c 00015148 FDE cie=00000000 pc=00000000009c67ac..00000000009c6807
  DW_CFA_advance_loc: 1 to 00000000009c67ad
  DW_CFA_def_cfa_offset: 16
  DW_CFA_offset: r6 (rbp) at cfa-16
  DW_CFA_advance_loc: 3 to 00000000009c67b0
  DW_CFA_def_cfa_register: r6 (rbp)
  DW_CFA_advance_loc1: 86 to 00000000009c6806
  DW_CFA_def_cfa: r7 (rsp) ofs 8
  DW_CFA_nop
  DW_CFA_nop

00015164 000000000000001c 00015168 FDE cie=00000000 pc=00000000009c6807..00000000009c683d
  DW_CFA_advance_loc: 1 to 00000000009c6808
  DW_CFA_def_cfa_offset: 16
  DW_CFA_offset: r6 (rbp) at cfa-16
  DW_CFA_advance_loc: 3 to 00000000009c680b
  DW_CFA_def_cfa_register: r6 (rbp)
  DW_CFA_advance_loc: 49 to 00000000009c683c
  DW_CFA_def_cfa: r7 (rsp) ofs 8
  DW_CFA_nop
  DW_CFA_nop
  DW_CFA_nop

00015184 000000000000001c 00015188 FDE cie=00000000 pc=00000000009c683d..00000000009c68be
  DW_CFA_advance_loc: 1 to 00000000009c683e
  DW_CFA_def_cfa_offset: 16
  DW_CFA_offset: r6 (rbp) at cfa-16
  DW_CFA_advance_loc: 3 to 00000000009c6841
  DW_CFA_def_cfa_register: r6 (rbp)
  DW_CFA_advance_loc1: 124 to 00000000009c68bd
  DW_CFA_def_cfa: r7 (rsp) ofs 8
  DW_CFA_nop
  DW_CFA_nop

000151a4 000000000000001c 000151a8 FDE cie=00000000 pc=00000000009c68be..00000000009c6927
  DW_CFA_advance_loc: 1 to 00000000009c68bf
  DW_CFA_def_cfa_offset: 16
  DW_CFA_offset: r6 (rbp) at cfa-16
  DW_CFA_advance_loc: 3 to 00000000009c68c2
  DW_CFA_def_cfa_register: r6 (rbp)
  DW_CFA_advance_loc1: 100 to 00000000009c6926
  DW_CFA_def_cfa: r7 (rsp) ofs 8
  DW_CFA_nop
  DW_CFA_nop

000151c4 0000000000000020 000151c8 FDE cie=00000000 pc=00000000009c6927..00000000009c6fba
  DW_CFA_advance_loc: 1 to 00000000009c6928
  DW_CFA_def_cfa_offset: 16
  DW_CFA_offset: r6 (rbp) at cfa-16
  DW_CFA_advance_loc: 3 to 00000000009c692b
  DW_CFA_def_cfa_register: r6 (rbp)
  DW_CFA_advance_loc: 8 to 00000000009c6933
  DW_CFA_offset: r3 (rbx) at cfa-24
  DW_CFA_advance_loc2: 1670 to 00000000009c6fb9
  DW_CFA_def_cfa: r7 (rsp) ofs 8
  DW_CFA_nop
  DW_CFA_nop

000151e8 000000000000001c 000151ec FDE cie=00000000 pc=00000000009c6fba..00000000009c705d
  DW_CFA_advance_loc: 1 to 00000000009c6fbb
  DW_CFA_def_cfa_offset: 16
  DW_CFA_offset: r6 (rbp) at cfa-16
  DW_CFA_advance_loc: 3 to 00000000009c6fbe
  DW_CFA_def_cfa_register: r6 (rbp)
  DW_CFA_advance_loc1: 158 to 00000000009c705c
  DW_CFA_def_cfa: r7 (rsp) ofs 8
  DW_CFA_nop
  DW_CFA_nop

00015208 000000000000001c 0001520c FDE cie=00000000 pc=00000000009c705d..00000000009c717a
  DW_CFA_advance_loc: 1 to 00000000009c705e
  DW_CFA_def_cfa_offset: 16
  DW_CFA_offset: r6 (rbp) at cfa-16
  DW_CFA_advance_loc: 3 to 00000000009c7061
  DW_CFA_def_cfa_register: r6 (rbp)
  DW_CFA_advance_loc2: 280 to 00000000009c7179
  DW_CFA_def_cfa: r7 (rsp) ofs 8
  DW_CFA_nop

00015228 000000000000001c 0001522c FDE cie=00000000 pc=00000000009c717a..00000000009c7587
  DW_CFA_advance_loc: 1 to 00000000009c717b
  DW_CFA_def_cfa_offset: 16
  DW_CFA_offset: r6 (rbp) at cfa-16
  DW_CFA_advance_loc: 3 to 00000000009c717e
  DW_CFA_def_cfa_register: r6 (rbp)
  DW_CFA_advance_loc2: 1032 to 00000000009c7586
  DW_CFA_def_cfa: r7 (rsp) ofs 8
  DW_CFA_nop

00015248 0000000000000020 0001524c FDE cie=00000000 pc=00000000009c7587..00000000009c76c4
  DW_CFA_advance_loc: 1 to 00000000009c7588
  DW_CFA_def_cfa_offset: 16
  DW_CFA_offset: r6 (rbp) at cfa-16
  DW_CFA_advance_loc: 3 to 00000000009c758b
  DW_CFA_def_cfa_register: r6 (rbp)
  DW_CFA_advance_loc: 1 to 00000000009c758c
  DW_CFA_offset: r3 (rbx) at cfa-24
  DW_CFA_advance_loc2: 311 to 00000000009c76c3
