  DW_CFA_advance_loc: 1 to 00000000009310d4
  DW_CFA_def_cfa_offset: 16
  DW_CFA_offset: r6 (rbp) at cfa-16
  DW_CFA_advance_loc: 3 to 00000000009310d7
  DW_CFA_def_cfa_register: r6 (rbp)
  DW_CFA_advance_loc2: 334 to 0000000000931225
  DW_CFA_def_cfa: r7 (rsp) ofs 8
  DW_CFA_nop

00009e18 000000000000001c 00009e1c FDE cie=00000000 pc=0000000000931226..000000000093125d
  DW_CFA_advance_loc: 1 to 0000000000931227
  DW_CFA_def_cfa_offset: 16
  DW_CFA_offset: r6 (rbp) at cfa-16
  DW_CFA_advance_loc: 3 to 000000000093122a
  DW_CFA_def_cfa_register: r6 (rbp)
  DW_CFA_advance_loc: 50 to 000000000093125c
  DW_CFA_def_cfa: r7 (rsp) ofs 8
  DW_CFA_nop
  DW_CFA_nop
  DW_CFA_nop

00009e38 0000000000000020 00009e3c FDE cie=00000000 pc=000000000093125d..0000000000931973
  DW_CFA_advance_loc: 1 to 000000000093125e
  DW_CFA_def_cfa_offset: 16
  DW_CFA_offset: r6 (rbp) at cfa-16
  DW_CFA_advance_loc: 3 to 0000000000931261
  DW_CFA_def_cfa_register: r6 (rbp)
  DW_CFA_advance_loc: 5 to 0000000000931266
  DW_CFA_offset: r3 (rbx) at cfa-24
  DW_CFA_advance_loc2: 1804 to 0000000000931972
  DW_CFA_def_cfa: r7 (rsp) ofs 8
  DW_CFA_nop
  DW_CFA_nop

00009e5c 0000000000000024 000094d8 FDE cie=00000988 pc=0000000000931973..0000000000932e5d
  Augmentation data:     e6 f5 00 00
  DW_CFA_advance_loc: 1 to 0000000000931974
  DW_CFA_def_cfa_offset: 16
  DW_CFA_offset: r6 (rbp) at cfa-16
  DW_CFA_advance_loc: 3 to 0000000000931977
  DW_CFA_def_cfa_register: r6 (rbp)
  DW_CFA_advance_loc: 8 to 000000000093197f
  DW_CFA_offset: r3 (rbx) at cfa-24
  DW_CFA_advance_loc2: 5341 to 0000000000932e5c
  DW_CFA_def_cfa: r7 (rsp) ofs 8
  DW_CFA_nop
  DW_CFA_nop

00009e84 000000000000001c 00009e88 FDE cie=00000000 pc=0000000000932e5d..0000000000932e75
  DW_CFA_advance_loc: 1 to 0000000000932e5e
  DW_CFA_def_cfa_offset: 16
  DW_CFA_offset: r6 (rbp) at cfa-16
  DW_CFA_advance_loc: 3 to 0000000000932e61
  DW_CFA_def_cfa_register: r6 (rbp)
  DW_CFA_advance_loc: 19 to 0000000000932e74
  DW_CFA_def_cfa: r7 (rsp) ofs 8
  DW_CFA_nop
  DW_CFA_nop
  DW_CFA_nop

00009ea4 0000000000000018 00009ea8 FDE cie=00000000 pc=0000000000932e75..000000000093318f
  DW_CFA_advance_loc: 1 to 0000000000932e76
  DW_CFA_def_cfa_offset: 16
  DW_CFA_offset: r6 (rbp) at cfa-16
  DW_CFA_advance_loc: 3 to 0000000000932e79
  DW_CFA_def_cfa_register: r6 (rbp)
  DW_CFA_nop
  DW_CFA_nop
  DW_CFA_nop

00009ec0 000000000000001c 00009ec4 FDE cie=00000000 pc=000000000093318f..0000000000933219
  DW_CFA_advance_loc: 1 to 0000000000933190
  DW_CFA_def_cfa_offset: 16
  DW_CFA_offset: r6 (rbp) at cfa-16
  DW_CFA_advance_loc: 3 to 0000000000933193
  DW_CFA_def_cfa_register: r6 (rbp)
  DW_CFA_advance_loc1: 133 to 0000000000933218
  DW_CFA_def_cfa: r7 (rsp) ofs 8
  DW_CFA_nop
  DW_CFA_nop

00009ee0 0000000000000020 00009ee4 FDE cie=00000000 pc=0000000000933219..000000000093559b
  DW_CFA_advance_loc: 1 to 000000000093321a
  DW_CFA_def_cfa_offset: 16
  DW_CFA_offset: r6 (rbp) at cfa-16
  DW_CFA_advance_loc: 3 to 000000000093321d
  DW_CFA_def_cfa_register: r6 (rbp)
  DW_CFA_advance_loc: 5 to 0000000000933222
  DW_CFA_offset: r3 (rbx) at cfa-24
  DW_CFA_advance_loc2: 9080 to 000000000093559a
  DW_CFA_def_cfa: r7 (rsp) ofs 8
  DW_CFA_nop
  DW_CFA_nop

00009f04 000000000000001c 00009f08 FDE cie=00000000 pc=000000000093559b..0000000000935782
  DW_CFA_advance_loc: 1 to 000000000093559c
  DW_CFA_def_cfa_offset: 16
  DW_CFA_offset: r6 (rbp) at cfa-16
  DW_CFA_advance_loc: 3 to 000000000093559f
  DW_CFA_def_cfa_register: r6 (rbp)
  DW_CFA_advance_loc2: 482 to 0000000000935781
  DW_CFA_def_cfa: r7 (rsp) ofs 8
  DW_CFA_nop

00009f24 000000000000001c 00009f28 FDE cie=00000000 pc=0000000000935782..0000000000935d3e
  DW_CFA_advance_loc: 1 to 0000000000935783
  DW_CFA_def_cfa_offset: 16
  DW_CFA_offset: r6 (rbp) at cfa-16
  DW_CFA_advance_loc: 3 to 0000000000935786
  DW_CFA_def_cfa_register: r6 (rbp)
  DW_CFA_advance_loc2: 1463 to 0000000000935d3d
  DW_CFA_def_cfa: r7 (rsp) ofs 8
  DW_CFA_nop

00009f44 000000000000001c 00009f48 FDE cie=00000000 pc=0000000000935d3e..0000000000937782
  DW_CFA_advance_loc: 1 to 0000000000935d3f
  DW_CFA_def_cfa_offset: 16
  DW_CFA_offset: r6 (rbp) at cfa-16
  DW_CFA_advance_loc: 3 to 0000000000935d42
  DW_CFA_def_cfa_register: r6 (rbp)
  DW_CFA_advance_loc2: 6719 to 0000000000937781
  DW_CFA_def_cfa: r7 (rsp) ofs 8
  DW_CFA_nop

00009f64 000000000000001c 00009f68 FDE cie=00000000 pc=0000000000937782..0000000000937813
  DW_CFA_advance_loc: 1 to 0000000000937783
  DW_CFA_def_cfa_offset: 16
  DW_CFA_offset: r6 (rbp) at cfa-16
  DW_CFA_advance_loc: 3 to 0000000000937786
  DW_CFA_def_cfa_register: r6 (rbp)
  DW_CFA_advance_loc1: 140 to 0000000000937812
  DW_CFA_def_cfa: r7 (rsp) ofs 8
  DW_CFA_nop
  DW_CFA_nop

00009f84 000000000000001c 00009f88 FDE cie=00000000 pc=0000000000937813..00000000009378b0
  DW_CFA_advance_loc: 1 to 0000000000937814
  DW_CFA_def_cfa_offset: 16
  DW_CFA_offset: r6 (rbp) at cfa-16
  DW_CFA_advance_loc: 3 to 0000000000937817
  DW_CFA_def_cfa_register: r6 (rbp)
  DW_CFA_advance_loc1: 152 to 00000000009378af
  DW_CFA_def_cfa: r7 (rsp) ofs 8
  DW_CFA_nop
  DW_CFA_nop

00009fa4 000000000000001c 00009fa8 FDE cie=00000000 pc=00000000009378b0..000000000093796c
  DW_CFA_advance_loc: 1 to 00000000009378b1
  DW_CFA_def_cfa_offset: 16
  DW_CFA_offset: r6 (rbp) at cfa-16
  DW_CFA_advance_loc: 3 to 00000000009378b4
  DW_CFA_def_cfa_register: r6 (rbp)
  DW_CFA_advance_loc1: 183 to 000000000093796b
  DW_CFA_def_cfa: r7 (rsp) ofs 8
  DW_CFA_nop
  DW_CFA_nop

00009fc4 000000000000001c 00009fc8 FDE cie=00000000 pc=000000000093796c..0000000000937d93
  DW_CFA_advance_loc: 1 to 000000000093796d
  DW_CFA_def_cfa_offset: 16
  DW_CFA_offset: r6 (rbp) at cfa-16
  DW_CFA_advance_loc: 3 to 0000000000937970
  DW_CFA_def_cfa_register: r6 (rbp)
  DW_CFA_advance_loc2: 1058 to 0000000000937d92
  DW_CFA_def_cfa: r7 (rsp) ofs 8
  DW_CFA_nop

00009fe4 000000000000001c 00009fe8 FDE cie=00000000 pc=0000000000937d93..0000000000937e3f
  DW_CFA_advance_loc: 1 to 0000000000937d94
  DW_CFA_def_cfa_offset: 16
  DW_CFA_offset: r6 (rbp) at cfa-16
  DW_CFA_advance_loc: 3 to 0000000000937d97
  DW_CFA_def_cfa_register: r6 (rbp)
  DW_CFA_advance_loc1: 167 to 0000000000937e3e
  DW_CFA_def_cfa: r7 (rsp) ofs 8
  DW_CFA_nop
  DW_CFA_nop

0000a004 000000000000001c 0000a008 FDE cie=00000000 pc=0000000000937e3f..0000000000937e4a
  DW_CFA_advance_loc: 1 to 0000000000937e40
  DW_CFA_def_cfa_offset: 16
  DW_CFA_offset: r6 (rbp) at cfa-16
  DW_CFA_advance_loc: 3 to 0000000000937e43
  DW_CFA_def_cfa_register: r6 (rbp)
  DW_CFA_advance_loc: 6 to 0000000000937e49
  DW_CFA_def_cfa: r7 (rsp) ofs 8
  DW_CFA_nop
  DW_CFA_nop
  DW_CFA_nop

0000a024 000000000000001c 0000a028 FDE cie=00000000 pc=0000000000937e4a..0000000000937e55
  DW_CFA_advance_loc: 1 to 0000000000937e4b
  DW_CFA_def_cfa_offset: 16
  DW_CFA_offset: r6 (rbp) at cfa-16
  DW_CFA_advance_loc: 3 to 0000000000937e4e
  DW_CFA_def_cfa_register: r6 (rbp)
  DW_CFA_advance_loc: 6 to 0000000000937e54
  DW_CFA_def_cfa: r7 (rsp) ofs 8
  DW_CFA_nop
  DW_CFA_nop
  DW_CFA_nop

0000a044 000000000000001c 0000a048 FDE cie=00000000 pc=0000000000937e55..0000000000937e60
  DW_CFA_advance_loc: 1 to 0000000000937e56
  DW_CFA_def_cfa_offset: 16
  DW_CFA_offset: r6 (rbp) at cfa-16
  DW_CFA_advance_loc: 3 to 0000000000937e59
  DW_CFA_def_cfa_register: r6 (rbp)
  DW_CFA_advance_loc: 6 to 0000000000937e5f
  DW_CFA_def_cfa: r7 (rsp) ofs 8
  DW_CFA_nop
  DW_CFA_nop
  DW_CFA_nop

0000a064 000000000000001c 0000a068 FDE cie=00000000 pc=0000000000937e60..0000000000937e6a
  DW_CFA_advance_loc: 1 to 0000000000937e61
  DW_CFA_def_cfa_offset: 16
  DW_CFA_offset: r6 (rbp) at cfa-16
  DW_CFA_advance_loc: 3 to 0000000000937e64
  DW_CFA_def_cfa_register: r6 (rbp)
  DW_CFA_advance_loc: 5 to 0000000000937e69
  DW_CFA_def_cfa: r7 (rsp) ofs 8
  DW_CFA_nop
  DW_CFA_nop
  DW_CFA_nop

0000a084 000000000000001c 0000a088 FDE cie=00000000 pc=0000000000937e6a..0000000000937e74
  DW_CFA_advance_loc: 1 to 0000000000937e6b
  DW_CFA_def_cfa_offset: 16
  DW_CFA_offset: r6 (rbp) at cfa-16
  DW_CFA_advance_loc: 3 to 0000000000937e6e
  DW_CFA_def_cfa_register: r6 (rbp)
  DW_CFA_advance_loc: 5 to 0000000000937e73
  DW_CFA_def_cfa: r7 (rsp) ofs 8
  DW_CFA_nop
  DW_CFA_nop
  DW_CFA_nop

0000a0a4 000000000000001c 0000a0a8 FDE cie=00000000 pc=0000000000937e74..0000000000937e7e
  DW_CFA_advance_loc: 1 to 0000000000937e75
  DW_CFA_def_cfa_offset: 16
  DW_CFA_offset: r6 (rbp) at cfa-16
  DW_CFA_advance_loc: 3 to 0000000000937e78
  DW_CFA_def_cfa_register: r6 (rbp)
  DW_CFA_advance_loc: 5 to 0000000000937e7d
  DW_CFA_def_cfa: r7 (rsp) ofs 8
  DW_CFA_nop
  DW_CFA_nop
  DW_CFA_nop

0000a0c4 000000000000001c 0000a0c8 FDE cie=00000000 pc=0000000000937e7e..0000000000937e88
  DW_CFA_advance_loc: 1 to 0000000000937e7f
  DW_CFA_def_cfa_offset: 16
  DW_CFA_offset: r6 (rbp) at cfa-16
  DW_CFA_advance_loc: 3 to 0000000000937e82
  DW_CFA_def_cfa_register: r6 (rbp)
  DW_CFA_advance_loc: 5 to 0000000000937e87
  DW_CFA_def_cfa: r7 (rsp) ofs 8
  DW_CFA_nop
  DW_CFA_nop
  DW_CFA_nop

0000a0e4 000000000000001c 0000a0e8 FDE cie=00000000 pc=0000000000937e88..0000000000937e96
  DW_CFA_advance_loc: 1 to 0000000000937e89
  DW_CFA_def_cfa_offset: 16
  DW_CFA_offset: r6 (rbp) at cfa-16
  DW_CFA_advance_loc: 3 to 0000000000937e8c
  DW_CFA_def_cfa_register: r6 (rbp)
  DW_CFA_advance_loc: 9 to 0000000000937e95
  DW_CFA_def_cfa: r7 (rsp) ofs 8
  DW_CFA_nop
  DW_CFA_nop
  DW_CFA_nop

0000a104 000000000000001c 0000a108 FDE cie=00000000 pc=0000000000937e96..0000000000937ea6
  DW_CFA_advance_loc: 1 to 0000000000937e97
  DW_CFA_def_cfa_offset: 16
  DW_CFA_offset: r6 (rbp) at cfa-16
  DW_CFA_advance_loc: 3 to 0000000000937e9a
  DW_CFA_def_cfa_register: r6 (rbp)
  DW_CFA_advance_loc: 11 to 0000000000937ea5
  DW_CFA_def_cfa: r7 (rsp) ofs 8
  DW_CFA_nop
  DW_CFA_nop
  DW_CFA_nop

0000a124 000000000000001c 0000a128 FDE cie=00000000 pc=0000000000937ea6..0000000000937eb1
  DW_CFA_advance_loc: 1 to 0000000000937ea7
  DW_CFA_def_cfa_offset: 16
  DW_CFA_offset: r6 (rbp) at cfa-16
  DW_CFA_advance_loc: 3 to 0000000000937eaa
  DW_CFA_def_cfa_register: r6 (rbp)
  DW_CFA_advance_loc: 6 to 0000000000937eb0
  DW_CFA_def_cfa: r7 (rsp) ofs 8
  DW_CFA_nop
  DW_CFA_nop
  DW_CFA_nop

0000a144 000000000000001c 0000a148 FDE cie=00000000 pc=0000000000937eb1..0000000000937ec2
  DW_CFA_advance_loc: 1 to 0000000000937eb2
  DW_CFA_def_cfa_offset: 16
  DW_CFA_offset: r6 (rbp) at cfa-16
  DW_CFA_advance_loc: 3 to 0000000000937eb5
  DW_CFA_def_cfa_register: r6 (rbp)
  DW_CFA_advance_loc: 12 to 0000000000937ec1
  DW_CFA_def_cfa: r7 (rsp) ofs 8
  DW_CFA_nop
  DW_CFA_nop
  DW_CFA_nop

0000a164 000000000000001c 0000a168 FDE cie=00000000 pc=0000000000937ec2..0000000000937f31
  DW_CFA_advance_loc: 1 to 0000000000937ec3
  DW_CFA_def_cfa_offset: 16
  DW_CFA_offset: r6 (rbp) at cfa-16
  DW_CFA_advance_loc: 3 to 0000000000937ec6
  DW_CFA_def_cfa_register: r6 (rbp)
  DW_CFA_advance_loc1: 106 to 0000000000937f30
  DW_CFA_def_cfa: r7 (rsp) ofs 8
  DW_CFA_nop
  DW_CFA_nop

0000a184 000000000000001c 0000a188 FDE cie=00000000 pc=0000000000938286..0000000000938297
  DW_CFA_advance_loc: 1 to 0000000000938287
  DW_CFA_def_cfa_offset: 16
  DW_CFA_offset: r6 (rbp) at cfa-16
  DW_CFA_advance_loc: 3 to 000000000093828a
  DW_CFA_def_cfa_register: r6 (rbp)
  DW_CFA_advance_loc: 12 to 0000000000938296
  DW_CFA_def_cfa: r7 (rsp) ofs 8
  DW_CFA_nop
  DW_CFA_nop
  DW_CFA_nop

0000a1a4 000000000000001c 0000a1a8 FDE cie=00000000 pc=0000000000938297..00000000009382a5
  DW_CFA_advance_loc: 1 to 0000000000938298
  DW_CFA_def_cfa_offset: 16
  DW_CFA_offset: r6 (rbp) at cfa-16
  DW_CFA_advance_loc: 3 to 000000000093829b
  DW_CFA_def_cfa_register: r6 (rbp)
  DW_CFA_advance_loc: 9 to 00000000009382a4
  DW_CFA_def_cfa: r7 (rsp) ofs 8
  DW_CFA_nop
  DW_CFA_nop
  DW_CFA_nop

0000a1c4 000000000000001c 0000a1c8 FDE cie=00000000 pc=00000000009382a5..0000000000938317
  DW_CFA_advance_loc: 1 to 00000000009382a6
  DW_CFA_def_cfa_offset: 16
  DW_CFA_offset: r6 (rbp) at cfa-16
  DW_CFA_advance_loc: 3 to 00000000009382a9
  DW_CFA_def_cfa_register: r6 (rbp)
  DW_CFA_advance_loc1: 109 to 0000000000938316
  DW_CFA_def_cfa: r7 (rsp) ofs 8
  DW_CFA_nop
  DW_CFA_nop

0000a1e4 000000000000001c 0000a1e8 FDE cie=00000000 pc=0000000000938317..0000000000938325
  DW_CFA_advance_loc: 1 to 0000000000938318
  DW_CFA_def_cfa_offset: 16
  DW_CFA_offset: r6 (rbp) at cfa-16
  DW_CFA_advance_loc: 3 to 000000000093831b
  DW_CFA_def_cfa_register: r6 (rbp)
  DW_CFA_advance_loc: 9 to 0000000000938324
  DW_CFA_def_cfa: r7 (rsp) ofs 8
  DW_CFA_nop
  DW_CFA_nop
  DW_CFA_nop

0000a204 000000000000001c 0000a208 FDE cie=00000000 pc=0000000000938325..0000000000938394
  DW_CFA_advance_loc: 1 to 0000000000938326
  DW_CFA_def_cfa_offset: 16
  DW_CFA_offset: r6 (rbp) at cfa-16
  DW_CFA_advance_loc: 3 to 0000000000938329
  DW_CFA_def_cfa_register: r6 (rbp)
  DW_CFA_advance_loc1: 106 to 0000000000938393
  DW_CFA_def_cfa: r7 (rsp) ofs 8
  DW_CFA_nop
  DW_CFA_nop

0000a224 000000000000001c 0000a228 FDE cie=00000000 pc=0000000000938394..00000000009383c4
  DW_CFA_advance_loc: 1 to 0000000000938395
  DW_CFA_def_cfa_offset: 16
  DW_CFA_offset: r6 (rbp) at cfa-16
  DW_CFA_advance_loc: 3 to 0000000000938398
  DW_CFA_def_cfa_register: r6 (rbp)
  DW_CFA_advance_loc: 43 to 00000000009383c3
  DW_CFA_def_cfa: r7 (rsp) ofs 8
  DW_CFA_nop
  DW_CFA_nop
  DW_CFA_nop

0000a244 000000000000001c 0000a248 FDE cie=00000000 pc=0000000000937f31..00000000009381da
  DW_CFA_advance_loc: 1 to 0000000000937f32
  DW_CFA_def_cfa_offset: 16
  DW_CFA_offset: r6 (rbp) at cfa-16
  DW_CFA_advance_loc: 3 to 0000000000937f35
  DW_CFA_def_cfa_register: r6 (rbp)
  DW_CFA_advance_loc2: 676 to 00000000009381d9
  DW_CFA_def_cfa: r7 (rsp) ofs 8
  DW_CFA_nop

0000a264 0000000000000020 0000a268 FDE cie=00000000 pc=00000000009381da..00000000009381ef
  DW_CFA_advance_loc: 1 to 00000000009381db
  DW_CFA_def_cfa_offset: 16
  DW_CFA_offset: r6 (rbp) at cfa-16
  DW_CFA_advance_loc: 3 to 00000000009381de
  DW_CFA_def_cfa_register: r6 (rbp)
  DW_CFA_advance_loc: 16 to 00000000009381ee
  DW_CFA_def_cfa: r7 (rsp) ofs 8
  DW_CFA_nop
  DW_CFA_nop
  DW_CFA_nop
  DW_CFA_nop
  DW_CFA_nop
  DW_CFA_nop
  DW_CFA_nop

0000a288 000000000000001c 0000a28c FDE cie=00000000 pc=00000000009383c4..00000000009384a5
  DW_CFA_advance_loc: 1 to 00000000009383c5
  DW_CFA_def_cfa_offset: 16
  DW_CFA_offset: r6 (rbp) at cfa-16
  DW_CFA_advance_loc: 3 to 00000000009383c8
  DW_CFA_def_cfa_register: r6 (rbp)
  DW_CFA_advance_loc1: 220 to 00000000009384a4
  DW_CFA_def_cfa: r7 (rsp) ofs 8
  DW_CFA_nop
  DW_CFA_nop

0000a2a8 000000000000001c 0000a2ac FDE cie=00000000 pc=00000000009384a5..0000000000938614
  DW_CFA_advance_loc: 1 to 00000000009384a6
  DW_CFA_def_cfa_offset: 16
  DW_CFA_offset: r6 (rbp) at cfa-16
  DW_CFA_advance_loc: 3 to 00000000009384a9
  DW_CFA_def_cfa_register: r6 (rbp)
  DW_CFA_advance_loc2: 362 to 0000000000938613
  DW_CFA_def_cfa: r7 (rsp) ofs 8
  DW_CFA_nop

0000a2c8 000000000000001c 0000a2cc FDE cie=00000000 pc=0000000000938614..00000000009388e3
  DW_CFA_advance_loc: 1 to 0000000000938615
  DW_CFA_def_cfa_offset: 16
  DW_CFA_offset: r6 (rbp) at cfa-16
  DW_CFA_advance_loc: 3 to 0000000000938618
  DW_CFA_def_cfa_register: r6 (rbp)
  DW_CFA_advance_loc2: 714 to 00000000009388e2
  DW_CFA_def_cfa: r7 (rsp) ofs 8
  DW_CFA_nop

0000a2e8 000000000000001c 0000a2ec FDE cie=00000000 pc=00000000009388e3..00000000009389d6
  DW_CFA_advance_loc: 1 to 00000000009388e4
  DW_CFA_def_cfa_offset: 16
  DW_CFA_offset: r6 (rbp) at cfa-16
  DW_CFA_advance_loc: 3 to 00000000009388e7
  DW_CFA_def_cfa_register: r6 (rbp)
  DW_CFA_advance_loc1: 238 to 00000000009389d5
  DW_CFA_def_cfa: r7 (rsp) ofs 8
  DW_CFA_nop
  DW_CFA_nop

0000a308 000000000000001c 0000a30c FDE cie=00000000 pc=00000000009389d6..0000000000938ae6
  DW_CFA_advance_loc: 1 to 00000000009389d7
  DW_CFA_def_cfa_offset: 16
  DW_CFA_offset: r6 (rbp) at cfa-16
  DW_CFA_advance_loc: 3 to 00000000009389da
  DW_CFA_def_cfa_register: r6 (rbp)
  DW_CFA_advance_loc2: 267 to 0000000000938ae5
  DW_CFA_def_cfa: r7 (rsp) ofs 8
  DW_CFA_nop

0000a328 000000000000001c 0000a32c FDE cie=00000000 pc=0000000000938ae6..0000000000938cdc
  DW_CFA_advance_loc: 1 to 0000000000938ae7
  DW_CFA_def_cfa_offset: 16
  DW_CFA_offset: r6 (rbp) at cfa-16
  DW_CFA_advance_loc: 3 to 0000000000938aea
  DW_CFA_def_cfa_register: r6 (rbp)
  DW_CFA_advance_loc2: 497 to 0000000000938cdb
  DW_CFA_def_cfa: r7 (rsp) ofs 8
  DW_CFA_nop

0000a348 000000000000001c 0000a34c FDE cie=00000000 pc=0000000000938cdc..0000000000938d14
  DW_CFA_advance_loc: 1 to 0000000000938cdd
  DW_CFA_def_cfa_offset: 16
  DW_CFA_offset: r6 (rbp) at cfa-16
  DW_CFA_advance_loc: 3 to 0000000000938ce0
  DW_CFA_def_cfa_register: r6 (rbp)
  DW_CFA_advance_loc: 51 to 0000000000938d13
  DW_CFA_def_cfa: r7 (rsp) ofs 8
  DW_CFA_nop
  DW_CFA_nop
  DW_CFA_nop

0000a368 000000000000001c 0000a36c FDE cie=00000000 pc=0000000000938d14..0000000000938e67
  DW_CFA_advance_loc: 1 to 0000000000938d15
  DW_CFA_def_cfa_offset: 16
  DW_CFA_offset: r6 (rbp) at cfa-16
  DW_CFA_advance_loc: 3 to 0000000000938d18
  DW_CFA_def_cfa_register: r6 (rbp)
  DW_CFA_advance_loc2: 334 to 0000000000938e66
  DW_CFA_def_cfa: r7 (rsp) ofs 8
  DW_CFA_nop

0000a388 0000000000000020 0000a38c FDE cie=00000000 pc=0000000000938e67..00000000009390bb
  DW_CFA_advance_loc: 1 to 0000000000938e68
  DW_CFA_def_cfa_offset: 16
  DW_CFA_offset: r6 (rbp) at cfa-16
  DW_CFA_advance_loc: 3 to 0000000000938e6b
  DW_CFA_def_cfa_register: r6 (rbp)
  DW_CFA_advance_loc: 5 to 0000000000938e70
  DW_CFA_offset: r3 (rbx) at cfa-24
  DW_CFA_advance_loc2: 586 to 00000000009390ba
  DW_CFA_def_cfa: r7 (rsp) ofs 8
  DW_CFA_nop
  DW_CFA_nop

0000a3ac 000000000000001c 0000a3b0 FDE cie=00000000 pc=00000000009390bb..00000000009390c6
  DW_CFA_advance_loc: 1 to 00000000009390bc
  DW_CFA_def_cfa_offset: 16
  DW_CFA_offset: r6 (rbp) at cfa-16
  DW_CFA_advance_loc: 3 to 00000000009390bf
  DW_CFA_def_cfa_register: r6 (rbp)
  DW_CFA_advance_loc: 6 to 00000000009390c5
  DW_CFA_def_cfa: r7 (rsp) ofs 8
  DW_CFA_nop
  DW_CFA_nop
  DW_CFA_nop

0000a3cc 000000000000001c 0000a3d0 FDE cie=00000000 pc=00000000009390c6..00000000009390d1
  DW_CFA_advance_loc: 1 to 00000000009390c7
  DW_CFA_def_cfa_offset: 16
  DW_CFA_offset: r6 (rbp) at cfa-16
  DW_CFA_advance_loc: 3 to 00000000009390ca
  DW_CFA_def_cfa_register: r6 (rbp)
  DW_CFA_advance_loc: 6 to 00000000009390d0
  DW_CFA_def_cfa: r7 (rsp) ofs 8
  DW_CFA_nop
  DW_CFA_nop
  DW_CFA_nop

0000a3ec 000000000000001c 0000a3f0 FDE cie=00000000 pc=00000000009390d1..00000000009390e7
  DW_CFA_advance_loc: 1 to 00000000009390d2
  DW_CFA_def_cfa_offset: 16
  DW_CFA_offset: r6 (rbp) at cfa-16
  DW_CFA_advance_loc: 3 to 00000000009390d5
  DW_CFA_def_cfa_register: r6 (rbp)
  DW_CFA_advance_loc: 17 to 00000000009390e6
  DW_CFA_def_cfa: r7 (rsp) ofs 8
  DW_CFA_nop
  DW_CFA_nop
  DW_CFA_nop

0000a40c 000000000000001c 0000a410 FDE cie=00000000 pc=00000000009390e7..0000000000939100
  DW_CFA_advance_loc: 1 to 00000000009390e8
  DW_CFA_def_cfa_offset: 16
  DW_CFA_offset: r6 (rbp) at cfa-16
  DW_CFA_advance_loc: 3 to 00000000009390eb
  DW_CFA_def_cfa_register: r6 (rbp)
  DW_CFA_advance_loc: 20 to 00000000009390ff
  DW_CFA_def_cfa: r7 (rsp) ofs 8
  DW_CFA_nop
  DW_CFA_nop
  DW_CFA_nop

0000a42c 000000000000001c 0000a430 FDE cie=00000000 pc=0000000000939100..000000000093910b
  DW_CFA_advance_loc: 1 to 0000000000939101
  DW_CFA_def_cfa_offset: 16
  DW_CFA_offset: r6 (rbp) at cfa-16
  DW_CFA_advance_loc: 3 to 0000000000939104
  DW_CFA_def_cfa_register: r6 (rbp)
  DW_CFA_advance_loc: 6 to 000000000093910a
  DW_CFA_def_cfa: r7 (rsp) ofs 8
  DW_CFA_nop
  DW_CFA_nop
  DW_CFA_nop

0000a44c 000000000000001c 0000a450 FDE cie=00000000 pc=000000000093910b..00000000009391e2
  DW_CFA_advance_loc: 1 to 000000000093910c
  DW_CFA_def_cfa_offset: 16
  DW_CFA_offset: r6 (rbp) at cfa-16
  DW_CFA_advance_loc: 3 to 000000000093910f
  DW_CFA_def_cfa_register: r6 (rbp)
  DW_CFA_advance_loc1: 210 to 00000000009391e1
  DW_CFA_def_cfa: r7 (rsp) ofs 8
  DW_CFA_nop
  DW_CFA_nop

0000a46c 000000000000001c 0000a470 FDE cie=00000000 pc=00000000009391e2..0000000000939216
  DW_CFA_advance_loc: 1 to 00000000009391e3
  DW_CFA_def_cfa_offset: 16
  DW_CFA_offset: r6 (rbp) at cfa-16
  DW_CFA_advance_loc: 3 to 00000000009391e6
  DW_CFA_def_cfa_register: r6 (rbp)
  DW_CFA_advance_loc: 47 to 0000000000939215
  DW_CFA_def_cfa: r7 (rsp) ofs 8
  DW_CFA_nop
  DW_CFA_nop
  DW_CFA_nop

0000a48c 000000000000001c 0000a490 FDE cie=00000000 pc=0000000000939216..000000000093937a
  DW_CFA_advance_loc: 1 to 0000000000939217
  DW_CFA_def_cfa_offset: 16
  DW_CFA_offset: r6 (rbp) at cfa-16
  DW_CFA_advance_loc: 3 to 000000000093921a
  DW_CFA_def_cfa_register: r6 (rbp)
  DW_CFA_advance_loc2: 351 to 0000000000939379
  DW_CFA_def_cfa: r7 (rsp) ofs 8
  DW_CFA_nop

0000a4ac 000000000000001c 0000a4b0 FDE cie=00000000 pc=000000000093937a..00000000009393a9
  DW_CFA_advance_loc: 1 to 000000000093937b
  DW_CFA_def_cfa_offset: 16
  DW_CFA_offset: r6 (rbp) at cfa-16
  DW_CFA_advance_loc: 3 to 000000000093937e
  DW_CFA_def_cfa_register: r6 (rbp)
  DW_CFA_advance_loc: 42 to 00000000009393a8
  DW_CFA_def_cfa: r7 (rsp) ofs 8
  DW_CFA_nop
  DW_CFA_nop
  DW_CFA_nop

0000a4cc 000000000000001c 0000a4d0 FDE cie=00000000 pc=00000000009393a9..0000000000939c72
  DW_CFA_advance_loc: 1 to 00000000009393aa
  DW_CFA_def_cfa_offset: 16
  DW_CFA_offset: r6 (rbp) at cfa-16
  DW_CFA_advance_loc: 3 to 00000000009393ad
  DW_CFA_def_cfa_register: r6 (rbp)
  DW_CFA_advance_loc2: 2244 to 0000000000939c71
  DW_CFA_def_cfa: r7 (rsp) ofs 8
  DW_CFA_nop

0000a4ec 000000000000001c 0000a4f0 FDE cie=00000000 pc=0000000000939c72..0000000000939d41
  DW_CFA_advance_loc: 1 to 0000000000939c73
  DW_CFA_def_cfa_offset: 16
  DW_CFA_offset: r6 (rbp) at cfa-16
  DW_CFA_advance_loc: 3 to 0000000000939c76
  DW_CFA_def_cfa_register: r6 (rbp)
  DW_CFA_advance_loc1: 202 to 0000000000939d40
  DW_CFA_def_cfa: r7 (rsp) ofs 8
  DW_CFA_nop
  DW_CFA_nop

0000a50c 000000000000001c 0000a510 FDE cie=00000000 pc=0000000000939d41..0000000000939ed5
  DW_CFA_advance_loc: 1 to 0000000000939d42
  DW_CFA_def_cfa_offset: 16
  DW_CFA_offset: r6 (rbp) at cfa-16
  DW_CFA_advance_loc: 3 to 0000000000939d45
  DW_CFA_def_cfa_register: r6 (rbp)
  DW_CFA_advance_loc2: 399 to 0000000000939ed4
  DW_CFA_def_cfa: r7 (rsp) ofs 8
  DW_CFA_nop

0000a52c 0000000000000020 0000a530 FDE cie=00000000 pc=0000000000939ed5..000000000093a40d
  DW_CFA_advance_loc: 1 to 0000000000939ed6
  DW_CFA_def_cfa_offset: 16
  DW_CFA_offset: r6 (rbp) at cfa-16
  DW_CFA_advance_loc: 3 to 0000000000939ed9
  DW_CFA_def_cfa_register: r6 (rbp)
  DW_CFA_advance_loc: 8 to 0000000000939ee1
  DW_CFA_offset: r3 (rbx) at cfa-24
  DW_CFA_advance_loc2: 1323 to 000000000093a40c
  DW_CFA_def_cfa: r7 (rsp) ofs 8
  DW_CFA_nop
  DW_CFA_nop

0000a550 000000000000001c 0000a554 FDE cie=00000000 pc=000000000093a40d..000000000093a4a7
  DW_CFA_advance_loc: 1 to 000000000093a40e
  DW_CFA_def_cfa_offset: 16
  DW_CFA_offset: r6 (rbp) at cfa-16
  DW_CFA_advance_loc: 3 to 000000000093a411
  DW_CFA_def_cfa_register: r6 (rbp)
  DW_CFA_advance_loc1: 149 to 000000000093a4a6
  DW_CFA_def_cfa: r7 (rsp) ofs 8
  DW_CFA_nop
  DW_CFA_nop

0000a570 0000000000000020 0000a574 FDE cie=00000000 pc=000000000093a4a7..000000000093a6be
  DW_CFA_advance_loc: 1 to 000000000093a4a8
  DW_CFA_def_cfa_offset: 16
  DW_CFA_offset: r6 (rbp) at cfa-16
  DW_CFA_advance_loc: 3 to 000000000093a4ab
  DW_CFA_def_cfa_register: r6 (rbp)
  DW_CFA_advance_loc: 5 to 000000000093a4b0
  DW_CFA_offset: r3 (rbx) at cfa-24
  DW_CFA_advance_loc2: 525 to 000000000093a6bd
  DW_CFA_def_cfa: r7 (rsp) ofs 8
  DW_CFA_nop
  DW_CFA_nop

0000a594 000000000000001c 0000a598 FDE cie=00000000 pc=000000000093a6be..000000000093a979
  DW_CFA_advance_loc: 1 to 000000000093a6bf
  DW_CFA_def_cfa_offset: 16
  DW_CFA_offset: r6 (rbp) at cfa-16
  DW_CFA_advance_loc: 3 to 000000000093a6c2
  DW_CFA_def_cfa_register: r6 (rbp)
  DW_CFA_advance_loc2: 694 to 000000000093a978
  DW_CFA_def_cfa: r7 (rsp) ofs 8
  DW_CFA_nop

0000a5b4 000000000000001c 0000a5b8 FDE cie=00000000 pc=000000000093a979..000000000093a9a3
  DW_CFA_advance_loc: 1 to 000000000093a97a
  DW_CFA_def_cfa_offset: 16
  DW_CFA_offset: r6 (rbp) at cfa-16
  DW_CFA_advance_loc: 3 to 000000000093a97d
  DW_CFA_def_cfa_register: r6 (rbp)
  DW_CFA_advance_loc: 37 to 000000000093a9a2
  DW_CFA_def_cfa: r7 (rsp) ofs 8
  DW_CFA_nop
  DW_CFA_nop
  DW_CFA_nop

0000a5d4 000000000000001c 0000a5d8 FDE cie=00000000 pc=000000000093a9a3..000000000093a9b6
  DW_CFA_advance_loc: 1 to 000000000093a9a4
  DW_CFA_def_cfa_offset: 16
  DW_CFA_offset: r6 (rbp) at cfa-16
  DW_CFA_advance_loc: 3 to 000000000093a9a7
  DW_CFA_def_cfa_register: r6 (rbp)
  DW_CFA_advance_loc: 14 to 000000000093a9b5
  DW_CFA_def_cfa: r7 (rsp) ofs 8
  DW_CFA_nop
  DW_CFA_nop
  DW_CFA_nop

0000a5f4 000000000000001c 0000a5f8 FDE cie=00000000 pc=000000000093a9b6..000000000093aeda
  DW_CFA_advance_loc: 1 to 000000000093a9b7
  DW_CFA_def_cfa_offset: 16
  DW_CFA_offset: r6 (rbp) at cfa-16
  DW_CFA_advance_loc: 3 to 000000000093a9ba
  DW_CFA_def_cfa_register: r6 (rbp)
  DW_CFA_advance_loc2: 1311 to 000000000093aed9
  DW_CFA_def_cfa: r7 (rsp) ofs 8
  DW_CFA_nop

0000a614 000000000000001c 0000a618 FDE cie=00000000 pc=000000000093aeda..000000000093b6ea
  DW_CFA_advance_loc: 1 to 000000000093aedb
  DW_CFA_def_cfa_offset: 16
  DW_CFA_offset: r6 (rbp) at cfa-16
  DW_CFA_advance_loc: 3 to 000000000093aede
  DW_CFA_def_cfa_register: r6 (rbp)
  DW_CFA_advance_loc2: 2059 to 000000000093b6e9
  DW_CFA_def_cfa: r7 (rsp) ofs 8
  DW_CFA_nop

0000a634 000000000000001c 0000a638 FDE cie=00000000 pc=000000000093b6ea..000000000093b7b5
  DW_CFA_advance_loc: 1 to 000000000093b6eb
  DW_CFA_def_cfa_offset: 16
  DW_CFA_offset: r6 (rbp) at cfa-16
  DW_CFA_advance_loc: 3 to 000000000093b6ee
  DW_CFA_def_cfa_register: r6 (rbp)
  DW_CFA_advance_loc1: 198 to 000000000093b7b4
  DW_CFA_def_cfa: r7 (rsp) ofs 8
  DW_CFA_nop
  DW_CFA_nop

0000a654 000000000000001c 0000a658 FDE cie=00000000 pc=000000000093b7b5..000000000093b8a3
  DW_CFA_advance_loc: 1 to 000000000093b7b6
  DW_CFA_def_cfa_offset: 16
  DW_CFA_offset: r6 (rbp) at cfa-16
  DW_CFA_advance_loc: 3 to 000000000093b7b9
  DW_CFA_def_cfa_register: r6 (rbp)
  DW_CFA_advance_loc1: 233 to 000000000093b8a2
  DW_CFA_def_cfa: r7 (rsp) ofs 8
  DW_CFA_nop
  DW_CFA_nop

0000a674 000000000000001c 0000a678 FDE cie=00000000 pc=000000000093b8a3..000000000093bcad
  DW_CFA_advance_loc: 1 to 000000000093b8a4
  DW_CFA_def_cfa_offset: 16
  DW_CFA_offset: r6 (rbp) at cfa-16
  DW_CFA_advance_loc: 3 to 000000000093b8a7
  DW_CFA_def_cfa_register: r6 (rbp)
  DW_CFA_advance_loc2: 1029 to 000000000093bcac
  DW_CFA_def_cfa: r7 (rsp) ofs 8
  DW_CFA_nop

0000a694 000000000000001c 0000a698 FDE cie=00000000 pc=000000000093bcad..000000000093bd1b
  DW_CFA_advance_loc: 1 to 000000000093bcae
  DW_CFA_def_cfa_offset: 16
  DW_CFA_offset: r6 (rbp) at cfa-16
  DW_CFA_advance_loc: 3 to 000000000093bcb1
  DW_CFA_def_cfa_register: r6 (rbp)
  DW_CFA_advance_loc1: 105 to 000000000093bd1a
  DW_CFA_def_cfa: r7 (rsp) ofs 8
  DW_CFA_nop
  DW_CFA_nop

0000a6b4 0000000000000020 0000a6b8 FDE cie=00000000 pc=000000000093bd1b..000000000093c610
  DW_CFA_advance_loc: 1 to 000000000093bd1c
  DW_CFA_def_cfa_offset: 16
  DW_CFA_offset: r6 (rbp) at cfa-16
  DW_CFA_advance_loc: 3 to 000000000093bd1f
  DW_CFA_def_cfa_register: r6 (rbp)
  DW_CFA_advance_loc: 8 to 000000000093bd27
  DW_CFA_offset: r3 (rbx) at cfa-24
  DW_CFA_advance_loc2: 2280 to 000000000093c60f
  DW_CFA_def_cfa: r7 (rsp) ofs 8
  DW_CFA_nop
  DW_CFA_nop

0000a6d8 000000000000001c 0000a6dc FDE cie=00000000 pc=000000000093c610..000000000093c8e7
  DW_CFA_advance_loc: 1 to 000000000093c611
  DW_CFA_def_cfa_offset: 16
  DW_CFA_offset: r6 (rbp) at cfa-16
  DW_CFA_advance_loc: 3 to 000000000093c614
  DW_CFA_def_cfa_register: r6 (rbp)
  DW_CFA_advance_loc2: 722 to 000000000093c8e6
  DW_CFA_def_cfa: r7 (rsp) ofs 8
  DW_CFA_nop

0000a6f8 0000000000000020 0000a6fc FDE cie=00000000 pc=000000000093c8e7..000000000093d06c
  DW_CFA_advance_loc: 1 to 000000000093c8e8
  DW_CFA_def_cfa_offset: 16
  DW_CFA_offset: r6 (rbp) at cfa-16
  DW_CFA_advance_loc: 3 to 000000000093c8eb
  DW_CFA_def_cfa_register: r6 (rbp)
  DW_CFA_advance_loc: 8 to 000000000093c8f3
  DW_CFA_offset: r3 (rbx) at cfa-24
  DW_CFA_advance_loc2: 1912 to 000000000093d06b
  DW_CFA_def_cfa: r7 (rsp) ofs 8
  DW_CFA_nop
  DW_CFA_nop

0000a71c 000000000000001c 0000a720 FDE cie=00000000 pc=000000000093d06c..000000000093d0bf
  DW_CFA_advance_loc: 1 to 000000000093d06d
  DW_CFA_def_cfa_offset: 16
  DW_CFA_offset: r6 (rbp) at cfa-16
  DW_CFA_advance_loc: 3 to 000000000093d070
  DW_CFA_def_cfa_register: r6 (rbp)
  DW_CFA_advance_loc1: 78 to 000000000093d0be
  DW_CFA_def_cfa: r7 (rsp) ofs 8
  DW_CFA_nop
  DW_CFA_nop

0000a73c 000000000000001c 0000a740 FDE cie=00000000 pc=000000000093d0bf..000000000093d328
  DW_CFA_advance_loc: 1 to 000000000093d0c0
  DW_CFA_def_cfa_offset: 16
  DW_CFA_offset: r6 (rbp) at cfa-16
  DW_CFA_advance_loc: 3 to 000000000093d0c3
  DW_CFA_def_cfa_register: r6 (rbp)
  DW_CFA_advance_loc2: 612 to 000000000093d327
  DW_CFA_def_cfa: r7 (rsp) ofs 8
  DW_CFA_nop

0000a75c 000000000000001c 0000a760 FDE cie=00000000 pc=000000000093d328..000000000093d42a
  DW_CFA_advance_loc: 1 to 000000000093d329
  DW_CFA_def_cfa_offset: 16
  DW_CFA_offset: r6 (rbp) at cfa-16
  DW_CFA_advance_loc: 3 to 000000000093d32c
  DW_CFA_def_cfa_register: r6 (rbp)
  DW_CFA_advance_loc1: 253 to 000000000093d429
  DW_CFA_def_cfa: r7 (rsp) ofs 8
  DW_CFA_nop
  DW_CFA_nop

0000a77c 000000000000001c 0000a780 FDE cie=00000000 pc=000000000093d42a..000000000093d502
  DW_CFA_advance_loc: 1 to 000000000093d42b
  DW_CFA_def_cfa_offset: 16
  DW_CFA_offset: r6 (rbp) at cfa-16
  DW_CFA_advance_loc: 3 to 000000000093d42e
  DW_CFA_def_cfa_register: r6 (rbp)
  DW_CFA_advance_loc1: 211 to 000000000093d501
  DW_CFA_def_cfa: r7 (rsp) ofs 8
  DW_CFA_nop
  DW_CFA_nop

0000a79c 000000000000001c 0000a7a0 FDE cie=00000000 pc=000000000093d502..000000000093d81b
  DW_CFA_advance_loc: 1 to 000000000093d503
  DW_CFA_def_cfa_offset: 16
  DW_CFA_offset: r6 (rbp) at cfa-16
  DW_CFA_advance_loc: 3 to 000000000093d506
  DW_CFA_def_cfa_register: r6 (rbp)
  DW_CFA_advance_loc2: 788 to 000000000093d81a
  DW_CFA_def_cfa: r7 (rsp) ofs 8
  DW_CFA_nop

0000a7bc 000000000000001c 0000a7c0 FDE cie=00000000 pc=000000000093d81b..000000000093d896
  DW_CFA_advance_loc: 1 to 000000000093d81c
  DW_CFA_def_cfa_offset: 16
  DW_CFA_offset: r6 (rbp) at cfa-16
  DW_CFA_advance_loc: 3 to 000000000093d81f
  DW_CFA_def_cfa_register: r6 (rbp)
  DW_CFA_advance_loc1: 118 to 000000000093d895
  DW_CFA_def_cfa: r7 (rsp) ofs 8
  DW_CFA_nop
  DW_CFA_nop

0000a7dc 000000000000001c 0000a7e0 FDE cie=00000000 pc=000000000093d896..000000000093d8cf
  DW_CFA_advance_loc: 1 to 000000000093d897
  DW_CFA_def_cfa_offset: 16
  DW_CFA_offset: r6 (rbp) at cfa-16
  DW_CFA_advance_loc: 3 to 000000000093d89a
  DW_CFA_def_cfa_register: r6 (rbp)
  DW_CFA_advance_loc: 52 to 000000000093d8ce
  DW_CFA_def_cfa: r7 (rsp) ofs 8
  DW_CFA_nop
  DW_CFA_nop
  DW_CFA_nop

0000a7fc 0000000000000020 0000a800 FDE cie=00000000 pc=000000000093d8cf..000000000093e7a1
  DW_CFA_advance_loc: 1 to 000000000093d8d0
  DW_CFA_def_cfa_offset: 16
  DW_CFA_offset: r6 (rbp) at cfa-16
  DW_CFA_advance_loc: 3 to 000000000093d8d3
  DW_CFA_def_cfa_register: r6 (rbp)
  DW_CFA_advance_loc: 8 to 000000000093d8db
  DW_CFA_offset: r3 (rbx) at cfa-24
  DW_CFA_advance_loc2: 3781 to 000000000093e7a0
  DW_CFA_def_cfa: r7 (rsp) ofs 8
  DW_CFA_nop
  DW_CFA_nop

0000a820 000000000000001c 0000a824 FDE cie=00000000 pc=000000000093e7a1..000000000093e8ec
  DW_CFA_advance_loc: 1 to 000000000093e7a2
  DW_CFA_def_cfa_offset: 16
  DW_CFA_offset: r6 (rbp) at cfa-16
  DW_CFA_advance_loc: 3 to 000000000093e7a5
  DW_CFA_def_cfa_register: r6 (rbp)
  DW_CFA_advance_loc2: 326 to 000000000093e8eb
  DW_CFA_def_cfa: r7 (rsp) ofs 8
  DW_CFA_nop

0000a840 000000000000001c 0000a844 FDE cie=00000000 pc=000000000093e8ec..000000000093ee2e
  DW_CFA_advance_loc: 1 to 000000000093e8ed
  DW_CFA_def_cfa_offset: 16
  DW_CFA_offset: r6 (rbp) at cfa-16
  DW_CFA_advance_loc: 3 to 000000000093e8f0
  DW_CFA_def_cfa_register: r6 (rbp)
  DW_CFA_advance_loc2: 1341 to 000000000093ee2d
  DW_CFA_def_cfa: r7 (rsp) ofs 8
  DW_CFA_nop

0000a860 000000000000001c 0000a864 FDE cie=00000000 pc=000000000093ee2e..000000000093f63a
  DW_CFA_advance_loc: 1 to 000000000093ee2f
  DW_CFA_def_cfa_offset: 16
  DW_CFA_offset: r6 (rbp) at cfa-16
  DW_CFA_advance_loc: 3 to 000000000093ee32
  DW_CFA_def_cfa_register: r6 (rbp)
  DW_CFA_advance_loc2: 2055 to 000000000093f639
  DW_CFA_def_cfa: r7 (rsp) ofs 8
  DW_CFA_nop

0000a880 000000000000001c 0000a884 FDE cie=00000000 pc=000000000093f63a..000000000093f705
  DW_CFA_advance_loc: 1 to 000000000093f63b
  DW_CFA_def_cfa_offset: 16
  DW_CFA_offset: r6 (rbp) at cfa-16
  DW_CFA_advance_loc: 3 to 000000000093f63e
  DW_CFA_def_cfa_register: r6 (rbp)
  DW_CFA_advance_loc1: 198 to 000000000093f704
  DW_CFA_def_cfa: r7 (rsp) ofs 8
  DW_CFA_nop
  DW_CFA_nop

0000a8a0 000000000000001c 0000a8a4 FDE cie=00000000 pc=000000000093f705..000000000093f7c3
  DW_CFA_advance_loc: 1 to 000000000093f706
  DW_CFA_def_cfa_offset: 16
  DW_CFA_offset: r6 (rbp) at cfa-16
  DW_CFA_advance_loc: 3 to 000000000093f709
  DW_CFA_def_cfa_register: r6 (rbp)
  DW_CFA_advance_loc1: 185 to 000000000093f7c2
  DW_CFA_def_cfa: r7 (rsp) ofs 8
  DW_CFA_nop
  DW_CFA_nop

0000a8c0 000000000000001c 0000a8c4 FDE cie=00000000 pc=000000000093f7c3..000000000093fa5c
  DW_CFA_advance_loc: 1 to 000000000093f7c4
  DW_CFA_def_cfa_offset: 16
  DW_CFA_offset: r6 (rbp) at cfa-16
  DW_CFA_advance_loc: 3 to 000000000093f7c7
  DW_CFA_def_cfa_register: r6 (rbp)
  DW_CFA_advance_loc2: 660 to 000000000093fa5b
  DW_CFA_def_cfa: r7 (rsp) ofs 8
  DW_CFA_nop

0000a8e0 0000000000000020 0000a8e4 FDE cie=00000000 pc=000000000093fa5c..000000000093fadb
  DW_CFA_advance_loc: 1 to 000000000093fa5d
  DW_CFA_def_cfa_offset: 16
  DW_CFA_offset: r6 (rbp) at cfa-16
  DW_CFA_advance_loc: 3 to 000000000093fa60
  DW_CFA_def_cfa_register: r6 (rbp)
  DW_CFA_advance_loc: 5 to 000000000093fa65
  DW_CFA_offset: r3 (rbx) at cfa-24
  DW_CFA_advance_loc1: 117 to 000000000093fada
  DW_CFA_def_cfa: r7 (rsp) ofs 8
  DW_CFA_nop
  DW_CFA_nop
  DW_CFA_nop

0000a904 000000000000001c 0000a908 FDE cie=00000000 pc=000000000093fadb..000000000093fc24
  DW_CFA_advance_loc: 1 to 000000000093fadc
  DW_CFA_def_cfa_offset: 16
  DW_CFA_offset: r6 (rbp) at cfa-16
  DW_CFA_advance_loc: 3 to 000000000093fadf
  DW_CFA_def_cfa_register: r6 (rbp)
  DW_CFA_advance_loc2: 324 to 000000000093fc23
  DW_CFA_def_cfa: r7 (rsp) ofs 8
  DW_CFA_nop

0000a924 000000000000001c 0000a928 FDE cie=00000000 pc=000000000093fc24..000000000094021a
  DW_CFA_advance_loc: 1 to 000000000093fc25
  DW_CFA_def_cfa_offset: 16
  DW_CFA_offset: r6 (rbp) at cfa-16
  DW_CFA_advance_loc: 3 to 000000000093fc28
  DW_CFA_def_cfa_register: r6 (rbp)
  DW_CFA_advance_loc2: 1521 to 0000000000940219
  DW_CFA_def_cfa: r7 (rsp) ofs 8
  DW_CFA_nop

0000a944 0000000000000020 0000a948 FDE cie=00000000 pc=000000000094021a..0000000000940a7f
  DW_CFA_advance_loc: 1 to 000000000094021b
  DW_CFA_def_cfa_offset: 16
  DW_CFA_offset: r6 (rbp) at cfa-16
  DW_CFA_advance_loc: 3 to 000000000094021e
  DW_CFA_def_cfa_register: r6 (rbp)
  DW_CFA_advance_loc: 8 to 0000000000940226
  DW_CFA_offset: r3 (rbx) at cfa-24
  DW_CFA_advance_loc2: 2136 to 0000000000940a7e
  DW_CFA_def_cfa: r7 (rsp) ofs 8
  DW_CFA_nop
  DW_CFA_nop

0000a968 000000000000001c 0000a96c FDE cie=00000000 pc=0000000000940a7f..0000000000940ad2
  DW_CFA_advance_loc: 1 to 0000000000940a80
  DW_CFA_def_cfa_offset: 16
  DW_CFA_offset: r6 (rbp) at cfa-16
  DW_CFA_advance_loc: 3 to 0000000000940a83
  DW_CFA_def_cfa_register: r6 (rbp)
  DW_CFA_advance_loc1: 78 to 0000000000940ad1
  DW_CFA_def_cfa: r7 (rsp) ofs 8
  DW_CFA_nop
  DW_CFA_nop

0000a988 000000000000001c 0000a98c FDE cie=00000000 pc=0000000000940ad2..0000000000940d62
  DW_CFA_advance_loc: 1 to 0000000000940ad3
  DW_CFA_def_cfa_offset: 16
  DW_CFA_offset: r6 (rbp) at cfa-16
  DW_CFA_advance_loc: 3 to 0000000000940ad6
  DW_CFA_def_cfa_register: r6 (rbp)
  DW_CFA_advance_loc2: 651 to 0000000000940d61
  DW_CFA_def_cfa: r7 (rsp) ofs 8
  DW_CFA_nop

0000a9a8 000000000000001c 0000a9ac FDE cie=00000000 pc=0000000000940d62..0000000000940e42
  DW_CFA_advance_loc: 1 to 0000000000940d63
  DW_CFA_def_cfa_offset: 16
  DW_CFA_offset: r6 (rbp) at cfa-16
  DW_CFA_advance_loc: 3 to 0000000000940d66
  DW_CFA_def_cfa_register: r6 (rbp)
  DW_CFA_advance_loc1: 219 to 0000000000940e41
  DW_CFA_def_cfa: r7 (rsp) ofs 8
  DW_CFA_nop
  DW_CFA_nop

0000a9c8 000000000000001c 0000a9cc FDE cie=00000000 pc=0000000000940e42..0000000000940f1a
  DW_CFA_advance_loc: 1 to 0000000000940e43
  DW_CFA_def_cfa_offset: 16
  DW_CFA_offset: r6 (rbp) at cfa-16
  DW_CFA_advance_loc: 3 to 0000000000940e46
  DW_CFA_def_cfa_register: r6 (rbp)
  DW_CFA_advance_loc1: 211 to 0000000000940f19
  DW_CFA_def_cfa: r7 (rsp) ofs 8
  DW_CFA_nop
  DW_CFA_nop

0000a9e8 000000000000001c 0000a9ec FDE cie=00000000 pc=0000000000940f1a..00000000009411b7
  DW_CFA_advance_loc: 1 to 0000000000940f1b
  DW_CFA_def_cfa_offset: 16
  DW_CFA_offset: r6 (rbp) at cfa-16
  DW_CFA_advance_loc: 3 to 0000000000940f1e
  DW_CFA_def_cfa_register: r6 (rbp)
  DW_CFA_advance_loc2: 664 to 00000000009411b6
  DW_CFA_def_cfa: r7 (rsp) ofs 8
  DW_CFA_nop

0000aa08 000000000000001c 0000aa0c FDE cie=00000000 pc=00000000009411b7..0000000000941232
  DW_CFA_advance_loc: 1 to 00000000009411b8
  DW_CFA_def_cfa_offset: 16
  DW_CFA_offset: r6 (rbp) at cfa-16
  DW_CFA_advance_loc: 3 to 00000000009411bb
  DW_CFA_def_cfa_register: r6 (rbp)
  DW_CFA_advance_loc1: 118 to 0000000000941231
  DW_CFA_def_cfa: r7 (rsp) ofs 8
  DW_CFA_nop
  DW_CFA_nop

0000aa28 000000000000001c 0000aa2c FDE cie=00000000 pc=0000000000941232..000000000094126b
  DW_CFA_advance_loc: 1 to 0000000000941233
  DW_CFA_def_cfa_offset: 16
  DW_CFA_offset: r6 (rbp) at cfa-16
  DW_CFA_advance_loc: 3 to 0000000000941236
  DW_CFA_def_cfa_register: r6 (rbp)
  DW_CFA_advance_loc: 52 to 000000000094126a
  DW_CFA_def_cfa: r7 (rsp) ofs 8
  DW_CFA_nop
  DW_CFA_nop
  DW_CFA_nop

0000aa48 000000000000001c 0000aa4c FDE cie=00000000 pc=000000000094126b..00000000009415db
  DW_CFA_advance_loc: 1 to 000000000094126c
  DW_CFA_def_cfa_offset: 16
  DW_CFA_offset: r6 (rbp) at cfa-16
  DW_CFA_advance_loc: 3 to 000000000094126f
  DW_CFA_def_cfa_register: r6 (rbp)
  DW_CFA_advance_loc2: 875 to 00000000009415da
  DW_CFA_def_cfa: r7 (rsp) ofs 8
  DW_CFA_nop

0000aa68 0000000000000020 0000aa6c FDE cie=00000000 pc=00000000009415db..0000000000941eab
  DW_CFA_advance_loc: 1 to 00000000009415dc
  DW_CFA_def_cfa_offset: 16
  DW_CFA_offset: r6 (rbp) at cfa-16
  DW_CFA_advance_loc: 3 to 00000000009415df
  DW_CFA_def_cfa_register: r6 (rbp)
  DW_CFA_advance_loc: 8 to 00000000009415e7
  DW_CFA_offset: r3 (rbx) at cfa-24
  DW_CFA_advance_loc2: 2243 to 0000000000941eaa
  DW_CFA_def_cfa: r7 (rsp) ofs 8
  DW_CFA_nop
  DW_CFA_nop

0000aa8c 000000000000001c 0000aa90 FDE cie=00000000 pc=0000000000941eab..00000000009420e1
  DW_CFA_advance_loc: 1 to 0000000000941eac
  DW_CFA_def_cfa_offset: 16
  DW_CFA_offset: r6 (rbp) at cfa-16
  DW_CFA_advance_loc: 3 to 0000000000941eaf
  DW_CFA_def_cfa_register: r6 (rbp)
  DW_CFA_advance_loc2: 561 to 00000000009420e0
  DW_CFA_def_cfa: r7 (rsp) ofs 8
  DW_CFA_nop

0000aaac 000000000000001c 0000aab0 FDE cie=00000000 pc=00000000009420e1..0000000000942249
  DW_CFA_advance_loc: 1 to 00000000009420e2
  DW_CFA_def_cfa_offset: 16
  DW_CFA_offset: r6 (rbp) at cfa-16
  DW_CFA_advance_loc: 3 to 00000000009420e5
  DW_CFA_def_cfa_register: r6 (rbp)
  DW_CFA_advance_loc2: 355 to 0000000000942248
  DW_CFA_def_cfa: r7 (rsp) ofs 8
  DW_CFA_nop

0000aacc 000000000000001c 0000aad0 FDE cie=00000000 pc=0000000000942249..00000000009422ed
  DW_CFA_advance_loc: 1 to 000000000094224a
  DW_CFA_def_cfa_offset: 16
  DW_CFA_offset: r6 (rbp) at cfa-16
  DW_CFA_advance_loc: 3 to 000000000094224d
  DW_CFA_def_cfa_register: r6 (rbp)
  DW_CFA_advance_loc1: 159 to 00000000009422ec
  DW_CFA_def_cfa: r7 (rsp) ofs 8
  DW_CFA_nop
  DW_CFA_nop

0000aaec 000000000000001c 0000aaf0 FDE cie=00000000 pc=00000000009422ed..0000000000942313
  DW_CFA_advance_loc: 1 to 00000000009422ee
  DW_CFA_def_cfa_offset: 16
  DW_CFA_offset: r6 (rbp) at cfa-16
  DW_CFA_advance_loc: 3 to 00000000009422f1
  DW_CFA_def_cfa_register: r6 (rbp)
  DW_CFA_advance_loc: 33 to 0000000000942312
  DW_CFA_def_cfa: r7 (rsp) ofs 8
  DW_CFA_nop
  DW_CFA_nop
  DW_CFA_nop

0000ab0c 000000000000001c 0000ab10 FDE cie=00000000 pc=0000000000942313..0000000000942338
  DW_CFA_advance_loc: 1 to 0000000000942314
  DW_CFA_def_cfa_offset: 16
  DW_CFA_offset: r6 (rbp) at cfa-16
  DW_CFA_advance_loc: 3 to 0000000000942317
  DW_CFA_def_cfa_register: r6 (rbp)
  DW_CFA_advance_loc: 32 to 0000000000942337
  DW_CFA_def_cfa: r7 (rsp) ofs 8
  DW_CFA_nop
  DW_CFA_nop
  DW_CFA_nop

0000ab2c 000000000000001c 0000ab30 FDE cie=00000000 pc=0000000000942338..0000000000942365
  DW_CFA_advance_loc: 1 to 0000000000942339
  DW_CFA_def_cfa_offset: 16
  DW_CFA_offset: r6 (rbp) at cfa-16
  DW_CFA_advance_loc: 3 to 000000000094233c
  DW_CFA_def_cfa_register: r6 (rbp)
  DW_CFA_advance_loc: 40 to 0000000000942364
  DW_CFA_def_cfa: r7 (rsp) ofs 8
  DW_CFA_nop
  DW_CFA_nop
  DW_CFA_nop

0000ab4c 000000000000001c 0000ab50 FDE cie=00000000 pc=0000000000942365..00000000009423bb
  DW_CFA_advance_loc: 1 to 0000000000942366
  DW_CFA_def_cfa_offset: 16
  DW_CFA_offset: r6 (rbp) at cfa-16
  DW_CFA_advance_loc: 3 to 0000000000942369
  DW_CFA_def_cfa_register: r6 (rbp)
  DW_CFA_advance_loc1: 81 to 00000000009423ba
  DW_CFA_def_cfa: r7 (rsp) ofs 8
  DW_CFA_nop
  DW_CFA_nop

0000ab6c 000000000000001c 0000ab70 FDE cie=00000000 pc=00000000009423bb..0000000000942457
  DW_CFA_advance_loc: 1 to 00000000009423bc
  DW_CFA_def_cfa_offset: 16
  DW_CFA_offset: r6 (rbp) at cfa-16
  DW_CFA_advance_loc: 3 to 00000000009423bf
  DW_CFA_def_cfa_register: r6 (rbp)
  DW_CFA_advance_loc1: 151 to 0000000000942456
  DW_CFA_def_cfa: r7 (rsp) ofs 8
  DW_CFA_nop
  DW_CFA_nop

0000ab8c 000000000000001c 0000ab90 FDE cie=00000000 pc=0000000000942457..00000000009424a9
  DW_CFA_advance_loc: 1 to 0000000000942458
  DW_CFA_def_cfa_offset: 16
  DW_CFA_offset: r6 (rbp) at cfa-16
  DW_CFA_advance_loc: 3 to 000000000094245b
  DW_CFA_def_cfa_register: r6 (rbp)
  DW_CFA_advance_loc1: 77 to 00000000009424a8
  DW_CFA_def_cfa: r7 (rsp) ofs 8
  DW_CFA_nop
  DW_CFA_nop

0000abac 0000000000000020 0000abb0 FDE cie=00000000 pc=00000000009424a9..000000000094370c
  DW_CFA_advance_loc: 1 to 00000000009424aa
  DW_CFA_def_cfa_offset: 16
  DW_CFA_offset: r6 (rbp) at cfa-16
  DW_CFA_advance_loc: 3 to 00000000009424ad
  DW_CFA_def_cfa_register: r6 (rbp)
  DW_CFA_advance_loc: 8 to 00000000009424b5
  DW_CFA_offset: r3 (rbx) at cfa-24
  DW_CFA_advance_loc2: 4694 to 000000000094370b
  DW_CFA_def_cfa: r7 (rsp) ofs 8
  DW_CFA_nop
  DW_CFA_nop

0000abd0 0000000000000020 0000abd4 FDE cie=00000000 pc=000000000094370c..0000000000943909
  DW_CFA_advance_loc: 1 to 000000000094370d
  DW_CFA_def_cfa_offset: 16
  DW_CFA_offset: r6 (rbp) at cfa-16
  DW_CFA_advance_loc: 3 to 0000000000943710
  DW_CFA_def_cfa_register: r6 (rbp)
  DW_CFA_advance_loc: 8 to 0000000000943718
  DW_CFA_offset: r3 (rbx) at cfa-24
  DW_CFA_advance_loc2: 496 to 0000000000943908
  DW_CFA_def_cfa: r7 (rsp) ofs 8
  DW_CFA_nop
  DW_CFA_nop

0000abf4 000000000000001c 0000abf8 FDE cie=00000000 pc=0000000000943909..0000000000943935
  DW_CFA_advance_loc: 1 to 000000000094390a
  DW_CFA_def_cfa_offset: 16
  DW_CFA_offset: r6 (rbp) at cfa-16
  DW_CFA_advance_loc: 3 to 000000000094390d
  DW_CFA_def_cfa_register: r6 (rbp)
  DW_CFA_advance_loc: 39 to 0000000000943934
  DW_CFA_def_cfa: r7 (rsp) ofs 8
  DW_CFA_nop
  DW_CFA_nop
  DW_CFA_nop

0000ac14 000000000000001c 0000ac18 FDE cie=00000000 pc=0000000000943935..0000000000943954
  DW_CFA_advance_loc: 1 to 0000000000943936
  DW_CFA_def_cfa_offset: 16
  DW_CFA_offset: r6 (rbp) at cfa-16
  DW_CFA_advance_loc: 3 to 0000000000943939
  DW_CFA_def_cfa_register: r6 (rbp)
  DW_CFA_advance_loc: 26 to 0000000000943953
  DW_CFA_def_cfa: r7 (rsp) ofs 8
  DW_CFA_nop
  DW_CFA_nop
  DW_CFA_nop

0000ac34 000000000000001c 0000ac38 FDE cie=00000000 pc=0000000000943954..000000000094398f
  DW_CFA_advance_loc: 1 to 0000000000943955
  DW_CFA_def_cfa_offset: 16
  DW_CFA_offset: r6 (rbp) at cfa-16
  DW_CFA_advance_loc: 3 to 0000000000943958
  DW_CFA_def_cfa_register: r6 (rbp)
  DW_CFA_advance_loc: 54 to 000000000094398e
  DW_CFA_def_cfa: r7 (rsp) ofs 8
  DW_CFA_nop
  DW_CFA_nop
  DW_CFA_nop

0000ac54 000000000000001c 0000ac58 FDE cie=00000000 pc=000000000094398f..0000000000943a96
  DW_CFA_advance_loc: 1 to 0000000000943990
  DW_CFA_def_cfa_offset: 16
  DW_CFA_offset: r6 (rbp) at cfa-16
  DW_CFA_advance_loc: 3 to 0000000000943993
  DW_CFA_def_cfa_register: r6 (rbp)
  DW_CFA_advance_loc2: 258 to 0000000000943a95
  DW_CFA_def_cfa: r7 (rsp) ofs 8
  DW_CFA_nop

0000ac74 000000000000001c 0000ac78 FDE cie=00000000 pc=0000000000943a96..0000000000943bed
  DW_CFA_advance_loc: 1 to 0000000000943a97
  DW_CFA_def_cfa_offset: 16
  DW_CFA_offset: r6 (rbp) at cfa-16
  DW_CFA_advance_loc: 3 to 0000000000943a9a
  DW_CFA_def_cfa_register: r6 (rbp)
  DW_CFA_advance_loc2: 338 to 0000000000943bec
  DW_CFA_def_cfa: r7 (rsp) ofs 8
  DW_CFA_nop

0000ac94 000000000000001c 0000ac98 FDE cie=00000000 pc=0000000000943bed..0000000000943cb9
  DW_CFA_advance_loc: 1 to 0000000000943bee
  DW_CFA_def_cfa_offset: 16
  DW_CFA_offset: r6 (rbp) at cfa-16
  DW_CFA_advance_loc: 3 to 0000000000943bf1
  DW_CFA_def_cfa_register: r6 (rbp)
  DW_CFA_advance_loc1: 199 to 0000000000943cb8
  DW_CFA_def_cfa: r7 (rsp) ofs 8
  DW_CFA_nop
  DW_CFA_nop

0000acb4 000000000000001c 0000acb8 FDE cie=00000000 pc=0000000000943cb9..0000000000943d47
  DW_CFA_advance_loc: 1 to 0000000000943cba
  DW_CFA_def_cfa_offset: 16
  DW_CFA_offset: r6 (rbp) at cfa-16
  DW_CFA_advance_loc: 3 to 0000000000943cbd
  DW_CFA_def_cfa_register: r6 (rbp)
  DW_CFA_advance_loc1: 137 to 0000000000943d46
  DW_CFA_def_cfa: r7 (rsp) ofs 8
  DW_CFA_nop
  DW_CFA_nop

0000acd4 000000000000001c 0000acd8 FDE cie=00000000 pc=0000000000943d47..0000000000943e67
  DW_CFA_advance_loc: 1 to 0000000000943d48
  DW_CFA_def_cfa_offset: 16
  DW_CFA_offset: r6 (rbp) at cfa-16
  DW_CFA_advance_loc: 3 to 0000000000943d4b
  DW_CFA_def_cfa_register: r6 (rbp)
  DW_CFA_advance_loc2: 283 to 0000000000943e66
  DW_CFA_def_cfa: r7 (rsp) ofs 8
  DW_CFA_nop

0000acf4 000000000000001c 0000acf8 FDE cie=00000000 pc=0000000000943e67..0000000000943e97
  DW_CFA_advance_loc: 1 to 0000000000943e68
  DW_CFA_def_cfa_offset: 16
  DW_CFA_offset: r6 (rbp) at cfa-16
  DW_CFA_advance_loc: 3 to 0000000000943e6b
  DW_CFA_def_cfa_register: r6 (rbp)
  DW_CFA_advance_loc: 43 to 0000000000943e96
  DW_CFA_def_cfa: r7 (rsp) ofs 8
  DW_CFA_nop
  DW_CFA_nop
  DW_CFA_nop

0000ad14 000000000000001c 0000ad18 FDE cie=00000000 pc=0000000000943e97..0000000000943ecc
  DW_CFA_advance_loc: 1 to 0000000000943e98
  DW_CFA_def_cfa_offset: 16
  DW_CFA_offset: r6 (rbp) at cfa-16
  DW_CFA_advance_loc: 3 to 0000000000943e9b
  DW_CFA_def_cfa_register: r6 (rbp)
  DW_CFA_advance_loc: 48 to 0000000000943ecb
  DW_CFA_def_cfa: r7 (rsp) ofs 8
  DW_CFA_nop
  DW_CFA_nop
  DW_CFA_nop

0000ad34 000000000000001c 0000ad38 FDE cie=00000000 pc=0000000000943ecc..0000000000943f25
  DW_CFA_advance_loc: 1 to 0000000000943ecd
  DW_CFA_def_cfa_offset: 16
  DW_CFA_offset: r6 (rbp) at cfa-16
  DW_CFA_advance_loc: 3 to 0000000000943ed0
  DW_CFA_def_cfa_register: r6 (rbp)
  DW_CFA_advance_loc1: 84 to 0000000000943f24
  DW_CFA_def_cfa: r7 (rsp) ofs 8
  DW_CFA_nop
  DW_CFA_nop

0000ad54 000000000000001c 0000ad58 FDE cie=00000000 pc=0000000000943f25..0000000000944045
  DW_CFA_advance_loc: 1 to 0000000000943f26
  DW_CFA_def_cfa_offset: 16
  DW_CFA_offset: r6 (rbp) at cfa-16
  DW_CFA_advance_loc: 3 to 0000000000943f29
  DW_CFA_def_cfa_register: r6 (rbp)
  DW_CFA_advance_loc2: 283 to 0000000000944044
  DW_CFA_def_cfa: r7 (rsp) ofs 8
  DW_CFA_nop

0000ad74 000000000000001c 0000ad78 FDE cie=00000000 pc=0000000000944045..0000000000944105
  DW_CFA_advance_loc: 1 to 0000000000944046
  DW_CFA_def_cfa_offset: 16
  DW_CFA_offset: r6 (rbp) at cfa-16
  DW_CFA_advance_loc: 3 to 0000000000944049
  DW_CFA_def_cfa_register: r6 (rbp)
  DW_CFA_advance_loc1: 187 to 0000000000944104
  DW_CFA_def_cfa: r7 (rsp) ofs 8
  DW_CFA_nop
  DW_CFA_nop

0000ad94 000000000000001c 0000ad98 FDE cie=00000000 pc=0000000000944105..0000000000944219
  DW_CFA_advance_loc: 1 to 0000000000944106
  DW_CFA_def_cfa_offset: 16
  DW_CFA_offset: r6 (rbp) at cfa-16
  DW_CFA_advance_loc: 3 to 0000000000944109
  DW_CFA_def_cfa_register: r6 (rbp)
  DW_CFA_advance_loc2: 271 to 0000000000944218
  DW_CFA_def_cfa: r7 (rsp) ofs 8
  DW_CFA_nop

0000adb4 000000000000001c 0000adb8 FDE cie=00000000 pc=0000000000944219..00000000009445fc
  DW_CFA_advance_loc: 1 to 000000000094421a
  DW_CFA_def_cfa_offset: 16
  DW_CFA_offset: r6 (rbp) at cfa-16
  DW_CFA_advance_loc: 3 to 000000000094421d
  DW_CFA_def_cfa_register: r6 (rbp)
  DW_CFA_advance_loc2: 990 to 00000000009445fb
  DW_CFA_def_cfa: r7 (rsp) ofs 8
  DW_CFA_nop

0000add4 000000000000001c 0000add8 FDE cie=00000000 pc=00000000009445fc..0000000000944a27
  DW_CFA_advance_loc: 1 to 00000000009445fd
  DW_CFA_def_cfa_offset: 16
  DW_CFA_offset: r6 (rbp) at cfa-16
  DW_CFA_advance_loc: 3 to 0000000000944600
  DW_CFA_def_cfa_register: r6 (rbp)
  DW_CFA_advance_loc2: 1062 to 0000000000944a26
  DW_CFA_def_cfa: r7 (rsp) ofs 8
  DW_CFA_nop

0000adf4 000000000000001c 0000adf8 FDE cie=00000000 pc=0000000000944a27..0000000000944b56
  DW_CFA_advance_loc: 1 to 0000000000944a28
  DW_CFA_def_cfa_offset: 16
  DW_CFA_offset: r6 (rbp) at cfa-16
  DW_CFA_advance_loc: 3 to 0000000000944a2b
  DW_CFA_def_cfa_register: r6 (rbp)
  DW_CFA_advance_loc2: 298 to 0000000000944b55
  DW_CFA_def_cfa: r7 (rsp) ofs 8
  DW_CFA_nop

0000ae14 000000000000001c 0000ae18 FDE cie=00000000 pc=0000000000944b56..0000000000944cb6
  DW_CFA_advance_loc: 1 to 0000000000944b57
  DW_CFA_def_cfa_offset: 16
  DW_CFA_offset: r6 (rbp) at cfa-16
  DW_CFA_advance_loc: 3 to 0000000000944b5a
  DW_CFA_def_cfa_register: r6 (rbp)
  DW_CFA_advance_loc2: 347 to 0000000000944cb5
  DW_CFA_def_cfa: r7 (rsp) ofs 8
  DW_CFA_nop

0000ae34 000000000000001c 0000ae38 FDE cie=00000000 pc=0000000000944cb6..0000000000944e0e
  DW_CFA_advance_loc: 1 to 0000000000944cb7
  DW_CFA_def_cfa_offset: 16
  DW_CFA_offset: r6 (rbp) at cfa-16
  DW_CFA_advance_loc: 3 to 0000000000944cba
  DW_CFA_def_cfa_register: r6 (rbp)
  DW_CFA_advance_loc2: 339 to 0000000000944e0d
  DW_CFA_def_cfa: r7 (rsp) ofs 8
  DW_CFA_nop

0000ae54 000000000000001c 0000ae58 FDE cie=00000000 pc=0000000000944e0e..0000000000944e69
  DW_CFA_advance_loc: 1 to 0000000000944e0f
  DW_CFA_def_cfa_offset: 16
  DW_CFA_offset: r6 (rbp) at cfa-16
  DW_CFA_advance_loc: 3 to 0000000000944e12
  DW_CFA_def_cfa_register: r6 (rbp)
  DW_CFA_advance_loc1: 86 to 0000000000944e68
  DW_CFA_def_cfa: r7 (rsp) ofs 8
  DW_CFA_nop
  DW_CFA_nop

0000ae74 000000000000001c 0000ae78 FDE cie=00000000 pc=0000000000944e69..00000000009450a6
  DW_CFA_advance_loc: 1 to 0000000000944e6a
  DW_CFA_def_cfa_offset: 16
  DW_CFA_offset: r6 (rbp) at cfa-16
  DW_CFA_advance_loc: 3 to 0000000000944e6d
  DW_CFA_def_cfa_register: r6 (rbp)
  DW_CFA_advance_loc2: 568 to 00000000009450a5
  DW_CFA_def_cfa: r7 (rsp) ofs 8
  DW_CFA_nop

0000ae94 000000000000001c 0000ae98 FDE cie=00000000 pc=00000000009450a6..000000000094515d
  DW_CFA_advance_loc: 1 to 00000000009450a7
  DW_CFA_def_cfa_offset: 16
  DW_CFA_offset: r6 (rbp) at cfa-16
  DW_CFA_advance_loc: 3 to 00000000009450aa
  DW_CFA_def_cfa_register: r6 (rbp)
  DW_CFA_advance_loc1: 178 to 000000000094515c
  DW_CFA_def_cfa: r7 (rsp) ofs 8
  DW_CFA_nop
  DW_CFA_nop

0000aeb4 000000000000001c 0000aeb8 FDE cie=00000000 pc=000000000094515d..0000000000945298
  DW_CFA_advance_loc: 1 to 000000000094515e
  DW_CFA_def_cfa_offset: 16
  DW_CFA_offset: r6 (rbp) at cfa-16
  DW_CFA_advance_loc: 3 to 0000000000945161
  DW_CFA_def_cfa_register: r6 (rbp)
  DW_CFA_advance_loc2: 310 to 0000000000945297
  DW_CFA_def_cfa: r7 (rsp) ofs 8
  DW_CFA_nop

0000aed4 000000000000001c 0000aed8 FDE cie=00000000 pc=0000000000945298..00000000009454c6
  DW_CFA_advance_loc: 1 to 0000000000945299
  DW_CFA_def_cfa_offset: 16
  DW_CFA_offset: r6 (rbp) at cfa-16
  DW_CFA_advance_loc: 3 to 000000000094529c
  DW_CFA_def_cfa_register: r6 (rbp)
  DW_CFA_advance_loc2: 553 to 00000000009454c5
  DW_CFA_def_cfa: r7 (rsp) ofs 8
  DW_CFA_nop

0000aef4 000000000000001c 0000aef8 FDE cie=00000000 pc=00000000009454c6..0000000000945666
  DW_CFA_advance_loc: 1 to 00000000009454c7
  DW_CFA_def_cfa_offset: 16
  DW_CFA_offset: r6 (rbp) at cfa-16
  DW_CFA_advance_loc: 3 to 00000000009454ca
  DW_CFA_def_cfa_register: r6 (rbp)
  DW_CFA_advance_loc2: 411 to 0000000000945665
  DW_CFA_def_cfa: r7 (rsp) ofs 8
  DW_CFA_nop

0000af14 000000000000001c 0000af18 FDE cie=00000000 pc=0000000000945666..0000000000945cf5
  DW_CFA_advance_loc: 1 to 0000000000945667
  DW_CFA_def_cfa_offset: 16
  DW_CFA_offset: r6 (rbp) at cfa-16
  DW_CFA_advance_loc: 3 to 000000000094566a
  DW_CFA_def_cfa_register: r6 (rbp)
  DW_CFA_advance_loc2: 1674 to 0000000000945cf4
  DW_CFA_def_cfa: r7 (rsp) ofs 8
  DW_CFA_nop

0000af34 000000000000001c 0000af38 FDE cie=00000000 pc=0000000000945cf5..0000000000946ff2
  DW_CFA_advance_loc: 1 to 0000000000945cf6
  DW_CFA_def_cfa_offset: 16
  DW_CFA_offset: r6 (rbp) at cfa-16
  DW_CFA_advance_loc: 3 to 0000000000945cf9
  DW_CFA_def_cfa_register: r6 (rbp)
  DW_CFA_advance_loc2: 4856 to 0000000000946ff1
  DW_CFA_def_cfa: r7 (rsp) ofs 8
  DW_CFA_nop

0000af54 000000000000001c 0000af58 FDE cie=00000000 pc=0000000000946ff2..000000000094748f
  DW_CFA_advance_loc: 1 to 0000000000946ff3
  DW_CFA_def_cfa_offset: 16
  DW_CFA_offset: r6 (rbp) at cfa-16
  DW_CFA_advance_loc: 3 to 0000000000946ff6
  DW_CFA_def_cfa_register: r6 (rbp)
  DW_CFA_advance_loc2: 1176 to 000000000094748e
  DW_CFA_def_cfa: r7 (rsp) ofs 8
  DW_CFA_nop

0000af74 0000000000000020 0000af78 FDE cie=00000000 pc=000000000094748f..0000000000948253
  DW_CFA_advance_loc: 1 to 0000000000947490
  DW_CFA_def_cfa_offset: 16
  DW_CFA_offset: r6 (rbp) at cfa-16
  DW_CFA_advance_loc: 3 to 0000000000947493
  DW_CFA_def_cfa_register: r6 (rbp)
  DW_CFA_advance_loc: 8 to 000000000094749b
  DW_CFA_offset: r3 (rbx) at cfa-24
  DW_CFA_advance_loc2: 3511 to 0000000000948252
  DW_CFA_def_cfa: r7 (rsp) ofs 8
  DW_CFA_nop
  DW_CFA_nop

0000af98 0000000000000020 0000af9c FDE cie=00000000 pc=0000000000948253..0000000000948776
  DW_CFA_advance_loc: 1 to 0000000000948254
  DW_CFA_def_cfa_offset: 16
  DW_CFA_offset: r6 (rbp) at cfa-16
  DW_CFA_advance_loc: 3 to 0000000000948257
  DW_CFA_def_cfa_register: r6 (rbp)
  DW_CFA_advance_loc: 5 to 000000000094825c
  DW_CFA_offset: r3 (rbx) at cfa-24
  DW_CFA_advance_loc2: 1305 to 0000000000948775
  DW_CFA_def_cfa: r7 (rsp) ofs 8
  DW_CFA_nop
  DW_CFA_nop

0000afbc 000000000000001c 0000afc0 FDE cie=00000000 pc=0000000000948776..0000000000948ba0
  DW_CFA_advance_loc: 1 to 0000000000948777
  DW_CFA_def_cfa_offset: 16
  DW_CFA_offset: r6 (rbp) at cfa-16
  DW_CFA_advance_loc: 3 to 000000000094877a
  DW_CFA_def_cfa_register: r6 (rbp)
  DW_CFA_advance_loc2: 1061 to 0000000000948b9f
  DW_CFA_def_cfa: r7 (rsp) ofs 8
  DW_CFA_nop

0000afdc 000000000000001c 0000afe0 FDE cie=00000000 pc=0000000000948ba0..0000000000948c32
  DW_CFA_advance_loc: 1 to 0000000000948ba1
  DW_CFA_def_cfa_offset: 16
  DW_CFA_offset: r6 (rbp) at cfa-16
  DW_CFA_advance_loc: 3 to 0000000000948ba4
  DW_CFA_def_cfa_register: r6 (rbp)
  DW_CFA_advance_loc1: 141 to 0000000000948c31
  DW_CFA_def_cfa: r7 (rsp) ofs 8
  DW_CFA_nop
  DW_CFA_nop

0000affc 000000000000001c 0000b000 FDE cie=00000000 pc=0000000000948c32..0000000000948c82
  DW_CFA_advance_loc: 1 to 0000000000948c33
  DW_CFA_def_cfa_offset: 16
  DW_CFA_offset: r6 (rbp) at cfa-16
  DW_CFA_advance_loc: 3 to 0000000000948c36
  DW_CFA_def_cfa_register: r6 (rbp)
  DW_CFA_advance_loc1: 75 to 0000000000948c81
  DW_CFA_def_cfa: r7 (rsp) ofs 8
  DW_CFA_nop
  DW_CFA_nop

0000b01c 000000000000001c 0000b020 FDE cie=00000000 pc=0000000000948c82..0000000000948cad
  DW_CFA_advance_loc: 1 to 0000000000948c83
  DW_CFA_def_cfa_offset: 16
  DW_CFA_offset: r6 (rbp) at cfa-16
  DW_CFA_advance_loc: 3 to 0000000000948c86
  DW_CFA_def_cfa_register: r6 (rbp)
  DW_CFA_advance_loc: 38 to 0000000000948cac
  DW_CFA_def_cfa: r7 (rsp) ofs 8
  DW_CFA_nop
  DW_CFA_nop
  DW_CFA_nop

0000b03c 000000000000001c 0000b040 FDE cie=00000000 pc=0000000000948cad..0000000000948d6a
  DW_CFA_advance_loc: 1 to 0000000000948cae
  DW_CFA_def_cfa_offset: 16
  DW_CFA_offset: r6 (rbp) at cfa-16
  DW_CFA_advance_loc: 3 to 0000000000948cb1
  DW_CFA_def_cfa_register: r6 (rbp)
  DW_CFA_advance_loc1: 184 to 0000000000948d69
  DW_CFA_def_cfa: r7 (rsp) ofs 8
  DW_CFA_nop
  DW_CFA_nop

0000b05c 000000000000001c 0000b060 FDE cie=00000000 pc=0000000000948d6a..0000000000948eab
  DW_CFA_advance_loc: 1 to 0000000000948d6b
  DW_CFA_def_cfa_offset: 16
  DW_CFA_offset: r6 (rbp) at cfa-16
  DW_CFA_advance_loc: 3 to 0000000000948d6e
  DW_CFA_def_cfa_register: r6 (rbp)
  DW_CFA_advance_loc2: 316 to 0000000000948eaa
  DW_CFA_def_cfa: r7 (rsp) ofs 8
  DW_CFA_nop

0000b07c 000000000000001c 0000b080 FDE cie=00000000 pc=0000000000948eab..00000000009493ac
  DW_CFA_advance_loc: 1 to 0000000000948eac
  DW_CFA_def_cfa_offset: 16
  DW_CFA_offset: r6 (rbp) at cfa-16
  DW_CFA_advance_loc: 3 to 0000000000948eaf
  DW_CFA_def_cfa_register: r6 (rbp)
  DW_CFA_advance_loc2: 1276 to 00000000009493ab
  DW_CFA_def_cfa: r7 (rsp) ofs 8
  DW_CFA_nop

0000b09c 000000000000001c 0000b0a0 FDE cie=00000000 pc=00000000009493ac..00000000009494ff
  DW_CFA_advance_loc: 1 to 00000000009493ad
  DW_CFA_def_cfa_offset: 16
  DW_CFA_offset: r6 (rbp) at cfa-16
  DW_CFA_advance_loc: 3 to 00000000009493b0
  DW_CFA_def_cfa_register: r6 (rbp)
  DW_CFA_advance_loc2: 334 to 00000000009494fe
  DW_CFA_def_cfa: r7 (rsp) ofs 8
  DW_CFA_nop

0000b0bc 000000000000001c 0000b0c0 FDE cie=00000000 pc=00000000009494ff..0000000000949ec8
  DW_CFA_advance_loc: 1 to 0000000000949500
  DW_CFA_def_cfa_offset: 16
  DW_CFA_offset: r6 (rbp) at cfa-16
  DW_CFA_advance_loc: 3 to 0000000000949503
  DW_CFA_def_cfa_register: r6 (rbp)
  DW_CFA_advance_loc2: 2500 to 0000000000949ec7
  DW_CFA_def_cfa: r7 (rsp) ofs 8
  DW_CFA_nop

0000b0dc 000000000000001c 0000b0e0 FDE cie=00000000 pc=0000000000949ec8..0000000000949f51
  DW_CFA_advance_loc: 1 to 0000000000949ec9
  DW_CFA_def_cfa_offset: 16
  DW_CFA_offset: r6 (rbp) at cfa-16
  DW_CFA_advance_loc: 3 to 0000000000949ecc
  DW_CFA_def_cfa_register: r6 (rbp)
  DW_CFA_advance_loc1: 132 to 0000000000949f50
  DW_CFA_def_cfa: r7 (rsp) ofs 8
  DW_CFA_nop
  DW_CFA_nop

0000b0fc 000000000000001c 0000b100 FDE cie=00000000 pc=0000000000949f51..000000000094a06f
  DW_CFA_advance_loc: 1 to 0000000000949f52
  DW_CFA_def_cfa_offset: 16
  DW_CFA_offset: r6 (rbp) at cfa-16
  DW_CFA_advance_loc: 3 to 0000000000949f55
  DW_CFA_def_cfa_register: r6 (rbp)
  DW_CFA_advance_loc2: 281 to 000000000094a06e
  DW_CFA_def_cfa: r7 (rsp) ofs 8
  DW_CFA_nop

0000b11c 0000000000000020 0000b120 FDE cie=00000000 pc=000000000094a06f..000000000094a2ed
  DW_CFA_advance_loc: 1 to 000000000094a070
  DW_CFA_def_cfa_offset: 16
  DW_CFA_offset: r6 (rbp) at cfa-16
  DW_CFA_advance_loc: 3 to 000000000094a073
  DW_CFA_def_cfa_register: r6 (rbp)
  DW_CFA_advance_loc: 8 to 000000000094a07b
  DW_CFA_offset: r3 (rbx) at cfa-24
  DW_CFA_advance_loc2: 625 to 000000000094a2ec
  DW_CFA_def_cfa: r7 (rsp) ofs 8
  DW_CFA_nop
  DW_CFA_nop

0000b140 000000000000001c 0000b144 FDE cie=00000000 pc=000000000094a2ed..000000000094a3be
  DW_CFA_advance_loc: 1 to 000000000094a2ee
  DW_CFA_def_cfa_offset: 16
  DW_CFA_offset: r6 (rbp) at cfa-16
  DW_CFA_advance_loc: 3 to 000000000094a2f1
  DW_CFA_def_cfa_register: r6 (rbp)
  DW_CFA_advance_loc1: 204 to 000000000094a3bd
  DW_CFA_def_cfa: r7 (rsp) ofs 8
  DW_CFA_nop
  DW_CFA_nop

0000b160 000000000000001c 0000b164 FDE cie=00000000 pc=000000000094a3be..000000000094a3f9
  DW_CFA_advance_loc: 1 to 000000000094a3bf
  DW_CFA_def_cfa_offset: 16
  DW_CFA_offset: r6 (rbp) at cfa-16
  DW_CFA_advance_loc: 3 to 000000000094a3c2
  DW_CFA_def_cfa_register: r6 (rbp)
  DW_CFA_advance_loc: 54 to 000000000094a3f8
  DW_CFA_def_cfa: r7 (rsp) ofs 8
  DW_CFA_nop
  DW_CFA_nop
  DW_CFA_nop

0000b180 000000000000001c 0000b184 FDE cie=00000000 pc=000000000094a3f9..000000000094a421
  DW_CFA_advance_loc: 1 to 000000000094a3fa
  DW_CFA_def_cfa_offset: 16
  DW_CFA_offset: r6 (rbp) at cfa-16
  DW_CFA_advance_loc: 3 to 000000000094a3fd
  DW_CFA_def_cfa_register: r6 (rbp)
  DW_CFA_advance_loc: 35 to 000000000094a420
  DW_CFA_def_cfa: r7 (rsp) ofs 8
  DW_CFA_nop
  DW_CFA_nop
  DW_CFA_nop

0000b1a0 000000000000001c 0000b1a4 FDE cie=00000000 pc=000000000094a421..000000000094a49a
  DW_CFA_advance_loc: 1 to 000000000094a422
  DW_CFA_def_cfa_offset: 16
  DW_CFA_offset: r6 (rbp) at cfa-16
  DW_CFA_advance_loc: 3 to 000000000094a425
  DW_CFA_def_cfa_register: r6 (rbp)
  DW_CFA_advance_loc1: 116 to 000000000094a499
  DW_CFA_def_cfa: r7 (rsp) ofs 8
  DW_CFA_nop
  DW_CFA_nop

0000b1c0 000000000000001c 0000b1c4 FDE cie=00000000 pc=000000000094a49a..000000000094a52e
  DW_CFA_advance_loc: 1 to 000000000094a49b
  DW_CFA_def_cfa_offset: 16
  DW_CFA_offset: r6 (rbp) at cfa-16
  DW_CFA_advance_loc: 3 to 000000000094a49e
  DW_CFA_def_cfa_register: r6 (rbp)
  DW_CFA_advance_loc1: 143 to 000000000094a52d
  DW_CFA_def_cfa: r7 (rsp) ofs 8
  DW_CFA_nop
  DW_CFA_nop

0000b1e0 000000000000001c 0000b1e4 FDE cie=00000000 pc=000000000094a52e..000000000094a5e7
  DW_CFA_advance_loc: 1 to 000000000094a52f
  DW_CFA_def_cfa_offset: 16
  DW_CFA_offset: r6 (rbp) at cfa-16
  DW_CFA_advance_loc: 3 to 000000000094a532
  DW_CFA_def_cfa_register: r6 (rbp)
  DW_CFA_advance_loc1: 180 to 000000000094a5e6
  DW_CFA_def_cfa: r7 (rsp) ofs 8
  DW_CFA_nop
  DW_CFA_nop

0000b200 000000000000001c 0000b204 FDE cie=00000000 pc=000000000094a5e7..000000000094a67f
  DW_CFA_advance_loc: 1 to 000000000094a5e8
  DW_CFA_def_cfa_offset: 16
  DW_CFA_offset: r6 (rbp) at cfa-16
  DW_CFA_advance_loc: 3 to 000000000094a5eb
  DW_CFA_def_cfa_register: r6 (rbp)
  DW_CFA_advance_loc1: 147 to 000000000094a67e
  DW_CFA_def_cfa: r7 (rsp) ofs 8
  DW_CFA_nop
  DW_CFA_nop

0000b220 000000000000001c 0000b224 FDE cie=00000000 pc=000000000094a67f..000000000094a7b9
  DW_CFA_advance_loc: 1 to 000000000094a680
  DW_CFA_def_cfa_offset: 16
  DW_CFA_offset: r6 (rbp) at cfa-16
  DW_CFA_advance_loc: 3 to 000000000094a683
  DW_CFA_def_cfa_register: r6 (rbp)
  DW_CFA_advance_loc2: 309 to 000000000094a7b8
  DW_CFA_def_cfa: r7 (rsp) ofs 8
  DW_CFA_nop

0000b240 000000000000001c 0000b244 FDE cie=00000000 pc=000000000094a7b9..000000000094a7d9
  DW_CFA_advance_loc: 1 to 000000000094a7ba
  DW_CFA_def_cfa_offset: 16
  DW_CFA_offset: r6 (rbp) at cfa-16
  DW_CFA_advance_loc: 3 to 000000000094a7bd
  DW_CFA_def_cfa_register: r6 (rbp)
  DW_CFA_advance_loc: 27 to 000000000094a7d8
  DW_CFA_def_cfa: r7 (rsp) ofs 8
  DW_CFA_nop
  DW_CFA_nop
  DW_CFA_nop

0000b260 0000000000000020 0000b264 FDE cie=00000000 pc=000000000094a7d9..000000000094a9de
  DW_CFA_advance_loc: 1 to 000000000094a7da
  DW_CFA_def_cfa_offset: 16
  DW_CFA_offset: r6 (rbp) at cfa-16
  DW_CFA_advance_loc: 3 to 000000000094a7dd
  DW_CFA_def_cfa_register: r6 (rbp)
  DW_CFA_advance_loc: 5 to 000000000094a7e2
  DW_CFA_offset: r3 (rbx) at cfa-24
  DW_CFA_advance_loc2: 507 to 000000000094a9dd
  DW_CFA_def_cfa: r7 (rsp) ofs 8
  DW_CFA_nop
  DW_CFA_nop

0000b284 000000000000001c 0000b288 FDE cie=00000000 pc=000000000094a9de..000000000094aa02
  DW_CFA_advance_loc: 1 to 000000000094a9df
  DW_CFA_def_cfa_offset: 16
  DW_CFA_offset: r6 (rbp) at cfa-16
  DW_CFA_advance_loc: 3 to 000000000094a9e2
  DW_CFA_def_cfa_register: r6 (rbp)
  DW_CFA_advance_loc: 31 to 000000000094aa01
  DW_CFA_def_cfa: r7 (rsp) ofs 8
  DW_CFA_nop
  DW_CFA_nop
  DW_CFA_nop

0000b2a4 000000000000001c 0000b2a8 FDE cie=00000000 pc=000000000094aa02..000000000094aae4
  DW_CFA_advance_loc: 1 to 000000000094aa03
  DW_CFA_def_cfa_offset: 16
  DW_CFA_offset: r6 (rbp) at cfa-16
  DW_CFA_advance_loc: 3 to 000000000094aa06
  DW_CFA_def_cfa_register: r6 (rbp)
  DW_CFA_advance_loc1: 221 to 000000000094aae3
  DW_CFA_def_cfa: r7 (rsp) ofs 8
  DW_CFA_nop
  DW_CFA_nop

0000b2c4 000000000000001c 0000b2c8 FDE cie=00000000 pc=000000000094aae4..000000000094ac1a
  DW_CFA_advance_loc: 1 to 000000000094aae5
  DW_CFA_def_cfa_offset: 16
  DW_CFA_offset: r6 (rbp) at cfa-16
  DW_CFA_advance_loc: 3 to 000000000094aae8
  DW_CFA_def_cfa_register: r6 (rbp)
  DW_CFA_advance_loc2: 305 to 000000000094ac19
  DW_CFA_def_cfa: r7 (rsp) ofs 8
  DW_CFA_nop

0000b2e4 000000000000001c 0000b2e8 FDE cie=00000000 pc=000000000094ac1a..000000000094ac75
  DW_CFA_advance_loc: 1 to 000000000094ac1b
  DW_CFA_def_cfa_offset: 16
  DW_CFA_offset: r6 (rbp) at cfa-16
  DW_CFA_advance_loc: 3 to 000000000094ac1e
  DW_CFA_def_cfa_register: r6 (rbp)
  DW_CFA_advance_loc1: 86 to 000000000094ac74
  DW_CFA_def_cfa: r7 (rsp) ofs 8
  DW_CFA_nop
  DW_CFA_nop

0000b304 000000000000001c 0000b308 FDE cie=00000000 pc=000000000094ac75..000000000094ad13
  DW_CFA_advance_loc: 1 to 000000000094ac76
  DW_CFA_def_cfa_offset: 16
  DW_CFA_offset: r6 (rbp) at cfa-16
  DW_CFA_advance_loc: 3 to 000000000094ac79
  DW_CFA_def_cfa_register: r6 (rbp)
  DW_CFA_advance_loc1: 153 to 000000000094ad12
  DW_CFA_def_cfa: r7 (rsp) ofs 8
  DW_CFA_nop
  DW_CFA_nop

0000b324 000000000000001c 0000b328 FDE cie=00000000 pc=000000000094ad13..000000000094adb8
  DW_CFA_advance_loc: 1 to 000000000094ad14
  DW_CFA_def_cfa_offset: 16
  DW_CFA_offset: r6 (rbp) at cfa-16
  DW_CFA_advance_loc: 3 to 000000000094ad17
  DW_CFA_def_cfa_register: r6 (rbp)
  DW_CFA_advance_loc1: 160 to 000000000094adb7
  DW_CFA_def_cfa: r7 (rsp) ofs 8
  DW_CFA_nop
  DW_CFA_nop

0000b344 000000000000001c 0000b348 FDE cie=00000000 pc=000000000094adb8..000000000094ae22
  DW_CFA_advance_loc: 1 to 000000000094adb9
  DW_CFA_def_cfa_offset: 16
  DW_CFA_offset: r6 (rbp) at cfa-16
  DW_CFA_advance_loc: 3 to 000000000094adbc
  DW_CFA_def_cfa_register: r6 (rbp)
  DW_CFA_advance_loc1: 101 to 000000000094ae21
  DW_CFA_def_cfa: r7 (rsp) ofs 8
  DW_CFA_nop
  DW_CFA_nop

0000b364 000000000000001c 0000b368 FDE cie=00000000 pc=000000000094ae22..000000000094afba
  DW_CFA_advance_loc: 1 to 000000000094ae23
  DW_CFA_def_cfa_offset: 16
  DW_CFA_offset: r6 (rbp) at cfa-16
  DW_CFA_advance_loc: 3 to 000000000094ae26
  DW_CFA_def_cfa_register: r6 (rbp)
  DW_CFA_advance_loc2: 403 to 000000000094afb9
  DW_CFA_def_cfa: r7 (rsp) ofs 8
  DW_CFA_nop

0000b384 000000000000001c 0000b388 FDE cie=00000000 pc=000000000094afba..000000000094b521
  DW_CFA_advance_loc: 1 to 000000000094afbb
  DW_CFA_def_cfa_offset: 16
  DW_CFA_offset: r6 (rbp) at cfa-16
  DW_CFA_advance_loc: 3 to 000000000094afbe
  DW_CFA_def_cfa_register: r6 (rbp)
  DW_CFA_advance_loc2: 1378 to 000000000094b520
  DW_CFA_def_cfa: r7 (rsp) ofs 8
  DW_CFA_nop

0000b3a4 000000000000001c 0000b3a8 FDE cie=00000000 pc=000000000094b521..000000000094b584
  DW_CFA_advance_loc: 1 to 000000000094b522
  DW_CFA_def_cfa_offset: 16
  DW_CFA_offset: r6 (rbp) at cfa-16
  DW_CFA_advance_loc: 3 to 000000000094b525
  DW_CFA_def_cfa_register: r6 (rbp)
  DW_CFA_advance_loc1: 94 to 000000000094b583
  DW_CFA_def_cfa: r7 (rsp) ofs 8
  DW_CFA_nop
  DW_CFA_nop

0000b3c4 000000000000001c 0000b3c8 FDE cie=00000000 pc=000000000094b584..000000000094b5e7
  DW_CFA_advance_loc: 1 to 000000000094b585
  DW_CFA_def_cfa_offset: 16
  DW_CFA_offset: r6 (rbp) at cfa-16
  DW_CFA_advance_loc: 3 to 000000000094b588
  DW_CFA_def_cfa_register: r6 (rbp)
  DW_CFA_advance_loc1: 94 to 000000000094b5e6
  DW_CFA_def_cfa: r7 (rsp) ofs 8
  DW_CFA_nop
  DW_CFA_nop

0000b3e4 000000000000001c 0000b3e8 FDE cie=00000000 pc=000000000094b5e7..000000000094b668
  DW_CFA_advance_loc: 1 to 000000000094b5e8
  DW_CFA_def_cfa_offset: 16
  DW_CFA_offset: r6 (rbp) at cfa-16
  DW_CFA_advance_loc: 3 to 000000000094b5eb
  DW_CFA_def_cfa_register: r6 (rbp)
  DW_CFA_advance_loc1: 124 to 000000000094b667
  DW_CFA_def_cfa: r7 (rsp) ofs 8
  DW_CFA_nop
  DW_CFA_nop

0000b404 000000000000001c 0000b408 FDE cie=00000000 pc=000000000094b668..000000000094b7cd
  DW_CFA_advance_loc: 1 to 000000000094b669
  DW_CFA_def_cfa_offset: 16
  DW_CFA_offset: r6 (rbp) at cfa-16
  DW_CFA_advance_loc: 3 to 000000000094b66c
  DW_CFA_def_cfa_register: r6 (rbp)
  DW_CFA_advance_loc2: 352 to 000000000094b7cc
  DW_CFA_def_cfa: r7 (rsp) ofs 8
  DW_CFA_nop

0000b424 000000000000001c 0000b428 FDE cie=00000000 pc=000000000094b7cd..000000000094b9d6
  DW_CFA_advance_loc: 1 to 000000000094b7ce
  DW_CFA_def_cfa_offset: 16
  DW_CFA_offset: r6 (rbp) at cfa-16
  DW_CFA_advance_loc: 3 to 000000000094b7d1
  DW_CFA_def_cfa_register: r6 (rbp)
  DW_CFA_advance_loc2: 516 to 000000000094b9d5
  DW_CFA_def_cfa: r7 (rsp) ofs 8
  DW_CFA_nop

0000b444 000000000000001c 0000b448 FDE cie=00000000 pc=000000000094b9d6..000000000094bac5
  DW_CFA_advance_loc: 1 to 000000000094b9d7
  DW_CFA_def_cfa_offset: 16
  DW_CFA_offset: r6 (rbp) at cfa-16
  DW_CFA_advance_loc: 3 to 000000000094b9da
  DW_CFA_def_cfa_register: r6 (rbp)
  DW_CFA_advance_loc1: 234 to 000000000094bac4
  DW_CFA_def_cfa: r7 (rsp) ofs 8
  DW_CFA_nop
  DW_CFA_nop

0000b464 000000000000001c 0000b468 FDE cie=00000000 pc=000000000094bac5..000000000094bb57
  DW_CFA_advance_loc: 1 to 000000000094bac6
  DW_CFA_def_cfa_offset: 16
  DW_CFA_offset: r6 (rbp) at cfa-16
  DW_CFA_advance_loc: 3 to 000000000094bac9
  DW_CFA_def_cfa_register: r6 (rbp)
  DW_CFA_advance_loc1: 141 to 000000000094bb56
  DW_CFA_def_cfa: r7 (rsp) ofs 8
  DW_CFA_nop
  DW_CFA_nop

0000b484 000000000000001c 0000b488 FDE cie=00000000 pc=000000000094bb57..000000000094bc04
  DW_CFA_advance_loc: 1 to 000000000094bb58
  DW_CFA_def_cfa_offset: 16
  DW_CFA_offset: r6 (rbp) at cfa-16
  DW_CFA_advance_loc: 3 to 000000000094bb5b
  DW_CFA_def_cfa_register: r6 (rbp)
  DW_CFA_advance_loc1: 168 to 000000000094bc03
  DW_CFA_def_cfa: r7 (rsp) ofs 8
  DW_CFA_nop
  DW_CFA_nop

0000b4a4 000000000000001c 0000b4a8 FDE cie=00000000 pc=000000000094bc04..000000000094c05d
  DW_CFA_advance_loc: 1 to 000000000094bc05
  DW_CFA_def_cfa_offset: 16
  DW_CFA_offset: r6 (rbp) at cfa-16
  DW_CFA_advance_loc: 3 to 000000000094bc08
  DW_CFA_def_cfa_register: r6 (rbp)
  DW_CFA_advance_loc2: 1108 to 000000000094c05c
  DW_CFA_def_cfa: r7 (rsp) ofs 8
  DW_CFA_nop

0000b4c4 000000000000001c 0000b4c8 FDE cie=00000000 pc=000000000094c05d..000000000094c088
  DW_CFA_advance_loc: 1 to 000000000094c05e
  DW_CFA_def_cfa_offset: 16
  DW_CFA_offset: r6 (rbp) at cfa-16
  DW_CFA_advance_loc: 3 to 000000000094c061
  DW_CFA_def_cfa_register: r6 (rbp)
  DW_CFA_advance_loc: 38 to 000000000094c087
  DW_CFA_def_cfa: r7 (rsp) ofs 8
  DW_CFA_nop
  DW_CFA_nop
  DW_CFA_nop

0000b4e4 000000000000001c 0000b4e8 FDE cie=00000000 pc=000000000094c088..000000000094c145
  DW_CFA_advance_loc: 1 to 000000000094c089
  DW_CFA_def_cfa_offset: 16
  DW_CFA_offset: r6 (rbp) at cfa-16
  DW_CFA_advance_loc: 3 to 000000000094c08c
  DW_CFA_def_cfa_register: r6 (rbp)
  DW_CFA_advance_loc1: 184 to 000000000094c144
  DW_CFA_def_cfa: r7 (rsp) ofs 8
  DW_CFA_nop
  DW_CFA_nop

0000b504 000000000000001c 0000b508 FDE cie=00000000 pc=000000000094c145..000000000094c379
  DW_CFA_advance_loc: 1 to 000000000094c146
  DW_CFA_def_cfa_offset: 16
  DW_CFA_offset: r6 (rbp) at cfa-16
  DW_CFA_advance_loc: 3 to 000000000094c149
  DW_CFA_def_cfa_register: r6 (rbp)
  DW_CFA_advance_loc2: 559 to 000000000094c378
  DW_CFA_def_cfa: r7 (rsp) ofs 8
  DW_CFA_nop

0000b524 000000000000001c 0000b528 FDE cie=00000000 pc=000000000094c379..000000000094c408
  DW_CFA_advance_loc: 1 to 000000000094c37a
  DW_CFA_def_cfa_offset: 16
  DW_CFA_offset: r6 (rbp) at cfa-16
  DW_CFA_advance_loc: 3 to 000000000094c37d
  DW_CFA_def_cfa_register: r6 (rbp)
  DW_CFA_advance_loc1: 138 to 000000000094c407
  DW_CFA_def_cfa: r7 (rsp) ofs 8
  DW_CFA_nop
  DW_CFA_nop

0000b544 000000000000001c 0000b548 FDE cie=00000000 pc=000000000094c408..000000000094c6f1
  DW_CFA_advance_loc: 1 to 000000000094c409
  DW_CFA_def_cfa_offset: 16
  DW_CFA_offset: r6 (rbp) at cfa-16
  DW_CFA_advance_loc: 3 to 000000000094c40c
  DW_CFA_def_cfa_register: r6 (rbp)
  DW_CFA_advance_loc2: 740 to 000000000094c6f0
  DW_CFA_def_cfa: r7 (rsp) ofs 8
  DW_CFA_nop

0000b564 000000000000001c 0000b568 FDE cie=00000000 pc=000000000094c6f1..000000000094ca60
  DW_CFA_advance_loc: 1 to 000000000094c6f2
  DW_CFA_def_cfa_offset: 16
  DW_CFA_offset: r6 (rbp) at cfa-16
  DW_CFA_advance_loc: 3 to 000000000094c6f5
  DW_CFA_def_cfa_register: r6 (rbp)
  DW_CFA_advance_loc2: 874 to 000000000094ca5f
  DW_CFA_def_cfa: r7 (rsp) ofs 8
  DW_CFA_nop

0000b584 000000000000001c 0000b588 FDE cie=00000000 pc=000000000094ca60..000000000094cd0b
  DW_CFA_advance_loc: 1 to 000000000094ca61
  DW_CFA_def_cfa_offset: 16
  DW_CFA_offset: r6 (rbp) at cfa-16
  DW_CFA_advance_loc: 3 to 000000000094ca64
  DW_CFA_def_cfa_register: r6 (rbp)
  DW_CFA_advance_loc2: 678 to 000000000094cd0a
  DW_CFA_def_cfa: r7 (rsp) ofs 8
  DW_CFA_nop

0000b5a4 000000000000001c 0000b5a8 FDE cie=00000000 pc=000000000094cd0b..000000000094cd49
  DW_CFA_advance_loc: 1 to 000000000094cd0c
  DW_CFA_def_cfa_offset: 16
  DW_CFA_offset: r6 (rbp) at cfa-16
  DW_CFA_advance_loc: 3 to 000000000094cd0f
  DW_CFA_def_cfa_register: r6 (rbp)
  DW_CFA_advance_loc: 57 to 000000000094cd48
  DW_CFA_def_cfa: r7 (rsp) ofs 8
  DW_CFA_nop
  DW_CFA_nop
  DW_CFA_nop

0000b5c4 000000000000001c 0000b5c8 FDE cie=00000000 pc=000000000094cd49..000000000094ce40
  DW_CFA_advance_loc: 1 to 000000000094cd4a
  DW_CFA_def_cfa_offset: 16
  DW_CFA_offset: r6 (rbp) at cfa-16
  DW_CFA_advance_loc: 3 to 000000000094cd4d
  DW_CFA_def_cfa_register: r6 (rbp)
  DW_CFA_advance_loc1: 242 to 000000000094ce3f
  DW_CFA_def_cfa: r7 (rsp) ofs 8
  DW_CFA_nop
  DW_CFA_nop

0000b5e4 000000000000001c 0000b5e8 FDE cie=00000000 pc=000000000094ce40..000000000094ce7b
  DW_CFA_advance_loc: 1 to 000000000094ce41
  DW_CFA_def_cfa_offset: 16
  DW_CFA_offset: r6 (rbp) at cfa-16
  DW_CFA_advance_loc: 3 to 000000000094ce44
  DW_CFA_def_cfa_register: r6 (rbp)
  DW_CFA_advance_loc: 54 to 000000000094ce7a
  DW_CFA_def_cfa: r7 (rsp) ofs 8
  DW_CFA_nop
  DW_CFA_nop
  DW_CFA_nop

0000b604 000000000000001c 0000b608 FDE cie=00000000 pc=000000000094ce7b..000000000094ceec
  DW_CFA_advance_loc: 1 to 000000000094ce7c
  DW_CFA_def_cfa_offset: 16
  DW_CFA_offset: r6 (rbp) at cfa-16
  DW_CFA_advance_loc: 3 to 000000000094ce7f
  DW_CFA_def_cfa_register: r6 (rbp)
  DW_CFA_advance_loc1: 108 to 000000000094ceeb
  DW_CFA_def_cfa: r7 (rsp) ofs 8
  DW_CFA_nop
  DW_CFA_nop

0000b624 000000000000001c 0000b628 FDE cie=00000000 pc=000000000094ceec..000000000094cf40
  DW_CFA_advance_loc: 1 to 000000000094ceed
  DW_CFA_def_cfa_offset: 16
  DW_CFA_offset: r6 (rbp) at cfa-16
  DW_CFA_advance_loc: 3 to 000000000094cef0
  DW_CFA_def_cfa_register: r6 (rbp)
  DW_CFA_advance_loc1: 79 to 000000000094cf3f
  DW_CFA_def_cfa: r7 (rsp) ofs 8
  DW_CFA_nop
  DW_CFA_nop

0000b644 000000000000001c 0000b648 FDE cie=00000000 pc=000000000094cf40..000000000094d071
  DW_CFA_advance_loc: 1 to 000000000094cf41
  DW_CFA_def_cfa_offset: 16
  DW_CFA_offset: r6 (rbp) at cfa-16
  DW_CFA_advance_loc: 3 to 000000000094cf44
  DW_CFA_def_cfa_register: r6 (rbp)
  DW_CFA_advance_loc2: 300 to 000000000094d070
  DW_CFA_def_cfa: r7 (rsp) ofs 8
  DW_CFA_nop

0000b664 000000000000001c 0000b668 FDE cie=00000000 pc=000000000094d071..000000000094d1cf
  DW_CFA_advance_loc: 1 to 000000000094d072
  DW_CFA_def_cfa_offset: 16
  DW_CFA_offset: r6 (rbp) at cfa-16
  DW_CFA_advance_loc: 3 to 000000000094d075
  DW_CFA_def_cfa_register: r6 (rbp)
  DW_CFA_advance_loc2: 345 to 000000000094d1ce
  DW_CFA_def_cfa: r7 (rsp) ofs 8
  DW_CFA_nop

0000b684 000000000000001c 0000b688 FDE cie=00000000 pc=000000000094d1cf..000000000094d327
  DW_CFA_advance_loc: 1 to 000000000094d1d0
  DW_CFA_def_cfa_offset: 16
  DW_CFA_offset: r6 (rbp) at cfa-16
  DW_CFA_advance_loc: 3 to 000000000094d1d3
  DW_CFA_def_cfa_register: r6 (rbp)
  DW_CFA_advance_loc2: 339 to 000000000094d326
  DW_CFA_def_cfa: r7 (rsp) ofs 8
  DW_CFA_nop

0000b6a4 000000000000001c 0000b6a8 FDE cie=00000000 pc=000000000094d327..000000000094d364
  DW_CFA_advance_loc: 1 to 000000000094d328
  DW_CFA_def_cfa_offset: 16
  DW_CFA_offset: r6 (rbp) at cfa-16
  DW_CFA_advance_loc: 3 to 000000000094d32b
  DW_CFA_def_cfa_register: r6 (rbp)
  DW_CFA_advance_loc: 56 to 000000000094d363
  DW_CFA_def_cfa: r7 (rsp) ofs 8
  DW_CFA_nop
  DW_CFA_nop
  DW_CFA_nop

0000b6c4 000000000000001c 0000b6c8 FDE cie=00000000 pc=000000000094d364..000000000094d3a5
  DW_CFA_advance_loc: 1 to 000000000094d365
  DW_CFA_def_cfa_offset: 16
  DW_CFA_offset: r6 (rbp) at cfa-16
  DW_CFA_advance_loc: 3 to 000000000094d368
  DW_CFA_def_cfa_register: r6 (rbp)
  DW_CFA_advance_loc: 60 to 000000000094d3a4
  DW_CFA_def_cfa: r7 (rsp) ofs 8
  DW_CFA_nop
  DW_CFA_nop
  DW_CFA_nop

0000b6e4 000000000000001c 0000b6e8 FDE cie=00000000 pc=000000000094d3a5..000000000094d410
  DW_CFA_advance_loc: 1 to 000000000094d3a6
  DW_CFA_def_cfa_offset: 16
  DW_CFA_offset: r6 (rbp) at cfa-16
  DW_CFA_advance_loc: 3 to 000000000094d3a9
  DW_CFA_def_cfa_register: r6 (rbp)
  DW_CFA_advance_loc1: 102 to 000000000094d40f
  DW_CFA_def_cfa: r7 (rsp) ofs 8
  DW_CFA_nop
  DW_CFA_nop

0000b704 0000000000000020 0000b708 FDE cie=00000000 pc=000000000094d410..000000000094d986
  DW_CFA_advance_loc: 1 to 000000000094d411
  DW_CFA_def_cfa_offset: 16
  DW_CFA_offset: r6 (rbp) at cfa-16
  DW_CFA_advance_loc: 3 to 000000000094d414
  DW_CFA_def_cfa_register: r6 (rbp)
  DW_CFA_advance_loc: 5 to 000000000094d419
  DW_CFA_offset: r3 (rbx) at cfa-24
  DW_CFA_advance_loc2: 1388 to 000000000094d985
  DW_CFA_def_cfa: r7 (rsp) ofs 8
  DW_CFA_nop
  DW_CFA_nop

0000b728 000000000000001c 0000b72c FDE cie=00000000 pc=000000000094d986..000000000094d9b2
  DW_CFA_advance_loc: 1 to 000000000094d987
  DW_CFA_def_cfa_offset: 16
  DW_CFA_offset: r6 (rbp) at cfa-16
  DW_CFA_advance_loc: 3 to 000000000094d98a
  DW_CFA_def_cfa_register: r6 (rbp)
  DW_CFA_advance_loc: 39 to 000000000094d9b1
  DW_CFA_def_cfa: r7 (rsp) ofs 8
  DW_CFA_nop
  DW_CFA_nop
  DW_CFA_nop

0000b748 000000000000001c 0000b74c FDE cie=00000000 pc=000000000094d9b2..000000000094df4d
  DW_CFA_advance_loc: 1 to 000000000094d9b3
  DW_CFA_def_cfa_offset: 16
  DW_CFA_offset: r6 (rbp) at cfa-16
  DW_CFA_advance_loc: 3 to 000000000094d9b6
  DW_CFA_def_cfa_register: r6 (rbp)
  DW_CFA_advance_loc2: 1430 to 000000000094df4c
  DW_CFA_def_cfa: r7 (rsp) ofs 8
  DW_CFA_nop

0000b768 000000000000001c 0000b76c FDE cie=00000000 pc=000000000094df4d..000000000094e42e
  DW_CFA_advance_loc: 1 to 000000000094df4e
  DW_CFA_def_cfa_offset: 16
  DW_CFA_offset: r6 (rbp) at cfa-16
  DW_CFA_advance_loc: 3 to 000000000094df51
  DW_CFA_def_cfa_register: r6 (rbp)
  DW_CFA_advance_loc2: 1244 to 000000000094e42d
  DW_CFA_def_cfa: r7 (rsp) ofs 8
  DW_CFA_nop

0000b788 000000000000001c 0000b78c FDE cie=00000000 pc=000000000094e42e..000000000094e483
  DW_CFA_advance_loc: 1 to 000000000094e42f
  DW_CFA_def_cfa_offset: 16
  DW_CFA_offset: r6 (rbp) at cfa-16
  DW_CFA_advance_loc: 3 to 000000000094e432
  DW_CFA_def_cfa_register: r6 (rbp)
  DW_CFA_advance_loc1: 80 to 000000000094e482
  DW_CFA_def_cfa: r7 (rsp) ofs 8
  DW_CFA_nop
  DW_CFA_nop

0000b7a8 000000000000001c 0000b7ac FDE cie=00000000 pc=000000000094e483..000000000094ecaa
  DW_CFA_advance_loc: 1 to 000000000094e484
  DW_CFA_def_cfa_offset: 16
  DW_CFA_offset: r6 (rbp) at cfa-16
  DW_CFA_advance_loc: 3 to 000000000094e487
  DW_CFA_def_cfa_register: r6 (rbp)
  DW_CFA_advance_loc2: 2082 to 000000000094eca9
  DW_CFA_def_cfa: r7 (rsp) ofs 8
  DW_CFA_nop

0000b7c8 000000000000001c 0000b7cc FDE cie=00000000 pc=000000000094ecaa..000000000094eeb3
  DW_CFA_advance_loc: 1 to 000000000094ecab
  DW_CFA_def_cfa_offset: 16
  DW_CFA_offset: r6 (rbp) at cfa-16
  DW_CFA_advance_loc: 3 to 000000000094ecae
  DW_CFA_def_cfa_register: r6 (rbp)
  DW_CFA_advance_loc2: 516 to 000000000094eeb2
  DW_CFA_def_cfa: r7 (rsp) ofs 8
  DW_CFA_nop

0000b7e8 000000000000001c 0000b7ec FDE cie=00000000 pc=000000000094eeb3..000000000094ef43
  DW_CFA_advance_loc: 1 to 000000000094eeb4
  DW_CFA_def_cfa_offset: 16
  DW_CFA_offset: r6 (rbp) at cfa-16
  DW_CFA_advance_loc: 3 to 000000000094eeb7
  DW_CFA_def_cfa_register: r6 (rbp)
  DW_CFA_advance_loc1: 139 to 000000000094ef42
  DW_CFA_def_cfa: r7 (rsp) ofs 8
  DW_CFA_nop
  DW_CFA_nop

0000b808 000000000000001c 0000b80c FDE cie=00000000 pc=000000000094ef43..000000000094efe9
  DW_CFA_advance_loc: 1 to 000000000094ef44
  DW_CFA_def_cfa_offset: 16
  DW_CFA_offset: r6 (rbp) at cfa-16
  DW_CFA_advance_loc: 3 to 000000000094ef47
  DW_CFA_def_cfa_register: r6 (rbp)
  DW_CFA_advance_loc1: 161 to 000000000094efe8
  DW_CFA_def_cfa: r7 (rsp) ofs 8
  DW_CFA_nop
  DW_CFA_nop

0000b828 000000000000001c 0000b82c FDE cie=00000000 pc=000000000094efe9..000000000094f2c9
  DW_CFA_advance_loc: 1 to 000000000094efea
  DW_CFA_def_cfa_offset: 16
  DW_CFA_offset: r6 (rbp) at cfa-16
  DW_CFA_advance_loc: 3 to 000000000094efed
  DW_CFA_def_cfa_register: r6 (rbp)
  DW_CFA_advance_loc2: 731 to 000000000094f2c8
  DW_CFA_def_cfa: r7 (rsp) ofs 8
  DW_CFA_nop

0000b848 000000000000001c 0000b84c FDE cie=00000000 pc=000000000094f2c9..000000000094f52c
  DW_CFA_advance_loc: 1 to 000000000094f2ca
  DW_CFA_def_cfa_offset: 16
  DW_CFA_offset: r6 (rbp) at cfa-16
  DW_CFA_advance_loc: 3 to 000000000094f2cd
  DW_CFA_def_cfa_register: r6 (rbp)
  DW_CFA_advance_loc2: 606 to 000000000094f52b
  DW_CFA_def_cfa: r7 (rsp) ofs 8
  DW_CFA_nop

0000b868 000000000000001c 0000b86c FDE cie=00000000 pc=000000000094f52c..000000000094f6c9
  DW_CFA_advance_loc: 1 to 000000000094f52d
  DW_CFA_def_cfa_offset: 16
  DW_CFA_offset: r6 (rbp) at cfa-16
  DW_CFA_advance_loc: 3 to 000000000094f530
  DW_CFA_def_cfa_register: r6 (rbp)
  DW_CFA_advance_loc2: 408 to 000000000094f6c8
  DW_CFA_def_cfa: r7 (rsp) ofs 8
  DW_CFA_nop

0000b888 000000000000001c 0000b88c FDE cie=00000000 pc=000000000094f6c9..000000000094f930
  DW_CFA_advance_loc: 1 to 000000000094f6ca
  DW_CFA_def_cfa_offset: 16
  DW_CFA_offset: r6 (rbp) at cfa-16
  DW_CFA_advance_loc: 3 to 000000000094f6cd
  DW_CFA_def_cfa_register: r6 (rbp)
  DW_CFA_advance_loc2: 610 to 000000000094f92f
  DW_CFA_def_cfa: r7 (rsp) ofs 8
  DW_CFA_nop

0000b8a8 000000000000001c 0000b8ac FDE cie=00000000 pc=000000000094f930..000000000094f94e
  DW_CFA_advance_loc: 1 to 000000000094f931
  DW_CFA_def_cfa_offset: 16
  DW_CFA_offset: r6 (rbp) at cfa-16
  DW_CFA_advance_loc: 3 to 000000000094f934
  DW_CFA_def_cfa_register: r6 (rbp)
  DW_CFA_advance_loc: 25 to 000000000094f94d
  DW_CFA_def_cfa: r7 (rsp) ofs 8
  DW_CFA_nop
  DW_CFA_nop
  DW_CFA_nop

0000b8c8 000000000000001c 0000b8cc FDE cie=00000000 pc=000000000094f94e..000000000094f9ea
  DW_CFA_advance_loc: 1 to 000000000094f94f
  DW_CFA_def_cfa_offset: 16
  DW_CFA_offset: r6 (rbp) at cfa-16
  DW_CFA_advance_loc: 3 to 000000000094f952
  DW_CFA_def_cfa_register: r6 (rbp)
  DW_CFA_advance_loc1: 151 to 000000000094f9e9
  DW_CFA_def_cfa: r7 (rsp) ofs 8
  DW_CFA_nop
  DW_CFA_nop

0000b8e8 000000000000001c 0000b8ec FDE cie=00000000 pc=000000000094f9ea..000000000094fa44
  DW_CFA_advance_loc: 1 to 000000000094f9eb
  DW_CFA_def_cfa_offset: 16
  DW_CFA_offset: r6 (rbp) at cfa-16
  DW_CFA_advance_loc: 3 to 000000000094f9ee
  DW_CFA_def_cfa_register: r6 (rbp)
  DW_CFA_advance_loc1: 85 to 000000000094fa43
  DW_CFA_def_cfa: r7 (rsp) ofs 8
  DW_CFA_nop
  DW_CFA_nop

0000b908 000000000000001c 0000b90c FDE cie=00000000 pc=000000000094fa44..000000000094fb24
  DW_CFA_advance_loc: 1 to 000000000094fa45
  DW_CFA_def_cfa_offset: 16
  DW_CFA_offset: r6 (rbp) at cfa-16
  DW_CFA_advance_loc: 3 to 000000000094fa48
  DW_CFA_def_cfa_register: r6 (rbp)
  DW_CFA_advance_loc1: 219 to 000000000094fb23
  DW_CFA_def_cfa: r7 (rsp) ofs 8
  DW_CFA_nop
  DW_CFA_nop

0000b928 000000000000001c 0000b92c FDE cie=00000000 pc=000000000094fb24..000000000094fc30
  DW_CFA_advance_loc: 1 to 000000000094fb25
  DW_CFA_def_cfa_offset: 16
  DW_CFA_offset: r6 (rbp) at cfa-16
  DW_CFA_advance_loc: 3 to 000000000094fb28
  DW_CFA_def_cfa_register: r6 (rbp)
  DW_CFA_advance_loc2: 263 to 000000000094fc2f
  DW_CFA_def_cfa: r7 (rsp) ofs 8
  DW_CFA_nop

0000b948 000000000000001c 0000b94c FDE cie=00000000 pc=000000000094fc30..0000000000950e75
  DW_CFA_advance_loc: 1 to 000000000094fc31
  DW_CFA_def_cfa_offset: 16
  DW_CFA_offset: r6 (rbp) at cfa-16
  DW_CFA_advance_loc: 3 to 000000000094fc34
  DW_CFA_def_cfa_register: r6 (rbp)
  DW_CFA_advance_loc2: 4672 to 0000000000950e74
  DW_CFA_def_cfa: r7 (rsp) ofs 8
  DW_CFA_nop

0000b968 000000000000001c 0000b96c FDE cie=00000000 pc=0000000000950e75..0000000000950f1a
  DW_CFA_advance_loc: 1 to 0000000000950e76
  DW_CFA_def_cfa_offset: 16
  DW_CFA_offset: r6 (rbp) at cfa-16
  DW_CFA_advance_loc: 3 to 0000000000950e79
  DW_CFA_def_cfa_register: r6 (rbp)
  DW_CFA_advance_loc1: 160 to 0000000000950f19
  DW_CFA_def_cfa: r7 (rsp) ofs 8
  DW_CFA_nop
  DW_CFA_nop

0000b988 000000000000001c 0000b98c FDE cie=00000000 pc=0000000000950f1a..0000000000950f29
  DW_CFA_advance_loc: 1 to 0000000000950f1b
  DW_CFA_def_cfa_offset: 16
  DW_CFA_offset: r6 (rbp) at cfa-16
  DW_CFA_advance_loc: 3 to 0000000000950f1e
  DW_CFA_def_cfa_register: r6 (rbp)
  DW_CFA_advance_loc: 10 to 0000000000950f28
  DW_CFA_def_cfa: r7 (rsp) ofs 8
  DW_CFA_nop
  DW_CFA_nop
  DW_CFA_nop

0000b9a8 000000000000001c 0000b9ac FDE cie=00000000 pc=0000000000950f29..0000000000950f34
  DW_CFA_advance_loc: 1 to 0000000000950f2a
  DW_CFA_def_cfa_offset: 16
  DW_CFA_offset: r6 (rbp) at cfa-16
  DW_CFA_advance_loc: 3 to 0000000000950f2d
  DW_CFA_def_cfa_register: r6 (rbp)
  DW_CFA_advance_loc: 6 to 0000000000950f33
  DW_CFA_def_cfa: r7 (rsp) ofs 8
  DW_CFA_nop
  DW_CFA_nop
  DW_CFA_nop

0000b9c8 000000000000001c 0000b9cc FDE cie=00000000 pc=0000000000950f34..0000000000951095
  DW_CFA_advance_loc: 1 to 0000000000950f35
  DW_CFA_def_cfa_offset: 16
  DW_CFA_offset: r6 (rbp) at cfa-16
  DW_CFA_advance_loc: 3 to 0000000000950f38
  DW_CFA_def_cfa_register: r6 (rbp)
  DW_CFA_advance_loc2: 348 to 0000000000951094
  DW_CFA_def_cfa: r7 (rsp) ofs 8
  DW_CFA_nop

0000b9e8 0000000000000020 0000b9ec FDE cie=00000000 pc=0000000000951095..00000000009510fa
  DW_CFA_advance_loc: 1 to 0000000000951096
  DW_CFA_def_cfa_offset: 16
  DW_CFA_offset: r6 (rbp) at cfa-16
  DW_CFA_advance_loc: 3 to 0000000000951099
  DW_CFA_def_cfa_register: r6 (rbp)
  DW_CFA_advance_loc: 1 to 000000000095109a
  DW_CFA_offset: r3 (rbx) at cfa-24
  DW_CFA_advance_loc1: 95 to 00000000009510f9
  DW_CFA_def_cfa: r7 (rsp) ofs 8
  DW_CFA_nop
  DW_CFA_nop
  DW_CFA_nop

0000ba0c 000000000000001c 0000ba10 FDE cie=00000000 pc=00000000009510fa..0000000000951143
  DW_CFA_advance_loc: 1 to 00000000009510fb
  DW_CFA_def_cfa_offset: 16
  DW_CFA_offset: r6 (rbp) at cfa-16
  DW_CFA_advance_loc: 3 to 00000000009510fe
  DW_CFA_def_cfa_register: r6 (rbp)
  DW_CFA_advance_loc1: 68 to 0000000000951142
  DW_CFA_def_cfa: r7 (rsp) ofs 8
  DW_CFA_nop
  DW_CFA_nop

0000ba2c 000000000000001c 0000ba30 FDE cie=00000000 pc=0000000000951143..0000000000951219
  DW_CFA_advance_loc: 1 to 0000000000951144
  DW_CFA_def_cfa_offset: 16
  DW_CFA_offset: r6 (rbp) at cfa-16
  DW_CFA_advance_loc: 3 to 0000000000951147
  DW_CFA_def_cfa_register: r6 (rbp)
  DW_CFA_advance_loc1: 209 to 0000000000951218
  DW_CFA_def_cfa: r7 (rsp) ofs 8
  DW_CFA_nop
  DW_CFA_nop

0000ba4c 000000000000001c 0000ba50 FDE cie=00000000 pc=0000000000951219..0000000000951389
  DW_CFA_advance_loc: 1 to 000000000095121a
  DW_CFA_def_cfa_offset: 16
  DW_CFA_offset: r6 (rbp) at cfa-16
  DW_CFA_advance_loc: 3 to 000000000095121d
  DW_CFA_def_cfa_register: r6 (rbp)
  DW_CFA_advance_loc2: 363 to 0000000000951388
  DW_CFA_def_cfa: r7 (rsp) ofs 8
  DW_CFA_nop

0000ba6c 000000000000001c 0000ba70 FDE cie=00000000 pc=0000000000951389..00000000009513fc
  DW_CFA_advance_loc: 1 to 000000000095138a
  DW_CFA_def_cfa_offset: 16
  DW_CFA_offset: r6 (rbp) at cfa-16
  DW_CFA_advance_loc: 3 to 000000000095138d
  DW_CFA_def_cfa_register: r6 (rbp)
  DW_CFA_advance_loc1: 110 to 00000000009513fb
  DW_CFA_def_cfa: r7 (rsp) ofs 8
  DW_CFA_nop
  DW_CFA_nop

0000ba8c 000000000000001c 0000ba90 FDE cie=00000000 pc=00000000009513fc..00000000009514bb
  DW_CFA_advance_loc: 1 to 00000000009513fd
  DW_CFA_def_cfa_offset: 16
  DW_CFA_offset: r6 (rbp) at cfa-16
  DW_CFA_advance_loc: 3 to 0000000000951400
  DW_CFA_def_cfa_register: r6 (rbp)
  DW_CFA_advance_loc1: 186 to 00000000009514ba
  DW_CFA_def_cfa: r7 (rsp) ofs 8
  DW_CFA_nop
  DW_CFA_nop

0000baac 000000000000001c 0000bab0 FDE cie=00000000 pc=00000000009514bb..0000000000951507
  DW_CFA_advance_loc: 1 to 00000000009514bc
  DW_CFA_def_cfa_offset: 16
  DW_CFA_offset: r6 (rbp) at cfa-16
  DW_CFA_advance_loc: 3 to 00000000009514bf
  DW_CFA_def_cfa_register: r6 (rbp)
  DW_CFA_advance_loc1: 71 to 0000000000951506
  DW_CFA_def_cfa: r7 (rsp) ofs 8
  DW_CFA_nop
  DW_CFA_nop

0000bacc 000000000000001c 0000bad0 FDE cie=00000000 pc=0000000000951507..00000000009515fa
  DW_CFA_advance_loc: 1 to 0000000000951508
  DW_CFA_def_cfa_offset: 16
  DW_CFA_offset: r6 (rbp) at cfa-16
  DW_CFA_advance_loc: 3 to 000000000095150b
  DW_CFA_def_cfa_register: r6 (rbp)
  DW_CFA_advance_loc1: 238 to 00000000009515f9
  DW_CFA_def_cfa: r7 (rsp) ofs 8
  DW_CFA_nop
  DW_CFA_nop

0000baec 000000000000001c 0000baf0 FDE cie=00000000 pc=00000000009515fa..0000000000951663
  DW_CFA_advance_loc: 1 to 00000000009515fb
  DW_CFA_def_cfa_offset: 16
  DW_CFA_offset: r6 (rbp) at cfa-16
  DW_CFA_advance_loc: 3 to 00000000009515fe
  DW_CFA_def_cfa_register: r6 (rbp)
  DW_CFA_advance_loc1: 100 to 0000000000951662
  DW_CFA_def_cfa: r7 (rsp) ofs 8
  DW_CFA_nop
  DW_CFA_nop

0000bb0c 000000000000001c 0000bb10 FDE cie=00000000 pc=0000000000951663..00000000009517e8
  DW_CFA_advance_loc: 1 to 0000000000951664
  DW_CFA_def_cfa_offset: 16
  DW_CFA_offset: r6 (rbp) at cfa-16
  DW_CFA_advance_loc: 3 to 0000000000951667
  DW_CFA_def_cfa_register: r6 (rbp)
  DW_CFA_advance_loc2: 384 to 00000000009517e7
  DW_CFA_def_cfa: r7 (rsp) ofs 8
  DW_CFA_nop

0000bb2c 000000000000001c 0000bb30 FDE cie=00000000 pc=00000000009517e8..0000000000951874
  DW_CFA_advance_loc: 1 to 00000000009517e9
  DW_CFA_def_cfa_offset: 16
  DW_CFA_offset: r6 (rbp) at cfa-16
  DW_CFA_advance_loc: 3 to 00000000009517ec
  DW_CFA_def_cfa_register: r6 (rbp)
  DW_CFA_advance_loc1: 135 to 0000000000951873
  DW_CFA_def_cfa: r7 (rsp) ofs 8
  DW_CFA_nop
  DW_CFA_nop

0000bb4c 000000000000001c 0000bb50 FDE cie=00000000 pc=0000000000951874..0000000000951948
  DW_CFA_advance_loc: 1 to 0000000000951875
  DW_CFA_def_cfa_offset: 16
  DW_CFA_offset: r6 (rbp) at cfa-16
  DW_CFA_advance_loc: 3 to 0000000000951878
  DW_CFA_def_cfa_register: r6 (rbp)
  DW_CFA_advance_loc1: 207 to 0000000000951947
  DW_CFA_def_cfa: r7 (rsp) ofs 8
  DW_CFA_nop
  DW_CFA_nop

0000bb6c 000000000000001c 0000bb70 FDE cie=00000000 pc=0000000000951948..0000000000951a08
  DW_CFA_advance_loc: 1 to 0000000000951949
  DW_CFA_def_cfa_offset: 16
  DW_CFA_offset: r6 (rbp) at cfa-16
  DW_CFA_advance_loc: 3 to 000000000095194c
  DW_CFA_def_cfa_register: r6 (rbp)
  DW_CFA_advance_loc1: 187 to 0000000000951a07
  DW_CFA_def_cfa: r7 (rsp) ofs 8
  DW_CFA_nop
  DW_CFA_nop

0000bb8c 000000000000001c 0000bb90 FDE cie=00000000 pc=0000000000951a08..0000000000951e34
  DW_CFA_advance_loc: 1 to 0000000000951a09
  DW_CFA_def_cfa_offset: 16
  DW_CFA_offset: r6 (rbp) at cfa-16
  DW_CFA_advance_loc: 3 to 0000000000951a0c
  DW_CFA_def_cfa_register: r6 (rbp)
  DW_CFA_advance_loc2: 1063 to 0000000000951e33
  DW_CFA_def_cfa: r7 (rsp) ofs 8
  DW_CFA_nop

0000bbac 000000000000001c 0000bbb0 FDE cie=00000000 pc=0000000000951e34..0000000000954fbf
  DW_CFA_advance_loc: 1 to 0000000000951e35
  DW_CFA_def_cfa_offset: 16
  DW_CFA_offset: r6 (rbp) at cfa-16
  DW_CFA_advance_loc: 3 to 0000000000951e38
  DW_CFA_def_cfa_register: r6 (rbp)
  DW_CFA_advance_loc2: 12678 to 0000000000954fbe
  DW_CFA_def_cfa: r7 (rsp) ofs 8
  DW_CFA_nop

0000bbcc 000000000000001c 0000bbd0 FDE cie=00000000 pc=0000000000954fbf..0000000000955f8b
  DW_CFA_advance_loc: 1 to 0000000000954fc0
  DW_CFA_def_cfa_offset: 16
  DW_CFA_offset: r6 (rbp) at cfa-16
  DW_CFA_advance_loc: 3 to 0000000000954fc3
  DW_CFA_def_cfa_register: r6 (rbp)
  DW_CFA_advance_loc2: 4039 to 0000000000955f8a
  DW_CFA_def_cfa: r7 (rsp) ofs 8
  DW_CFA_nop

0000bbec 000000000000001c 0000bbf0 FDE cie=00000000 pc=0000000000955f8b..0000000000955fd5
  DW_CFA_advance_loc: 1 to 0000000000955f8c
  DW_CFA_def_cfa_offset: 16
  DW_CFA_offset: r6 (rbp) at cfa-16
  DW_CFA_advance_loc: 3 to 0000000000955f8f
  DW_CFA_def_cfa_register: r6 (rbp)
  DW_CFA_advance_loc1: 69 to 0000000000955fd4
  DW_CFA_def_cfa: r7 (rsp) ofs 8
  DW_CFA_nop
  DW_CFA_nop

0000bc0c 000000000000001c 0000bc10 FDE cie=00000000 pc=0000000000955fd5..0000000000955fec
  DW_CFA_advance_loc: 1 to 0000000000955fd6
  DW_CFA_def_cfa_offset: 16
  DW_CFA_offset: r6 (rbp) at cfa-16
  DW_CFA_advance_loc: 3 to 0000000000955fd9
  DW_CFA_def_cfa_register: r6 (rbp)
  DW_CFA_advance_loc: 18 to 0000000000955feb
  DW_CFA_def_cfa: r7 (rsp) ofs 8
  DW_CFA_nop
  DW_CFA_nop
  DW_CFA_nop

0000bc2c 000000000000001c 0000bc30 FDE cie=00000000 pc=0000000000955fec..0000000000956026
  DW_CFA_advance_loc: 1 to 0000000000955fed
  DW_CFA_def_cfa_offset: 16
  DW_CFA_offset: r6 (rbp) at cfa-16
  DW_CFA_advance_loc: 3 to 0000000000955ff0
  DW_CFA_def_cfa_register: r6 (rbp)
  DW_CFA_advance_loc: 53 to 0000000000956025
  DW_CFA_def_cfa: r7 (rsp) ofs 8
  DW_CFA_nop
  DW_CFA_nop
  DW_CFA_nop

0000bc4c 000000000000001c 0000bc50 FDE cie=00000000 pc=0000000000956026..000000000095609e
  DW_CFA_advance_loc: 1 to 0000000000956027
  DW_CFA_def_cfa_offset: 16
  DW_CFA_offset: r6 (rbp) at cfa-16
  DW_CFA_advance_loc: 3 to 000000000095602a
  DW_CFA_def_cfa_register: r6 (rbp)
  DW_CFA_advance_loc1: 115 to 000000000095609d
  DW_CFA_def_cfa: r7 (rsp) ofs 8
  DW_CFA_nop
  DW_CFA_nop

0000bc6c 000000000000001c 0000bc70 FDE cie=00000000 pc=000000000095609e..00000000009560f7
  DW_CFA_advance_loc: 1 to 000000000095609f
  DW_CFA_def_cfa_offset: 16
  DW_CFA_offset: r6 (rbp) at cfa-16
  DW_CFA_advance_loc: 3 to 00000000009560a2
  DW_CFA_def_cfa_register: r6 (rbp)
  DW_CFA_advance_loc1: 84 to 00000000009560f6
  DW_CFA_def_cfa: r7 (rsp) ofs 8
  DW_CFA_nop
  DW_CFA_nop

0000bc8c 000000000000001c 0000bc90 FDE cie=00000000 pc=00000000009560f7..0000000000956191
  DW_CFA_advance_loc: 1 to 00000000009560f8
  DW_CFA_def_cfa_offset: 16
  DW_CFA_offset: r6 (rbp) at cfa-16
  DW_CFA_advance_loc: 3 to 00000000009560fb
  DW_CFA_def_cfa_register: r6 (rbp)
  DW_CFA_advance_loc1: 149 to 0000000000956190
  DW_CFA_def_cfa: r7 (rsp) ofs 8
  DW_CFA_nop
  DW_CFA_nop

0000bcac 000000000000001c 0000bcb0 FDE cie=00000000 pc=0000000000956191..00000000009561e8
  DW_CFA_advance_loc: 1 to 0000000000956192
  DW_CFA_def_cfa_offset: 16
  DW_CFA_offset: r6 (rbp) at cfa-16
  DW_CFA_advance_loc: 3 to 0000000000956195
  DW_CFA_def_cfa_register: r6 (rbp)
  DW_CFA_advance_loc1: 82 to 00000000009561e7
  DW_CFA_def_cfa: r7 (rsp) ofs 8
  DW_CFA_nop
  DW_CFA_nop

0000bccc 000000000000001c 0000bcd0 FDE cie=00000000 pc=00000000009561e8..0000000000956238
  DW_CFA_advance_loc: 1 to 00000000009561e9
  DW_CFA_def_cfa_offset: 16
  DW_CFA_offset: r6 (rbp) at cfa-16
  DW_CFA_advance_loc: 3 to 00000000009561ec
  DW_CFA_def_cfa_register: r6 (rbp)
  DW_CFA_advance_loc1: 75 to 0000000000956237
  DW_CFA_def_cfa: r7 (rsp) ofs 8
  DW_CFA_nop
  DW_CFA_nop

0000bcec 000000000000001c 0000bcf0 FDE cie=00000000 pc=0000000000956238..000000000095628b
  DW_CFA_advance_loc: 1 to 0000000000956239
  DW_CFA_def_cfa_offset: 16
  DW_CFA_offset: r6 (rbp) at cfa-16
  DW_CFA_advance_loc: 3 to 000000000095623c
  DW_CFA_def_cfa_register: r6 (rbp)
  DW_CFA_advance_loc1: 78 to 000000000095628a
  DW_CFA_def_cfa: r7 (rsp) ofs 8
  DW_CFA_nop
  DW_CFA_nop

0000bd0c 0000000000000020 0000bd10 FDE cie=00000000 pc=000000000095628b..0000000000956367
  DW_CFA_advance_loc: 1 to 000000000095628c
  DW_CFA_def_cfa_offset: 16
  DW_CFA_offset: r6 (rbp) at cfa-16
  DW_CFA_advance_loc: 3 to 000000000095628f
  DW_CFA_def_cfa_register: r6 (rbp)
  DW_CFA_advance_loc: 5 to 0000000000956294
  DW_CFA_offset: r3 (rbx) at cfa-24
  DW_CFA_advance_loc1: 210 to 0000000000956366
  DW_CFA_def_cfa: r7 (rsp) ofs 8
  DW_CFA_nop
  DW_CFA_nop
  DW_CFA_nop

0000bd30 000000000000001c 0000bd34 FDE cie=00000000 pc=0000000000956367..0000000000956456
  DW_CFA_advance_loc: 1 to 0000000000956368
  DW_CFA_def_cfa_offset: 16
  DW_CFA_offset: r6 (rbp) at cfa-16
  DW_CFA_advance_loc: 3 to 000000000095636b
  DW_CFA_def_cfa_register: r6 (rbp)
  DW_CFA_advance_loc1: 234 to 0000000000956455
  DW_CFA_def_cfa: r7 (rsp) ofs 8
  DW_CFA_nop
  DW_CFA_nop

0000bd50 000000000000001c 0000bd54 FDE cie=00000000 pc=0000000000956456..0000000000956611
  DW_CFA_advance_loc: 1 to 0000000000956457
  DW_CFA_def_cfa_offset: 16
  DW_CFA_offset: r6 (rbp) at cfa-16
  DW_CFA_advance_loc: 3 to 000000000095645a
  DW_CFA_def_cfa_register: r6 (rbp)
  DW_CFA_advance_loc2: 438 to 0000000000956610
  DW_CFA_def_cfa: r7 (rsp) ofs 8
  DW_CFA_nop

0000bd70 000000000000001c 0000bd74 FDE cie=00000000 pc=0000000000956611..0000000000956642
  DW_CFA_advance_loc: 1 to 0000000000956612
  DW_CFA_def_cfa_offset: 16
  DW_CFA_offset: r6 (rbp) at cfa-16
  DW_CFA_advance_loc: 3 to 0000000000956615
  DW_CFA_def_cfa_register: r6 (rbp)
  DW_CFA_advance_loc: 44 to 0000000000956641
  DW_CFA_def_cfa: r7 (rsp) ofs 8
  DW_CFA_nop
  DW_CFA_nop
  DW_CFA_nop

0000bd90 000000000000001c 0000bd94 FDE cie=00000000 pc=0000000000956642..0000000000956673
  DW_CFA_advance_loc: 1 to 0000000000956643
  DW_CFA_def_cfa_offset: 16
  DW_CFA_offset: r6 (rbp) at cfa-16
  DW_CFA_advance_loc: 3 to 0000000000956646
  DW_CFA_def_cfa_register: r6 (rbp)
  DW_CFA_advance_loc: 44 to 0000000000956672
  DW_CFA_def_cfa: r7 (rsp) ofs 8
  DW_CFA_nop
  DW_CFA_nop
  DW_CFA_nop

0000bdb0 000000000000001c 0000bdb4 FDE cie=00000000 pc=0000000000956673..000000000095669c
  DW_CFA_advance_loc: 1 to 0000000000956674
  DW_CFA_def_cfa_offset: 16
  DW_CFA_offset: r6 (rbp) at cfa-16
  DW_CFA_advance_loc: 3 to 0000000000956677
  DW_CFA_def_cfa_register: r6 (rbp)
  DW_CFA_advance_loc: 36 to 000000000095669b
  DW_CFA_def_cfa: r7 (rsp) ofs 8
  DW_CFA_nop
  DW_CFA_nop
  DW_CFA_nop

0000bdd0 000000000000001c 0000bdd4 FDE cie=00000000 pc=000000000095669c..00000000009566ed
  DW_CFA_advance_loc: 1 to 000000000095669d
  DW_CFA_def_cfa_offset: 16
  DW_CFA_offset: r6 (rbp) at cfa-16
  DW_CFA_advance_loc: 3 to 00000000009566a0
  DW_CFA_def_cfa_register: r6 (rbp)
  DW_CFA_advance_loc1: 76 to 00000000009566ec
  DW_CFA_def_cfa: r7 (rsp) ofs 8
  DW_CFA_nop
  DW_CFA_nop

0000bdf0 000000000000001c 0000bdf4 FDE cie=00000000 pc=00000000009566ed..000000000095679c
  DW_CFA_advance_loc: 1 to 00000000009566ee
  DW_CFA_def_cfa_offset: 16
  DW_CFA_offset: r6 (rbp) at cfa-16
  DW_CFA_advance_loc: 3 to 00000000009566f1
  DW_CFA_def_cfa_register: r6 (rbp)
  DW_CFA_advance_loc1: 170 to 000000000095679b
  DW_CFA_def_cfa: r7 (rsp) ofs 8
  DW_CFA_nop
  DW_CFA_nop

0000be10 000000000000001c 0000be14 FDE cie=00000000 pc=000000000095679c..0000000000956804
  DW_CFA_advance_loc: 1 to 000000000095679d
  DW_CFA_def_cfa_offset: 16
  DW_CFA_offset: r6 (rbp) at cfa-16
  DW_CFA_advance_loc: 3 to 00000000009567a0
  DW_CFA_def_cfa_register: r6 (rbp)
  DW_CFA_advance_loc1: 99 to 0000000000956803
  DW_CFA_def_cfa: r7 (rsp) ofs 8
  DW_CFA_nop
  DW_CFA_nop

0000be30 0000000000000020 0000be34 FDE cie=00000000 pc=0000000000956804..000000000095685c
  DW_CFA_advance_loc: 1 to 0000000000956805
  DW_CFA_def_cfa_offset: 16
  DW_CFA_offset: r6 (rbp) at cfa-16
  DW_CFA_advance_loc: 3 to 0000000000956808
  DW_CFA_def_cfa_register: r6 (rbp)
  DW_CFA_advance_loc: 3 to 000000000095680b
  DW_CFA_offset: r12 (r12) at cfa-24
  DW_CFA_offset: r3 (rbx) at cfa-32
  DW_CFA_advance_loc1: 80 to 000000000095685b
  DW_CFA_def_cfa: r7 (rsp) ofs 8
  DW_CFA_nop

0000be54 000000000000001c 0000be58 FDE cie=00000000 pc=000000000095685c..00000000009569c8
  DW_CFA_advance_loc: 1 to 000000000095685d
  DW_CFA_def_cfa_offset: 16
  DW_CFA_offset: r6 (rbp) at cfa-16
  DW_CFA_advance_loc: 3 to 0000000000956860
  DW_CFA_def_cfa_register: r6 (rbp)
  DW_CFA_advance_loc2: 359 to 00000000009569c7
  DW_CFA_def_cfa: r7 (rsp) ofs 8
  DW_CFA_nop

0000be74 000000000000001c 0000be78 FDE cie=00000000 pc=00000000009569c8..0000000000956af5
  DW_CFA_advance_loc: 1 to 00000000009569c9
  DW_CFA_def_cfa_offset: 16
  DW_CFA_offset: r6 (rbp) at cfa-16
  DW_CFA_advance_loc: 3 to 00000000009569cc
  DW_CFA_def_cfa_register: r6 (rbp)
  DW_CFA_advance_loc2: 296 to 0000000000956af4
  DW_CFA_def_cfa: r7 (rsp) ofs 8
  DW_CFA_nop

0000be94 000000000000001c 0000be98 FDE cie=00000000 pc=0000000000956af5..0000000000956beb
  DW_CFA_advance_loc: 1 to 0000000000956af6
  DW_CFA_def_cfa_offset: 16
  DW_CFA_offset: r6 (rbp) at cfa-16
  DW_CFA_advance_loc: 3 to 0000000000956af9
  DW_CFA_def_cfa_register: r6 (rbp)
  DW_CFA_advance_loc1: 241 to 0000000000956bea
  DW_CFA_def_cfa: r7 (rsp) ofs 8
  DW_CFA_nop
  DW_CFA_nop

0000beb4 000000000000001c 0000beb8 FDE cie=00000000 pc=0000000000956beb..0000000000956d00
  DW_CFA_advance_loc: 1 to 0000000000956bec
  DW_CFA_def_cfa_offset: 16
  DW_CFA_offset: r6 (rbp) at cfa-16
  DW_CFA_advance_loc: 3 to 0000000000956bef
  DW_CFA_def_cfa_register: r6 (rbp)
  DW_CFA_advance_loc2: 272 to 0000000000956cff
  DW_CFA_def_cfa: r7 (rsp) ofs 8
  DW_CFA_nop

0000bed4 0000000000000020 0000bed8 FDE cie=00000000 pc=0000000000956d00..0000000000956e5b
  DW_CFA_advance_loc: 1 to 0000000000956d01
  DW_CFA_def_cfa_offset: 16
  DW_CFA_offset: r6 (rbp) at cfa-16
  DW_CFA_advance_loc: 3 to 0000000000956d04
  DW_CFA_def_cfa_register: r6 (rbp)
  DW_CFA_advance_loc: 5 to 0000000000956d09
  DW_CFA_offset: r3 (rbx) at cfa-24
  DW_CFA_advance_loc2: 337 to 0000000000956e5a
  DW_CFA_def_cfa: r7 (rsp) ofs 8
  DW_CFA_nop
  DW_CFA_nop

0000bef8 0000000000000020 0000befc FDE cie=00000000 pc=0000000000956e5b..0000000000956f70
  DW_CFA_advance_loc: 1 to 0000000000956e5c
  DW_CFA_def_cfa_offset: 16
  DW_CFA_offset: r6 (rbp) at cfa-16
  DW_CFA_advance_loc: 3 to 0000000000956e5f
  DW_CFA_def_cfa_register: r6 (rbp)
  DW_CFA_advance_loc: 5 to 0000000000956e64
  DW_CFA_offset: r3 (rbx) at cfa-24
  DW_CFA_advance_loc2: 267 to 0000000000956f6f
  DW_CFA_def_cfa: r7 (rsp) ofs 8
  DW_CFA_nop
  DW_CFA_nop

0000bf1c 0000000000000020 0000bf20 FDE cie=00000000 pc=0000000000956f70..00000000009570fb
  DW_CFA_advance_loc: 1 to 0000000000956f71
  DW_CFA_def_cfa_offset: 16
  DW_CFA_offset: r6 (rbp) at cfa-16
  DW_CFA_advance_loc: 3 to 0000000000956f74
  DW_CFA_def_cfa_register: r6 (rbp)
  DW_CFA_advance_loc: 5 to 0000000000956f79
  DW_CFA_offset: r3 (rbx) at cfa-24
  DW_CFA_advance_loc2: 385 to 00000000009570fa
  DW_CFA_def_cfa: r7 (rsp) ofs 8
  DW_CFA_nop
  DW_CFA_nop

0000bf40 0000000000000020 0000bf44 FDE cie=00000000 pc=00000000009570fb..00000000009571df
  DW_CFA_advance_loc: 1 to 00000000009570fc
  DW_CFA_def_cfa_offset: 16
  DW_CFA_offset: r6 (rbp) at cfa-16
  DW_CFA_advance_loc: 3 to 00000000009570ff
  DW_CFA_def_cfa_register: r6 (rbp)
  DW_CFA_advance_loc: 5 to 0000000000957104
  DW_CFA_offset: r3 (rbx) at cfa-24
  DW_CFA_advance_loc1: 218 to 00000000009571de
  DW_CFA_def_cfa: r7 (rsp) ofs 8
  DW_CFA_nop
  DW_CFA_nop
  DW_CFA_nop

0000bf64 000000000000001c 0000bf68 FDE cie=00000000 pc=00000000009571df..0000000000957254
  DW_CFA_advance_loc: 1 to 00000000009571e0
  DW_CFA_def_cfa_offset: 16
  DW_CFA_offset: r6 (rbp) at cfa-16
  DW_CFA_advance_loc: 3 to 00000000009571e3
  DW_CFA_def_cfa_register: r6 (rbp)
  DW_CFA_advance_loc1: 112 to 0000000000957253
  DW_CFA_def_cfa: r7 (rsp) ofs 8
  DW_CFA_nop
  DW_CFA_nop

0000bf84 000000000000001c 0000bf88 FDE cie=00000000 pc=0000000000957254..00000000009573cd
  DW_CFA_advance_loc: 1 to 0000000000957255
  DW_CFA_def_cfa_offset: 16
  DW_CFA_offset: r6 (rbp) at cfa-16
  DW_CFA_advance_loc: 3 to 0000000000957258
  DW_CFA_def_cfa_register: r6 (rbp)
  DW_CFA_advance_loc2: 372 to 00000000009573cc
  DW_CFA_def_cfa: r7 (rsp) ofs 8
  DW_CFA_nop

0000bfa4 000000000000001c 0000bfa8 FDE cie=00000000 pc=00000000009573cd..00000000009574b0
  DW_CFA_advance_loc: 1 to 00000000009573ce
  DW_CFA_def_cfa_offset: 16
  DW_CFA_offset: r6 (rbp) at cfa-16
  DW_CFA_advance_loc: 3 to 00000000009573d1
  DW_CFA_def_cfa_register: r6 (rbp)
  DW_CFA_advance_loc1: 222 to 00000000009574af
  DW_CFA_def_cfa: r7 (rsp) ofs 8
  DW_CFA_nop
  DW_CFA_nop

0000bfc4 000000000000001c 0000bfc8 FDE cie=00000000 pc=00000000009574b0..000000000095753d
  DW_CFA_advance_loc: 1 to 00000000009574b1
  DW_CFA_def_cfa_offset: 16
  DW_CFA_offset: r6 (rbp) at cfa-16
  DW_CFA_advance_loc: 3 to 00000000009574b4
  DW_CFA_def_cfa_register: r6 (rbp)
  DW_CFA_advance_loc1: 136 to 000000000095753c
  DW_CFA_def_cfa: r7 (rsp) ofs 8
  DW_CFA_nop
  DW_CFA_nop

0000bfe4 0000000000000020 0000bfe8 FDE cie=00000000 pc=000000000095753d..00000000009575d1
  DW_CFA_advance_loc: 1 to 000000000095753e
  DW_CFA_def_cfa_offset: 16
  DW_CFA_offset: r6 (rbp) at cfa-16
  DW_CFA_advance_loc: 3 to 0000000000957541
  DW_CFA_def_cfa_register: r6 (rbp)
  DW_CFA_advance_loc: 1 to 0000000000957542
  DW_CFA_offset: r3 (rbx) at cfa-24
  DW_CFA_advance_loc1: 142 to 00000000009575d0
  DW_CFA_def_cfa: r7 (rsp) ofs 8
  DW_CFA_nop
  DW_CFA_nop
  DW_CFA_nop

0000c008 000000000000001c 0000c00c FDE cie=00000000 pc=00000000009575d1..00000000009576d3
  DW_CFA_advance_loc: 1 to 00000000009575d2
  DW_CFA_def_cfa_offset: 16
  DW_CFA_offset: r6 (rbp) at cfa-16
  DW_CFA_advance_loc: 3 to 00000000009575d5
  DW_CFA_def_cfa_register: r6 (rbp)
  DW_CFA_advance_loc1: 253 to 00000000009576d2
  DW_CFA_def_cfa: r7 (rsp) ofs 8
  DW_CFA_nop
  DW_CFA_nop

0000c028 000000000000001c 0000c02c FDE cie=00000000 pc=00000000009576d3..000000000095771b
  DW_CFA_advance_loc: 1 to 00000000009576d4
  DW_CFA_def_cfa_offset: 16
  DW_CFA_offset: r6 (rbp) at cfa-16
  DW_CFA_advance_loc: 3 to 00000000009576d7
  DW_CFA_def_cfa_register: r6 (rbp)
  DW_CFA_advance_loc1: 67 to 000000000095771a
  DW_CFA_def_cfa: r7 (rsp) ofs 8
  DW_CFA_nop
  DW_CFA_nop

0000c048 000000000000001c 0000c04c FDE cie=00000000 pc=000000000095771b..00000000009577f9
  DW_CFA_advance_loc: 1 to 000000000095771c
  DW_CFA_def_cfa_offset: 16
  DW_CFA_offset: r6 (rbp) at cfa-16
  DW_CFA_advance_loc: 3 to 000000000095771f
  DW_CFA_def_cfa_register: r6 (rbp)
  DW_CFA_advance_loc1: 217 to 00000000009577f8
  DW_CFA_def_cfa: r7 (rsp) ofs 8
  DW_CFA_nop
  DW_CFA_nop

0000c068 000000000000001c 0000c06c FDE cie=00000000 pc=00000000009577f9..00000000009578c4
  DW_CFA_advance_loc: 1 to 00000000009577fa
  DW_CFA_def_cfa_offset: 16
  DW_CFA_offset: r6 (rbp) at cfa-16
  DW_CFA_advance_loc: 3 to 00000000009577fd
  DW_CFA_def_cfa_register: r6 (rbp)
  DW_CFA_advance_loc1: 198 to 00000000009578c3
  DW_CFA_def_cfa: r7 (rsp) ofs 8
  DW_CFA_nop
  DW_CFA_nop

0000c088 000000000000001c 0000c08c FDE cie=00000000 pc=00000000009578c4..0000000000957910
  DW_CFA_advance_loc: 1 to 00000000009578c5
  DW_CFA_def_cfa_offset: 16
  DW_CFA_offset: r6 (rbp) at cfa-16
  DW_CFA_advance_loc: 3 to 00000000009578c8
  DW_CFA_def_cfa_register: r6 (rbp)
  DW_CFA_advance_loc1: 71 to 000000000095790f
  DW_CFA_def_cfa: r7 (rsp) ofs 8
  DW_CFA_nop
  DW_CFA_nop

0000c0a8 000000000000001c 0000c0ac FDE cie=00000000 pc=0000000000957910..0000000000957c25
  DW_CFA_advance_loc: 1 to 0000000000957911
  DW_CFA_def_cfa_offset: 16
  DW_CFA_offset: r6 (rbp) at cfa-16
  DW_CFA_advance_loc: 3 to 0000000000957914
  DW_CFA_def_cfa_register: r6 (rbp)
  DW_CFA_advance_loc2: 784 to 0000000000957c24
  DW_CFA_def_cfa: r7 (rsp) ofs 8
  DW_CFA_nop

0000c0c8 000000000000001c 0000c0cc FDE cie=00000000 pc=0000000000957c25..0000000000957d2b
  DW_CFA_advance_loc: 1 to 0000000000957c26
  DW_CFA_def_cfa_offset: 16
  DW_CFA_offset: r6 (rbp) at cfa-16
  DW_CFA_advance_loc: 3 to 0000000000957c29
  DW_CFA_def_cfa_register: r6 (rbp)
  DW_CFA_advance_loc2: 257 to 0000000000957d2a
  DW_CFA_def_cfa: r7 (rsp) ofs 8
  DW_CFA_nop

0000c0e8 000000000000001c 0000c0ec FDE cie=00000000 pc=0000000000957d2b..0000000000957d7c
  DW_CFA_advance_loc: 1 to 0000000000957d2c
  DW_CFA_def_cfa_offset: 16
  DW_CFA_offset: r6 (rbp) at cfa-16
  DW_CFA_advance_loc: 3 to 0000000000957d2f
  DW_CFA_def_cfa_register: r6 (rbp)
  DW_CFA_advance_loc1: 76 to 0000000000957d7b
  DW_CFA_def_cfa: r7 (rsp) ofs 8
  DW_CFA_nop
  DW_CFA_nop

0000c108 000000000000001c 0000c10c FDE cie=00000000 pc=0000000000957d7c..0000000000957e67
  DW_CFA_advance_loc: 1 to 0000000000957d7d
  DW_CFA_def_cfa_offset: 16
  DW_CFA_offset: r6 (rbp) at cfa-16
  DW_CFA_advance_loc: 3 to 0000000000957d80
  DW_CFA_def_cfa_register: r6 (rbp)
  DW_CFA_advance_loc1: 230 to 0000000000957e66
  DW_CFA_def_cfa: r7 (rsp) ofs 8
  DW_CFA_nop
  DW_CFA_nop

0000c128 000000000000001c 0000c12c FDE cie=00000000 pc=0000000000957e67..0000000000957fb9
  DW_CFA_advance_loc: 1 to 0000000000957e68
  DW_CFA_def_cfa_offset: 16
  DW_CFA_offset: r6 (rbp) at cfa-16
  DW_CFA_advance_loc: 3 to 0000000000957e6b
  DW_CFA_def_cfa_register: r6 (rbp)
  DW_CFA_advance_loc2: 333 to 0000000000957fb8
  DW_CFA_def_cfa: r7 (rsp) ofs 8
  DW_CFA_nop

0000c148 000000000000001c 0000c14c FDE cie=00000000 pc=0000000000957fb9..0000000000958028
  DW_CFA_advance_loc: 1 to 0000000000957fba
  DW_CFA_def_cfa_offset: 16
  DW_CFA_offset: r6 (rbp) at cfa-16
  DW_CFA_advance_loc: 3 to 0000000000957fbd
  DW_CFA_def_cfa_register: r6 (rbp)
  DW_CFA_advance_loc1: 106 to 0000000000958027
  DW_CFA_def_cfa: r7 (rsp) ofs 8
  DW_CFA_nop
  DW_CFA_nop

0000c168 000000000000001c 0000c16c FDE cie=00000000 pc=0000000000958028..000000000095806a
  DW_CFA_advance_loc: 1 to 0000000000958029
  DW_CFA_def_cfa_offset: 16
  DW_CFA_offset: r6 (rbp) at cfa-16
  DW_CFA_advance_loc: 3 to 000000000095802c
  DW_CFA_def_cfa_register: r6 (rbp)
  DW_CFA_advance_loc: 61 to 0000000000958069
  DW_CFA_def_cfa: r7 (rsp) ofs 8
  DW_CFA_nop
  DW_CFA_nop
  DW_CFA_nop

0000c188 000000000000001c 0000c18c FDE cie=00000000 pc=000000000095806a..0000000000958079
  DW_CFA_advance_loc: 1 to 000000000095806b
  DW_CFA_def_cfa_offset: 16
  DW_CFA_offset: r6 (rbp) at cfa-16
  DW_CFA_advance_loc: 3 to 000000000095806e
  DW_CFA_def_cfa_register: r6 (rbp)
  DW_CFA_advance_loc: 10 to 0000000000958078
  DW_CFA_def_cfa: r7 (rsp) ofs 8
  DW_CFA_nop
  DW_CFA_nop
  DW_CFA_nop

0000c1a8 0000000000000018 0000c1ac FDE cie=00000000 pc=0000000000958079..00000000009580af
  DW_CFA_advance_loc: 1 to 000000000095807a
  DW_CFA_def_cfa_offset: 16
  DW_CFA_offset: r6 (rbp) at cfa-16
  DW_CFA_advance_loc: 3 to 000000000095807d
  DW_CFA_def_cfa_register: r6 (rbp)
  DW_CFA_nop
  DW_CFA_nop
  DW_CFA_nop

0000c1c4 000000000000001c 0000c1c8 FDE cie=00000000 pc=00000000009580af..0000000000958267
  DW_CFA_advance_loc: 1 to 00000000009580b0
  DW_CFA_def_cfa_offset: 16
  DW_CFA_offset: r6 (rbp) at cfa-16
  DW_CFA_advance_loc: 3 to 00000000009580b3
  DW_CFA_def_cfa_register: r6 (rbp)
  DW_CFA_advance_loc2: 435 to 0000000000958266
  DW_CFA_def_cfa: r7 (rsp) ofs 8
  DW_CFA_nop

0000c1e4 000000000000001c 0000c1e8 FDE cie=00000000 pc=0000000000958267..00000000009582b9
  DW_CFA_advance_loc: 1 to 0000000000958268
  DW_CFA_def_cfa_offset: 16
  DW_CFA_offset: r6 (rbp) at cfa-16
  DW_CFA_advance_loc: 3 to 000000000095826b
  DW_CFA_def_cfa_register: r6 (rbp)
  DW_CFA_advance_loc1: 77 to 00000000009582b8
  DW_CFA_def_cfa: r7 (rsp) ofs 8
  DW_CFA_nop
  DW_CFA_nop

0000c204 000000000000001c 0000c208 FDE cie=00000000 pc=00000000009582b9..00000000009583da
  DW_CFA_advance_loc: 1 to 00000000009582ba
  DW_CFA_def_cfa_offset: 16
  DW_CFA_offset: r6 (rbp) at cfa-16
  DW_CFA_advance_loc: 3 to 00000000009582bd
  DW_CFA_def_cfa_register: r6 (rbp)
  DW_CFA_advance_loc2: 284 to 00000000009583d9
  DW_CFA_def_cfa: r7 (rsp) ofs 8
  DW_CFA_nop

0000c224 000000000000001c 0000c228 FDE cie=00000000 pc=00000000009583da..000000000095847b
  DW_CFA_advance_loc: 1 to 00000000009583db
  DW_CFA_def_cfa_offset: 16
  DW_CFA_offset: r6 (rbp) at cfa-16
  DW_CFA_advance_loc: 3 to 00000000009583de
  DW_CFA_def_cfa_register: r6 (rbp)
  DW_CFA_advance_loc1: 156 to 000000000095847a
  DW_CFA_def_cfa: r7 (rsp) ofs 8
  DW_CFA_nop
  DW_CFA_nop

0000c244 000000000000001c 0000c248 FDE cie=00000000 pc=000000000095847b..00000000009584a9
  DW_CFA_advance_loc: 1 to 000000000095847c
  DW_CFA_def_cfa_offset: 16
  DW_CFA_offset: r6 (rbp) at cfa-16
  DW_CFA_advance_loc: 3 to 000000000095847f
  DW_CFA_def_cfa_register: r6 (rbp)
  DW_CFA_advance_loc: 41 to 00000000009584a8
  DW_CFA_def_cfa: r7 (rsp) ofs 8
  DW_CFA_nop
  DW_CFA_nop
  DW_CFA_nop

0000c264 000000000000001c 0000c268 FDE cie=00000000 pc=00000000009584a9..000000000095858e
  DW_CFA_advance_loc: 1 to 00000000009584aa
  DW_CFA_def_cfa_offset: 16
  DW_CFA_offset: r6 (rbp) at cfa-16
  DW_CFA_advance_loc: 3 to 00000000009584ad
  DW_CFA_def_cfa_register: r6 (rbp)
  DW_CFA_advance_loc1: 224 to 000000000095858d
  DW_CFA_def_cfa: r7 (rsp) ofs 8
  DW_CFA_nop
  DW_CFA_nop

0000c284 000000000000001c 0000c288 FDE cie=00000000 pc=000000000095858e..00000000009586be
  DW_CFA_advance_loc: 1 to 000000000095858f
  DW_CFA_def_cfa_offset: 16
  DW_CFA_offset: r6 (rbp) at cfa-16
  DW_CFA_advance_loc: 3 to 0000000000958592
  DW_CFA_def_cfa_register: r6 (rbp)
  DW_CFA_advance_loc2: 299 to 00000000009586bd
  DW_CFA_def_cfa: r7 (rsp) ofs 8
  DW_CFA_nop

0000c2a4 000000000000001c 0000c2a8 FDE cie=00000000 pc=00000000009586be..000000000095879d
  DW_CFA_advance_loc: 1 to 00000000009586bf
  DW_CFA_def_cfa_offset: 16
  DW_CFA_offset: r6 (rbp) at cfa-16
  DW_CFA_advance_loc: 3 to 00000000009586c2
  DW_CFA_def_cfa_register: r6 (rbp)
  DW_CFA_advance_loc1: 218 to 000000000095879c
  DW_CFA_def_cfa: r7 (rsp) ofs 8
  DW_CFA_nop
  DW_CFA_nop

0000c2c4 000000000000001c 0000c2c8 FDE cie=00000000 pc=000000000095879d..00000000009588fc
  DW_CFA_advance_loc: 1 to 000000000095879e
  DW_CFA_def_cfa_offset: 16
  DW_CFA_offset: r6 (rbp) at cfa-16
  DW_CFA_advance_loc: 3 to 00000000009587a1
  DW_CFA_def_cfa_register: r6 (rbp)
  DW_CFA_advance_loc2: 346 to 00000000009588fb
  DW_CFA_def_cfa: r7 (rsp) ofs 8
  DW_CFA_nop

0000c2e4 000000000000001c 0000c2e8 FDE cie=00000000 pc=00000000009588fc..00000000009589f6
  DW_CFA_advance_loc: 1 to 00000000009588fd
  DW_CFA_def_cfa_offset: 16
  DW_CFA_offset: r6 (rbp) at cfa-16
  DW_CFA_advance_loc: 3 to 0000000000958900
  DW_CFA_def_cfa_register: r6 (rbp)
  DW_CFA_advance_loc1: 245 to 00000000009589f5
  DW_CFA_def_cfa: r7 (rsp) ofs 8
  DW_CFA_nop
  DW_CFA_nop

0000c304 000000000000001c 0000c308 FDE cie=00000000 pc=00000000009589f6..0000000000958b54
  DW_CFA_advance_loc: 1 to 00000000009589f7
  DW_CFA_def_cfa_offset: 16
  DW_CFA_offset: r6 (rbp) at cfa-16
  DW_CFA_advance_loc: 3 to 00000000009589fa
  DW_CFA_def_cfa_register: r6 (rbp)
  DW_CFA_advance_loc2: 345 to 0000000000958b53
  DW_CFA_def_cfa: r7 (rsp) ofs 8
  DW_CFA_nop

0000c324 000000000000001c 0000c328 FDE cie=00000000 pc=0000000000958b54..0000000000958d51
  DW_CFA_advance_loc: 1 to 0000000000958b55
  DW_CFA_def_cfa_offset: 16
  DW_CFA_offset: r6 (rbp) at cfa-16
  DW_CFA_advance_loc: 3 to 0000000000958b58
  DW_CFA_def_cfa_register: r6 (rbp)
  DW_CFA_advance_loc2: 504 to 0000000000958d50
  DW_CFA_def_cfa: r7 (rsp) ofs 8
  DW_CFA_nop

0000c344 000000000000001c 0000c348 FDE cie=00000000 pc=0000000000958d51..0000000000959338
  DW_CFA_advance_loc: 1 to 0000000000958d52
  DW_CFA_def_cfa_offset: 16
  DW_CFA_offset: r6 (rbp) at cfa-16
  DW_CFA_advance_loc: 3 to 0000000000958d55
  DW_CFA_def_cfa_register: r6 (rbp)
  DW_CFA_advance_loc2: 1506 to 0000000000959337
  DW_CFA_def_cfa: r7 (rsp) ofs 8
  DW_CFA_nop

0000c364 000000000000001c 0000c368 FDE cie=00000000 pc=0000000000959338..000000000095939d
  DW_CFA_advance_loc: 1 to 0000000000959339
  DW_CFA_def_cfa_offset: 16
  DW_CFA_offset: r6 (rbp) at cfa-16
  DW_CFA_advance_loc: 3 to 000000000095933c
  DW_CFA_def_cfa_register: r6 (rbp)
  DW_CFA_advance_loc1: 96 to 000000000095939c
  DW_CFA_def_cfa: r7 (rsp) ofs 8
  DW_CFA_nop
  DW_CFA_nop

0000c384 000000000000001c 0000c388 FDE cie=00000000 pc=000000000095939d..0000000000959436
  DW_CFA_advance_loc: 1 to 000000000095939e
  DW_CFA_def_cfa_offset: 16
  DW_CFA_offset: r6 (rbp) at cfa-16
  DW_CFA_advance_loc: 3 to 00000000009593a1
  DW_CFA_def_cfa_register: r6 (rbp)
  DW_CFA_advance_loc1: 148 to 0000000000959435
  DW_CFA_def_cfa: r7 (rsp) ofs 8
  DW_CFA_nop
  DW_CFA_nop

0000c3a4 000000000000001c 0000c3a8 FDE cie=00000000 pc=0000000000959436..00000000009594df
  DW_CFA_advance_loc: 1 to 0000000000959437
  DW_CFA_def_cfa_offset: 16
  DW_CFA_offset: r6 (rbp) at cfa-16
  DW_CFA_advance_loc: 3 to 000000000095943a
  DW_CFA_def_cfa_register: r6 (rbp)
  DW_CFA_advance_loc1: 164 to 00000000009594de
  DW_CFA_def_cfa: r7 (rsp) ofs 8
  DW_CFA_nop
  DW_CFA_nop

0000c3c4 000000000000001c 0000c3c8 FDE cie=00000000 pc=00000000009594df..0000000000959666
  DW_CFA_advance_loc: 1 to 00000000009594e0
  DW_CFA_def_cfa_offset: 16
  DW_CFA_offset: r6 (rbp) at cfa-16
  DW_CFA_advance_loc: 3 to 00000000009594e3
  DW_CFA_def_cfa_register: r6 (rbp)
  DW_CFA_advance_loc2: 386 to 0000000000959665
  DW_CFA_def_cfa: r7 (rsp) ofs 8
  DW_CFA_nop

0000c3e4 000000000000001c 0000c3e8 FDE cie=00000000 pc=0000000000959666..00000000009596c2
  DW_CFA_advance_loc: 1 to 0000000000959667
  DW_CFA_def_cfa_offset: 16
  DW_CFA_offset: r6 (rbp) at cfa-16
  DW_CFA_advance_loc: 3 to 000000000095966a
  DW_CFA_def_cfa_register: r6 (rbp)
  DW_CFA_advance_loc1: 87 to 00000000009596c1
  DW_CFA_def_cfa: r7 (rsp) ofs 8
  DW_CFA_nop
  DW_CFA_nop

0000c404 000000000000001c 0000c408 FDE cie=00000000 pc=00000000009596c2..0000000000959813
  DW_CFA_advance_loc: 1 to 00000000009596c3
  DW_CFA_def_cfa_offset: 16
  DW_CFA_offset: r6 (rbp) at cfa-16
  DW_CFA_advance_loc: 3 to 00000000009596c6
  DW_CFA_def_cfa_register: r6 (rbp)
  DW_CFA_advance_loc2: 332 to 0000000000959812
  DW_CFA_def_cfa: r7 (rsp) ofs 8
  DW_CFA_nop

0000c424 000000000000001c 0000c428 FDE cie=00000000 pc=0000000000959813..00000000009598d6
  DW_CFA_advance_loc: 1 to 0000000000959814
  DW_CFA_def_cfa_offset: 16
  DW_CFA_offset: r6 (rbp) at cfa-16
  DW_CFA_advance_loc: 3 to 0000000000959817
  DW_CFA_def_cfa_register: r6 (rbp)
  DW_CFA_advance_loc1: 190 to 00000000009598d5
  DW_CFA_def_cfa: r7 (rsp) ofs 8
  DW_CFA_nop
  DW_CFA_nop

0000c444 000000000000001c 0000c448 FDE cie=00000000 pc=00000000009598d6..0000000000959b6e
  DW_CFA_advance_loc: 1 to 00000000009598d7
  DW_CFA_def_cfa_offset: 16
  DW_CFA_offset: r6 (rbp) at cfa-16
  DW_CFA_advance_loc: 3 to 00000000009598da
  DW_CFA_def_cfa_register: r6 (rbp)
  DW_CFA_advance_loc2: 659 to 0000000000959b6d
  DW_CFA_def_cfa: r7 (rsp) ofs 8
  DW_CFA_nop

0000c464 000000000000001c 0000c468 FDE cie=00000000 pc=0000000000959b6e..0000000000959be9
  DW_CFA_advance_loc: 1 to 0000000000959b6f
  DW_CFA_def_cfa_offset: 16
  DW_CFA_offset: r6 (rbp) at cfa-16
  DW_CFA_advance_loc: 3 to 0000000000959b72
  DW_CFA_def_cfa_register: r6 (rbp)
  DW_CFA_advance_loc1: 118 to 0000000000959be8
  DW_CFA_def_cfa: r7 (rsp) ofs 8
  DW_CFA_nop
  DW_CFA_nop

0000c484 000000000000001c 0000c488 FDE cie=00000000 pc=0000000000959be9..0000000000959c70
  DW_CFA_advance_loc: 1 to 0000000000959bea
  DW_CFA_def_cfa_offset: 16
  DW_CFA_offset: r6 (rbp) at cfa-16
  DW_CFA_advance_loc: 3 to 0000000000959bed
  DW_CFA_def_cfa_register: r6 (rbp)
  DW_CFA_advance_loc1: 130 to 0000000000959c6f
  DW_CFA_def_cfa: r7 (rsp) ofs 8
  DW_CFA_nop
  DW_CFA_nop

0000c4a4 000000000000001c 0000c4a8 FDE cie=00000000 pc=0000000000959c70..0000000000959ccf
  DW_CFA_advance_loc: 1 to 0000000000959c71
  DW_CFA_def_cfa_offset: 16
  DW_CFA_offset: r6 (rbp) at cfa-16
  DW_CFA_advance_loc: 3 to 0000000000959c74
  DW_CFA_def_cfa_register: r6 (rbp)
  DW_CFA_advance_loc1: 90 to 0000000000959cce
  DW_CFA_def_cfa: r7 (rsp) ofs 8
  DW_CFA_nop
  DW_CFA_nop

0000c4c4 000000000000001c 0000c4c8 FDE cie=00000000 pc=0000000000959ccf..0000000000959dbb
  DW_CFA_advance_loc: 1 to 0000000000959cd0
  DW_CFA_def_cfa_offset: 16
  DW_CFA_offset: r6 (rbp) at cfa-16
  DW_CFA_advance_loc: 3 to 0000000000959cd3
  DW_CFA_def_cfa_register: r6 (rbp)
  DW_CFA_advance_loc1: 231 to 0000000000959dba
  DW_CFA_def_cfa: r7 (rsp) ofs 8
  DW_CFA_nop
  DW_CFA_nop

0000c4e4 000000000000001c 0000c4e8 FDE cie=00000000 pc=0000000000959dbb..0000000000959f21
  DW_CFA_advance_loc: 1 to 0000000000959dbc
  DW_CFA_def_cfa_offset: 16
  DW_CFA_offset: r6 (rbp) at cfa-16
  DW_CFA_advance_loc: 3 to 0000000000959dbf
  DW_CFA_def_cfa_register: r6 (rbp)
  DW_CFA_advance_loc2: 353 to 0000000000959f20
  DW_CFA_def_cfa: r7 (rsp) ofs 8
  DW_CFA_nop

0000c504 000000000000001c 0000c508 FDE cie=00000000 pc=0000000000959f21..000000000095a17d
  DW_CFA_advance_loc: 1 to 0000000000959f22
  DW_CFA_def_cfa_offset: 16
  DW_CFA_offset: r6 (rbp) at cfa-16
  DW_CFA_advance_loc: 3 to 0000000000959f25
  DW_CFA_def_cfa_register: r6 (rbp)
  DW_CFA_advance_loc2: 599 to 000000000095a17c
  DW_CFA_def_cfa: r7 (rsp) ofs 8
  DW_CFA_nop

0000c524 000000000000001c 0000c528 FDE cie=00000000 pc=000000000095a17d..000000000095a319
  DW_CFA_advance_loc: 1 to 000000000095a17e
  DW_CFA_def_cfa_offset: 16
  DW_CFA_offset: r6 (rbp) at cfa-16
  DW_CFA_advance_loc: 3 to 000000000095a181
  DW_CFA_def_cfa_register: r6 (rbp)
  DW_CFA_advance_loc2: 407 to 000000000095a318
  DW_CFA_def_cfa: r7 (rsp) ofs 8
  DW_CFA_nop

0000c544 000000000000001c 0000c548 FDE cie=00000000 pc=000000000095a319..000000000095a866
  DW_CFA_advance_loc: 1 to 000000000095a31a
  DW_CFA_def_cfa_offset: 16
  DW_CFA_offset: r6 (rbp) at cfa-16
  DW_CFA_advance_loc: 3 to 000000000095a31d
  DW_CFA_def_cfa_register: r6 (rbp)
  DW_CFA_advance_loc2: 1352 to 000000000095a865
  DW_CFA_def_cfa: r7 (rsp) ofs 8
  DW_CFA_nop

0000c564 000000000000001c 0000c568 FDE cie=00000000 pc=000000000095a866..000000000095aa9b
  DW_CFA_advance_loc: 1 to 000000000095a867
  DW_CFA_def_cfa_offset: 16
  DW_CFA_offset: r6 (rbp) at cfa-16
  DW_CFA_advance_loc: 3 to 000000000095a86a
  DW_CFA_def_cfa_register: r6 (rbp)
  DW_CFA_advance_loc2: 560 to 000000000095aa9a
  DW_CFA_def_cfa: r7 (rsp) ofs 8
  DW_CFA_nop

0000c584 000000000000001c 0000c588 FDE cie=00000000 pc=000000000095aa9b..000000000095ac59
  DW_CFA_advance_loc: 1 to 000000000095aa9c
  DW_CFA_def_cfa_offset: 16
  DW_CFA_offset: r6 (rbp) at cfa-16
  DW_CFA_advance_loc: 3 to 000000000095aa9f
  DW_CFA_def_cfa_register: r6 (rbp)
  DW_CFA_advance_loc2: 441 to 000000000095ac58
  DW_CFA_def_cfa: r7 (rsp) ofs 8
  DW_CFA_nop

0000c5a4 000000000000001c 0000c5a8 FDE cie=00000000 pc=000000000095ac59..000000000095adf9
  DW_CFA_advance_loc: 1 to 000000000095ac5a
  DW_CFA_def_cfa_offset: 16
  DW_CFA_offset: r6 (rbp) at cfa-16
  DW_CFA_advance_loc: 3 to 000000000095ac5d
  DW_CFA_def_cfa_register: r6 (rbp)
  DW_CFA_advance_loc2: 411 to 000000000095adf8
  DW_CFA_def_cfa: r7 (rsp) ofs 8
  DW_CFA_nop

0000c5c4 000000000000001c 0000c5c8 FDE cie=00000000 pc=000000000095adf9..000000000095b09d
  DW_CFA_advance_loc: 1 to 000000000095adfa
  DW_CFA_def_cfa_offset: 16
  DW_CFA_offset: r6 (rbp) at cfa-16
  DW_CFA_advance_loc: 3 to 000000000095adfd
  DW_CFA_def_cfa_register: r6 (rbp)
  DW_CFA_advance_loc2: 671 to 000000000095b09c
  DW_CFA_def_cfa: r7 (rsp) ofs 8
  DW_CFA_nop

0000c5e4 000000000000001c 0000c5e8 FDE cie=00000000 pc=000000000095b09d..000000000095b14f
  DW_CFA_advance_loc: 1 to 000000000095b09e
  DW_CFA_def_cfa_offset: 16
  DW_CFA_offset: r6 (rbp) at cfa-16
  DW_CFA_advance_loc: 3 to 000000000095b0a1
  DW_CFA_def_cfa_register: r6 (rbp)
  DW_CFA_advance_loc1: 173 to 000000000095b14e
  DW_CFA_def_cfa: r7 (rsp) ofs 8
  DW_CFA_nop
  DW_CFA_nop

0000c604 000000000000001c 0000c608 FDE cie=00000000 pc=000000000095b14f..000000000095b7cf
  DW_CFA_advance_loc: 1 to 000000000095b150
  DW_CFA_def_cfa_offset: 16
  DW_CFA_offset: r6 (rbp) at cfa-16
  DW_CFA_advance_loc: 3 to 000000000095b153
  DW_CFA_def_cfa_register: r6 (rbp)
  DW_CFA_advance_loc2: 1659 to 000000000095b7ce
  DW_CFA_def_cfa: r7 (rsp) ofs 8
  DW_CFA_nop

0000c624 000000000000001c 0000c628 FDE cie=00000000 pc=000000000095b7cf..000000000095b83d
  DW_CFA_advance_loc: 1 to 000000000095b7d0
  DW_CFA_def_cfa_offset: 16
  DW_CFA_offset: r6 (rbp) at cfa-16
  DW_CFA_advance_loc: 3 to 000000000095b7d3
  DW_CFA_def_cfa_register: r6 (rbp)
  DW_CFA_advance_loc1: 105 to 000000000095b83c
  DW_CFA_def_cfa: r7 (rsp) ofs 8
  DW_CFA_nop
  DW_CFA_nop

0000c644 000000000000001c 0000c648 FDE cie=00000000 pc=000000000095b83d..000000000095b945
  DW_CFA_advance_loc: 1 to 000000000095b83e
  DW_CFA_def_cfa_offset: 16
  DW_CFA_offset: r6 (rbp) at cfa-16
  DW_CFA_advance_loc: 3 to 000000000095b841
  DW_CFA_def_cfa_register: r6 (rbp)
  DW_CFA_advance_loc2: 259 to 000000000095b944
  DW_CFA_def_cfa: r7 (rsp) ofs 8
  DW_CFA_nop

0000c664 000000000000001c 0000c668 FDE cie=00000000 pc=000000000095b945..000000000095b968
  DW_CFA_advance_loc: 1 to 000000000095b946
  DW_CFA_def_cfa_offset: 16
  DW_CFA_offset: r6 (rbp) at cfa-16
  DW_CFA_advance_loc: 3 to 000000000095b949
  DW_CFA_def_cfa_register: r6 (rbp)
  DW_CFA_advance_loc: 30 to 000000000095b967
  DW_CFA_def_cfa: r7 (rsp) ofs 8
  DW_CFA_nop
  DW_CFA_nop
  DW_CFA_nop

0000c684 000000000000001c 0000c688 FDE cie=00000000 pc=000000000095b968..000000000095ba5e
  DW_CFA_advance_loc: 1 to 000000000095b969
  DW_CFA_def_cfa_offset: 16
  DW_CFA_offset: r6 (rbp) at cfa-16
  DW_CFA_advance_loc: 3 to 000000000095b96c
  DW_CFA_def_cfa_register: r6 (rbp)
  DW_CFA_advance_loc1: 241 to 000000000095ba5d
  DW_CFA_def_cfa: r7 (rsp) ofs 8
  DW_CFA_nop
  DW_CFA_nop

0000c6a4 000000000000001c 0000c6a8 FDE cie=00000000 pc=000000000095ba5e..000000000095bc44
  DW_CFA_advance_loc: 1 to 000000000095ba5f
  DW_CFA_def_cfa_offset: 16
  DW_CFA_offset: r6 (rbp) at cfa-16
  DW_CFA_advance_loc: 3 to 000000000095ba62
  DW_CFA_def_cfa_register: r6 (rbp)
  DW_CFA_advance_loc2: 481 to 000000000095bc43
  DW_CFA_def_cfa: r7 (rsp) ofs 8
  DW_CFA_nop

0000c6c4 000000000000001c 0000c6c8 FDE cie=00000000 pc=000000000095bc44..000000000095bd7d
  DW_CFA_advance_loc: 1 to 000000000095bc45
  DW_CFA_def_cfa_offset: 16
  DW_CFA_offset: r6 (rbp) at cfa-16
  DW_CFA_advance_loc: 3 to 000000000095bc48
  DW_CFA_def_cfa_register: r6 (rbp)
  DW_CFA_advance_loc2: 308 to 000000000095bd7c
  DW_CFA_def_cfa: r7 (rsp) ofs 8
  DW_CFA_nop

0000c6e4 000000000000001c 0000c6e8 FDE cie=00000000 pc=000000000095bd7d..000000000095bf52
  DW_CFA_advance_loc: 1 to 000000000095bd7e
  DW_CFA_def_cfa_offset: 16
  DW_CFA_offset: r6 (rbp) at cfa-16
  DW_CFA_advance_loc: 3 to 000000000095bd81
  DW_CFA_def_cfa_register: r6 (rbp)
  DW_CFA_advance_loc2: 464 to 000000000095bf51
  DW_CFA_def_cfa: r7 (rsp) ofs 8
  DW_CFA_nop

0000c704 000000000000001c 0000c708 FDE cie=00000000 pc=000000000095bf52..000000000095c046
  DW_CFA_advance_loc: 1 to 000000000095bf53
  DW_CFA_def_cfa_offset: 16
  DW_CFA_offset: r6 (rbp) at cfa-16
  DW_CFA_advance_loc: 3 to 000000000095bf56
  DW_CFA_def_cfa_register: r6 (rbp)
  DW_CFA_advance_loc1: 239 to 000000000095c045
  DW_CFA_def_cfa: r7 (rsp) ofs 8
  DW_CFA_nop
  DW_CFA_nop

0000c724 000000000000001c 0000c728 FDE cie=00000000 pc=000000000095c046..000000000095c129
  DW_CFA_advance_loc: 1 to 000000000095c047
  DW_CFA_def_cfa_offset: 16
  DW_CFA_offset: r6 (rbp) at cfa-16
  DW_CFA_advance_loc: 3 to 000000000095c04a
  DW_CFA_def_cfa_register: r6 (rbp)
  DW_CFA_advance_loc1: 222 to 000000000095c128
  DW_CFA_def_cfa: r7 (rsp) ofs 8
  DW_CFA_nop
  DW_CFA_nop

0000c744 000000000000001c 0000c748 FDE cie=00000000 pc=000000000095c129..000000000095c26a
  DW_CFA_advance_loc: 1 to 000000000095c12a
  DW_CFA_def_cfa_offset: 16
  DW_CFA_offset: r6 (rbp) at cfa-16
  DW_CFA_advance_loc: 3 to 000000000095c12d
  DW_CFA_def_cfa_register: r6 (rbp)
  DW_CFA_advance_loc2: 316 to 000000000095c269
  DW_CFA_def_cfa: r7 (rsp) ofs 8
  DW_CFA_nop

0000c764 000000000000001c 0000c768 FDE cie=00000000 pc=000000000095c26a..000000000095c6ba
  DW_CFA_advance_loc: 1 to 000000000095c26b
  DW_CFA_def_cfa_offset: 16
  DW_CFA_offset: r6 (rbp) at cfa-16
  DW_CFA_advance_loc: 3 to 000000000095c26e
  DW_CFA_def_cfa_register: r6 (rbp)
  DW_CFA_advance_loc2: 1099 to 000000000095c6b9
  DW_CFA_def_cfa: r7 (rsp) ofs 8
  DW_CFA_nop

0000c784 000000000000001c 0000c788 FDE cie=00000000 pc=000000000095c6ba..000000000095c76e
  DW_CFA_advance_loc: 1 to 000000000095c6bb
  DW_CFA_def_cfa_offset: 16
  DW_CFA_offset: r6 (rbp) at cfa-16
  DW_CFA_advance_loc: 3 to 000000000095c6be
  DW_CFA_def_cfa_register: r6 (rbp)
  DW_CFA_advance_loc1: 175 to 000000000095c76d
  DW_CFA_def_cfa: r7 (rsp) ofs 8
  DW_CFA_nop
  DW_CFA_nop

0000c7a4 000000000000001c 0000c7a8 FDE cie=00000000 pc=000000000095c76e..000000000095c8af
  DW_CFA_advance_loc: 1 to 000000000095c76f
  DW_CFA_def_cfa_offset: 16
  DW_CFA_offset: r6 (rbp) at cfa-16
  DW_CFA_advance_loc: 3 to 000000000095c772
  DW_CFA_def_cfa_register: r6 (rbp)
  DW_CFA_advance_loc2: 316 to 000000000095c8ae
  DW_CFA_def_cfa: r7 (rsp) ofs 8
  DW_CFA_nop

0000c7c4 000000000000001c 0000c7c8 FDE cie=00000000 pc=000000000095c8af..000000000095c990
  DW_CFA_advance_loc: 1 to 000000000095c8b0
  DW_CFA_def_cfa_offset: 16
  DW_CFA_offset: r6 (rbp) at cfa-16
  DW_CFA_advance_loc: 3 to 000000000095c8b3
  DW_CFA_def_cfa_register: r6 (rbp)
  DW_CFA_advance_loc1: 220 to 000000000095c98f
  DW_CFA_def_cfa: r7 (rsp) ofs 8
  DW_CFA_nop
  DW_CFA_nop

0000c7e4 000000000000001c 0000c7e8 FDE cie=00000000 pc=000000000095c990..000000000095ca5b
  DW_CFA_advance_loc: 1 to 000000000095c991
  DW_CFA_def_cfa_offset: 16
  DW_CFA_offset: r6 (rbp) at cfa-16
  DW_CFA_advance_loc: 3 to 000000000095c994
  DW_CFA_def_cfa_register: r6 (rbp)
  DW_CFA_advance_loc1: 198 to 000000000095ca5a
  DW_CFA_def_cfa: r7 (rsp) ofs 8
  DW_CFA_nop
  DW_CFA_nop

0000c804 000000000000001c 0000c808 FDE cie=00000000 pc=000000000095ca5b..000000000095cc36
  DW_CFA_advance_loc: 1 to 000000000095ca5c
  DW_CFA_def_cfa_offset: 16
  DW_CFA_offset: r6 (rbp) at cfa-16
  DW_CFA_advance_loc: 3 to 000000000095ca5f
  DW_CFA_def_cfa_register: r6 (rbp)
  DW_CFA_advance_loc2: 470 to 000000000095cc35
  DW_CFA_def_cfa: r7 (rsp) ofs 8
  DW_CFA_nop

0000c824 000000000000001c 0000c828 FDE cie=00000000 pc=000000000095cc36..000000000095cd29
  DW_CFA_advance_loc: 1 to 000000000095cc37
  DW_CFA_def_cfa_offset: 16
  DW_CFA_offset: r6 (rbp) at cfa-16
  DW_CFA_advance_loc: 3 to 000000000095cc3a
  DW_CFA_def_cfa_register: r6 (rbp)
  DW_CFA_advance_loc1: 238 to 000000000095cd28
  DW_CFA_def_cfa: r7 (rsp) ofs 8
  DW_CFA_nop
  DW_CFA_nop

0000c844 000000000000001c 0000c848 FDE cie=00000000 pc=000000000095cd29..000000000095cdff
  DW_CFA_advance_loc: 1 to 000000000095cd2a
  DW_CFA_def_cfa_offset: 16
  DW_CFA_offset: r6 (rbp) at cfa-16
  DW_CFA_advance_loc: 3 to 000000000095cd2d
  DW_CFA_def_cfa_register: r6 (rbp)
  DW_CFA_advance_loc1: 209 to 000000000095cdfe
  DW_CFA_def_cfa: r7 (rsp) ofs 8
  DW_CFA_nop
  DW_CFA_nop

0000c864 000000000000001c 0000c868 FDE cie=00000000 pc=000000000095cdff..000000000095cecb
  DW_CFA_advance_loc: 1 to 000000000095ce00
  DW_CFA_def_cfa_offset: 16
  DW_CFA_offset: r6 (rbp) at cfa-16
  DW_CFA_advance_loc: 3 to 000000000095ce03
  DW_CFA_def_cfa_register: r6 (rbp)
  DW_CFA_advance_loc1: 199 to 000000000095ceca
  DW_CFA_def_cfa: r7 (rsp) ofs 8
  DW_CFA_nop
  DW_CFA_nop

0000c884 000000000000001c 0000c888 FDE cie=00000000 pc=000000000095cecb..000000000095cf3e
  DW_CFA_advance_loc: 1 to 000000000095cecc
  DW_CFA_def_cfa_offset: 16
  DW_CFA_offset: r6 (rbp) at cfa-16
  DW_CFA_advance_loc: 3 to 000000000095cecf
  DW_CFA_def_cfa_register: r6 (rbp)
  DW_CFA_advance_loc1: 110 to 000000000095cf3d
  DW_CFA_def_cfa: r7 (rsp) ofs 8
  DW_CFA_nop
  DW_CFA_nop

0000c8a4 000000000000001c 0000c8a8 FDE cie=00000000 pc=000000000095cf3e..000000000095cfac
  DW_CFA_advance_loc: 1 to 000000000095cf3f
  DW_CFA_def_cfa_offset: 16
  DW_CFA_offset: r6 (rbp) at cfa-16
  DW_CFA_advance_loc: 3 to 000000000095cf42
  DW_CFA_def_cfa_register: r6 (rbp)
  DW_CFA_advance_loc1: 105 to 000000000095cfab
  DW_CFA_def_cfa: r7 (rsp) ofs 8
  DW_CFA_nop
  DW_CFA_nop

0000c8c4 000000000000001c 0000c8c8 FDE cie=00000000 pc=000000000095cfac..000000000095d18e
  DW_CFA_advance_loc: 1 to 000000000095cfad
  DW_CFA_def_cfa_offset: 16
  DW_CFA_offset: r6 (rbp) at cfa-16
  DW_CFA_advance_loc: 3 to 000000000095cfb0
  DW_CFA_def_cfa_register: r6 (rbp)
  DW_CFA_advance_loc2: 477 to 000000000095d18d
  DW_CFA_def_cfa: r7 (rsp) ofs 8
  DW_CFA_nop

0000c8e4 000000000000001c 0000c8e8 FDE cie=00000000 pc=000000000095d18e..000000000095d371
  DW_CFA_advance_loc: 1 to 000000000095d18f
  DW_CFA_def_cfa_offset: 16
  DW_CFA_offset: r6 (rbp) at cfa-16
  DW_CFA_advance_loc: 3 to 000000000095d192
  DW_CFA_def_cfa_register: r6 (rbp)
  DW_CFA_advance_loc2: 478 to 000000000095d370
  DW_CFA_def_cfa: r7 (rsp) ofs 8
  DW_CFA_nop

0000c904 000000000000001c 0000c908 FDE cie=00000000 pc=000000000095d371..000000000095d3d3
  DW_CFA_advance_loc: 1 to 000000000095d372
  DW_CFA_def_cfa_offset: 16
  DW_CFA_offset: r6 (rbp) at cfa-16
  DW_CFA_advance_loc: 3 to 000000000095d375
  DW_CFA_def_cfa_register: r6 (rbp)
  DW_CFA_advance_loc1: 93 to 000000000095d3d2
  DW_CFA_def_cfa: r7 (rsp) ofs 8
  DW_CFA_nop
  DW_CFA_nop

0000c924 000000000000001c 0000c928 FDE cie=00000000 pc=000000000095d3d3..000000000095d494
  DW_CFA_advance_loc: 1 to 000000000095d3d4
  DW_CFA_def_cfa_offset: 16
  DW_CFA_offset: r6 (rbp) at cfa-16
  DW_CFA_advance_loc: 3 to 000000000095d3d7
  DW_CFA_def_cfa_register: r6 (rbp)
  DW_CFA_advance_loc1: 188 to 000000000095d493
  DW_CFA_def_cfa: r7 (rsp) ofs 8
  DW_CFA_nop
  DW_CFA_nop

0000c944 000000000000001c 0000c948 FDE cie=00000000 pc=000000000095d494..000000000095d56c
  DW_CFA_advance_loc: 1 to 000000000095d495
  DW_CFA_def_cfa_offset: 16
  DW_CFA_offset: r6 (rbp) at cfa-16
  DW_CFA_advance_loc: 3 to 000000000095d498
  DW_CFA_def_cfa_register: r6 (rbp)
  DW_CFA_advance_loc1: 211 to 000000000095d56b
  DW_CFA_def_cfa: r7 (rsp) ofs 8
  DW_CFA_nop
  DW_CFA_nop

0000c964 000000000000001c 0000c968 FDE cie=00000000 pc=000000000095d56c..000000000095d60f
  DW_CFA_advance_loc: 1 to 000000000095d56d
  DW_CFA_def_cfa_offset: 16
  DW_CFA_offset: r6 (rbp) at cfa-16
  DW_CFA_advance_loc: 3 to 000000000095d570
  DW_CFA_def_cfa_register: r6 (rbp)
  DW_CFA_advance_loc1: 158 to 000000000095d60e
  DW_CFA_def_cfa: r7 (rsp) ofs 8
  DW_CFA_nop
  DW_CFA_nop

0000c984 000000000000001c 0000c988 FDE cie=00000000 pc=000000000095d60f..000000000095d67c
  DW_CFA_advance_loc: 1 to 000000000095d610
  DW_CFA_def_cfa_offset: 16
  DW_CFA_offset: r6 (rbp) at cfa-16
  DW_CFA_advance_loc: 3 to 000000000095d613
  DW_CFA_def_cfa_register: r6 (rbp)
  DW_CFA_advance_loc1: 104 to 000000000095d67b
  DW_CFA_def_cfa: r7 (rsp) ofs 8
  DW_CFA_nop
  DW_CFA_nop

0000c9a4 000000000000001c 0000c9a8 FDE cie=00000000 pc=000000000095d67c..000000000095d6eb
  DW_CFA_advance_loc: 1 to 000000000095d67d
  DW_CFA_def_cfa_offset: 16
  DW_CFA_offset: r6 (rbp) at cfa-16
  DW_CFA_advance_loc: 3 to 000000000095d680
  DW_CFA_def_cfa_register: r6 (rbp)
  DW_CFA_advance_loc1: 106 to 000000000095d6ea
  DW_CFA_def_cfa: r7 (rsp) ofs 8
  DW_CFA_nop
  DW_CFA_nop

0000c9c4 000000000000001c 0000c9c8 FDE cie=00000000 pc=000000000095d6eb..000000000095d765
  DW_CFA_advance_loc: 1 to 000000000095d6ec
  DW_CFA_def_cfa_offset: 16
  DW_CFA_offset: r6 (rbp) at cfa-16
  DW_CFA_advance_loc: 3 to 000000000095d6ef
  DW_CFA_def_cfa_register: r6 (rbp)
  DW_CFA_advance_loc1: 117 to 000000000095d764
  DW_CFA_def_cfa: r7 (rsp) ofs 8
  DW_CFA_nop
  DW_CFA_nop

0000c9e4 000000000000001c 0000c9e8 FDE cie=00000000 pc=000000000095d765..000000000095d7df
  DW_CFA_advance_loc: 1 to 000000000095d766
  DW_CFA_def_cfa_offset: 16
  DW_CFA_offset: r6 (rbp) at cfa-16
  DW_CFA_advance_loc: 3 to 000000000095d769
  DW_CFA_def_cfa_register: r6 (rbp)
  DW_CFA_advance_loc1: 117 to 000000000095d7de
  DW_CFA_def_cfa: r7 (rsp) ofs 8
  DW_CFA_nop
  DW_CFA_nop

0000ca04 000000000000001c 0000ca08 FDE cie=00000000 pc=000000000095d7df..000000000095d93b
  DW_CFA_advance_loc: 1 to 000000000095d7e0
  DW_CFA_def_cfa_offset: 16
  DW_CFA_offset: r6 (rbp) at cfa-16
  DW_CFA_advance_loc: 3 to 000000000095d7e3
  DW_CFA_def_cfa_register: r6 (rbp)
  DW_CFA_advance_loc2: 343 to 000000000095d93a
  DW_CFA_def_cfa: r7 (rsp) ofs 8
  DW_CFA_nop

0000ca24 000000000000001c 0000ca28 FDE cie=00000000 pc=000000000095d93b..000000000095dac7
  DW_CFA_advance_loc: 1 to 000000000095d93c
  DW_CFA_def_cfa_offset: 16
  DW_CFA_offset: r6 (rbp) at cfa-16
  DW_CFA_advance_loc: 3 to 000000000095d93f
  DW_CFA_def_cfa_register: r6 (rbp)
  DW_CFA_advance_loc2: 391 to 000000000095dac6
  DW_CFA_def_cfa: r7 (rsp) ofs 8
  DW_CFA_nop

0000ca44 000000000000001c 0000ca48 FDE cie=00000000 pc=000000000095dac7..000000000095dc14
  DW_CFA_advance_loc: 1 to 000000000095dac8
  DW_CFA_def_cfa_offset: 16
  DW_CFA_offset: r6 (rbp) at cfa-16
  DW_CFA_advance_loc: 3 to 000000000095dacb
  DW_CFA_def_cfa_register: r6 (rbp)
  DW_CFA_advance_loc2: 328 to 000000000095dc13
  DW_CFA_def_cfa: r7 (rsp) ofs 8
  DW_CFA_nop

0000ca64 000000000000001c 0000ca68 FDE cie=00000000 pc=000000000095dc14..000000000095dcee
  DW_CFA_advance_loc: 1 to 000000000095dc15
  DW_CFA_def_cfa_offset: 16
  DW_CFA_offset: r6 (rbp) at cfa-16
  DW_CFA_advance_loc: 3 to 000000000095dc18
  DW_CFA_def_cfa_register: r6 (rbp)
  DW_CFA_advance_loc1: 213 to 000000000095dced
  DW_CFA_def_cfa: r7 (rsp) ofs 8
  DW_CFA_nop
  DW_CFA_nop

0000ca84 000000000000001c 0000ca88 FDE cie=00000000 pc=000000000095dcee..000000000095dde1
  DW_CFA_advance_loc: 1 to 000000000095dcef
  DW_CFA_def_cfa_offset: 16
  DW_CFA_offset: r6 (rbp) at cfa-16
  DW_CFA_advance_loc: 3 to 000000000095dcf2
  DW_CFA_def_cfa_register: r6 (rbp)
  DW_CFA_advance_loc1: 238 to 000000000095dde0
  DW_CFA_def_cfa: r7 (rsp) ofs 8
  DW_CFA_nop
  DW_CFA_nop

0000caa4 000000000000001c 0000caa8 FDE cie=00000000 pc=000000000095dde1..000000000095decf
  DW_CFA_advance_loc: 1 to 000000000095dde2
  DW_CFA_def_cfa_offset: 16
  DW_CFA_offset: r6 (rbp) at cfa-16
  DW_CFA_advance_loc: 3 to 000000000095dde5
  DW_CFA_def_cfa_register: r6 (rbp)
  DW_CFA_advance_loc1: 233 to 000000000095dece
  DW_CFA_def_cfa: r7 (rsp) ofs 8
  DW_CFA_nop
  DW_CFA_nop

0000cac4 000000000000001c 0000cac8 FDE cie=00000000 pc=000000000095decf..000000000095dfbf
  DW_CFA_advance_loc: 1 to 000000000095ded0
  DW_CFA_def_cfa_offset: 16
  DW_CFA_offset: r6 (rbp) at cfa-16
  DW_CFA_advance_loc: 3 to 000000000095ded3
  DW_CFA_def_cfa_register: r6 (rbp)
  DW_CFA_advance_loc1: 235 to 000000000095dfbe
  DW_CFA_def_cfa: r7 (rsp) ofs 8
  DW_CFA_nop
  DW_CFA_nop

0000cae4 000000000000001c 0000cae8 FDE cie=00000000 pc=000000000095dfbf..000000000095e0b5
  DW_CFA_advance_loc: 1 to 000000000095dfc0
  DW_CFA_def_cfa_offset: 16
  DW_CFA_offset: r6 (rbp) at cfa-16
  DW_CFA_advance_loc: 3 to 000000000095dfc3
  DW_CFA_def_cfa_register: r6 (rbp)
  DW_CFA_advance_loc1: 241 to 000000000095e0b4
  DW_CFA_def_cfa: r7 (rsp) ofs 8
  DW_CFA_nop
  DW_CFA_nop

0000cb04 000000000000001c 0000cb08 FDE cie=00000000 pc=000000000095e0b5..000000000095e10a
  DW_CFA_advance_loc: 1 to 000000000095e0b6
  DW_CFA_def_cfa_offset: 16
  DW_CFA_offset: r6 (rbp) at cfa-16
  DW_CFA_advance_loc: 3 to 000000000095e0b9
  DW_CFA_def_cfa_register: r6 (rbp)
  DW_CFA_advance_loc1: 80 to 000000000095e109
  DW_CFA_def_cfa: r7 (rsp) ofs 8
  DW_CFA_nop
  DW_CFA_nop

0000cb24 000000000000001c 0000cb28 FDE cie=00000000 pc=000000000095e10a..000000000095e1ba
  DW_CFA_advance_loc: 1 to 000000000095e10b
  DW_CFA_def_cfa_offset: 16
  DW_CFA_offset: r6 (rbp) at cfa-16
  DW_CFA_advance_loc: 3 to 000000000095e10e
  DW_CFA_def_cfa_register: r6 (rbp)
  DW_CFA_advance_loc1: 171 to 000000000095e1b9
  DW_CFA_def_cfa: r7 (rsp) ofs 8
  DW_CFA_nop
  DW_CFA_nop

0000cb44 000000000000001c 0000cb48 FDE cie=00000000 pc=000000000095e1ba..000000000095e237
  DW_CFA_advance_loc: 1 to 000000000095e1bb
  DW_CFA_def_cfa_offset: 16
  DW_CFA_offset: r6 (rbp) at cfa-16
  DW_CFA_advance_loc: 3 to 000000000095e1be
  DW_CFA_def_cfa_register: r6 (rbp)
  DW_CFA_advance_loc1: 120 to 000000000095e236
  DW_CFA_def_cfa: r7 (rsp) ofs 8
  DW_CFA_nop
  DW_CFA_nop

0000cb64 000000000000001c 0000cb68 FDE cie=00000000 pc=000000000095e237..000000000095e26f
  DW_CFA_advance_loc: 1 to 000000000095e238
  DW_CFA_def_cfa_offset: 16
  DW_CFA_offset: r6 (rbp) at cfa-16
  DW_CFA_advance_loc: 3 to 000000000095e23b
  DW_CFA_def_cfa_register: r6 (rbp)
  DW_CFA_advance_loc: 51 to 000000000095e26e
  DW_CFA_def_cfa: r7 (rsp) ofs 8
  DW_CFA_nop
  DW_CFA_nop
  DW_CFA_nop

0000cb84 000000000000001c 0000cb88 FDE cie=00000000 pc=000000000095e26f..000000000095e3f4
  DW_CFA_advance_loc: 1 to 000000000095e270
  DW_CFA_def_cfa_offset: 16
  DW_CFA_offset: r6 (rbp) at cfa-16
  DW_CFA_advance_loc: 3 to 000000000095e273
  DW_CFA_def_cfa_register: r6 (rbp)
  DW_CFA_advance_loc2: 384 to 000000000095e3f3
  DW_CFA_def_cfa: r7 (rsp) ofs 8
  DW_CFA_nop

0000cba4 000000000000001c 0000cba8 FDE cie=00000000 pc=000000000095e3f4..000000000095e4c8
  DW_CFA_advance_loc: 1 to 000000000095e3f5
  DW_CFA_def_cfa_offset: 16
  DW_CFA_offset: r6 (rbp) at cfa-16
  DW_CFA_advance_loc: 3 to 000000000095e3f8
  DW_CFA_def_cfa_register: r6 (rbp)
  DW_CFA_advance_loc1: 207 to 000000000095e4c7
  DW_CFA_def_cfa: r7 (rsp) ofs 8
  DW_CFA_nop
  DW_CFA_nop

0000cbc4 000000000000001c 0000cbc8 FDE cie=00000000 pc=000000000095e4c8..000000000095e4ef
  DW_CFA_advance_loc: 1 to 000000000095e4c9
  DW_CFA_def_cfa_offset: 16
  DW_CFA_offset: r6 (rbp) at cfa-16
  DW_CFA_advance_loc: 3 to 000000000095e4cc
  DW_CFA_def_cfa_register: r6 (rbp)
  DW_CFA_advance_loc: 34 to 000000000095e4ee
  DW_CFA_def_cfa: r7 (rsp) ofs 8
  DW_CFA_nop
  DW_CFA_nop
  DW_CFA_nop

0000cbe4 000000000000001c 0000cbe8 FDE cie=00000000 pc=000000000095e4ef..000000000095e5f2
  DW_CFA_advance_loc: 1 to 000000000095e4f0
  DW_CFA_def_cfa_offset: 16
  DW_CFA_offset: r6 (rbp) at cfa-16
  DW_CFA_advance_loc: 3 to 000000000095e4f3
  DW_CFA_def_cfa_register: r6 (rbp)
  DW_CFA_advance_loc1: 254 to 000000000095e5f1
  DW_CFA_def_cfa: r7 (rsp) ofs 8
  DW_CFA_nop
  DW_CFA_nop

0000cc04 000000000000001c 0000cc08 FDE cie=00000000 pc=000000000095e5f2..000000000095e73c
  DW_CFA_advance_loc: 1 to 000000000095e5f3
  DW_CFA_def_cfa_offset: 16
  DW_CFA_offset: r6 (rbp) at cfa-16
  DW_CFA_advance_loc: 3 to 000000000095e5f6
  DW_CFA_def_cfa_register: r6 (rbp)
  DW_CFA_advance_loc2: 325 to 000000000095e73b
  DW_CFA_def_cfa: r7 (rsp) ofs 8
  DW_CFA_nop

0000cc24 000000000000001c 0000cc28 FDE cie=00000000 pc=000000000095e73c..000000000095e796
  DW_CFA_advance_loc: 1 to 000000000095e73d
  DW_CFA_def_cfa_offset: 16
  DW_CFA_offset: r6 (rbp) at cfa-16
  DW_CFA_advance_loc: 3 to 000000000095e740
  DW_CFA_def_cfa_register: r6 (rbp)
  DW_CFA_advance_loc1: 85 to 000000000095e795
  DW_CFA_def_cfa: r7 (rsp) ofs 8
  DW_CFA_nop
  DW_CFA_nop

0000cc44 000000000000001c 0000cc48 FDE cie=00000000 pc=000000000095e796..000000000095e864
  DW_CFA_advance_loc: 1 to 000000000095e797
  DW_CFA_def_cfa_offset: 16
  DW_CFA_offset: r6 (rbp) at cfa-16
  DW_CFA_advance_loc: 3 to 000000000095e79a
  DW_CFA_def_cfa_register: r6 (rbp)
  DW_CFA_advance_loc1: 201 to 000000000095e863
  DW_CFA_def_cfa: r7 (rsp) ofs 8
  DW_CFA_nop
  DW_CFA_nop

0000cc64 000000000000001c 0000cc68 FDE cie=00000000 pc=000000000095e864..000000000095eba6
  DW_CFA_advance_loc: 1 to 000000000095e865
  DW_CFA_def_cfa_offset: 16
  DW_CFA_offset: r6 (rbp) at cfa-16
  DW_CFA_advance_loc: 3 to 000000000095e868
  DW_CFA_def_cfa_register: r6 (rbp)
  DW_CFA_advance_loc2: 829 to 000000000095eba5
  DW_CFA_def_cfa: r7 (rsp) ofs 8
  DW_CFA_nop

0000cc84 000000000000001c 0000cc88 FDE cie=00000000 pc=000000000095eba6..000000000095ec3f
  DW_CFA_advance_loc: 1 to 000000000095eba7
  DW_CFA_def_cfa_offset: 16
  DW_CFA_offset: r6 (rbp) at cfa-16
  DW_CFA_advance_loc: 3 to 000000000095ebaa
  DW_CFA_def_cfa_register: r6 (rbp)
  DW_CFA_advance_loc1: 148 to 000000000095ec3e
  DW_CFA_def_cfa: r7 (rsp) ofs 8
  DW_CFA_nop
  DW_CFA_nop

0000cca4 000000000000001c 0000cca8 FDE cie=00000000 pc=000000000095ec3f..000000000095ec81
  DW_CFA_advance_loc: 1 to 000000000095ec40
  DW_CFA_def_cfa_offset: 16
  DW_CFA_offset: r6 (rbp) at cfa-16
  DW_CFA_advance_loc: 3 to 000000000095ec43
  DW_CFA_def_cfa_register: r6 (rbp)
  DW_CFA_advance_loc: 61 to 000000000095ec80
  DW_CFA_def_cfa: r7 (rsp) ofs 8
  DW_CFA_nop
  DW_CFA_nop
  DW_CFA_nop

0000ccc4 000000000000001c 0000ccc8 FDE cie=00000000 pc=000000000095ec81..000000000095ed78
  DW_CFA_advance_loc: 1 to 000000000095ec82
  DW_CFA_def_cfa_offset: 16
  DW_CFA_offset: r6 (rbp) at cfa-16
  DW_CFA_advance_loc: 3 to 000000000095ec85
  DW_CFA_def_cfa_register: r6 (rbp)
  DW_CFA_advance_loc1: 242 to 000000000095ed77
  DW_CFA_def_cfa: r7 (rsp) ofs 8
  DW_CFA_nop
  DW_CFA_nop

0000cce4 000000000000001c 0000cce8 FDE cie=00000000 pc=000000000095ed78..000000000095ee45
  DW_CFA_advance_loc: 1 to 000000000095ed79
  DW_CFA_def_cfa_offset: 16
  DW_CFA_offset: r6 (rbp) at cfa-16
  DW_CFA_advance_loc: 3 to 000000000095ed7c
  DW_CFA_def_cfa_register: r6 (rbp)
  DW_CFA_advance_loc1: 200 to 000000000095ee44
  DW_CFA_def_cfa: r7 (rsp) ofs 8
  DW_CFA_nop
  DW_CFA_nop

0000cd04 000000000000001c 0000cd08 FDE cie=00000000 pc=000000000095ee45..000000000095ee6b
  DW_CFA_advance_loc: 1 to 000000000095ee46
  DW_CFA_def_cfa_offset: 16
  DW_CFA_offset: r6 (rbp) at cfa-16
  DW_CFA_advance_loc: 3 to 000000000095ee49
  DW_CFA_def_cfa_register: r6 (rbp)
  DW_CFA_advance_loc: 33 to 000000000095ee6a
  DW_CFA_def_cfa: r7 (rsp) ofs 8
  DW_CFA_nop
  DW_CFA_nop
  DW_CFA_nop

0000cd24 000000000000001c 0000cd28 FDE cie=00000000 pc=000000000095ee6b..000000000095efb7
  DW_CFA_advance_loc: 1 to 000000000095ee6c
  DW_CFA_def_cfa_offset: 16
  DW_CFA_offset: r6 (rbp) at cfa-16
  DW_CFA_advance_loc: 3 to 000000000095ee6f
  DW_CFA_def_cfa_register: r6 (rbp)
  DW_CFA_advance_loc2: 327 to 000000000095efb6
  DW_CFA_def_cfa: r7 (rsp) ofs 8
  DW_CFA_nop

0000cd44 000000000000001c 0000cd48 FDE cie=00000000 pc=000000000095efb7..000000000095f038
  DW_CFA_advance_loc: 1 to 000000000095efb8
  DW_CFA_def_cfa_offset: 16
  DW_CFA_offset: r6 (rbp) at cfa-16
  DW_CFA_advance_loc: 3 to 000000000095efbb
  DW_CFA_def_cfa_register: r6 (rbp)
  DW_CFA_advance_loc1: 124 to 000000000095f037
  DW_CFA_def_cfa: r7 (rsp) ofs 8
  DW_CFA_nop
  DW_CFA_nop

0000cd64 000000000000001c 0000cd68 FDE cie=00000000 pc=000000000095f038..000000000095f21b
  DW_CFA_advance_loc: 1 to 000000000095f039
  DW_CFA_def_cfa_offset: 16
  DW_CFA_offset: r6 (rbp) at cfa-16
  DW_CFA_advance_loc: 3 to 000000000095f03c
  DW_CFA_def_cfa_register: r6 (rbp)
  DW_CFA_advance_loc2: 478 to 000000000095f21a
  DW_CFA_def_cfa: r7 (rsp) ofs 8
  DW_CFA_nop

0000cd84 000000000000001c 0000cd88 FDE cie=00000000 pc=000000000095f21b..000000000095f255
  DW_CFA_advance_loc: 1 to 000000000095f21c
  DW_CFA_def_cfa_offset: 16
  DW_CFA_offset: r6 (rbp) at cfa-16
  DW_CFA_advance_loc: 3 to 000000000095f21f
  DW_CFA_def_cfa_register: r6 (rbp)
  DW_CFA_advance_loc: 53 to 000000000095f254
  DW_CFA_def_cfa: r7 (rsp) ofs 8
  DW_CFA_nop
  DW_CFA_nop
  DW_CFA_nop

0000cda4 000000000000001c 0000cda8 FDE cie=00000000 pc=000000000095f255..000000000095f2bf
  DW_CFA_advance_loc: 1 to 000000000095f256
  DW_CFA_def_cfa_offset: 16
  DW_CFA_offset: r6 (rbp) at cfa-16
  DW_CFA_advance_loc: 3 to 000000000095f259
  DW_CFA_def_cfa_register: r6 (rbp)
  DW_CFA_advance_loc1: 101 to 000000000095f2be
  DW_CFA_def_cfa: r7 (rsp) ofs 8
  DW_CFA_nop
  DW_CFA_nop

0000cdc4 000000000000001c 0000cdc8 FDE cie=00000000 pc=000000000095f2bf..000000000095f399
  DW_CFA_advance_loc: 1 to 000000000095f2c0
  DW_CFA_def_cfa_offset: 16
  DW_CFA_offset: r6 (rbp) at cfa-16
  DW_CFA_advance_loc: 3 to 000000000095f2c3
  DW_CFA_def_cfa_register: r6 (rbp)
  DW_CFA_advance_loc1: 213 to 000000000095f398
  DW_CFA_def_cfa: r7 (rsp) ofs 8
  DW_CFA_nop
  DW_CFA_nop

0000cde4 000000000000001c 0000cde8 FDE cie=00000000 pc=000000000095f399..000000000095f449
  DW_CFA_advance_loc: 1 to 000000000095f39a
  DW_CFA_def_cfa_offset: 16
  DW_CFA_offset: r6 (rbp) at cfa-16
  DW_CFA_advance_loc: 3 to 000000000095f39d
  DW_CFA_def_cfa_register: r6 (rbp)
  DW_CFA_advance_loc1: 171 to 000000000095f448
  DW_CFA_def_cfa: r7 (rsp) ofs 8
  DW_CFA_nop
  DW_CFA_nop

0000ce04 000000000000001c 0000ce08 FDE cie=00000000 pc=000000000095f449..000000000095f537
  DW_CFA_advance_loc: 1 to 000000000095f44a
  DW_CFA_def_cfa_offset: 16
  DW_CFA_offset: r6 (rbp) at cfa-16
  DW_CFA_advance_loc: 3 to 000000000095f44d
  DW_CFA_def_cfa_register: r6 (rbp)
  DW_CFA_advance_loc1: 233 to 000000000095f536
  DW_CFA_def_cfa: r7 (rsp) ofs 8
  DW_CFA_nop
  DW_CFA_nop

0000ce24 000000000000001c 0000ce28 FDE cie=00000000 pc=000000000095f537..000000000095fca0
  DW_CFA_advance_loc: 1 to 000000000095f538
  DW_CFA_def_cfa_offset: 16
  DW_CFA_offset: r6 (rbp) at cfa-16
  DW_CFA_advance_loc: 3 to 000000000095f53b
  DW_CFA_def_cfa_register: r6 (rbp)
  DW_CFA_advance_loc2: 1892 to 000000000095fc9f
  DW_CFA_def_cfa: r7 (rsp) ofs 8
  DW_CFA_nop

0000ce44 000000000000001c 0000ce48 FDE cie=00000000 pc=000000000095fca0..000000000095fe93
  DW_CFA_advance_loc: 1 to 000000000095fca1
  DW_CFA_def_cfa_offset: 16
  DW_CFA_offset: r6 (rbp) at cfa-16
  DW_CFA_advance_loc: 3 to 000000000095fca4
  DW_CFA_def_cfa_register: r6 (rbp)
  DW_CFA_advance_loc2: 494 to 000000000095fe92
  DW_CFA_def_cfa: r7 (rsp) ofs 8
  DW_CFA_nop

0000ce64 000000000000001c 0000ce68 FDE cie=00000000 pc=000000000095fe93..000000000095fed3
  DW_CFA_advance_loc: 1 to 000000000095fe94
  DW_CFA_def_cfa_offset: 16
  DW_CFA_offset: r6 (rbp) at cfa-16
  DW_CFA_advance_loc: 3 to 000000000095fe97
  DW_CFA_def_cfa_register: r6 (rbp)
  DW_CFA_advance_loc: 59 to 000000000095fed2
  DW_CFA_def_cfa: r7 (rsp) ofs 8
  DW_CFA_nop
  DW_CFA_nop
  DW_CFA_nop

0000ce84 000000000000001c 0000ce88 FDE cie=00000000 pc=000000000095fed3..000000000095ff91
  DW_CFA_advance_loc: 1 to 000000000095fed4
  DW_CFA_def_cfa_offset: 16
  DW_CFA_offset: r6 (rbp) at cfa-16
  DW_CFA_advance_loc: 3 to 000000000095fed7
  DW_CFA_def_cfa_register: r6 (rbp)
  DW_CFA_advance_loc1: 185 to 000000000095ff90
  DW_CFA_def_cfa: r7 (rsp) ofs 8
  DW_CFA_nop
  DW_CFA_nop

0000cea4 000000000000001c 0000cea8 FDE cie=00000000 pc=000000000095ff91..00000000009600bc
  DW_CFA_advance_loc: 1 to 000000000095ff92
  DW_CFA_def_cfa_offset: 16
  DW_CFA_offset: r6 (rbp) at cfa-16
  DW_CFA_advance_loc: 3 to 000000000095ff95
  DW_CFA_def_cfa_register: r6 (rbp)
  DW_CFA_advance_loc2: 294 to 00000000009600bb
  DW_CFA_def_cfa: r7 (rsp) ofs 8
  DW_CFA_nop

0000cec4 000000000000001c 0000cec8 FDE cie=00000000 pc=00000000009600bc..00000000009601a9
  DW_CFA_advance_loc: 1 to 00000000009600bd
  DW_CFA_def_cfa_offset: 16
  DW_CFA_offset: r6 (rbp) at cfa-16
  DW_CFA_advance_loc: 3 to 00000000009600c0
  DW_CFA_def_cfa_register: r6 (rbp)
  DW_CFA_advance_loc1: 232 to 00000000009601a8
  DW_CFA_def_cfa: r7 (rsp) ofs 8
  DW_CFA_nop
  DW_CFA_nop

0000cee4 000000000000001c 0000cee8 FDE cie=00000000 pc=00000000009601a9..00000000009601e0
  DW_CFA_advance_loc: 1 to 00000000009601aa
  DW_CFA_def_cfa_offset: 16
  DW_CFA_offset: r6 (rbp) at cfa-16
  DW_CFA_advance_loc: 3 to 00000000009601ad
  DW_CFA_def_cfa_register: r6 (rbp)
  DW_CFA_advance_loc: 50 to 00000000009601df
  DW_CFA_def_cfa: r7 (rsp) ofs 8
  DW_CFA_nop
  DW_CFA_nop
  DW_CFA_nop

0000cf04 000000000000001c 0000cf08 FDE cie=00000000 pc=00000000009601e0..000000000096032c
  DW_CFA_advance_loc: 1 to 00000000009601e1
  DW_CFA_def_cfa_offset: 16
  DW_CFA_offset: r6 (rbp) at cfa-16
  DW_CFA_advance_loc: 3 to 00000000009601e4
  DW_CFA_def_cfa_register: r6 (rbp)
  DW_CFA_advance_loc2: 327 to 000000000096032b
  DW_CFA_def_cfa: r7 (rsp) ofs 8
  DW_CFA_nop

0000cf24 000000000000001c 0000cf28 FDE cie=00000000 pc=000000000096032c..00000000009603a9
  DW_CFA_advance_loc: 1 to 000000000096032d
  DW_CFA_def_cfa_offset: 16
  DW_CFA_offset: r6 (rbp) at cfa-16
  DW_CFA_advance_loc: 3 to 0000000000960330
  DW_CFA_def_cfa_register: r6 (rbp)
  DW_CFA_advance_loc1: 120 to 00000000009603a8
  DW_CFA_def_cfa: r7 (rsp) ofs 8
  DW_CFA_nop
  DW_CFA_nop

0000cf44 000000000000001c 0000cf48 FDE cie=00000000 pc=00000000009603a9..000000000096052f
  DW_CFA_advance_loc: 1 to 00000000009603aa
  DW_CFA_def_cfa_offset: 16
  DW_CFA_offset: r6 (rbp) at cfa-16
  DW_CFA_advance_loc: 3 to 00000000009603ad
  DW_CFA_def_cfa_register: r6 (rbp)
  DW_CFA_advance_loc2: 385 to 000000000096052e
  DW_CFA_def_cfa: r7 (rsp) ofs 8
  DW_CFA_nop

0000cf64 000000000000001c 0000cf68 FDE cie=00000000 pc=000000000096052f..000000000096064c
  DW_CFA_advance_loc: 1 to 0000000000960530
  DW_CFA_def_cfa_offset: 16
  DW_CFA_offset: r6 (rbp) at cfa-16
  DW_CFA_advance_loc: 3 to 0000000000960533
  DW_CFA_def_cfa_register: r6 (rbp)
  DW_CFA_advance_loc2: 280 to 000000000096064b
  DW_CFA_def_cfa: r7 (rsp) ofs 8
  DW_CFA_nop

0000cf84 000000000000001c 0000cf88 FDE cie=00000000 pc=000000000096064c..00000000009606fc
  DW_CFA_advance_loc: 1 to 000000000096064d
  DW_CFA_def_cfa_offset: 16
  DW_CFA_offset: r6 (rbp) at cfa-16
  DW_CFA_advance_loc: 3 to 0000000000960650
  DW_CFA_def_cfa_register: r6 (rbp)
  DW_CFA_advance_loc1: 171 to 00000000009606fb
  DW_CFA_def_cfa: r7 (rsp) ofs 8
  DW_CFA_nop
  DW_CFA_nop

0000cfa4 0000000000000020 0000cfa8 FDE cie=00000000 pc=00000000009606fc..00000000009607c0
  DW_CFA_advance_loc: 1 to 00000000009606fd
  DW_CFA_def_cfa_offset: 16
  DW_CFA_offset: r6 (rbp) at cfa-16
  DW_CFA_advance_loc: 3 to 0000000000960700
  DW_CFA_def_cfa_register: r6 (rbp)
  DW_CFA_advance_loc: 5 to 0000000000960705
  DW_CFA_offset: r3 (rbx) at cfa-24
  DW_CFA_advance_loc1: 186 to 00000000009607bf
  DW_CFA_def_cfa: r7 (rsp) ofs 8
  DW_CFA_nop
  DW_CFA_nop
  DW_CFA_nop

0000cfc8 000000000000001c 0000cfcc FDE cie=00000000 pc=00000000009607c0..0000000000960831
  DW_CFA_advance_loc: 1 to 00000000009607c1
  DW_CFA_def_cfa_offset: 16
  DW_CFA_offset: r6 (rbp) at cfa-16
  DW_CFA_advance_loc: 3 to 00000000009607c4
  DW_CFA_def_cfa_register: r6 (rbp)
  DW_CFA_advance_loc1: 108 to 0000000000960830
  DW_CFA_def_cfa: r7 (rsp) ofs 8
  DW_CFA_nop
  DW_CFA_nop

0000cfe8 000000000000001c 0000cfec FDE cie=00000000 pc=0000000000960831..0000000000960c1f
  DW_CFA_advance_loc: 1 to 0000000000960832
  DW_CFA_def_cfa_offset: 16
  DW_CFA_offset: r6 (rbp) at cfa-16
  DW_CFA_advance_loc: 3 to 0000000000960835
  DW_CFA_def_cfa_register: r6 (rbp)
  DW_CFA_advance_loc2: 1001 to 0000000000960c1e
  DW_CFA_def_cfa: r7 (rsp) ofs 8
  DW_CFA_nop

0000d008 000000000000001c 0000d00c FDE cie=00000000 pc=0000000000960c1f..0000000000961235
  DW_CFA_advance_loc: 1 to 0000000000960c20
  DW_CFA_def_cfa_offset: 16
  DW_CFA_offset: r6 (rbp) at cfa-16
  DW_CFA_advance_loc: 3 to 0000000000960c23
  DW_CFA_def_cfa_register: r6 (rbp)
  DW_CFA_advance_loc2: 1553 to 0000000000961234
  DW_CFA_def_cfa: r7 (rsp) ofs 8
  DW_CFA_nop

0000d028 000000000000001c 0000d02c FDE cie=00000000 pc=0000000000961235..00000000009614f9
  DW_CFA_advance_loc: 1 to 0000000000961236
  DW_CFA_def_cfa_offset: 16
  DW_CFA_offset: r6 (rbp) at cfa-16
  DW_CFA_advance_loc: 3 to 0000000000961239
  DW_CFA_def_cfa_register: r6 (rbp)
  DW_CFA_advance_loc2: 703 to 00000000009614f8
  DW_CFA_def_cfa: r7 (rsp) ofs 8
  DW_CFA_nop

0000d048 000000000000001c 0000d04c FDE cie=00000000 pc=00000000009614f9..0000000000961540
  DW_CFA_advance_loc: 1 to 00000000009614fa
  DW_CFA_def_cfa_offset: 16
  DW_CFA_offset: r6 (rbp) at cfa-16
  DW_CFA_advance_loc: 3 to 00000000009614fd
  DW_CFA_def_cfa_register: r6 (rbp)
  DW_CFA_advance_loc1: 66 to 000000000096153f
  DW_CFA_def_cfa: r7 (rsp) ofs 8
  DW_CFA_nop
  DW_CFA_nop

0000d068 0000000000000020 0000d06c FDE cie=00000000 pc=0000000000961540..000000000096195a
  DW_CFA_advance_loc: 1 to 0000000000961541
  DW_CFA_def_cfa_offset: 16
  DW_CFA_offset: r6 (rbp) at cfa-16
  DW_CFA_advance_loc: 3 to 0000000000961544
  DW_CFA_def_cfa_register: r6 (rbp)
  DW_CFA_advance_loc: 8 to 000000000096154c
  DW_CFA_offset: r3 (rbx) at cfa-24
  DW_CFA_advance_loc2: 1037 to 0000000000961959
  DW_CFA_def_cfa: r7 (rsp) ofs 8
  DW_CFA_nop
  DW_CFA_nop

0000d08c 0000000000000020 0000d090 FDE cie=00000000 pc=000000000096195a..0000000000961a87
  DW_CFA_advance_loc: 1 to 000000000096195b
  DW_CFA_def_cfa_offset: 16
  DW_CFA_offset: r6 (rbp) at cfa-16
  DW_CFA_advance_loc: 3 to 000000000096195e
  DW_CFA_def_cfa_register: r6 (rbp)
  DW_CFA_advance_loc: 5 to 0000000000961963
  DW_CFA_offset: r3 (rbx) at cfa-24
  DW_CFA_advance_loc2: 291 to 0000000000961a86
  DW_CFA_def_cfa: r7 (rsp) ofs 8
  DW_CFA_nop
  DW_CFA_nop

0000d0b0 000000000000001c 0000d0b4 FDE cie=00000000 pc=0000000000961a87..0000000000961ab5
  DW_CFA_advance_loc: 1 to 0000000000961a88
  DW_CFA_def_cfa_offset: 16
  DW_CFA_offset: r6 (rbp) at cfa-16
  DW_CFA_advance_loc: 3 to 0000000000961a8b
  DW_CFA_def_cfa_register: r6 (rbp)
  DW_CFA_advance_loc: 41 to 0000000000961ab4
  DW_CFA_def_cfa: r7 (rsp) ofs 8
  DW_CFA_nop
  DW_CFA_nop
  DW_CFA_nop

0000d0d0 000000000000001c 0000d0d4 FDE cie=00000000 pc=0000000000961ab5..0000000000961aeb
  DW_CFA_advance_loc: 1 to 0000000000961ab6
  DW_CFA_def_cfa_offset: 16
  DW_CFA_offset: r6 (rbp) at cfa-16
  DW_CFA_advance_loc: 3 to 0000000000961ab9
  DW_CFA_def_cfa_register: r6 (rbp)
  DW_CFA_advance_loc: 49 to 0000000000961aea
  DW_CFA_def_cfa: r7 (rsp) ofs 8
  DW_CFA_nop
  DW_CFA_nop
  DW_CFA_nop

0000d0f0 000000000000001c 0000d0f4 FDE cie=00000000 pc=0000000000961aeb..0000000000961b48
  DW_CFA_advance_loc: 1 to 0000000000961aec
  DW_CFA_def_cfa_offset: 16
  DW_CFA_offset: r6 (rbp) at cfa-16
  DW_CFA_advance_loc: 3 to 0000000000961aef
  DW_CFA_def_cfa_register: r6 (rbp)
  DW_CFA_advance_loc1: 88 to 0000000000961b47
  DW_CFA_def_cfa: r7 (rsp) ofs 8
  DW_CFA_nop
  DW_CFA_nop

0000d110 000000000000001c 0000d114 FDE cie=00000000 pc=0000000000961b48..0000000000961ba5
  DW_CFA_advance_loc: 1 to 0000000000961b49
  DW_CFA_def_cfa_offset: 16
  DW_CFA_offset: r6 (rbp) at cfa-16
  DW_CFA_advance_loc: 3 to 0000000000961b4c
  DW_CFA_def_cfa_register: r6 (rbp)
  DW_CFA_advance_loc1: 88 to 0000000000961ba4
  DW_CFA_def_cfa: r7 (rsp) ofs 8
  DW_CFA_nop
  DW_CFA_nop

0000d130 000000000000001c 0000d134 FDE cie=00000000 pc=0000000000961ba5..0000000000961c45
  DW_CFA_advance_loc: 1 to 0000000000961ba6
  DW_CFA_def_cfa_offset: 16
  DW_CFA_offset: r6 (rbp) at cfa-16
  DW_CFA_advance_loc: 3 to 0000000000961ba9
  DW_CFA_def_cfa_register: r6 (rbp)
  DW_CFA_advance_loc1: 155 to 0000000000961c44
  DW_CFA_def_cfa: r7 (rsp) ofs 8
  DW_CFA_nop
  DW_CFA_nop

0000d150 000000000000001c 0000d154 FDE cie=00000000 pc=0000000000961c45..0000000000961d53
  DW_CFA_advance_loc: 1 to 0000000000961c46
  DW_CFA_def_cfa_offset: 16
  DW_CFA_offset: r6 (rbp) at cfa-16
  DW_CFA_advance_loc: 3 to 0000000000961c49
  DW_CFA_def_cfa_register: r6 (rbp)
  DW_CFA_advance_loc2: 265 to 0000000000961d52
  DW_CFA_def_cfa: r7 (rsp) ofs 8
  DW_CFA_nop

0000d170 000000000000001c 0000d174 FDE cie=00000000 pc=0000000000961d53..0000000000961e61
  DW_CFA_advance_loc: 1 to 0000000000961d54
  DW_CFA_def_cfa_offset: 16
  DW_CFA_offset: r6 (rbp) at cfa-16
  DW_CFA_advance_loc: 3 to 0000000000961d57
  DW_CFA_def_cfa_register: r6 (rbp)
  DW_CFA_advance_loc2: 265 to 0000000000961e60
  DW_CFA_def_cfa: r7 (rsp) ofs 8
  DW_CFA_nop

0000d190 000000000000001c 0000d194 FDE cie=00000000 pc=0000000000961e61..0000000000961ed1
  DW_CFA_advance_loc: 1 to 0000000000961e62
  DW_CFA_def_cfa_offset: 16
  DW_CFA_offset: r6 (rbp) at cfa-16
  DW_CFA_advance_loc: 3 to 0000000000961e65
  DW_CFA_def_cfa_register: r6 (rbp)
  DW_CFA_advance_loc1: 107 to 0000000000961ed0
  DW_CFA_def_cfa: r7 (rsp) ofs 8
  DW_CFA_nop
  DW_CFA_nop

0000d1b0 000000000000001c 0000d1b4 FDE cie=00000000 pc=0000000000961ed1..0000000000961f41
  DW_CFA_advance_loc: 1 to 0000000000961ed2
  DW_CFA_def_cfa_offset: 16
  DW_CFA_offset: r6 (rbp) at cfa-16
  DW_CFA_advance_loc: 3 to 0000000000961ed5
  DW_CFA_def_cfa_register: r6 (rbp)
  DW_CFA_advance_loc1: 107 to 0000000000961f40
  DW_CFA_def_cfa: r7 (rsp) ofs 8
  DW_CFA_nop
  DW_CFA_nop

0000d1d0 000000000000001c 0000d1d4 FDE cie=00000000 pc=0000000000961f41..0000000000961fe1
  DW_CFA_advance_loc: 1 to 0000000000961f42
  DW_CFA_def_cfa_offset: 16
  DW_CFA_offset: r6 (rbp) at cfa-16
  DW_CFA_advance_loc: 3 to 0000000000961f45
  DW_CFA_def_cfa_register: r6 (rbp)
  DW_CFA_advance_loc1: 155 to 0000000000961fe0
  DW_CFA_def_cfa: r7 (rsp) ofs 8
  DW_CFA_nop
  DW_CFA_nop

0000d1f0 000000000000001c 0000d1f4 FDE cie=00000000 pc=0000000000961fe1..0000000000962081
  DW_CFA_advance_loc: 1 to 0000000000961fe2
  DW_CFA_def_cfa_offset: 16
  DW_CFA_offset: r6 (rbp) at cfa-16
  DW_CFA_advance_loc: 3 to 0000000000961fe5
  DW_CFA_def_cfa_register: r6 (rbp)
  DW_CFA_advance_loc1: 155 to 0000000000962080
  DW_CFA_def_cfa: r7 (rsp) ofs 8
  DW_CFA_nop
  DW_CFA_nop

0000d210 000000000000001c 0000d214 FDE cie=00000000 pc=0000000000962081..0000000000962269
  DW_CFA_advance_loc: 1 to 0000000000962082
  DW_CFA_def_cfa_offset: 16
  DW_CFA_offset: r6 (rbp) at cfa-16
  DW_CFA_advance_loc: 3 to 0000000000962085
  DW_CFA_def_cfa_register: r6 (rbp)
  DW_CFA_advance_loc2: 483 to 0000000000962268
  DW_CFA_def_cfa: r7 (rsp) ofs 8
  DW_CFA_nop

0000d230 000000000000001c 0000d234 FDE cie=00000000 pc=0000000000962269..000000000096231d
  DW_CFA_advance_loc: 1 to 000000000096226a
  DW_CFA_def_cfa_offset: 16
  DW_CFA_offset: r6 (rbp) at cfa-16
  DW_CFA_advance_loc: 3 to 000000000096226d
  DW_CFA_def_cfa_register: r6 (rbp)
  DW_CFA_advance_loc1: 175 to 000000000096231c
  DW_CFA_def_cfa: r7 (rsp) ofs 8
  DW_CFA_nop
  DW_CFA_nop

0000d250 0000000000000020 0000d254 FDE cie=00000000 pc=000000000096231d..0000000000962477
  DW_CFA_advance_loc: 1 to 000000000096231e
  DW_CFA_def_cfa_offset: 16
  DW_CFA_offset: r6 (rbp) at cfa-16
  DW_CFA_advance_loc: 3 to 0000000000962321
  DW_CFA_def_cfa_register: r6 (rbp)
  DW_CFA_advance_loc: 5 to 0000000000962326
  DW_CFA_offset: r3 (rbx) at cfa-24
  DW_CFA_advance_loc2: 336 to 0000000000962476
  DW_CFA_def_cfa: r7 (rsp) ofs 8
  DW_CFA_nop
  DW_CFA_nop

0000d274 000000000000001c 0000d278 FDE cie=00000000 pc=0000000000962477..00000000009624ad
  DW_CFA_advance_loc: 1 to 0000000000962478
  DW_CFA_def_cfa_offset: 16
  DW_CFA_offset: r6 (rbp) at cfa-16
  DW_CFA_advance_loc: 3 to 000000000096247b
  DW_CFA_def_cfa_register: r6 (rbp)
  DW_CFA_advance_loc: 49 to 00000000009624ac
  DW_CFA_def_cfa: r7 (rsp) ofs 8
  DW_CFA_nop
  DW_CFA_nop
  DW_CFA_nop

0000d294 000000000000001c 0000d298 FDE cie=00000000 pc=00000000009624ad..00000000009626d8
  DW_CFA_advance_loc: 1 to 00000000009624ae
  DW_CFA_def_cfa_offset: 16
  DW_CFA_offset: r6 (rbp) at cfa-16
  DW_CFA_advance_loc: 3 to 00000000009624b1
  DW_CFA_def_cfa_register: r6 (rbp)
  DW_CFA_advance_loc2: 550 to 00000000009626d7
  DW_CFA_def_cfa: r7 (rsp) ofs 8
  DW_CFA_nop

0000d2b4 000000000000001c 0000d2b8 FDE cie=00000000 pc=00000000009626d8..0000000000962732
  DW_CFA_advance_loc: 1 to 00000000009626d9
  DW_CFA_def_cfa_offset: 16
  DW_CFA_offset: r6 (rbp) at cfa-16
  DW_CFA_advance_loc: 3 to 00000000009626dc
  DW_CFA_def_cfa_register: r6 (rbp)
  DW_CFA_advance_loc1: 85 to 0000000000962731
  DW_CFA_def_cfa: r7 (rsp) ofs 8
  DW_CFA_nop
  DW_CFA_nop

0000d2d4 000000000000001c 0000d2d8 FDE cie=00000000 pc=0000000000962732..0000000000962766
  DW_CFA_advance_loc: 1 to 0000000000962733
  DW_CFA_def_cfa_offset: 16
  DW_CFA_offset: r6 (rbp) at cfa-16
  DW_CFA_advance_loc: 3 to 0000000000962736
  DW_CFA_def_cfa_register: r6 (rbp)
  DW_CFA_advance_loc: 47 to 0000000000962765
  DW_CFA_def_cfa: r7 (rsp) ofs 8
  DW_CFA_nop
  DW_CFA_nop
  DW_CFA_nop

0000d2f4 000000000000001c 0000d2f8 FDE cie=00000000 pc=0000000000962766..00000000009627e9
  DW_CFA_advance_loc: 1 to 0000000000962767
  DW_CFA_def_cfa_offset: 16
  DW_CFA_offset: r6 (rbp) at cfa-16
  DW_CFA_advance_loc: 3 to 000000000096276a
  DW_CFA_def_cfa_register: r6 (rbp)
  DW_CFA_advance_loc1: 126 to 00000000009627e8
  DW_CFA_def_cfa: r7 (rsp) ofs 8
  DW_CFA_nop
  DW_CFA_nop

0000d314 000000000000001c 0000d318 FDE cie=00000000 pc=00000000009627e9..0000000000962828
  DW_CFA_advance_loc: 1 to 00000000009627ea
  DW_CFA_def_cfa_offset: 16
  DW_CFA_offset: r6 (rbp) at cfa-16
  DW_CFA_advance_loc: 3 to 00000000009627ed
  DW_CFA_def_cfa_register: r6 (rbp)
  DW_CFA_advance_loc: 58 to 0000000000962827
  DW_CFA_def_cfa: r7 (rsp) ofs 8
  DW_CFA_nop
  DW_CFA_nop
  DW_CFA_nop

0000d334 000000000000001c 0000d338 FDE cie=00000000 pc=0000000000962828..000000000096283a
  DW_CFA_advance_loc: 1 to 0000000000962829
  DW_CFA_def_cfa_offset: 16
  DW_CFA_offset: r6 (rbp) at cfa-16
  DW_CFA_advance_loc: 3 to 000000000096282c
  DW_CFA_def_cfa_register: r6 (rbp)
  DW_CFA_advance_loc: 13 to 0000000000962839
  DW_CFA_def_cfa: r7 (rsp) ofs 8
  DW_CFA_nop
  DW_CFA_nop
  DW_CFA_nop

0000d354 000000000000001c 0000d358 FDE cie=00000000 pc=000000000096283a..000000000096286c
  DW_CFA_advance_loc: 1 to 000000000096283b
  DW_CFA_def_cfa_offset: 16
  DW_CFA_offset: r6 (rbp) at cfa-16
  DW_CFA_advance_loc: 3 to 000000000096283e
  DW_CFA_def_cfa_register: r6 (rbp)
  DW_CFA_advance_loc: 45 to 000000000096286b
  DW_CFA_def_cfa: r7 (rsp) ofs 8
  DW_CFA_nop
  DW_CFA_nop
  DW_CFA_nop

0000d374 000000000000001c 0000d378 FDE cie=00000000 pc=000000000096286c..0000000000962941
  DW_CFA_advance_loc: 1 to 000000000096286d
  DW_CFA_def_cfa_offset: 16
  DW_CFA_offset: r6 (rbp) at cfa-16
  DW_CFA_advance_loc: 3 to 0000000000962870
  DW_CFA_def_cfa_register: r6 (rbp)
  DW_CFA_advance_loc1: 208 to 0000000000962940
  DW_CFA_def_cfa: r7 (rsp) ofs 8
  DW_CFA_nop
  DW_CFA_nop

0000d394 000000000000001c 0000d398 FDE cie=00000000 pc=0000000000962941..0000000000962a1d
  DW_CFA_advance_loc: 1 to 0000000000962942
  DW_CFA_def_cfa_offset: 16
  DW_CFA_offset: r6 (rbp) at cfa-16
  DW_CFA_advance_loc: 3 to 0000000000962945
  DW_CFA_def_cfa_register: r6 (rbp)
  DW_CFA_advance_loc1: 215 to 0000000000962a1c
  DW_CFA_def_cfa: r7 (rsp) ofs 8
  DW_CFA_nop
  DW_CFA_nop

0000d3b4 000000000000001c 0000d3b8 FDE cie=00000000 pc=0000000000962a1d..0000000000962a79
  DW_CFA_advance_loc: 1 to 0000000000962a1e
  DW_CFA_def_cfa_offset: 16
  DW_CFA_offset: r6 (rbp) at cfa-16
  DW_CFA_advance_loc: 3 to 0000000000962a21
  DW_CFA_def_cfa_register: r6 (rbp)
  DW_CFA_advance_loc1: 87 to 0000000000962a78
  DW_CFA_def_cfa: r7 (rsp) ofs 8
  DW_CFA_nop
  DW_CFA_nop

0000d3d4 000000000000001c 0000d3d8 FDE cie=00000000 pc=0000000000962a79..0000000000962ad8
  DW_CFA_advance_loc: 1 to 0000000000962a7a
  DW_CFA_def_cfa_offset: 16
  DW_CFA_offset: r6 (rbp) at cfa-16
  DW_CFA_advance_loc: 3 to 0000000000962a7d
  DW_CFA_def_cfa_register: r6 (rbp)
  DW_CFA_advance_loc1: 90 to 0000000000962ad7
  DW_CFA_def_cfa: r7 (rsp) ofs 8
  DW_CFA_nop
  DW_CFA_nop

0000d3f4 000000000000001c 0000d3f8 FDE cie=00000000 pc=0000000000962ad8..0000000000962cb3
  DW_CFA_advance_loc: 1 to 0000000000962ad9
  DW_CFA_def_cfa_offset: 16
  DW_CFA_offset: r6 (rbp) at cfa-16
  DW_CFA_advance_loc: 3 to 0000000000962adc
  DW_CFA_def_cfa_register: r6 (rbp)
  DW_CFA_advance_loc2: 470 to 0000000000962cb2
  DW_CFA_def_cfa: r7 (rsp) ofs 8
  DW_CFA_nop

0000d414 000000000000001c 0000d418 FDE cie=00000000 pc=0000000000962cb3..0000000000962d14
  DW_CFA_advance_loc: 1 to 0000000000962cb4
  DW_CFA_def_cfa_offset: 16
  DW_CFA_offset: r6 (rbp) at cfa-16
  DW_CFA_advance_loc: 3 to 0000000000962cb7
  DW_CFA_def_cfa_register: r6 (rbp)
  DW_CFA_advance_loc1: 92 to 0000000000962d13
  DW_CFA_def_cfa: r7 (rsp) ofs 8
  DW_CFA_nop
  DW_CFA_nop

0000d434 000000000000001c 0000d438 FDE cie=00000000 pc=0000000000962d14..0000000000962d55
  DW_CFA_advance_loc: 1 to 0000000000962d15
  DW_CFA_def_cfa_offset: 16
  DW_CFA_offset: r6 (rbp) at cfa-16
  DW_CFA_advance_loc: 3 to 0000000000962d18
  DW_CFA_def_cfa_register: r6 (rbp)
  DW_CFA_advance_loc: 60 to 0000000000962d54
  DW_CFA_def_cfa: r7 (rsp) ofs 8
  DW_CFA_nop
  DW_CFA_nop
  DW_CFA_nop

0000d454 000000000000001c 0000d458 FDE cie=00000000 pc=0000000000962d55..0000000000962dc6
  DW_CFA_advance_loc: 1 to 0000000000962d56
  DW_CFA_def_cfa_offset: 16
  DW_CFA_offset: r6 (rbp) at cfa-16
  DW_CFA_advance_loc: 3 to 0000000000962d59
  DW_CFA_def_cfa_register: r6 (rbp)
  DW_CFA_advance_loc1: 108 to 0000000000962dc5
  DW_CFA_def_cfa: r7 (rsp) ofs 8
  DW_CFA_nop
  DW_CFA_nop

0000d474 000000000000001c 0000d478 FDE cie=00000000 pc=0000000000962dc6..0000000000962e37
  DW_CFA_advance_loc: 1 to 0000000000962dc7
  DW_CFA_def_cfa_offset: 16
  DW_CFA_offset: r6 (rbp) at cfa-16
  DW_CFA_advance_loc: 3 to 0000000000962dca
  DW_CFA_def_cfa_register: r6 (rbp)
  DW_CFA_advance_loc1: 108 to 0000000000962e36
  DW_CFA_def_cfa: r7 (rsp) ofs 8
  DW_CFA_nop
  DW_CFA_nop

0000d494 000000000000001c 0000d498 FDE cie=00000000 pc=0000000000962e37..0000000000962ec3
  DW_CFA_advance_loc: 1 to 0000000000962e38
  DW_CFA_def_cfa_offset: 16
  DW_CFA_offset: r6 (rbp) at cfa-16
  DW_CFA_advance_loc: 3 to 0000000000962e3b
  DW_CFA_def_cfa_register: r6 (rbp)
  DW_CFA_advance_loc1: 135 to 0000000000962ec2
  DW_CFA_def_cfa: r7 (rsp) ofs 8
  DW_CFA_nop
  DW_CFA_nop

0000d4b4 000000000000001c 0000d4b8 FDE cie=00000000 pc=0000000000962ec3..0000000000962f66
  DW_CFA_advance_loc: 1 to 0000000000962ec4
  DW_CFA_def_cfa_offset: 16
  DW_CFA_offset: r6 (rbp) at cfa-16
  DW_CFA_advance_loc: 3 to 0000000000962ec7
  DW_CFA_def_cfa_register: r6 (rbp)
  DW_CFA_advance_loc1: 158 to 0000000000962f65
  DW_CFA_def_cfa: r7 (rsp) ofs 8
  DW_CFA_nop
  DW_CFA_nop

0000d4d4 000000000000001c 0000d4d8 FDE cie=00000000 pc=0000000000962f66..0000000000963009
  DW_CFA_advance_loc: 1 to 0000000000962f67
  DW_CFA_def_cfa_offset: 16
  DW_CFA_offset: r6 (rbp) at cfa-16
  DW_CFA_advance_loc: 3 to 0000000000962f6a
  DW_CFA_def_cfa_register: r6 (rbp)
  DW_CFA_advance_loc1: 158 to 0000000000963008
  DW_CFA_def_cfa: r7 (rsp) ofs 8
  DW_CFA_nop
  DW_CFA_nop

0000d4f4 000000000000001c 0000d4f8 FDE cie=00000000 pc=0000000000963009..00000000009630e0
  DW_CFA_advance_loc: 1 to 000000000096300a
  DW_CFA_def_cfa_offset: 16
  DW_CFA_offset: r6 (rbp) at cfa-16
  DW_CFA_advance_loc: 3 to 000000000096300d
  DW_CFA_def_cfa_register: r6 (rbp)
  DW_CFA_advance_loc1: 210 to 00000000009630df
  DW_CFA_def_cfa: r7 (rsp) ofs 8
  DW_CFA_nop
  DW_CFA_nop

0000d514 000000000000001c 0000d518 FDE cie=00000000 pc=00000000009630e0..0000000000963209
  DW_CFA_advance_loc: 1 to 00000000009630e1
  DW_CFA_def_cfa_offset: 16
  DW_CFA_offset: r6 (rbp) at cfa-16
  DW_CFA_advance_loc: 3 to 00000000009630e4
  DW_CFA_def_cfa_register: r6 (rbp)
  DW_CFA_advance_loc2: 292 to 0000000000963208
  DW_CFA_def_cfa: r7 (rsp) ofs 8
  DW_CFA_nop

0000d534 000000000000001c 0000d538 FDE cie=00000000 pc=0000000000963209..0000000000963332
  DW_CFA_advance_loc: 1 to 000000000096320a
  DW_CFA_def_cfa_offset: 16
  DW_CFA_offset: r6 (rbp) at cfa-16
  DW_CFA_advance_loc: 3 to 000000000096320d
  DW_CFA_def_cfa_register: r6 (rbp)
  DW_CFA_advance_loc2: 292 to 0000000000963331
  DW_CFA_def_cfa: r7 (rsp) ofs 8
  DW_CFA_nop

0000d554 000000000000001c 0000d558 FDE cie=00000000 pc=0000000000963332..000000000096347a
  DW_CFA_advance_loc: 1 to 0000000000963333
  DW_CFA_def_cfa_offset: 16
  DW_CFA_offset: r6 (rbp) at cfa-16
  DW_CFA_advance_loc: 3 to 0000000000963336
  DW_CFA_def_cfa_register: r6 (rbp)
  DW_CFA_advance_loc2: 323 to 0000000000963479
  DW_CFA_def_cfa: r7 (rsp) ofs 8
  DW_CFA_nop

0000d574 000000000000001c 0000d578 FDE cie=00000000 pc=000000000096347a..00000000009635d9
  DW_CFA_advance_loc: 1 to 000000000096347b
  DW_CFA_def_cfa_offset: 16
  DW_CFA_offset: r6 (rbp) at cfa-16
  DW_CFA_advance_loc: 3 to 000000000096347e
  DW_CFA_def_cfa_register: r6 (rbp)
  DW_CFA_advance_loc2: 346 to 00000000009635d8
  DW_CFA_def_cfa: r7 (rsp) ofs 8
  DW_CFA_nop

0000d594 000000000000001c 0000d598 FDE cie=00000000 pc=00000000009635d9..0000000000963738
  DW_CFA_advance_loc: 1 to 00000000009635da
  DW_CFA_def_cfa_offset: 16
  DW_CFA_offset: r6 (rbp) at cfa-16
  DW_CFA_advance_loc: 3 to 00000000009635dd
  DW_CFA_def_cfa_register: r6 (rbp)
  DW_CFA_advance_loc2: 346 to 0000000000963737
  DW_CFA_def_cfa: r7 (rsp) ofs 8
  DW_CFA_nop

0000d5b4 000000000000001c 0000d5b8 FDE cie=00000000 pc=0000000000963738..0000000000963b5a
  DW_CFA_advance_loc: 1 to 0000000000963739
  DW_CFA_def_cfa_offset: 16
  DW_CFA_offset: r6 (rbp) at cfa-16
  DW_CFA_advance_loc: 3 to 000000000096373c
  DW_CFA_def_cfa_register: r6 (rbp)
  DW_CFA_advance_loc2: 1053 to 0000000000963b59
  DW_CFA_def_cfa: r7 (rsp) ofs 8
  DW_CFA_nop

0000d5d4 000000000000001c 0000d5d8 FDE cie=00000000 pc=0000000000963b5a..0000000000963c1a
  DW_CFA_advance_loc: 1 to 0000000000963b5b
  DW_CFA_def_cfa_offset: 16
  DW_CFA_offset: r6 (rbp) at cfa-16
  DW_CFA_advance_loc: 3 to 0000000000963b5e
  DW_CFA_def_cfa_register: r6 (rbp)
  DW_CFA_advance_loc1: 187 to 0000000000963c19
  DW_CFA_def_cfa: r7 (rsp) ofs 8
  DW_CFA_nop
  DW_CFA_nop

0000d5f4 000000000000001c 0000d5f8 FDE cie=00000000 pc=0000000000963c1a..0000000000963d28
  DW_CFA_advance_loc: 1 to 0000000000963c1b
  DW_CFA_def_cfa_offset: 16
  DW_CFA_offset: r6 (rbp) at cfa-16
  DW_CFA_advance_loc: 3 to 0000000000963c1e
  DW_CFA_def_cfa_register: r6 (rbp)
  DW_CFA_advance_loc2: 265 to 0000000000963d27
  DW_CFA_def_cfa: r7 (rsp) ofs 8
  DW_CFA_nop

0000d614 000000000000001c 0000d618 FDE cie=00000000 pc=0000000000963d28..0000000000963ed0
  DW_CFA_advance_loc: 1 to 0000000000963d29
  DW_CFA_def_cfa_offset: 16
  DW_CFA_offset: r6 (rbp) at cfa-16
  DW_CFA_advance_loc: 3 to 0000000000963d2c
  DW_CFA_def_cfa_register: r6 (rbp)
  DW_CFA_advance_loc2: 419 to 0000000000963ecf
  DW_CFA_def_cfa: r7 (rsp) ofs 8
  DW_CFA_nop

0000d634 000000000000001c 0000d638 FDE cie=00000000 pc=0000000000963ed0..00000000009640a2
  DW_CFA_advance_loc: 1 to 0000000000963ed1
  DW_CFA_def_cfa_offset: 16
  DW_CFA_offset: r6 (rbp) at cfa-16
  DW_CFA_advance_loc: 3 to 0000000000963ed4
  DW_CFA_def_cfa_register: r6 (rbp)
  DW_CFA_advance_loc2: 461 to 00000000009640a1
  DW_CFA_def_cfa: r7 (rsp) ofs 8
  DW_CFA_nop

0000d654 000000000000001c 0000d658 FDE cie=00000000 pc=00000000009640a2..000000000096410c
  DW_CFA_advance_loc: 1 to 00000000009640a3
  DW_CFA_def_cfa_offset: 16
  DW_CFA_offset: r6 (rbp) at cfa-16
  DW_CFA_advance_loc: 3 to 00000000009640a6
  DW_CFA_def_cfa_register: r6 (rbp)
  DW_CFA_advance_loc1: 101 to 000000000096410b
  DW_CFA_def_cfa: r7 (rsp) ofs 8
  DW_CFA_nop
  DW_CFA_nop

0000d674 000000000000001c 0000d678 FDE cie=00000000 pc=000000000096410c..000000000096412b
  DW_CFA_advance_loc: 1 to 000000000096410d
  DW_CFA_def_cfa_offset: 16
  DW_CFA_offset: r6 (rbp) at cfa-16
  DW_CFA_advance_loc: 3 to 0000000000964110
  DW_CFA_def_cfa_register: r6 (rbp)
  DW_CFA_advance_loc: 26 to 000000000096412a
  DW_CFA_def_cfa: r7 (rsp) ofs 8
  DW_CFA_nop
  DW_CFA_nop
  DW_CFA_nop

0000d694 000000000000001c 0000d698 FDE cie=00000000 pc=000000000096412b..0000000000964192
  DW_CFA_advance_loc: 1 to 000000000096412c
  DW_CFA_def_cfa_offset: 16
  DW_CFA_offset: r6 (rbp) at cfa-16
  DW_CFA_advance_loc: 3 to 000000000096412f
  DW_CFA_def_cfa_register: r6 (rbp)
  DW_CFA_advance_loc1: 98 to 0000000000964191
  DW_CFA_def_cfa: r7 (rsp) ofs 8
  DW_CFA_nop
  DW_CFA_nop

0000d6b4 000000000000001c 0000d6b8 FDE cie=00000000 pc=0000000000964192..0000000000964208
  DW_CFA_advance_loc: 1 to 0000000000964193
  DW_CFA_def_cfa_offset: 16
  DW_CFA_offset: r6 (rbp) at cfa-16
  DW_CFA_advance_loc: 3 to 0000000000964196
  DW_CFA_def_cfa_register: r6 (rbp)
  DW_CFA_advance_loc1: 113 to 0000000000964207
  DW_CFA_def_cfa: r7 (rsp) ofs 8
  DW_CFA_nop
  DW_CFA_nop

0000d6d4 000000000000001c 0000d6d8 FDE cie=00000000 pc=0000000000964208..0000000000964271
  DW_CFA_advance_loc: 1 to 0000000000964209
  DW_CFA_def_cfa_offset: 16
  DW_CFA_offset: r6 (rbp) at cfa-16
  DW_CFA_advance_loc: 3 to 000000000096420c
  DW_CFA_def_cfa_register: r6 (rbp)
  DW_CFA_advance_loc1: 100 to 0000000000964270
  DW_CFA_def_cfa: r7 (rsp) ofs 8
  DW_CFA_nop
  DW_CFA_nop

0000d6f4 000000000000001c 0000d6f8 FDE cie=00000000 pc=0000000000964271..00000000009643b4
  DW_CFA_advance_loc: 1 to 0000000000964272
  DW_CFA_def_cfa_offset: 16
  DW_CFA_offset: r6 (rbp) at cfa-16
  DW_CFA_advance_loc: 3 to 0000000000964275
  DW_CFA_def_cfa_register: r6 (rbp)
  DW_CFA_advance_loc2: 318 to 00000000009643b3
  DW_CFA_def_cfa: r7 (rsp) ofs 8
  DW_CFA_nop

0000d714 000000000000001c 0000d718 FDE cie=00000000 pc=00000000009643b4..0000000000964496
  DW_CFA_advance_loc: 1 to 00000000009643b5
  DW_CFA_def_cfa_offset: 16
  DW_CFA_offset: r6 (rbp) at cfa-16
  DW_CFA_advance_loc: 3 to 00000000009643b8
  DW_CFA_def_cfa_register: r6 (rbp)
  DW_CFA_advance_loc1: 221 to 0000000000964495
  DW_CFA_def_cfa: r7 (rsp) ofs 8
  DW_CFA_nop
  DW_CFA_nop

0000d734 000000000000001c 0000d738 FDE cie=00000000 pc=0000000000964496..000000000096455c
  DW_CFA_advance_loc: 1 to 0000000000964497
  DW_CFA_def_cfa_offset: 16
  DW_CFA_offset: r6 (rbp) at cfa-16
  DW_CFA_advance_loc: 3 to 000000000096449a
  DW_CFA_def_cfa_register: r6 (rbp)
  DW_CFA_advance_loc1: 193 to 000000000096455b
  DW_CFA_def_cfa: r7 (rsp) ofs 8
  DW_CFA_nop
  DW_CFA_nop

0000d754 000000000000001c 0000d758 FDE cie=00000000 pc=000000000096455c..000000000096459d
  DW_CFA_advance_loc: 1 to 000000000096455d
  DW_CFA_def_cfa_offset: 16
  DW_CFA_offset: r6 (rbp) at cfa-16
  DW_CFA_advance_loc: 3 to 0000000000964560
  DW_CFA_def_cfa_register: r6 (rbp)
  DW_CFA_advance_loc: 60 to 000000000096459c
  DW_CFA_def_cfa: r7 (rsp) ofs 8
  DW_CFA_nop
  DW_CFA_nop
  DW_CFA_nop

0000d774 000000000000001c 0000d778 FDE cie=00000000 pc=000000000096459d..0000000000964612
  DW_CFA_advance_loc: 1 to 000000000096459e
  DW_CFA_def_cfa_offset: 16
  DW_CFA_offset: r6 (rbp) at cfa-16
  DW_CFA_advance_loc: 3 to 00000000009645a1
  DW_CFA_def_cfa_register: r6 (rbp)
  DW_CFA_advance_loc1: 112 to 0000000000964611
  DW_CFA_def_cfa: r7 (rsp) ofs 8
  DW_CFA_nop
  DW_CFA_nop

0000d794 000000000000001c 0000d798 FDE cie=00000000 pc=0000000000964612..0000000000964696
  DW_CFA_advance_loc: 1 to 0000000000964613
  DW_CFA_def_cfa_offset: 16
  DW_CFA_offset: r6 (rbp) at cfa-16
  DW_CFA_advance_loc: 3 to 0000000000964616
  DW_CFA_def_cfa_register: r6 (rbp)
  DW_CFA_advance_loc1: 127 to 0000000000964695
  DW_CFA_def_cfa: r7 (rsp) ofs 8
  DW_CFA_nop
  DW_CFA_nop

0000d7b4 000000000000001c 0000d7b8 FDE cie=00000000 pc=0000000000964696..0000000000964709
  DW_CFA_advance_loc: 1 to 0000000000964697
  DW_CFA_def_cfa_offset: 16
  DW_CFA_offset: r6 (rbp) at cfa-16
  DW_CFA_advance_loc: 3 to 000000000096469a
  DW_CFA_def_cfa_register: r6 (rbp)
  DW_CFA_advance_loc1: 110 to 0000000000964708
  DW_CFA_def_cfa: r7 (rsp) ofs 8
  DW_CFA_nop
  DW_CFA_nop

0000d7d4 000000000000001c 0000d7d8 FDE cie=00000000 pc=0000000000964709..00000000009647cd
  DW_CFA_advance_loc: 1 to 000000000096470a
  DW_CFA_def_cfa_offset: 16
  DW_CFA_offset: r6 (rbp) at cfa-16
  DW_CFA_advance_loc: 3 to 000000000096470d
  DW_CFA_def_cfa_register: r6 (rbp)
  DW_CFA_advance_loc1: 191 to 00000000009647cc
  DW_CFA_def_cfa: r7 (rsp) ofs 8
  DW_CFA_nop
  DW_CFA_nop

0000d7f4 000000000000001c 0000d7f8 FDE cie=00000000 pc=00000000009647cd..0000000000964912
  DW_CFA_advance_loc: 1 to 00000000009647ce
  DW_CFA_def_cfa_offset: 16
  DW_CFA_offset: r6 (rbp) at cfa-16
  DW_CFA_advance_loc: 3 to 00000000009647d1
  DW_CFA_def_cfa_register: r6 (rbp)
  DW_CFA_advance_loc2: 320 to 0000000000964911
  DW_CFA_def_cfa: r7 (rsp) ofs 8
  DW_CFA_nop

0000d814 000000000000001c 0000d818 FDE cie=00000000 pc=0000000000964912..0000000000964944
  DW_CFA_advance_loc: 1 to 0000000000964913
  DW_CFA_def_cfa_offset: 16
  DW_CFA_offset: r6 (rbp) at cfa-16
  DW_CFA_advance_loc: 3 to 0000000000964916
  DW_CFA_def_cfa_register: r6 (rbp)
  DW_CFA_advance_loc: 45 to 0000000000964943
  DW_CFA_def_cfa: r7 (rsp) ofs 8
  DW_CFA_nop
  DW_CFA_nop
  DW_CFA_nop

0000d834 000000000000001c 0000d838 FDE cie=00000000 pc=0000000000964944..00000000009649ce
  DW_CFA_advance_loc: 1 to 0000000000964945
  DW_CFA_def_cfa_offset: 16
  DW_CFA_offset: r6 (rbp) at cfa-16
  DW_CFA_advance_loc: 3 to 0000000000964948
  DW_CFA_def_cfa_register: r6 (rbp)
  DW_CFA_advance_loc1: 133 to 00000000009649cd
  DW_CFA_def_cfa: r7 (rsp) ofs 8
  DW_CFA_nop
  DW_CFA_nop

0000d854 000000000000001c 0000d858 FDE cie=00000000 pc=00000000009649ce..0000000000964a1e
  DW_CFA_advance_loc: 1 to 00000000009649cf
  DW_CFA_def_cfa_offset: 16
  DW_CFA_offset: r6 (rbp) at cfa-16
  DW_CFA_advance_loc: 3 to 00000000009649d2
  DW_CFA_def_cfa_register: r6 (rbp)
  DW_CFA_advance_loc1: 75 to 0000000000964a1d
  DW_CFA_def_cfa: r7 (rsp) ofs 8
  DW_CFA_nop
  DW_CFA_nop

0000d874 000000000000001c 0000d878 FDE cie=00000000 pc=0000000000964a1e..0000000000964a7c
  DW_CFA_advance_loc: 1 to 0000000000964a1f
  DW_CFA_def_cfa_offset: 16
  DW_CFA_offset: r6 (rbp) at cfa-16
  DW_CFA_advance_loc: 3 to 0000000000964a22
  DW_CFA_def_cfa_register: r6 (rbp)
  DW_CFA_advance_loc1: 89 to 0000000000964a7b
  DW_CFA_def_cfa: r7 (rsp) ofs 8
  DW_CFA_nop
  DW_CFA_nop

0000d894 000000000000001c 0000d898 FDE cie=00000000 pc=0000000000964a7c..0000000000964ac3
  DW_CFA_advance_loc: 1 to 0000000000964a7d
  DW_CFA_def_cfa_offset: 16
  DW_CFA_offset: r6 (rbp) at cfa-16
  DW_CFA_advance_loc: 3 to 0000000000964a80
  DW_CFA_def_cfa_register: r6 (rbp)
  DW_CFA_advance_loc1: 66 to 0000000000964ac2
  DW_CFA_def_cfa: r7 (rsp) ofs 8
  DW_CFA_nop
  DW_CFA_nop

0000d8b4 000000000000001c 0000d8b8 FDE cie=00000000 pc=0000000000964ac3..0000000000964b21
  DW_CFA_advance_loc: 1 to 0000000000964ac4
  DW_CFA_def_cfa_offset: 16
  DW_CFA_offset: r6 (rbp) at cfa-16
  DW_CFA_advance_loc: 3 to 0000000000964ac7
  DW_CFA_def_cfa_register: r6 (rbp)
  DW_CFA_advance_loc1: 89 to 0000000000964b20
  DW_CFA_def_cfa: r7 (rsp) ofs 8
  DW_CFA_nop
  DW_CFA_nop

0000d8d4 000000000000001c 0000d8d8 FDE cie=00000000 pc=0000000000964b21..0000000000964b7d
  DW_CFA_advance_loc: 1 to 0000000000964b22
  DW_CFA_def_cfa_offset: 16
  DW_CFA_offset: r6 (rbp) at cfa-16
  DW_CFA_advance_loc: 3 to 0000000000964b25
  DW_CFA_def_cfa_register: r6 (rbp)
  DW_CFA_advance_loc1: 87 to 0000000000964b7c
  DW_CFA_def_cfa: r7 (rsp) ofs 8
  DW_CFA_nop
  DW_CFA_nop

0000d8f4 000000000000001c 0000d8f8 FDE cie=00000000 pc=0000000000964b7d..0000000000964be3
  DW_CFA_advance_loc: 1 to 0000000000964b7e
  DW_CFA_def_cfa_offset: 16
  DW_CFA_offset: r6 (rbp) at cfa-16
  DW_CFA_advance_loc: 3 to 0000000000964b81
  DW_CFA_def_cfa_register: r6 (rbp)
  DW_CFA_advance_loc1: 97 to 0000000000964be2
  DW_CFA_def_cfa: r7 (rsp) ofs 8
  DW_CFA_nop
  DW_CFA_nop

0000d914 000000000000001c 0000d918 FDE cie=00000000 pc=0000000000964be3..0000000000964c71
  DW_CFA_advance_loc: 1 to 0000000000964be4
  DW_CFA_def_cfa_offset: 16
  DW_CFA_offset: r6 (rbp) at cfa-16
  DW_CFA_advance_loc: 3 to 0000000000964be7
  DW_CFA_def_cfa_register: r6 (rbp)
  DW_CFA_advance_loc1: 137 to 0000000000964c70
  DW_CFA_def_cfa: r7 (rsp) ofs 8
  DW_CFA_nop
  DW_CFA_nop

0000d934 000000000000001c 0000d938 FDE cie=00000000 pc=0000000000964c71..0000000000964cd9
  DW_CFA_advance_loc: 1 to 0000000000964c72
  DW_CFA_def_cfa_offset: 16
  DW_CFA_offset: r6 (rbp) at cfa-16
  DW_CFA_advance_loc: 3 to 0000000000964c75
  DW_CFA_def_cfa_register: r6 (rbp)
  DW_CFA_advance_loc1: 99 to 0000000000964cd8
  DW_CFA_def_cfa: r7 (rsp) ofs 8
  DW_CFA_nop
  DW_CFA_nop

0000d954 000000000000001c 0000d958 FDE cie=00000000 pc=0000000000964cd9..0000000000964d7a
  DW_CFA_advance_loc: 1 to 0000000000964cda
  DW_CFA_def_cfa_offset: 16
  DW_CFA_offset: r6 (rbp) at cfa-16
  DW_CFA_advance_loc: 3 to 0000000000964cdd
  DW_CFA_def_cfa_register: r6 (rbp)
  DW_CFA_advance_loc1: 156 to 0000000000964d79
  DW_CFA_def_cfa: r7 (rsp) ofs 8
  DW_CFA_nop
  DW_CFA_nop

0000d974 000000000000001c 0000d978 FDE cie=00000000 pc=0000000000964d7a..0000000000964da1
  DW_CFA_advance_loc: 1 to 0000000000964d7b
  DW_CFA_def_cfa_offset: 16
  DW_CFA_offset: r6 (rbp) at cfa-16
  DW_CFA_advance_loc: 3 to 0000000000964d7e
  DW_CFA_def_cfa_register: r6 (rbp)
  DW_CFA_advance_loc: 34 to 0000000000964da0
  DW_CFA_def_cfa: r7 (rsp) ofs 8
  DW_CFA_nop
  DW_CFA_nop
  DW_CFA_nop

0000d994 000000000000001c 0000d998 FDE cie=00000000 pc=0000000000964da1..0000000000964e10
  DW_CFA_advance_loc: 1 to 0000000000964da2
  DW_CFA_def_cfa_offset: 16
  DW_CFA_offset: r6 (rbp) at cfa-16
  DW_CFA_advance_loc: 3 to 0000000000964da5
  DW_CFA_def_cfa_register: r6 (rbp)
  DW_CFA_advance_loc1: 106 to 0000000000964e0f
  DW_CFA_def_cfa: r7 (rsp) ofs 8
  DW_CFA_nop
  DW_CFA_nop

0000d9b4 000000000000001c 0000d9b8 FDE cie=00000000 pc=0000000000964e10..0000000000964e7f
  DW_CFA_advance_loc: 1 to 0000000000964e11
  DW_CFA_def_cfa_offset: 16
  DW_CFA_offset: r6 (rbp) at cfa-16
  DW_CFA_advance_loc: 3 to 0000000000964e14
  DW_CFA_def_cfa_register: r6 (rbp)
  DW_CFA_advance_loc1: 106 to 0000000000964e7e
  DW_CFA_def_cfa: r7 (rsp) ofs 8
  DW_CFA_nop
  DW_CFA_nop

0000d9d4 000000000000001c 0000d9d8 FDE cie=00000000 pc=0000000000964e7f..0000000000964f05
  DW_CFA_advance_loc: 1 to 0000000000964e80
  DW_CFA_def_cfa_offset: 16
  DW_CFA_offset: r6 (rbp) at cfa-16
  DW_CFA_advance_loc: 3 to 0000000000964e83
  DW_CFA_def_cfa_register: r6 (rbp)
  DW_CFA_advance_loc1: 129 to 0000000000964f04
  DW_CFA_def_cfa: r7 (rsp) ofs 8
  DW_CFA_nop
  DW_CFA_nop
