
0000d9f4 000000000000001c 0000d9f8 FDE cie=00000000 pc=0000000000964f05..0000000000964f8b
  DW_CFA_advance_loc: 1 to 0000000000964f06
  DW_CFA_def_cfa_offset: 16
  DW_CFA_offset: r6 (rbp) at cfa-16
  DW_CFA_advance_loc: 3 to 0000000000964f09
  DW_CFA_def_cfa_register: r6 (rbp)
  DW_CFA_advance_loc1: 129 to 0000000000964f8a
  DW_CFA_def_cfa: r7 (rsp) ofs 8
  DW_CFA_nop
  DW_CFA_nop

0000da14 000000000000001c 0000da18 FDE cie=00000000 pc=0000000000964f8b..0000000000964fcb
  DW_CFA_advance_loc: 1 to 0000000000964f8c
  DW_CFA_def_cfa_offset: 16
  DW_CFA_offset: r6 (rbp) at cfa-16
  DW_CFA_advance_loc: 3 to 0000000000964f8f
  DW_CFA_def_cfa_register: r6 (rbp)
  DW_CFA_advance_loc: 59 to 0000000000964fca
  DW_CFA_def_cfa: r7 (rsp) ofs 8
  DW_CFA_nop
  DW_CFA_nop
  DW_CFA_nop

0000da34 000000000000001c 0000da38 FDE cie=00000000 pc=0000000000964fcb..0000000000965001
  DW_CFA_advance_loc: 1 to 0000000000964fcc
  DW_CFA_def_cfa_offset: 16
  DW_CFA_offset: r6 (rbp) at cfa-16
  DW_CFA_advance_loc: 3 to 0000000000964fcf
  DW_CFA_def_cfa_register: r6 (rbp)
  DW_CFA_advance_loc: 49 to 0000000000965000
  DW_CFA_def_cfa: r7 (rsp) ofs 8
  DW_CFA_nop
  DW_CFA_nop
  DW_CFA_nop

0000da54 0000000000000020 0000da58 FDE cie=00000000 pc=0000000000965001..00000000009651fa
  DW_CFA_advance_loc: 1 to 0000000000965002
  DW_CFA_def_cfa_offset: 16
  DW_CFA_offset: r6 (rbp) at cfa-16
  DW_CFA_advance_loc: 3 to 0000000000965005
  DW_CFA_def_cfa_register: r6 (rbp)
  DW_CFA_advance_loc: 5 to 000000000096500a
  DW_CFA_offset: r3 (rbx) at cfa-24
  DW_CFA_advance_loc2: 495 to 00000000009651f9
  DW_CFA_def_cfa: r7 (rsp) ofs 8
  DW_CFA_nop
  DW_CFA_nop

0000da78 000000000000001c 0000da7c FDE cie=00000000 pc=00000000009651fa..0000000000965579
  DW_CFA_advance_loc: 1 to 00000000009651fb
  DW_CFA_def_cfa_offset: 16
  DW_CFA_offset: r6 (rbp) at cfa-16
  DW_CFA_advance_loc: 3 to 00000000009651fe
  DW_CFA_def_cfa_register: r6 (rbp)
  DW_CFA_advance_loc2: 890 to 0000000000965578
  DW_CFA_def_cfa: r7 (rsp) ofs 8
  DW_CFA_nop

0000da98 0000000000000020 0000da9c FDE cie=00000000 pc=0000000000965579..0000000000965aff
  DW_CFA_advance_loc: 1 to 000000000096557a
  DW_CFA_def_cfa_offset: 16
  DW_CFA_offset: r6 (rbp) at cfa-16
  DW_CFA_advance_loc: 3 to 000000000096557d
  DW_CFA_def_cfa_register: r6 (rbp)
  DW_CFA_advance_loc: 8 to 0000000000965585
  DW_CFA_offset: r3 (rbx) at cfa-24
  DW_CFA_advance_loc2: 1401 to 0000000000965afe
  DW_CFA_def_cfa: r7 (rsp) ofs 8
  DW_CFA_nop
  DW_CFA_nop

0000dabc 000000000000001c 0000dac0 FDE cie=00000000 pc=0000000000965aff..00000000009662c0
  DW_CFA_advance_loc: 1 to 0000000000965b00
  DW_CFA_def_cfa_offset: 16
  DW_CFA_offset: r6 (rbp) at cfa-16
  DW_CFA_advance_loc: 3 to 0000000000965b03
  DW_CFA_def_cfa_register: r6 (rbp)
  DW_CFA_advance_loc2: 1980 to 00000000009662bf
  DW_CFA_def_cfa: r7 (rsp) ofs 8
  DW_CFA_nop

0000dadc 0000000000000020 0000dae0 FDE cie=00000000 pc=00000000009662c0..00000000009663c9
  DW_CFA_advance_loc: 1 to 00000000009662c1
  DW_CFA_def_cfa_offset: 16
  DW_CFA_offset: r6 (rbp) at cfa-16
  DW_CFA_advance_loc: 3 to 00000000009662c4
  DW_CFA_def_cfa_register: r6 (rbp)
  DW_CFA_advance_loc: 5 to 00000000009662c9
  DW_CFA_offset: r3 (rbx) at cfa-24
  DW_CFA_advance_loc1: 255 to 00000000009663c8
  DW_CFA_def_cfa: r7 (rsp) ofs 8
  DW_CFA_nop
  DW_CFA_nop
  DW_CFA_nop

0000db00 000000000000001c 0000db04 FDE cie=00000000 pc=00000000009663c9..0000000000966455
  DW_CFA_advance_loc: 1 to 00000000009663ca
  DW_CFA_def_cfa_offset: 16
  DW_CFA_offset: r6 (rbp) at cfa-16
  DW_CFA_advance_loc: 3 to 00000000009663cd
  DW_CFA_def_cfa_register: r6 (rbp)
  DW_CFA_advance_loc1: 135 to 0000000000966454
  DW_CFA_def_cfa: r7 (rsp) ofs 8
  DW_CFA_nop
  DW_CFA_nop

0000db20 000000000000001c 0000db24 FDE cie=00000000 pc=0000000000966455..00000000009664d4
  DW_CFA_advance_loc: 1 to 0000000000966456
  DW_CFA_def_cfa_offset: 16
  DW_CFA_offset: r6 (rbp) at cfa-16
  DW_CFA_advance_loc: 3 to 0000000000966459
  DW_CFA_def_cfa_register: r6 (rbp)
  DW_CFA_advance_loc1: 122 to 00000000009664d3
  DW_CFA_def_cfa: r7 (rsp) ofs 8
  DW_CFA_nop
  DW_CFA_nop

0000db40 000000000000001c 0000db44 FDE cie=00000000 pc=00000000009664d4..000000000096656b
  DW_CFA_advance_loc: 1 to 00000000009664d5
  DW_CFA_def_cfa_offset: 16
  DW_CFA_offset: r6 (rbp) at cfa-16
  DW_CFA_advance_loc: 3 to 00000000009664d8
  DW_CFA_def_cfa_register: r6 (rbp)
  DW_CFA_advance_loc1: 146 to 000000000096656a
  DW_CFA_def_cfa: r7 (rsp) ofs 8
  DW_CFA_nop
  DW_CFA_nop

0000db60 000000000000001c 0000db64 FDE cie=00000000 pc=000000000096656b..00000000009665df
  DW_CFA_advance_loc: 1 to 000000000096656c
  DW_CFA_def_cfa_offset: 16
  DW_CFA_offset: r6 (rbp) at cfa-16
  DW_CFA_advance_loc: 3 to 000000000096656f
  DW_CFA_def_cfa_register: r6 (rbp)
  DW_CFA_advance_loc1: 111 to 00000000009665de
  DW_CFA_def_cfa: r7 (rsp) ofs 8
  DW_CFA_nop
  DW_CFA_nop

0000db80 0000000000000020 0000db84 FDE cie=00000000 pc=00000000009665df..0000000000966665
  DW_CFA_advance_loc: 1 to 00000000009665e0
  DW_CFA_def_cfa_offset: 16
  DW_CFA_offset: r6 (rbp) at cfa-16
  DW_CFA_advance_loc: 3 to 00000000009665e3
  DW_CFA_def_cfa_register: r6 (rbp)
  DW_CFA_advance_loc: 1 to 00000000009665e4
  DW_CFA_offset: r3 (rbx) at cfa-24
  DW_CFA_advance_loc1: 128 to 0000000000966664
  DW_CFA_def_cfa: r7 (rsp) ofs 8
  DW_CFA_nop
  DW_CFA_nop
  DW_CFA_nop

0000dba4 000000000000001c 0000dba8 FDE cie=00000000 pc=0000000000966665..000000000096669b
  DW_CFA_advance_loc: 1 to 0000000000966666
  DW_CFA_def_cfa_offset: 16
  DW_CFA_offset: r6 (rbp) at cfa-16
  DW_CFA_advance_loc: 3 to 0000000000966669
  DW_CFA_def_cfa_register: r6 (rbp)
  DW_CFA_advance_loc: 49 to 000000000096669a
  DW_CFA_def_cfa: r7 (rsp) ofs 8
  DW_CFA_nop
  DW_CFA_nop
  DW_CFA_nop

0000dbc4 000000000000001c 0000dbc8 FDE cie=00000000 pc=000000000096669b..00000000009666b6
  DW_CFA_advance_loc: 1 to 000000000096669c
  DW_CFA_def_cfa_offset: 16
  DW_CFA_offset: r6 (rbp) at cfa-16
  DW_CFA_advance_loc: 3 to 000000000096669f
  DW_CFA_def_cfa_register: r6 (rbp)
  DW_CFA_advance_loc: 22 to 00000000009666b5
  DW_CFA_def_cfa: r7 (rsp) ofs 8
  DW_CFA_nop
  DW_CFA_nop
  DW_CFA_nop

0000dbe4 000000000000001c 0000dbe8 FDE cie=00000000 pc=00000000009666b6..00000000009668c9
  DW_CFA_advance_loc: 1 to 00000000009666b7
  DW_CFA_def_cfa_offset: 16
  DW_CFA_offset: r6 (rbp) at cfa-16
  DW_CFA_advance_loc: 3 to 00000000009666ba
  DW_CFA_def_cfa_register: r6 (rbp)
  DW_CFA_advance_loc2: 526 to 00000000009668c8
  DW_CFA_def_cfa: r7 (rsp) ofs 8
  DW_CFA_nop

0000dc04 000000000000001c 0000dc08 FDE cie=00000000 pc=00000000009668c9..0000000000966952
  DW_CFA_advance_loc: 1 to 00000000009668ca
  DW_CFA_def_cfa_offset: 16
  DW_CFA_offset: r6 (rbp) at cfa-16
  DW_CFA_advance_loc: 3 to 00000000009668cd
  DW_CFA_def_cfa_register: r6 (rbp)
  DW_CFA_advance_loc1: 132 to 0000000000966951
  DW_CFA_def_cfa: r7 (rsp) ofs 8
  DW_CFA_nop
  DW_CFA_nop

0000dc24 000000000000001c 0000dc28 FDE cie=00000000 pc=0000000000966952..0000000000966a2d
  DW_CFA_advance_loc: 1 to 0000000000966953
  DW_CFA_def_cfa_offset: 16
  DW_CFA_offset: r6 (rbp) at cfa-16
  DW_CFA_advance_loc: 3 to 0000000000966956
  DW_CFA_def_cfa_register: r6 (rbp)
  DW_CFA_advance_loc1: 214 to 0000000000966a2c
  DW_CFA_def_cfa: r7 (rsp) ofs 8
  DW_CFA_nop
  DW_CFA_nop

0000dc44 000000000000001c 0000dc48 FDE cie=00000000 pc=0000000000966a2d..0000000000966b55
  DW_CFA_advance_loc: 1 to 0000000000966a2e
  DW_CFA_def_cfa_offset: 16
  DW_CFA_offset: r6 (rbp) at cfa-16
  DW_CFA_advance_loc: 3 to 0000000000966a31
  DW_CFA_def_cfa_register: r6 (rbp)
  DW_CFA_advance_loc2: 291 to 0000000000966b54
  DW_CFA_def_cfa: r7 (rsp) ofs 8
  DW_CFA_nop

0000dc64 000000000000001c 0000dc68 FDE cie=00000000 pc=0000000000966b55..0000000000966b8f
  DW_CFA_advance_loc: 1 to 0000000000966b56
  DW_CFA_def_cfa_offset: 16
  DW_CFA_offset: r6 (rbp) at cfa-16
  DW_CFA_advance_loc: 3 to 0000000000966b59
  DW_CFA_def_cfa_register: r6 (rbp)
  DW_CFA_advance_loc: 53 to 0000000000966b8e
  DW_CFA_def_cfa: r7 (rsp) ofs 8
  DW_CFA_nop
  DW_CFA_nop
  DW_CFA_nop

0000dc84 000000000000001c 0000dc88 FDE cie=00000000 pc=0000000000966b8f..0000000000966c65
  DW_CFA_advance_loc: 1 to 0000000000966b90
  DW_CFA_def_cfa_offset: 16
  DW_CFA_offset: r6 (rbp) at cfa-16
  DW_CFA_advance_loc: 3 to 0000000000966b93
  DW_CFA_def_cfa_register: r6 (rbp)
  DW_CFA_advance_loc1: 209 to 0000000000966c64
  DW_CFA_def_cfa: r7 (rsp) ofs 8
  DW_CFA_nop
  DW_CFA_nop

0000dca4 000000000000001c 0000dca8 FDE cie=00000000 pc=0000000000966c65..0000000000966cd5
  DW_CFA_advance_loc: 1 to 0000000000966c66
  DW_CFA_def_cfa_offset: 16
  DW_CFA_offset: r6 (rbp) at cfa-16
  DW_CFA_advance_loc: 3 to 0000000000966c69
  DW_CFA_def_cfa_register: r6 (rbp)
  DW_CFA_advance_loc1: 107 to 0000000000966cd4
  DW_CFA_def_cfa: r7 (rsp) ofs 8
  DW_CFA_nop
  DW_CFA_nop

0000dcc4 000000000000001c 0000dcc8 FDE cie=00000000 pc=0000000000966cd5..0000000000966d55
  DW_CFA_advance_loc: 1 to 0000000000966cd6
  DW_CFA_def_cfa_offset: 16
  DW_CFA_offset: r6 (rbp) at cfa-16
  DW_CFA_advance_loc: 3 to 0000000000966cd9
  DW_CFA_def_cfa_register: r6 (rbp)
  DW_CFA_advance_loc1: 123 to 0000000000966d54
  DW_CFA_def_cfa: r7 (rsp) ofs 8
  DW_CFA_nop
  DW_CFA_nop

0000dce4 000000000000001c 0000dce8 FDE cie=00000000 pc=0000000000966d55..0000000000966d82
  DW_CFA_advance_loc: 1 to 0000000000966d56
  DW_CFA_def_cfa_offset: 16
  DW_CFA_offset: r6 (rbp) at cfa-16
  DW_CFA_advance_loc: 3 to 0000000000966d59
  DW_CFA_def_cfa_register: r6 (rbp)
  DW_CFA_advance_loc: 40 to 0000000000966d81
  DW_CFA_def_cfa: r7 (rsp) ofs 8
  DW_CFA_nop
  DW_CFA_nop
  DW_CFA_nop

0000dd04 000000000000001c 0000dd08 FDE cie=00000000 pc=0000000000966d82..0000000000966ebc
  DW_CFA_advance_loc: 1 to 0000000000966d83
  DW_CFA_def_cfa_offset: 16
  DW_CFA_offset: r6 (rbp) at cfa-16
  DW_CFA_advance_loc: 3 to 0000000000966d86
  DW_CFA_def_cfa_register: r6 (rbp)
  DW_CFA_advance_loc2: 309 to 0000000000966ebb
  DW_CFA_def_cfa: r7 (rsp) ofs 8
  DW_CFA_nop

0000dd24 000000000000001c 0000dd28 FDE cie=00000000 pc=0000000000966ebc..0000000000966f5c
  DW_CFA_advance_loc: 1 to 0000000000966ebd
  DW_CFA_def_cfa_offset: 16
  DW_CFA_offset: r6 (rbp) at cfa-16
  DW_CFA_advance_loc: 3 to 0000000000966ec0
  DW_CFA_def_cfa_register: r6 (rbp)
  DW_CFA_advance_loc1: 155 to 0000000000966f5b
  DW_CFA_def_cfa: r7 (rsp) ofs 8
  DW_CFA_nop
  DW_CFA_nop

0000dd44 000000000000001c 0000dd48 FDE cie=00000000 pc=0000000000966f5c..0000000000966fcf
  DW_CFA_advance_loc: 1 to 0000000000966f5d
  DW_CFA_def_cfa_offset: 16
  DW_CFA_offset: r6 (rbp) at cfa-16
  DW_CFA_advance_loc: 3 to 0000000000966f60
  DW_CFA_def_cfa_register: r6 (rbp)
  DW_CFA_advance_loc1: 110 to 0000000000966fce
  DW_CFA_def_cfa: r7 (rsp) ofs 8
  DW_CFA_nop
  DW_CFA_nop

0000dd64 000000000000001c 0000dd68 FDE cie=00000000 pc=0000000000966fcf..0000000000966ffc
  DW_CFA_advance_loc: 1 to 0000000000966fd0
  DW_CFA_def_cfa_offset: 16
  DW_CFA_offset: r6 (rbp) at cfa-16
  DW_CFA_advance_loc: 3 to 0000000000966fd3
  DW_CFA_def_cfa_register: r6 (rbp)
  DW_CFA_advance_loc: 40 to 0000000000966ffb
  DW_CFA_def_cfa: r7 (rsp) ofs 8
  DW_CFA_nop
  DW_CFA_nop
  DW_CFA_nop

0000dd84 000000000000001c 0000dd88 FDE cie=00000000 pc=0000000000966ffc..0000000000967136
  DW_CFA_advance_loc: 1 to 0000000000966ffd
  DW_CFA_def_cfa_offset: 16
  DW_CFA_offset: r6 (rbp) at cfa-16
  DW_CFA_advance_loc: 3 to 0000000000967000
  DW_CFA_def_cfa_register: r6 (rbp)
  DW_CFA_advance_loc2: 309 to 0000000000967135
  DW_CFA_def_cfa: r7 (rsp) ofs 8
  DW_CFA_nop

0000dda4 000000000000001c 0000dda8 FDE cie=00000000 pc=0000000000967136..00000000009672b5
  DW_CFA_advance_loc: 1 to 0000000000967137
  DW_CFA_def_cfa_offset: 16
  DW_CFA_offset: r6 (rbp) at cfa-16
  DW_CFA_advance_loc: 3 to 000000000096713a
  DW_CFA_def_cfa_register: r6 (rbp)
  DW_CFA_advance_loc2: 378 to 00000000009672b4
  DW_CFA_def_cfa: r7 (rsp) ofs 8
  DW_CFA_nop

0000ddc4 000000000000001c 0000ddc8 FDE cie=00000000 pc=00000000009672b5..00000000009673cb
  DW_CFA_advance_loc: 1 to 00000000009672b6
  DW_CFA_def_cfa_offset: 16
  DW_CFA_offset: r6 (rbp) at cfa-16
  DW_CFA_advance_loc: 3 to 00000000009672b9
  DW_CFA_def_cfa_register: r6 (rbp)
  DW_CFA_advance_loc2: 273 to 00000000009673ca
  DW_CFA_def_cfa: r7 (rsp) ofs 8
  DW_CFA_nop

0000dde4 000000000000001c 0000dde8 FDE cie=00000000 pc=00000000009673cb..0000000000967405
  DW_CFA_advance_loc: 1 to 00000000009673cc
  DW_CFA_def_cfa_offset: 16
  DW_CFA_offset: r6 (rbp) at cfa-16
  DW_CFA_advance_loc: 3 to 00000000009673cf
  DW_CFA_def_cfa_register: r6 (rbp)
  DW_CFA_advance_loc: 53 to 0000000000967404
  DW_CFA_def_cfa: r7 (rsp) ofs 8
  DW_CFA_nop
  DW_CFA_nop
  DW_CFA_nop

0000de04 000000000000001c 0000de08 FDE cie=00000000 pc=0000000000967405..00000000009674b9
  DW_CFA_advance_loc: 1 to 0000000000967406
  DW_CFA_def_cfa_offset: 16
  DW_CFA_offset: r6 (rbp) at cfa-16
  DW_CFA_advance_loc: 3 to 0000000000967409
  DW_CFA_def_cfa_register: r6 (rbp)
  DW_CFA_advance_loc1: 175 to 00000000009674b8
  DW_CFA_def_cfa: r7 (rsp) ofs 8
  DW_CFA_nop
  DW_CFA_nop

0000de24 0000000000000020 0000de28 FDE cie=00000000 pc=00000000009674b9..0000000000967698
  DW_CFA_advance_loc: 1 to 00000000009674ba
  DW_CFA_def_cfa_offset: 16
  DW_CFA_offset: r6 (rbp) at cfa-16
  DW_CFA_advance_loc: 3 to 00000000009674bd
  DW_CFA_def_cfa_register: r6 (rbp)
  DW_CFA_advance_loc: 5 to 00000000009674c2
  DW_CFA_offset: r3 (rbx) at cfa-24
  DW_CFA_advance_loc2: 469 to 0000000000967697
  DW_CFA_def_cfa: r7 (rsp) ofs 8
  DW_CFA_nop
  DW_CFA_nop

0000de48 000000000000001c 0000de4c FDE cie=00000000 pc=0000000000967698..0000000000967728
  DW_CFA_advance_loc: 1 to 0000000000967699
  DW_CFA_def_cfa_offset: 16
  DW_CFA_offset: r6 (rbp) at cfa-16
  DW_CFA_advance_loc: 3 to 000000000096769c
  DW_CFA_def_cfa_register: r6 (rbp)
  DW_CFA_advance_loc1: 139 to 0000000000967727
  DW_CFA_def_cfa: r7 (rsp) ofs 8
  DW_CFA_nop
  DW_CFA_nop

0000de68 000000000000001c 0000de6c FDE cie=00000000 pc=0000000000967728..000000000096779a
  DW_CFA_advance_loc: 1 to 0000000000967729
  DW_CFA_def_cfa_offset: 16
  DW_CFA_offset: r6 (rbp) at cfa-16
  DW_CFA_advance_loc: 3 to 000000000096772c
  DW_CFA_def_cfa_register: r6 (rbp)
  DW_CFA_advance_loc1: 109 to 0000000000967799
  DW_CFA_def_cfa: r7 (rsp) ofs 8
  DW_CFA_nop
  DW_CFA_nop

0000de88 000000000000001c 0000de8c FDE cie=00000000 pc=000000000096779a..00000000009677de
  DW_CFA_advance_loc: 1 to 000000000096779b
  DW_CFA_def_cfa_offset: 16
  DW_CFA_offset: r6 (rbp) at cfa-16
  DW_CFA_advance_loc: 3 to 000000000096779e
  DW_CFA_def_cfa_register: r6 (rbp)
  DW_CFA_advance_loc: 63 to 00000000009677dd
  DW_CFA_def_cfa: r7 (rsp) ofs 8
  DW_CFA_nop
  DW_CFA_nop
  DW_CFA_nop

0000dea8 000000000000001c 0000deac FDE cie=00000000 pc=00000000009677de..000000000096780b
  DW_CFA_advance_loc: 1 to 00000000009677df
  DW_CFA_def_cfa_offset: 16
  DW_CFA_offset: r6 (rbp) at cfa-16
  DW_CFA_advance_loc: 3 to 00000000009677e2
  DW_CFA_def_cfa_register: r6 (rbp)
  DW_CFA_advance_loc: 40 to 000000000096780a
  DW_CFA_def_cfa: r7 (rsp) ofs 8
  DW_CFA_nop
  DW_CFA_nop
  DW_CFA_nop

0000dec8 000000000000001c 0000decc FDE cie=00000000 pc=000000000096780b..00000000009678e8
  DW_CFA_advance_loc: 1 to 000000000096780c
  DW_CFA_def_cfa_offset: 16
  DW_CFA_offset: r6 (rbp) at cfa-16
  DW_CFA_advance_loc: 3 to 000000000096780f
  DW_CFA_def_cfa_register: r6 (rbp)
  DW_CFA_advance_loc1: 216 to 00000000009678e7
  DW_CFA_def_cfa: r7 (rsp) ofs 8
  DW_CFA_nop
  DW_CFA_nop

0000dee8 000000000000001c 0000deec FDE cie=00000000 pc=00000000009678e8..000000000096792b
  DW_CFA_advance_loc: 1 to 00000000009678e9
  DW_CFA_def_cfa_offset: 16
  DW_CFA_offset: r6 (rbp) at cfa-16
  DW_CFA_advance_loc: 3 to 00000000009678ec
  DW_CFA_def_cfa_register: r6 (rbp)
  DW_CFA_advance_loc: 62 to 000000000096792a
  DW_CFA_def_cfa: r7 (rsp) ofs 8
  DW_CFA_nop
  DW_CFA_nop
  DW_CFA_nop

0000df08 000000000000001c 0000df0c FDE cie=00000000 pc=000000000096792b..000000000096796e
  DW_CFA_advance_loc: 1 to 000000000096792c
  DW_CFA_def_cfa_offset: 16
  DW_CFA_offset: r6 (rbp) at cfa-16
  DW_CFA_advance_loc: 3 to 000000000096792f
  DW_CFA_def_cfa_register: r6 (rbp)
  DW_CFA_advance_loc: 62 to 000000000096796d
  DW_CFA_def_cfa: r7 (rsp) ofs 8
  DW_CFA_nop
  DW_CFA_nop
  DW_CFA_nop

0000df28 000000000000001c 0000df2c FDE cie=00000000 pc=000000000096796e..0000000000967c97
  DW_CFA_advance_loc: 1 to 000000000096796f
  DW_CFA_def_cfa_offset: 16
  DW_CFA_offset: r6 (rbp) at cfa-16
  DW_CFA_advance_loc: 3 to 0000000000967972
  DW_CFA_def_cfa_register: r6 (rbp)
  DW_CFA_advance_loc2: 804 to 0000000000967c96
  DW_CFA_def_cfa: r7 (rsp) ofs 8
  DW_CFA_nop

0000df48 000000000000001c 0000df4c FDE cie=00000000 pc=0000000000967c97..0000000000967d7c
  DW_CFA_advance_loc: 1 to 0000000000967c98
  DW_CFA_def_cfa_offset: 16
  DW_CFA_offset: r6 (rbp) at cfa-16
  DW_CFA_advance_loc: 3 to 0000000000967c9b
  DW_CFA_def_cfa_register: r6 (rbp)
  DW_CFA_advance_loc1: 224 to 0000000000967d7b
  DW_CFA_def_cfa: r7 (rsp) ofs 8
  DW_CFA_nop
  DW_CFA_nop

0000df68 000000000000001c 0000df6c FDE cie=00000000 pc=0000000000967d7c..0000000000967e30
  DW_CFA_advance_loc: 1 to 0000000000967d7d
  DW_CFA_def_cfa_offset: 16
  DW_CFA_offset: r6 (rbp) at cfa-16
  DW_CFA_advance_loc: 3 to 0000000000967d80
  DW_CFA_def_cfa_register: r6 (rbp)
  DW_CFA_advance_loc1: 175 to 0000000000967e2f
  DW_CFA_def_cfa: r7 (rsp) ofs 8
  DW_CFA_nop
  DW_CFA_nop

0000df88 000000000000001c 0000df8c FDE cie=00000000 pc=0000000000967e30..0000000000967ed0
  DW_CFA_advance_loc: 1 to 0000000000967e31
  DW_CFA_def_cfa_offset: 16
  DW_CFA_offset: r6 (rbp) at cfa-16
  DW_CFA_advance_loc: 3 to 0000000000967e34
  DW_CFA_def_cfa_register: r6 (rbp)
  DW_CFA_advance_loc1: 155 to 0000000000967ecf
  DW_CFA_def_cfa: r7 (rsp) ofs 8
  DW_CFA_nop
  DW_CFA_nop

0000dfa8 000000000000001c 0000dfac FDE cie=00000000 pc=0000000000967ed0..0000000000967eea
  DW_CFA_advance_loc: 1 to 0000000000967ed1
  DW_CFA_def_cfa_offset: 16
  DW_CFA_offset: r6 (rbp) at cfa-16
  DW_CFA_advance_loc: 3 to 0000000000967ed4
  DW_CFA_def_cfa_register: r6 (rbp)
  DW_CFA_advance_loc: 21 to 0000000000967ee9
  DW_CFA_def_cfa: r7 (rsp) ofs 8
  DW_CFA_nop
  DW_CFA_nop
  DW_CFA_nop

0000dfc8 000000000000001c 0000dfcc FDE cie=00000000 pc=0000000000967eea..0000000000967f91
  DW_CFA_advance_loc: 1 to 0000000000967eeb
  DW_CFA_def_cfa_offset: 16
  DW_CFA_offset: r6 (rbp) at cfa-16
  DW_CFA_advance_loc: 3 to 0000000000967eee
  DW_CFA_def_cfa_register: r6 (rbp)
  DW_CFA_advance_loc1: 162 to 0000000000967f90
  DW_CFA_def_cfa: r7 (rsp) ofs 8
  DW_CFA_nop
  DW_CFA_nop

0000dfe8 000000000000001c 0000dfec FDE cie=00000000 pc=0000000000967f91..00000000009680c8
  DW_CFA_advance_loc: 1 to 0000000000967f92
  DW_CFA_def_cfa_offset: 16
  DW_CFA_offset: r6 (rbp) at cfa-16
  DW_CFA_advance_loc: 3 to 0000000000967f95
  DW_CFA_def_cfa_register: r6 (rbp)
  DW_CFA_advance_loc2: 306 to 00000000009680c7
  DW_CFA_def_cfa: r7 (rsp) ofs 8
  DW_CFA_nop

0000e008 000000000000001c 0000e00c FDE cie=00000000 pc=00000000009680c8..000000000096814c
  DW_CFA_advance_loc: 1 to 00000000009680c9
  DW_CFA_def_cfa_offset: 16
  DW_CFA_offset: r6 (rbp) at cfa-16
  DW_CFA_advance_loc: 3 to 00000000009680cc
  DW_CFA_def_cfa_register: r6 (rbp)
  DW_CFA_advance_loc1: 127 to 000000000096814b
  DW_CFA_def_cfa: r7 (rsp) ofs 8
  DW_CFA_nop
  DW_CFA_nop

0000e028 000000000000001c 0000e02c FDE cie=00000000 pc=000000000096814c..0000000000968167
  DW_CFA_advance_loc: 1 to 000000000096814d
  DW_CFA_def_cfa_offset: 16
  DW_CFA_offset: r6 (rbp) at cfa-16
  DW_CFA_advance_loc: 3 to 0000000000968150
  DW_CFA_def_cfa_register: r6 (rbp)
  DW_CFA_advance_loc: 22 to 0000000000968166
  DW_CFA_def_cfa: r7 (rsp) ofs 8
  DW_CFA_nop
  DW_CFA_nop
  DW_CFA_nop

0000e048 000000000000001c 0000e04c FDE cie=00000000 pc=0000000000968167..0000000000968254
  DW_CFA_advance_loc: 1 to 0000000000968168
  DW_CFA_def_cfa_offset: 16
  DW_CFA_offset: r6 (rbp) at cfa-16
  DW_CFA_advance_loc: 3 to 000000000096816b
  DW_CFA_def_cfa_register: r6 (rbp)
  DW_CFA_advance_loc1: 232 to 0000000000968253
  DW_CFA_def_cfa: r7 (rsp) ofs 8
  DW_CFA_nop
  DW_CFA_nop

0000e068 000000000000001c 0000e06c FDE cie=00000000 pc=0000000000968254..000000000096834b
  DW_CFA_advance_loc: 1 to 0000000000968255
  DW_CFA_def_cfa_offset: 16
  DW_CFA_offset: r6 (rbp) at cfa-16
  DW_CFA_advance_loc: 3 to 0000000000968258
  DW_CFA_def_cfa_register: r6 (rbp)
  DW_CFA_advance_loc1: 242 to 000000000096834a
  DW_CFA_def_cfa: r7 (rsp) ofs 8
  DW_CFA_nop
  DW_CFA_nop

0000e088 000000000000001c 0000e08c FDE cie=00000000 pc=000000000096834b..00000000009684f6
  DW_CFA_advance_loc: 1 to 000000000096834c
  DW_CFA_def_cfa_offset: 16
  DW_CFA_offset: r6 (rbp) at cfa-16
  DW_CFA_advance_loc: 3 to 000000000096834f
  DW_CFA_def_cfa_register: r6 (rbp)
  DW_CFA_advance_loc2: 422 to 00000000009684f5
  DW_CFA_def_cfa: r7 (rsp) ofs 8
  DW_CFA_nop

0000e0a8 000000000000001c 0000e0ac FDE cie=00000000 pc=00000000009684f6..0000000000968538
  DW_CFA_advance_loc: 1 to 00000000009684f7
  DW_CFA_def_cfa_offset: 16
  DW_CFA_offset: r6 (rbp) at cfa-16
  DW_CFA_advance_loc: 3 to 00000000009684fa
  DW_CFA_def_cfa_register: r6 (rbp)
  DW_CFA_advance_loc: 61 to 0000000000968537
  DW_CFA_def_cfa: r7 (rsp) ofs 8
  DW_CFA_nop
  DW_CFA_nop
  DW_CFA_nop

0000e0c8 000000000000001c 0000e0cc FDE cie=00000000 pc=0000000000968538..000000000096862f
  DW_CFA_advance_loc: 1 to 0000000000968539
  DW_CFA_def_cfa_offset: 16
  DW_CFA_offset: r6 (rbp) at cfa-16
  DW_CFA_advance_loc: 3 to 000000000096853c
  DW_CFA_def_cfa_register: r6 (rbp)
  DW_CFA_advance_loc1: 242 to 000000000096862e
  DW_CFA_def_cfa: r7 (rsp) ofs 8
  DW_CFA_nop
  DW_CFA_nop

0000e0e8 000000000000001c 0000e0ec FDE cie=00000000 pc=000000000096862f..0000000000968642
  DW_CFA_advance_loc: 1 to 0000000000968630
  DW_CFA_def_cfa_offset: 16
  DW_CFA_offset: r6 (rbp) at cfa-16
  DW_CFA_advance_loc: 3 to 0000000000968633
  DW_CFA_def_cfa_register: r6 (rbp)
  DW_CFA_advance_loc: 14 to 0000000000968641
  DW_CFA_def_cfa: r7 (rsp) ofs 8
  DW_CFA_nop
  DW_CFA_nop
  DW_CFA_nop

0000e108 000000000000001c 0000e10c FDE cie=00000000 pc=0000000000968642..00000000009686bf
  DW_CFA_advance_loc: 1 to 0000000000968643
  DW_CFA_def_cfa_offset: 16
  DW_CFA_offset: r6 (rbp) at cfa-16
  DW_CFA_advance_loc: 3 to 0000000000968646
  DW_CFA_def_cfa_register: r6 (rbp)
  DW_CFA_advance_loc1: 120 to 00000000009686be
  DW_CFA_def_cfa: r7 (rsp) ofs 8
  DW_CFA_nop
  DW_CFA_nop

0000e128 000000000000001c 0000e12c FDE cie=00000000 pc=00000000009686bf..0000000000968702
  DW_CFA_advance_loc: 1 to 00000000009686c0
  DW_CFA_def_cfa_offset: 16
  DW_CFA_offset: r6 (rbp) at cfa-16
  DW_CFA_advance_loc: 3 to 00000000009686c3
  DW_CFA_def_cfa_register: r6 (rbp)
  DW_CFA_advance_loc: 62 to 0000000000968701
  DW_CFA_def_cfa: r7 (rsp) ofs 8
  DW_CFA_nop
  DW_CFA_nop
  DW_CFA_nop

0000e148 000000000000001c 0000e14c FDE cie=00000000 pc=0000000000968702..000000000096872e
  DW_CFA_advance_loc: 1 to 0000000000968703
  DW_CFA_def_cfa_offset: 16
  DW_CFA_offset: r6 (rbp) at cfa-16
  DW_CFA_advance_loc: 3 to 0000000000968706
  DW_CFA_def_cfa_register: r6 (rbp)
  DW_CFA_advance_loc: 39 to 000000000096872d
  DW_CFA_def_cfa: r7 (rsp) ofs 8
  DW_CFA_nop
  DW_CFA_nop
  DW_CFA_nop

0000e168 000000000000001c 0000e16c FDE cie=00000000 pc=000000000096872e..0000000000968d27
  DW_CFA_advance_loc: 1 to 000000000096872f
  DW_CFA_def_cfa_offset: 16
  DW_CFA_offset: r6 (rbp) at cfa-16
  DW_CFA_advance_loc: 3 to 0000000000968732
  DW_CFA_def_cfa_register: r6 (rbp)
  DW_CFA_advance_loc2: 1524 to 0000000000968d26
  DW_CFA_def_cfa: r7 (rsp) ofs 8
  DW_CFA_nop

0000e188 000000000000001c 0000e18c FDE cie=00000000 pc=0000000000968d27..0000000000968d60
  DW_CFA_advance_loc: 1 to 0000000000968d28
  DW_CFA_def_cfa_offset: 16
  DW_CFA_offset: r6 (rbp) at cfa-16
  DW_CFA_advance_loc: 3 to 0000000000968d2b
  DW_CFA_def_cfa_register: r6 (rbp)
  DW_CFA_advance_loc: 52 to 0000000000968d5f
  DW_CFA_def_cfa: r7 (rsp) ofs 8
  DW_CFA_nop
  DW_CFA_nop
  DW_CFA_nop

0000e1a8 000000000000001c 0000e1ac FDE cie=00000000 pc=0000000000968d60..0000000000968dd5
  DW_CFA_advance_loc: 1 to 0000000000968d61
  DW_CFA_def_cfa_offset: 16
  DW_CFA_offset: r6 (rbp) at cfa-16
  DW_CFA_advance_loc: 3 to 0000000000968d64
  DW_CFA_def_cfa_register: r6 (rbp)
  DW_CFA_advance_loc1: 112 to 0000000000968dd4
  DW_CFA_def_cfa: r7 (rsp) ofs 8
  DW_CFA_nop
  DW_CFA_nop

0000e1c8 000000000000001c 0000e1cc FDE cie=00000000 pc=0000000000968dd5..0000000000968e06
  DW_CFA_advance_loc: 1 to 0000000000968dd6
  DW_CFA_def_cfa_offset: 16
  DW_CFA_offset: r6 (rbp) at cfa-16
  DW_CFA_advance_loc: 3 to 0000000000968dd9
  DW_CFA_def_cfa_register: r6 (rbp)
  DW_CFA_advance_loc: 44 to 0000000000968e05
  DW_CFA_def_cfa: r7 (rsp) ofs 8
  DW_CFA_nop
  DW_CFA_nop
  DW_CFA_nop

0000e1e8 000000000000001c 0000e1ec FDE cie=00000000 pc=0000000000968e06..0000000000968e6c
  DW_CFA_advance_loc: 1 to 0000000000968e07
  DW_CFA_def_cfa_offset: 16
  DW_CFA_offset: r6 (rbp) at cfa-16
  DW_CFA_advance_loc: 3 to 0000000000968e0a
  DW_CFA_def_cfa_register: r6 (rbp)
  DW_CFA_advance_loc1: 97 to 0000000000968e6b
  DW_CFA_def_cfa: r7 (rsp) ofs 8
  DW_CFA_nop
  DW_CFA_nop

0000e208 000000000000001c 0000e20c FDE cie=00000000 pc=0000000000968e6c..0000000000968e9e
  DW_CFA_advance_loc: 1 to 0000000000968e6d
  DW_CFA_def_cfa_offset: 16
  DW_CFA_offset: r6 (rbp) at cfa-16
  DW_CFA_advance_loc: 3 to 0000000000968e70
  DW_CFA_def_cfa_register: r6 (rbp)
  DW_CFA_advance_loc: 45 to 0000000000968e9d
  DW_CFA_def_cfa: r7 (rsp) ofs 8
  DW_CFA_nop
  DW_CFA_nop
  DW_CFA_nop

0000e228 000000000000001c 0000e22c FDE cie=00000000 pc=0000000000968e9e..0000000000968ee0
  DW_CFA_advance_loc: 1 to 0000000000968e9f
  DW_CFA_def_cfa_offset: 16
  DW_CFA_offset: r6 (rbp) at cfa-16
  DW_CFA_advance_loc: 3 to 0000000000968ea2
  DW_CFA_def_cfa_register: r6 (rbp)
  DW_CFA_advance_loc: 61 to 0000000000968edf
  DW_CFA_def_cfa: r7 (rsp) ofs 8
  DW_CFA_nop
  DW_CFA_nop
  DW_CFA_nop

0000e248 000000000000001c 0000e24c FDE cie=00000000 pc=0000000000968ee0..0000000000968f49
  DW_CFA_advance_loc: 1 to 0000000000968ee1
  DW_CFA_def_cfa_offset: 16
  DW_CFA_offset: r6 (rbp) at cfa-16
  DW_CFA_advance_loc: 3 to 0000000000968ee4
  DW_CFA_def_cfa_register: r6 (rbp)
  DW_CFA_advance_loc1: 100 to 0000000000968f48
  DW_CFA_def_cfa: r7 (rsp) ofs 8
  DW_CFA_nop
  DW_CFA_nop

0000e268 000000000000001c 0000e26c FDE cie=00000000 pc=0000000000968f49..0000000000968f7c
  DW_CFA_advance_loc: 1 to 0000000000968f4a
  DW_CFA_def_cfa_offset: 16
  DW_CFA_offset: r6 (rbp) at cfa-16
  DW_CFA_advance_loc: 3 to 0000000000968f4d
  DW_CFA_def_cfa_register: r6 (rbp)
  DW_CFA_advance_loc: 46 to 0000000000968f7b
  DW_CFA_def_cfa: r7 (rsp) ofs 8
  DW_CFA_nop
  DW_CFA_nop
  DW_CFA_nop

0000e288 000000000000001c 0000e28c FDE cie=00000000 pc=0000000000968f7c..0000000000968fa9
  DW_CFA_advance_loc: 1 to 0000000000968f7d
  DW_CFA_def_cfa_offset: 16
  DW_CFA_offset: r6 (rbp) at cfa-16
  DW_CFA_advance_loc: 3 to 0000000000968f80
  DW_CFA_def_cfa_register: r6 (rbp)
  DW_CFA_advance_loc: 40 to 0000000000968fa8
  DW_CFA_def_cfa: r7 (rsp) ofs 8
  DW_CFA_nop
  DW_CFA_nop
  DW_CFA_nop

0000e2a8 000000000000001c 0000e2ac FDE cie=00000000 pc=0000000000968fa9..0000000000969027
  DW_CFA_advance_loc: 1 to 0000000000968faa
  DW_CFA_def_cfa_offset: 16
  DW_CFA_offset: r6 (rbp) at cfa-16
  DW_CFA_advance_loc: 3 to 0000000000968fad
  DW_CFA_def_cfa_register: r6 (rbp)
  DW_CFA_advance_loc1: 121 to 0000000000969026
  DW_CFA_def_cfa: r7 (rsp) ofs 8
  DW_CFA_nop
  DW_CFA_nop

0000e2c8 000000000000001c 0000e2cc FDE cie=00000000 pc=0000000000969027..000000000096904d
  DW_CFA_advance_loc: 1 to 0000000000969028
  DW_CFA_def_cfa_offset: 16
  DW_CFA_offset: r6 (rbp) at cfa-16
  DW_CFA_advance_loc: 3 to 000000000096902b
  DW_CFA_def_cfa_register: r6 (rbp)
  DW_CFA_advance_loc: 33 to 000000000096904c
  DW_CFA_def_cfa: r7 (rsp) ofs 8
  DW_CFA_nop
  DW_CFA_nop
  DW_CFA_nop

0000e2e8 000000000000001c 0000e2ec FDE cie=00000000 pc=000000000096904d..000000000096916b
  DW_CFA_advance_loc: 1 to 000000000096904e
  DW_CFA_def_cfa_offset: 16
  DW_CFA_offset: r6 (rbp) at cfa-16
  DW_CFA_advance_loc: 3 to 0000000000969051
  DW_CFA_def_cfa_register: r6 (rbp)
  DW_CFA_advance_loc2: 281 to 000000000096916a
  DW_CFA_def_cfa: r7 (rsp) ofs 8
  DW_CFA_nop

0000e308 000000000000001c 0000e30c FDE cie=00000000 pc=000000000096916b..00000000009691a8
  DW_CFA_advance_loc: 1 to 000000000096916c
  DW_CFA_def_cfa_offset: 16
  DW_CFA_offset: r6 (rbp) at cfa-16
  DW_CFA_advance_loc: 3 to 000000000096916f
  DW_CFA_def_cfa_register: r6 (rbp)
  DW_CFA_advance_loc: 56 to 00000000009691a7
  DW_CFA_def_cfa: r7 (rsp) ofs 8
  DW_CFA_nop
  DW_CFA_nop
  DW_CFA_nop

0000e328 000000000000001c 0000e32c FDE cie=00000000 pc=00000000009691a8..000000000096925b
  DW_CFA_advance_loc: 1 to 00000000009691a9
  DW_CFA_def_cfa_offset: 16
  DW_CFA_offset: r6 (rbp) at cfa-16
  DW_CFA_advance_loc: 3 to 00000000009691ac
  DW_CFA_def_cfa_register: r6 (rbp)
  DW_CFA_advance_loc1: 174 to 000000000096925a
  DW_CFA_def_cfa: r7 (rsp) ofs 8
  DW_CFA_nop
  DW_CFA_nop

0000e348 000000000000001c 0000e34c FDE cie=00000000 pc=000000000096925b..000000000096931a
  DW_CFA_advance_loc: 1 to 000000000096925c
  DW_CFA_def_cfa_offset: 16
  DW_CFA_offset: r6 (rbp) at cfa-16
  DW_CFA_advance_loc: 3 to 000000000096925f
  DW_CFA_def_cfa_register: r6 (rbp)
  DW_CFA_advance_loc1: 186 to 0000000000969319
  DW_CFA_def_cfa: r7 (rsp) ofs 8
  DW_CFA_nop
  DW_CFA_nop

0000e368 000000000000001c 0000e36c FDE cie=00000000 pc=000000000096931a..00000000009693b9
  DW_CFA_advance_loc: 1 to 000000000096931b
  DW_CFA_def_cfa_offset: 16
  DW_CFA_offset: r6 (rbp) at cfa-16
  DW_CFA_advance_loc: 3 to 000000000096931e
  DW_CFA_def_cfa_register: r6 (rbp)
  DW_CFA_advance_loc1: 154 to 00000000009693b8
  DW_CFA_def_cfa: r7 (rsp) ofs 8
  DW_CFA_nop
  DW_CFA_nop

0000e388 000000000000001c 0000e38c FDE cie=00000000 pc=00000000009693b9..00000000009693df
  DW_CFA_advance_loc: 1 to 00000000009693ba
  DW_CFA_def_cfa_offset: 16
  DW_CFA_offset: r6 (rbp) at cfa-16
  DW_CFA_advance_loc: 3 to 00000000009693bd
  DW_CFA_def_cfa_register: r6 (rbp)
  DW_CFA_advance_loc: 33 to 00000000009693de
  DW_CFA_def_cfa: r7 (rsp) ofs 8
  DW_CFA_nop
  DW_CFA_nop
  DW_CFA_nop

0000e3a8 000000000000001c 0000e3ac FDE cie=00000000 pc=00000000009693df..0000000000969723
  DW_CFA_advance_loc: 1 to 00000000009693e0
  DW_CFA_def_cfa_offset: 16
  DW_CFA_offset: r6 (rbp) at cfa-16
  DW_CFA_advance_loc: 3 to 00000000009693e3
  DW_CFA_def_cfa_register: r6 (rbp)
  DW_CFA_advance_loc2: 831 to 0000000000969722
  DW_CFA_def_cfa: r7 (rsp) ofs 8
  DW_CFA_nop

0000e3c8 000000000000001c 0000e3cc FDE cie=00000000 pc=0000000000969723..00000000009698cc
  DW_CFA_advance_loc: 1 to 0000000000969724
  DW_CFA_def_cfa_offset: 16
  DW_CFA_offset: r6 (rbp) at cfa-16
  DW_CFA_advance_loc: 3 to 0000000000969727
  DW_CFA_def_cfa_register: r6 (rbp)
  DW_CFA_advance_loc2: 420 to 00000000009698cb
  DW_CFA_def_cfa: r7 (rsp) ofs 8
  DW_CFA_nop

0000e3e8 000000000000001c 0000e3ec FDE cie=00000000 pc=00000000009698cc..0000000000969909
  DW_CFA_advance_loc: 1 to 00000000009698cd
  DW_CFA_def_cfa_offset: 16
  DW_CFA_offset: r6 (rbp) at cfa-16
  DW_CFA_advance_loc: 3 to 00000000009698d0
  DW_CFA_def_cfa_register: r6 (rbp)
  DW_CFA_advance_loc: 56 to 0000000000969908
  DW_CFA_def_cfa: r7 (rsp) ofs 8
  DW_CFA_nop
  DW_CFA_nop
  DW_CFA_nop

0000e408 000000000000001c 0000e40c FDE cie=00000000 pc=0000000000969909..0000000000969989
  DW_CFA_advance_loc: 1 to 000000000096990a
  DW_CFA_def_cfa_offset: 16
  DW_CFA_offset: r6 (rbp) at cfa-16
  DW_CFA_advance_loc: 3 to 000000000096990d
  DW_CFA_def_cfa_register: r6 (rbp)
  DW_CFA_advance_loc1: 123 to 0000000000969988
  DW_CFA_def_cfa: r7 (rsp) ofs 8
  DW_CFA_nop
  DW_CFA_nop

0000e428 000000000000001c 0000e42c FDE cie=00000000 pc=0000000000969989..0000000000969b79
  DW_CFA_advance_loc: 1 to 000000000096998a
  DW_CFA_def_cfa_offset: 16
  DW_CFA_offset: r6 (rbp) at cfa-16
  DW_CFA_advance_loc: 3 to 000000000096998d
  DW_CFA_def_cfa_register: r6 (rbp)
  DW_CFA_advance_loc2: 491 to 0000000000969b78
  DW_CFA_def_cfa: r7 (rsp) ofs 8
  DW_CFA_nop

0000e448 000000000000001c 0000e44c FDE cie=00000000 pc=0000000000969b79..0000000000969bab
  DW_CFA_advance_loc: 1 to 0000000000969b7a
  DW_CFA_def_cfa_offset: 16
  DW_CFA_offset: r6 (rbp) at cfa-16
  DW_CFA_advance_loc: 3 to 0000000000969b7d
  DW_CFA_def_cfa_register: r6 (rbp)
  DW_CFA_advance_loc: 45 to 0000000000969baa
  DW_CFA_def_cfa: r7 (rsp) ofs 8
  DW_CFA_nop
  DW_CFA_nop
  DW_CFA_nop

0000e468 000000000000001c 0000e46c FDE cie=00000000 pc=0000000000969bab..0000000000969c75
  DW_CFA_advance_loc: 1 to 0000000000969bac
  DW_CFA_def_cfa_offset: 16
  DW_CFA_offset: r6 (rbp) at cfa-16
  DW_CFA_advance_loc: 3 to 0000000000969baf
  DW_CFA_def_cfa_register: r6 (rbp)
  DW_CFA_advance_loc1: 197 to 0000000000969c74
  DW_CFA_def_cfa: r7 (rsp) ofs 8
  DW_CFA_nop
  DW_CFA_nop

0000e488 0000000000000020 0000e48c FDE cie=00000000 pc=0000000000969c75..0000000000969cf0
  DW_CFA_advance_loc: 1 to 0000000000969c76
  DW_CFA_def_cfa_offset: 16
  DW_CFA_offset: r6 (rbp) at cfa-16
  DW_CFA_advance_loc: 3 to 0000000000969c79
  DW_CFA_def_cfa_register: r6 (rbp)
  DW_CFA_advance_loc: 5 to 0000000000969c7e
  DW_CFA_offset: r3 (rbx) at cfa-24
  DW_CFA_advance_loc1: 113 to 0000000000969cef
  DW_CFA_def_cfa: r7 (rsp) ofs 8
  DW_CFA_nop
  DW_CFA_nop
  DW_CFA_nop

0000e4ac 000000000000001c 0000e4b0 FDE cie=00000000 pc=0000000000969cf0..0000000000969d8d
  DW_CFA_advance_loc: 1 to 0000000000969cf1
  DW_CFA_def_cfa_offset: 16
  DW_CFA_offset: r6 (rbp) at cfa-16
  DW_CFA_advance_loc: 3 to 0000000000969cf4
  DW_CFA_def_cfa_register: r6 (rbp)
  DW_CFA_advance_loc1: 152 to 0000000000969d8c
  DW_CFA_def_cfa: r7 (rsp) ofs 8
  DW_CFA_nop
  DW_CFA_nop

0000e4cc 000000000000001c 0000e4d0 FDE cie=00000000 pc=0000000000969d8d..0000000000969e34
  DW_CFA_advance_loc: 1 to 0000000000969d8e
  DW_CFA_def_cfa_offset: 16
  DW_CFA_offset: r6 (rbp) at cfa-16
  DW_CFA_advance_loc: 3 to 0000000000969d91
  DW_CFA_def_cfa_register: r6 (rbp)
  DW_CFA_advance_loc1: 162 to 0000000000969e33
  DW_CFA_def_cfa: r7 (rsp) ofs 8
  DW_CFA_nop
  DW_CFA_nop

0000e4ec 000000000000001c 0000e4f0 FDE cie=00000000 pc=0000000000969e34..0000000000969f4a
  DW_CFA_advance_loc: 1 to 0000000000969e35
  DW_CFA_def_cfa_offset: 16
  DW_CFA_offset: r6 (rbp) at cfa-16
  DW_CFA_advance_loc: 3 to 0000000000969e38
  DW_CFA_def_cfa_register: r6 (rbp)
  DW_CFA_advance_loc2: 273 to 0000000000969f49
  DW_CFA_def_cfa: r7 (rsp) ofs 8
  DW_CFA_nop

0000e50c 000000000000001c 0000e510 FDE cie=00000000 pc=0000000000969f4a..0000000000969fbd
  DW_CFA_advance_loc: 1 to 0000000000969f4b
  DW_CFA_def_cfa_offset: 16
  DW_CFA_offset: r6 (rbp) at cfa-16
  DW_CFA_advance_loc: 3 to 0000000000969f4e
  DW_CFA_def_cfa_register: r6 (rbp)
  DW_CFA_advance_loc1: 110 to 0000000000969fbc
  DW_CFA_def_cfa: r7 (rsp) ofs 8
  DW_CFA_nop
  DW_CFA_nop

0000e52c 000000000000001c 0000e530 FDE cie=00000000 pc=0000000000969fbd..0000000000969fe9
  DW_CFA_advance_loc: 1 to 0000000000969fbe
  DW_CFA_def_cfa_offset: 16
  DW_CFA_offset: r6 (rbp) at cfa-16
  DW_CFA_advance_loc: 3 to 0000000000969fc1
  DW_CFA_def_cfa_register: r6 (rbp)
  DW_CFA_advance_loc: 39 to 0000000000969fe8
  DW_CFA_def_cfa: r7 (rsp) ofs 8
  DW_CFA_nop
  DW_CFA_nop
  DW_CFA_nop

0000e54c 000000000000001c 0000e550 FDE cie=00000000 pc=0000000000969fe9..000000000096a645
  DW_CFA_advance_loc: 1 to 0000000000969fea
  DW_CFA_def_cfa_offset: 16
  DW_CFA_offset: r6 (rbp) at cfa-16
  DW_CFA_advance_loc: 3 to 0000000000969fed
  DW_CFA_def_cfa_register: r6 (rbp)
  DW_CFA_advance_loc2: 1623 to 000000000096a644
  DW_CFA_def_cfa: r7 (rsp) ofs 8
  DW_CFA_nop

0000e56c 000000000000001c 0000e570 FDE cie=00000000 pc=000000000096a645..000000000096ac37
  DW_CFA_advance_loc: 1 to 000000000096a646
  DW_CFA_def_cfa_offset: 16
  DW_CFA_offset: r6 (rbp) at cfa-16
  DW_CFA_advance_loc: 3 to 000000000096a649
  DW_CFA_def_cfa_register: r6 (rbp)
  DW_CFA_advance_loc2: 1517 to 000000000096ac36
  DW_CFA_def_cfa: r7 (rsp) ofs 8
  DW_CFA_nop

0000e58c 000000000000001c 0000e590 FDE cie=00000000 pc=000000000096ac37..000000000096acf4
  DW_CFA_advance_loc: 1 to 000000000096ac38
  DW_CFA_def_cfa_offset: 16
  DW_CFA_offset: r6 (rbp) at cfa-16
  DW_CFA_advance_loc: 3 to 000000000096ac3b
  DW_CFA_def_cfa_register: r6 (rbp)
  DW_CFA_advance_loc1: 184 to 000000000096acf3
  DW_CFA_def_cfa: r7 (rsp) ofs 8
  DW_CFA_nop
  DW_CFA_nop

0000e5ac 000000000000001c 0000e5b0 FDE cie=00000000 pc=000000000096acf4..000000000096ad19
  DW_CFA_advance_loc: 1 to 000000000096acf5
  DW_CFA_def_cfa_offset: 16
  DW_CFA_offset: r6 (rbp) at cfa-16
  DW_CFA_advance_loc: 3 to 000000000096acf8
  DW_CFA_def_cfa_register: r6 (rbp)
  DW_CFA_advance_loc: 32 to 000000000096ad18
  DW_CFA_def_cfa: r7 (rsp) ofs 8
  DW_CFA_nop
  DW_CFA_nop
  DW_CFA_nop

0000e5cc 000000000000001c 0000e5d0 FDE cie=00000000 pc=000000000096ad19..000000000096ad94
  DW_CFA_advance_loc: 1 to 000000000096ad1a
  DW_CFA_def_cfa_offset: 16
  DW_CFA_offset: r6 (rbp) at cfa-16
  DW_CFA_advance_loc: 3 to 000000000096ad1d
  DW_CFA_def_cfa_register: r6 (rbp)
  DW_CFA_advance_loc1: 118 to 000000000096ad93
  DW_CFA_def_cfa: r7 (rsp) ofs 8
  DW_CFA_nop
  DW_CFA_nop

0000e5ec 000000000000001c 0000e5f0 FDE cie=00000000 pc=000000000096ad94..000000000096adc0
  DW_CFA_advance_loc: 1 to 000000000096ad95
  DW_CFA_def_cfa_offset: 16
  DW_CFA_offset: r6 (rbp) at cfa-16
  DW_CFA_advance_loc: 3 to 000000000096ad98
  DW_CFA_def_cfa_register: r6 (rbp)
  DW_CFA_advance_loc: 39 to 000000000096adbf
  DW_CFA_def_cfa: r7 (rsp) ofs 8
  DW_CFA_nop
  DW_CFA_nop
  DW_CFA_nop

0000e60c 000000000000001c 0000e610 FDE cie=00000000 pc=000000000096adc0..000000000096b444
  DW_CFA_advance_loc: 1 to 000000000096adc1
  DW_CFA_def_cfa_offset: 16
  DW_CFA_offset: r6 (rbp) at cfa-16
  DW_CFA_advance_loc: 3 to 000000000096adc4
  DW_CFA_def_cfa_register: r6 (rbp)
  DW_CFA_advance_loc2: 1663 to 000000000096b443
  DW_CFA_def_cfa: r7 (rsp) ofs 8
  DW_CFA_nop

0000e62c 000000000000001c 0000e630 FDE cie=00000000 pc=000000000096b444..000000000096ba5e
  DW_CFA_advance_loc: 1 to 000000000096b445
  DW_CFA_def_cfa_offset: 16
  DW_CFA_offset: r6 (rbp) at cfa-16
  DW_CFA_advance_loc: 3 to 000000000096b448
  DW_CFA_def_cfa_register: r6 (rbp)
  DW_CFA_advance_loc2: 1557 to 000000000096ba5d
  DW_CFA_def_cfa: r7 (rsp) ofs 8
  DW_CFA_nop

0000e64c 000000000000001c 0000e650 FDE cie=00000000 pc=000000000096ba5e..000000000096ba83
  DW_CFA_advance_loc: 1 to 000000000096ba5f
  DW_CFA_def_cfa_offset: 16
  DW_CFA_offset: r6 (rbp) at cfa-16
  DW_CFA_advance_loc: 3 to 000000000096ba62
  DW_CFA_def_cfa_register: r6 (rbp)
  DW_CFA_advance_loc: 32 to 000000000096ba82
  DW_CFA_def_cfa: r7 (rsp) ofs 8
  DW_CFA_nop
  DW_CFA_nop
  DW_CFA_nop

0000e66c 000000000000001c 0000e670 FDE cie=00000000 pc=000000000096ba83..000000000096bafe
  DW_CFA_advance_loc: 1 to 000000000096ba84
  DW_CFA_def_cfa_offset: 16
  DW_CFA_offset: r6 (rbp) at cfa-16
  DW_CFA_advance_loc: 3 to 000000000096ba87
  DW_CFA_def_cfa_register: r6 (rbp)
  DW_CFA_advance_loc1: 118 to 000000000096bafd
  DW_CFA_def_cfa: r7 (rsp) ofs 8
  DW_CFA_nop
  DW_CFA_nop

0000e68c 000000000000001c 0000e690 FDE cie=00000000 pc=000000000096bafe..000000000096bb05
  DW_CFA_advance_loc: 1 to 000000000096baff
  DW_CFA_def_cfa_offset: 16
  DW_CFA_offset: r6 (rbp) at cfa-16
  DW_CFA_advance_loc: 3 to 000000000096bb02
  DW_CFA_def_cfa_register: r6 (rbp)
  DW_CFA_advance_loc: 2 to 000000000096bb04
  DW_CFA_def_cfa: r7 (rsp) ofs 8
  DW_CFA_nop
  DW_CFA_nop
  DW_CFA_nop

0000e6ac 000000000000001c 0000e6b0 FDE cie=00000000 pc=000000000096bb05..000000000096bb10
  DW_CFA_advance_loc: 1 to 000000000096bb06
  DW_CFA_def_cfa_offset: 16
  DW_CFA_offset: r6 (rbp) at cfa-16
  DW_CFA_advance_loc: 3 to 000000000096bb09
  DW_CFA_def_cfa_register: r6 (rbp)
  DW_CFA_advance_loc: 6 to 000000000096bb0f
  DW_CFA_def_cfa: r7 (rsp) ofs 8
  DW_CFA_nop
  DW_CFA_nop
  DW_CFA_nop

0000e6cc 000000000000001c 0000e6d0 FDE cie=00000000 pc=000000000096bb10..000000000096bb1e
  DW_CFA_advance_loc: 1 to 000000000096bb11
  DW_CFA_def_cfa_offset: 16
  DW_CFA_offset: r6 (rbp) at cfa-16
  DW_CFA_advance_loc: 3 to 000000000096bb14
  DW_CFA_def_cfa_register: r6 (rbp)
  DW_CFA_advance_loc: 9 to 000000000096bb1d
  DW_CFA_def_cfa: r7 (rsp) ofs 8
  DW_CFA_nop
  DW_CFA_nop
  DW_CFA_nop

0000e6ec 000000000000001c 0000e6f0 FDE cie=00000000 pc=000000000096bb1e..000000000096bc57
  DW_CFA_advance_loc: 1 to 000000000096bb1f
  DW_CFA_def_cfa_offset: 16
  DW_CFA_offset: r6 (rbp) at cfa-16
  DW_CFA_advance_loc: 3 to 000000000096bb22
  DW_CFA_def_cfa_register: r6 (rbp)
  DW_CFA_advance_loc2: 308 to 000000000096bc56
  DW_CFA_def_cfa: r7 (rsp) ofs 8
  DW_CFA_nop

0000e70c 000000000000001c 0000e710 FDE cie=00000000 pc=000000000096bc57..000000000096bd1d
  DW_CFA_advance_loc: 1 to 000000000096bc58
  DW_CFA_def_cfa_offset: 16
  DW_CFA_offset: r6 (rbp) at cfa-16
  DW_CFA_advance_loc: 3 to 000000000096bc5b
  DW_CFA_def_cfa_register: r6 (rbp)
  DW_CFA_advance_loc1: 193 to 000000000096bd1c
  DW_CFA_def_cfa: r7 (rsp) ofs 8
  DW_CFA_nop
  DW_CFA_nop

0000e72c 0000000000000020 0000e730 FDE cie=00000000 pc=000000000096bd1d..000000000096be3a
  DW_CFA_advance_loc: 1 to 000000000096bd1e
  DW_CFA_def_cfa_offset: 16
  DW_CFA_offset: r6 (rbp) at cfa-16
  DW_CFA_advance_loc: 3 to 000000000096bd21
  DW_CFA_def_cfa_register: r6 (rbp)
  DW_CFA_advance_loc: 5 to 000000000096bd26
  DW_CFA_offset: r3 (rbx) at cfa-24
  DW_CFA_advance_loc2: 275 to 000000000096be39
  DW_CFA_def_cfa: r7 (rsp) ofs 8
  DW_CFA_nop
  DW_CFA_nop

0000e750 000000000000001c 0000e754 FDE cie=00000000 pc=000000000096be3a..000000000096bea2
  DW_CFA_advance_loc: 1 to 000000000096be3b
  DW_CFA_def_cfa_offset: 16
  DW_CFA_offset: r6 (rbp) at cfa-16
  DW_CFA_advance_loc: 3 to 000000000096be3e
  DW_CFA_def_cfa_register: r6 (rbp)
  DW_CFA_advance_loc1: 99 to 000000000096bea1
  DW_CFA_def_cfa: r7 (rsp) ofs 8
  DW_CFA_nop
  DW_CFA_nop

0000e770 000000000000001c 0000e774 FDE cie=00000000 pc=000000000096bea2..000000000096bedb
  DW_CFA_advance_loc: 1 to 000000000096bea3
  DW_CFA_def_cfa_offset: 16
  DW_CFA_offset: r6 (rbp) at cfa-16
  DW_CFA_advance_loc: 3 to 000000000096bea6
  DW_CFA_def_cfa_register: r6 (rbp)
  DW_CFA_advance_loc: 52 to 000000000096beda
  DW_CFA_def_cfa: r7 (rsp) ofs 8
  DW_CFA_nop
  DW_CFA_nop
  DW_CFA_nop

0000e790 000000000000001c 0000e794 FDE cie=00000000 pc=000000000096bedb..000000000096bf58
  DW_CFA_advance_loc: 1 to 000000000096bedc
  DW_CFA_def_cfa_offset: 16
  DW_CFA_offset: r6 (rbp) at cfa-16
  DW_CFA_advance_loc: 3 to 000000000096bedf
  DW_CFA_def_cfa_register: r6 (rbp)
  DW_CFA_advance_loc1: 120 to 000000000096bf57
  DW_CFA_def_cfa: r7 (rsp) ofs 8
  DW_CFA_nop
  DW_CFA_nop

0000e7b0 000000000000001c 0000e7b4 FDE cie=00000000 pc=000000000096bf58..000000000096c003
  DW_CFA_advance_loc: 1 to 000000000096bf59
  DW_CFA_def_cfa_offset: 16
  DW_CFA_offset: r6 (rbp) at cfa-16
  DW_CFA_advance_loc: 3 to 000000000096bf5c
  DW_CFA_def_cfa_register: r6 (rbp)
  DW_CFA_advance_loc1: 166 to 000000000096c002
  DW_CFA_def_cfa: r7 (rsp) ofs 8
  DW_CFA_nop
  DW_CFA_nop

0000e7d0 000000000000001c 0000e7d4 FDE cie=00000000 pc=000000000096c003..000000000096c034
  DW_CFA_advance_loc: 1 to 000000000096c004
  DW_CFA_def_cfa_offset: 16
  DW_CFA_offset: r6 (rbp) at cfa-16
  DW_CFA_advance_loc: 3 to 000000000096c007
  DW_CFA_def_cfa_register: r6 (rbp)
  DW_CFA_advance_loc: 44 to 000000000096c033
  DW_CFA_def_cfa: r7 (rsp) ofs 8
  DW_CFA_nop
  DW_CFA_nop
  DW_CFA_nop

0000e7f0 000000000000001c 0000e7f4 FDE cie=00000000 pc=000000000096c034..000000000096c0b2
  DW_CFA_advance_loc: 1 to 000000000096c035
  DW_CFA_def_cfa_offset: 16
  DW_CFA_offset: r6 (rbp) at cfa-16
  DW_CFA_advance_loc: 3 to 000000000096c038
  DW_CFA_def_cfa_register: r6 (rbp)
  DW_CFA_advance_loc1: 121 to 000000000096c0b1
  DW_CFA_def_cfa: r7 (rsp) ofs 8
  DW_CFA_nop
  DW_CFA_nop

0000e810 000000000000001c 0000e814 FDE cie=00000000 pc=000000000096c0b2..000000000096c118
  DW_CFA_advance_loc: 1 to 000000000096c0b3
  DW_CFA_def_cfa_offset: 16
  DW_CFA_offset: r6 (rbp) at cfa-16
  DW_CFA_advance_loc: 3 to 000000000096c0b6
  DW_CFA_def_cfa_register: r6 (rbp)
  DW_CFA_advance_loc1: 97 to 000000000096c117
  DW_CFA_def_cfa: r7 (rsp) ofs 8
  DW_CFA_nop
  DW_CFA_nop

0000e830 000000000000001c 0000e834 FDE cie=00000000 pc=000000000096c118..000000000096c14a
  DW_CFA_advance_loc: 1 to 000000000096c119
  DW_CFA_def_cfa_offset: 16
  DW_CFA_offset: r6 (rbp) at cfa-16
  DW_CFA_advance_loc: 3 to 000000000096c11c
  DW_CFA_def_cfa_register: r6 (rbp)
  DW_CFA_advance_loc: 45 to 000000000096c149
  DW_CFA_def_cfa: r7 (rsp) ofs 8
  DW_CFA_nop
  DW_CFA_nop
  DW_CFA_nop

0000e850 0000000000000020 0000e854 FDE cie=00000000 pc=000000000096c14a..000000000096c1d0
  DW_CFA_advance_loc: 1 to 000000000096c14b
  DW_CFA_def_cfa_offset: 16
  DW_CFA_offset: r6 (rbp) at cfa-16
  DW_CFA_advance_loc: 3 to 000000000096c14e
  DW_CFA_def_cfa_register: r6 (rbp)
  DW_CFA_advance_loc: 1 to 000000000096c14f
  DW_CFA_offset: r3 (rbx) at cfa-24
  DW_CFA_advance_loc1: 128 to 000000000096c1cf
  DW_CFA_def_cfa: r7 (rsp) ofs 8
  DW_CFA_nop
  DW_CFA_nop
  DW_CFA_nop

0000e874 000000000000001c 0000e878 FDE cie=00000000 pc=000000000096c1d0..000000000096c296
  DW_CFA_advance_loc: 1 to 000000000096c1d1
  DW_CFA_def_cfa_offset: 16
  DW_CFA_offset: r6 (rbp) at cfa-16
  DW_CFA_advance_loc: 3 to 000000000096c1d4
  DW_CFA_def_cfa_register: r6 (rbp)
  DW_CFA_advance_loc1: 193 to 000000000096c295
  DW_CFA_def_cfa: r7 (rsp) ofs 8
  DW_CFA_nop
  DW_CFA_nop

0000e894 000000000000001c 0000e898 FDE cie=00000000 pc=000000000096c296..000000000096c3ab
  DW_CFA_advance_loc: 1 to 000000000096c297
  DW_CFA_def_cfa_offset: 16
  DW_CFA_offset: r6 (rbp) at cfa-16
  DW_CFA_advance_loc: 3 to 000000000096c29a
  DW_CFA_def_cfa_register: r6 (rbp)
  DW_CFA_advance_loc2: 272 to 000000000096c3aa
  DW_CFA_def_cfa: r7 (rsp) ofs 8
  DW_CFA_nop

0000e8b4 000000000000001c 0000e8b8 FDE cie=00000000 pc=000000000096c3ab..000000000096c526
  DW_CFA_advance_loc: 1 to 000000000096c3ac
  DW_CFA_def_cfa_offset: 16
  DW_CFA_offset: r6 (rbp) at cfa-16
  DW_CFA_advance_loc: 3 to 000000000096c3af
  DW_CFA_def_cfa_register: r6 (rbp)
  DW_CFA_advance_loc2: 374 to 000000000096c525
  DW_CFA_def_cfa: r7 (rsp) ofs 8
  DW_CFA_nop

0000e8d4 000000000000001c 0000e8d8 FDE cie=00000000 pc=000000000096c526..000000000096c5c0
  DW_CFA_advance_loc: 1 to 000000000096c527
  DW_CFA_def_cfa_offset: 16
  DW_CFA_offset: r6 (rbp) at cfa-16
  DW_CFA_advance_loc: 3 to 000000000096c52a
  DW_CFA_def_cfa_register: r6 (rbp)
  DW_CFA_advance_loc1: 149 to 000000000096c5bf
  DW_CFA_def_cfa: r7 (rsp) ofs 8
  DW_CFA_nop
  DW_CFA_nop

0000e8f4 000000000000001c 0000e8f8 FDE cie=00000000 pc=000000000096c5c0..000000000096c74c
  DW_CFA_advance_loc: 1 to 000000000096c5c1
  DW_CFA_def_cfa_offset: 16
  DW_CFA_offset: r6 (rbp) at cfa-16
  DW_CFA_advance_loc: 3 to 000000000096c5c4
  DW_CFA_def_cfa_register: r6 (rbp)
  DW_CFA_advance_loc2: 391 to 000000000096c74b
  DW_CFA_def_cfa: r7 (rsp) ofs 8
  DW_CFA_nop

0000e914 000000000000001c 0000e918 FDE cie=00000000 pc=000000000096c74c..000000000096ca69
  DW_CFA_advance_loc: 1 to 000000000096c74d
  DW_CFA_def_cfa_offset: 16
  DW_CFA_offset: r6 (rbp) at cfa-16
  DW_CFA_advance_loc: 3 to 000000000096c750
  DW_CFA_def_cfa_register: r6 (rbp)
  DW_CFA_advance_loc2: 792 to 000000000096ca68
  DW_CFA_def_cfa: r7 (rsp) ofs 8
  DW_CFA_nop

0000e934 000000000000001c 0000e938 FDE cie=00000000 pc=000000000096ca69..000000000096cad2
  DW_CFA_advance_loc: 1 to 000000000096ca6a
  DW_CFA_def_cfa_offset: 16
  DW_CFA_offset: r6 (rbp) at cfa-16
  DW_CFA_advance_loc: 3 to 000000000096ca6d
  DW_CFA_def_cfa_register: r6 (rbp)
  DW_CFA_advance_loc1: 100 to 000000000096cad1
  DW_CFA_def_cfa: r7 (rsp) ofs 8
  DW_CFA_nop
  DW_CFA_nop

0000e954 000000000000001c 0000e958 FDE cie=00000000 pc=000000000096cad2..000000000096cb19
  DW_CFA_advance_loc: 1 to 000000000096cad3
  DW_CFA_def_cfa_offset: 16
  DW_CFA_offset: r6 (rbp) at cfa-16
  DW_CFA_advance_loc: 3 to 000000000096cad6
  DW_CFA_def_cfa_register: r6 (rbp)
  DW_CFA_advance_loc1: 66 to 000000000096cb18
  DW_CFA_def_cfa: r7 (rsp) ofs 8
  DW_CFA_nop
  DW_CFA_nop

0000e974 000000000000001c 0000e978 FDE cie=00000000 pc=000000000096cb19..000000000096cb7a
  DW_CFA_advance_loc: 1 to 000000000096cb1a
  DW_CFA_def_cfa_offset: 16
  DW_CFA_offset: r6 (rbp) at cfa-16
  DW_CFA_advance_loc: 3 to 000000000096cb1d
  DW_CFA_def_cfa_register: r6 (rbp)
  DW_CFA_advance_loc1: 92 to 000000000096cb79
  DW_CFA_def_cfa: r7 (rsp) ofs 8
  DW_CFA_nop
  DW_CFA_nop

0000e994 000000000000001c 0000e998 FDE cie=00000000 pc=000000000096cb7a..000000000096cbb7
  DW_CFA_advance_loc: 1 to 000000000096cb7b
  DW_CFA_def_cfa_offset: 16
  DW_CFA_offset: r6 (rbp) at cfa-16
  DW_CFA_advance_loc: 3 to 000000000096cb7e
  DW_CFA_def_cfa_register: r6 (rbp)
  DW_CFA_advance_loc: 56 to 000000000096cbb6
  DW_CFA_def_cfa: r7 (rsp) ofs 8
  DW_CFA_nop
  DW_CFA_nop
  DW_CFA_nop

0000e9b4 000000000000001c 0000e9b8 FDE cie=00000000 pc=000000000096cbb7..000000000096cbe6
  DW_CFA_advance_loc: 1 to 000000000096cbb8
  DW_CFA_def_cfa_offset: 16
  DW_CFA_offset: r6 (rbp) at cfa-16
  DW_CFA_advance_loc: 3 to 000000000096cbbb
  DW_CFA_def_cfa_register: r6 (rbp)
  DW_CFA_advance_loc: 42 to 000000000096cbe5
  DW_CFA_def_cfa: r7 (rsp) ofs 8
  DW_CFA_nop
  DW_CFA_nop
  DW_CFA_nop

0000e9d4 000000000000001c 0000e9d8 FDE cie=00000000 pc=000000000096cbe6..000000000096cc0d
  DW_CFA_advance_loc: 1 to 000000000096cbe7
  DW_CFA_def_cfa_offset: 16
  DW_CFA_offset: r6 (rbp) at cfa-16
  DW_CFA_advance_loc: 3 to 000000000096cbea
  DW_CFA_def_cfa_register: r6 (rbp)
  DW_CFA_advance_loc: 34 to 000000000096cc0c
  DW_CFA_def_cfa: r7 (rsp) ofs 8
  DW_CFA_nop
  DW_CFA_nop
  DW_CFA_nop

0000e9f4 000000000000001c 0000e9f8 FDE cie=00000000 pc=000000000096cc0d..000000000096cc25
  DW_CFA_advance_loc: 1 to 000000000096cc0e
  DW_CFA_def_cfa_offset: 16
  DW_CFA_offset: r6 (rbp) at cfa-16
  DW_CFA_advance_loc: 3 to 000000000096cc11
  DW_CFA_def_cfa_register: r6 (rbp)
  DW_CFA_advance_loc: 19 to 000000000096cc24
  DW_CFA_def_cfa: r7 (rsp) ofs 8
  DW_CFA_nop
  DW_CFA_nop
  DW_CFA_nop

0000ea14 000000000000001c 0000ea18 FDE cie=00000000 pc=000000000096cc25..000000000096cd86
  DW_CFA_advance_loc: 1 to 000000000096cc26
  DW_CFA_def_cfa_offset: 16
  DW_CFA_offset: r6 (rbp) at cfa-16
  DW_CFA_advance_loc: 3 to 000000000096cc29
  DW_CFA_def_cfa_register: r6 (rbp)
  DW_CFA_advance_loc2: 348 to 000000000096cd85
  DW_CFA_def_cfa: r7 (rsp) ofs 8
  DW_CFA_nop

0000ea34 000000000000001c 0000ea38 FDE cie=00000000 pc=000000000096cd86..000000000096cf4e
  DW_CFA_advance_loc: 1 to 000000000096cd87
  DW_CFA_def_cfa_offset: 16
  DW_CFA_offset: r6 (rbp) at cfa-16
  DW_CFA_advance_loc: 3 to 000000000096cd8a
  DW_CFA_def_cfa_register: r6 (rbp)
  DW_CFA_advance_loc2: 451 to 000000000096cf4d
  DW_CFA_def_cfa: r7 (rsp) ofs 8
  DW_CFA_nop

0000ea54 000000000000001c 0000ea58 FDE cie=00000000 pc=000000000096cf4e..000000000096d1b6
  DW_CFA_advance_loc: 1 to 000000000096cf4f
  DW_CFA_def_cfa_offset: 16
  DW_CFA_offset: r6 (rbp) at cfa-16
  DW_CFA_advance_loc: 3 to 000000000096cf52
  DW_CFA_def_cfa_register: r6 (rbp)
  DW_CFA_advance_loc2: 611 to 000000000096d1b5
  DW_CFA_def_cfa: r7 (rsp) ofs 8
  DW_CFA_nop

0000ea74 000000000000001c 0000ea78 FDE cie=00000000 pc=000000000096d1b6..000000000096d1f2
  DW_CFA_advance_loc: 1 to 000000000096d1b7
  DW_CFA_def_cfa_offset: 16
  DW_CFA_offset: r6 (rbp) at cfa-16
  DW_CFA_advance_loc: 3 to 000000000096d1ba
  DW_CFA_def_cfa_register: r6 (rbp)
  DW_CFA_advance_loc: 55 to 000000000096d1f1
  DW_CFA_def_cfa: r7 (rsp) ofs 8
  DW_CFA_nop
  DW_CFA_nop
  DW_CFA_nop

0000ea94 000000000000001c 0000ea98 FDE cie=00000000 pc=000000000096d1f2..000000000096d5e9
  DW_CFA_advance_loc: 1 to 000000000096d1f3
  DW_CFA_def_cfa_offset: 16
  DW_CFA_offset: r6 (rbp) at cfa-16
  DW_CFA_advance_loc: 3 to 000000000096d1f6
  DW_CFA_def_cfa_register: r6 (rbp)
  DW_CFA_advance_loc2: 1010 to 000000000096d5e8
  DW_CFA_def_cfa: r7 (rsp) ofs 8
  DW_CFA_nop

0000eab4 000000000000001c 0000eab8 FDE cie=00000000 pc=000000000096d5e9..000000000096d735
  DW_CFA_advance_loc: 1 to 000000000096d5ea
  DW_CFA_def_cfa_offset: 16
  DW_CFA_offset: r6 (rbp) at cfa-16
  DW_CFA_advance_loc: 3 to 000000000096d5ed
  DW_CFA_def_cfa_register: r6 (rbp)
  DW_CFA_advance_loc2: 327 to 000000000096d734
  DW_CFA_def_cfa: r7 (rsp) ofs 8
  DW_CFA_nop

0000ead4 000000000000001c 0000ead8 FDE cie=00000000 pc=000000000096d735..000000000096d92f
  DW_CFA_advance_loc: 1 to 000000000096d736
  DW_CFA_def_cfa_offset: 16
  DW_CFA_offset: r6 (rbp) at cfa-16
  DW_CFA_advance_loc: 3 to 000000000096d739
  DW_CFA_def_cfa_register: r6 (rbp)
  DW_CFA_advance_loc2: 501 to 000000000096d92e
  DW_CFA_def_cfa: r7 (rsp) ofs 8
  DW_CFA_nop

0000eaf4 000000000000001c 0000eaf8 FDE cie=00000000 pc=000000000096d92f..000000000096daef
  DW_CFA_advance_loc: 1 to 000000000096d930
  DW_CFA_def_cfa_offset: 16
  DW_CFA_offset: r6 (rbp) at cfa-16
  DW_CFA_advance_loc: 3 to 000000000096d933
  DW_CFA_def_cfa_register: r6 (rbp)
  DW_CFA_advance_loc2: 443 to 000000000096daee
  DW_CFA_def_cfa: r7 (rsp) ofs 8
  DW_CFA_nop

0000eb14 000000000000001c 0000eb18 FDE cie=00000000 pc=000000000096daef..000000000096dbb1
  DW_CFA_advance_loc: 1 to 000000000096daf0
  DW_CFA_def_cfa_offset: 16
  DW_CFA_offset: r6 (rbp) at cfa-16
  DW_CFA_advance_loc: 3 to 000000000096daf3
  DW_CFA_def_cfa_register: r6 (rbp)
  DW_CFA_advance_loc1: 189 to 000000000096dbb0
  DW_CFA_def_cfa: r7 (rsp) ofs 8
  DW_CFA_nop
  DW_CFA_nop

0000eb34 000000000000001c 0000eb38 FDE cie=00000000 pc=000000000096dbb1..000000000096dc9c
  DW_CFA_advance_loc: 1 to 000000000096dbb2
  DW_CFA_def_cfa_offset: 16
  DW_CFA_offset: r6 (rbp) at cfa-16
  DW_CFA_advance_loc: 3 to 000000000096dbb5
  DW_CFA_def_cfa_register: r6 (rbp)
  DW_CFA_advance_loc1: 230 to 000000000096dc9b
  DW_CFA_def_cfa: r7 (rsp) ofs 8
  DW_CFA_nop
  DW_CFA_nop

0000eb54 0000000000000020 0000eb58 FDE cie=00000000 pc=000000000096dc9c..000000000096df66
  DW_CFA_advance_loc: 1 to 000000000096dc9d
  DW_CFA_def_cfa_offset: 16
  DW_CFA_offset: r6 (rbp) at cfa-16
  DW_CFA_advance_loc: 3 to 000000000096dca0
  DW_CFA_def_cfa_register: r6 (rbp)
  DW_CFA_advance_loc: 8 to 000000000096dca8
  DW_CFA_offset: r3 (rbx) at cfa-24
  DW_CFA_advance_loc2: 701 to 000000000096df65
  DW_CFA_def_cfa: r7 (rsp) ofs 8
  DW_CFA_nop
  DW_CFA_nop

0000eb78 000000000000001c 0000eb7c FDE cie=00000000 pc=000000000096df66..000000000096dfc3
  DW_CFA_advance_loc: 1 to 000000000096df67
  DW_CFA_def_cfa_offset: 16
  DW_CFA_offset: r6 (rbp) at cfa-16
  DW_CFA_advance_loc: 3 to 000000000096df6a
  DW_CFA_def_cfa_register: r6 (rbp)
  DW_CFA_advance_loc1: 88 to 000000000096dfc2
  DW_CFA_def_cfa: r7 (rsp) ofs 8
  DW_CFA_nop
  DW_CFA_nop

0000eb98 000000000000001c 0000eb9c FDE cie=00000000 pc=000000000096dfc3..000000000096e01e
  DW_CFA_advance_loc: 1 to 000000000096dfc4
  DW_CFA_def_cfa_offset: 16
  DW_CFA_offset: r6 (rbp) at cfa-16
  DW_CFA_advance_loc: 3 to 000000000096dfc7
  DW_CFA_def_cfa_register: r6 (rbp)
  DW_CFA_advance_loc1: 86 to 000000000096e01d
  DW_CFA_def_cfa: r7 (rsp) ofs 8
  DW_CFA_nop
  DW_CFA_nop

0000ebb8 000000000000001c 0000ebbc FDE cie=00000000 pc=000000000096e01e..000000000096e046
  DW_CFA_advance_loc: 1 to 000000000096e01f
  DW_CFA_def_cfa_offset: 16
  DW_CFA_offset: r6 (rbp) at cfa-16
  DW_CFA_advance_loc: 3 to 000000000096e022
  DW_CFA_def_cfa_register: r6 (rbp)
  DW_CFA_advance_loc: 35 to 000000000096e045
  DW_CFA_def_cfa: r7 (rsp) ofs 8
  DW_CFA_nop
  DW_CFA_nop
  DW_CFA_nop

0000ebd8 000000000000001c 0000ebdc FDE cie=00000000 pc=000000000096e046..000000000096e0cf
  DW_CFA_advance_loc: 1 to 000000000096e047
  DW_CFA_def_cfa_offset: 16
  DW_CFA_offset: r6 (rbp) at cfa-16
  DW_CFA_advance_loc: 3 to 000000000096e04a
  DW_CFA_def_cfa_register: r6 (rbp)
  DW_CFA_advance_loc1: 132 to 000000000096e0ce
  DW_CFA_def_cfa: r7 (rsp) ofs 8
  DW_CFA_nop
  DW_CFA_nop

0000ebf8 000000000000001c 0000ebfc FDE cie=00000000 pc=000000000096e0cf..000000000096e1b6
  DW_CFA_advance_loc: 1 to 000000000096e0d0
  DW_CFA_def_cfa_offset: 16
  DW_CFA_offset: r6 (rbp) at cfa-16
  DW_CFA_advance_loc: 3 to 000000000096e0d3
  DW_CFA_def_cfa_register: r6 (rbp)
  DW_CFA_advance_loc1: 226 to 000000000096e1b5
  DW_CFA_def_cfa: r7 (rsp) ofs 8
  DW_CFA_nop
  DW_CFA_nop

0000ec18 000000000000001c 0000ec1c FDE cie=00000000 pc=000000000096e1b6..000000000096e334
  DW_CFA_advance_loc: 1 to 000000000096e1b7
  DW_CFA_def_cfa_offset: 16
  DW_CFA_offset: r6 (rbp) at cfa-16
  DW_CFA_advance_loc: 3 to 000000000096e1ba
  DW_CFA_def_cfa_register: r6 (rbp)
  DW_CFA_advance_loc2: 377 to 000000000096e333
  DW_CFA_def_cfa: r7 (rsp) ofs 8
  DW_CFA_nop

0000ec38 000000000000001c 0000ec3c FDE cie=00000000 pc=000000000096e334..000000000096e412
  DW_CFA_advance_loc: 1 to 000000000096e335
  DW_CFA_def_cfa_offset: 16
  DW_CFA_offset: r6 (rbp) at cfa-16
  DW_CFA_advance_loc: 3 to 000000000096e338
  DW_CFA_def_cfa_register: r6 (rbp)
  DW_CFA_advance_loc1: 217 to 000000000096e411
  DW_CFA_def_cfa: r7 (rsp) ofs 8
  DW_CFA_nop
  DW_CFA_nop

0000ec58 000000000000001c 0000ec5c FDE cie=00000000 pc=000000000096e412..000000000096e48d
  DW_CFA_advance_loc: 1 to 000000000096e413
  DW_CFA_def_cfa_offset: 16
  DW_CFA_offset: r6 (rbp) at cfa-16
  DW_CFA_advance_loc: 3 to 000000000096e416
  DW_CFA_def_cfa_register: r6 (rbp)
  DW_CFA_advance_loc1: 118 to 000000000096e48c
  DW_CFA_def_cfa: r7 (rsp) ofs 8
  DW_CFA_nop
  DW_CFA_nop

0000ec78 000000000000001c 0000ec7c FDE cie=00000000 pc=000000000096e48d..000000000096e4c5
  DW_CFA_advance_loc: 1 to 000000000096e48e
  DW_CFA_def_cfa_offset: 16
  DW_CFA_offset: r6 (rbp) at cfa-16
  DW_CFA_advance_loc: 3 to 000000000096e491
  DW_CFA_def_cfa_register: r6 (rbp)
  DW_CFA_advance_loc: 51 to 000000000096e4c4
  DW_CFA_def_cfa: r7 (rsp) ofs 8
  DW_CFA_nop
  DW_CFA_nop
  DW_CFA_nop

0000ec98 000000000000001c 0000ec9c FDE cie=00000000 pc=000000000096e4c5..000000000096e539
  DW_CFA_advance_loc: 1 to 000000000096e4c6
  DW_CFA_def_cfa_offset: 16
  DW_CFA_offset: r6 (rbp) at cfa-16
  DW_CFA_advance_loc: 3 to 000000000096e4c9
  DW_CFA_def_cfa_register: r6 (rbp)
  DW_CFA_advance_loc1: 111 to 000000000096e538
  DW_CFA_def_cfa: r7 (rsp) ofs 8
  DW_CFA_nop
  DW_CFA_nop

0000ecb8 000000000000001c 0000ecbc FDE cie=00000000 pc=000000000096e539..000000000096e60c
  DW_CFA_advance_loc: 1 to 000000000096e53a
  DW_CFA_def_cfa_offset: 16
  DW_CFA_offset: r6 (rbp) at cfa-16
  DW_CFA_advance_loc: 3 to 000000000096e53d
  DW_CFA_def_cfa_register: r6 (rbp)
  DW_CFA_advance_loc1: 206 to 000000000096e60b
  DW_CFA_def_cfa: r7 (rsp) ofs 8
  DW_CFA_nop
  DW_CFA_nop

0000ecd8 000000000000001c 0000ecdc FDE cie=00000000 pc=000000000096e60c..000000000096e931
  DW_CFA_advance_loc: 1 to 000000000096e60d
  DW_CFA_def_cfa_offset: 16
  DW_CFA_offset: r6 (rbp) at cfa-16
  DW_CFA_advance_loc: 3 to 000000000096e610
  DW_CFA_def_cfa_register: r6 (rbp)
  DW_CFA_advance_loc2: 800 to 000000000096e930
  DW_CFA_def_cfa: r7 (rsp) ofs 8
  DW_CFA_nop

0000ecf8 000000000000001c 0000ecfc FDE cie=00000000 pc=000000000096e931..000000000096eb3f
  DW_CFA_advance_loc: 1 to 000000000096e932
  DW_CFA_def_cfa_offset: 16
  DW_CFA_offset: r6 (rbp) at cfa-16
  DW_CFA_advance_loc: 3 to 000000000096e935
  DW_CFA_def_cfa_register: r6 (rbp)
  DW_CFA_advance_loc2: 521 to 000000000096eb3e
  DW_CFA_def_cfa: r7 (rsp) ofs 8
  DW_CFA_nop

0000ed18 000000000000001c 0000ed1c FDE cie=00000000 pc=000000000096eb3f..000000000096f0a1
  DW_CFA_advance_loc: 1 to 000000000096eb40
  DW_CFA_def_cfa_offset: 16
  DW_CFA_offset: r6 (rbp) at cfa-16
  DW_CFA_advance_loc: 3 to 000000000096eb43
  DW_CFA_def_cfa_register: r6 (rbp)
  DW_CFA_advance_loc2: 1373 to 000000000096f0a0
  DW_CFA_def_cfa: r7 (rsp) ofs 8
  DW_CFA_nop

0000ed38 000000000000001c 0000ed3c FDE cie=00000000 pc=000000000096f0a1..000000000096f13a
  DW_CFA_advance_loc: 1 to 000000000096f0a2
  DW_CFA_def_cfa_offset: 16
  DW_CFA_offset: r6 (rbp) at cfa-16
  DW_CFA_advance_loc: 3 to 000000000096f0a5
  DW_CFA_def_cfa_register: r6 (rbp)
  DW_CFA_advance_loc1: 148 to 000000000096f139
  DW_CFA_def_cfa: r7 (rsp) ofs 8
  DW_CFA_nop
  DW_CFA_nop

0000ed58 000000000000001c 0000ed5c FDE cie=00000000 pc=000000000096f13a..000000000096f24a
  DW_CFA_advance_loc: 1 to 000000000096f13b
  DW_CFA_def_cfa_offset: 16
  DW_CFA_offset: r6 (rbp) at cfa-16
  DW_CFA_advance_loc: 3 to 000000000096f13e
  DW_CFA_def_cfa_register: r6 (rbp)
  DW_CFA_advance_loc2: 267 to 000000000096f249
  DW_CFA_def_cfa: r7 (rsp) ofs 8
  DW_CFA_nop

0000ed78 000000000000001c 0000ed7c FDE cie=00000000 pc=000000000096f24a..000000000096f42f
  DW_CFA_advance_loc: 1 to 000000000096f24b
  DW_CFA_def_cfa_offset: 16
  DW_CFA_offset: r6 (rbp) at cfa-16
  DW_CFA_advance_loc: 3 to 000000000096f24e
  DW_CFA_def_cfa_register: r6 (rbp)
  DW_CFA_advance_loc2: 480 to 000000000096f42e
  DW_CFA_def_cfa: r7 (rsp) ofs 8
  DW_CFA_nop

0000ed98 000000000000001c 0000ed9c FDE cie=00000000 pc=000000000096f42f..000000000096fdb7
  DW_CFA_advance_loc: 1 to 000000000096f430
  DW_CFA_def_cfa_offset: 16
  DW_CFA_offset: r6 (rbp) at cfa-16
  DW_CFA_advance_loc: 3 to 000000000096f433
  DW_CFA_def_cfa_register: r6 (rbp)
  DW_CFA_advance_loc2: 2435 to 000000000096fdb6
  DW_CFA_def_cfa: r7 (rsp) ofs 8
  DW_CFA_nop

0000edb8 000000000000001c 0000edbc FDE cie=00000000 pc=000000000096fdb7..0000000000970901
  DW_CFA_advance_loc: 1 to 000000000096fdb8
  DW_CFA_def_cfa_offset: 16
  DW_CFA_offset: r6 (rbp) at cfa-16
  DW_CFA_advance_loc: 3 to 000000000096fdbb
  DW_CFA_def_cfa_register: r6 (rbp)
  DW_CFA_advance_loc2: 2885 to 0000000000970900
  DW_CFA_def_cfa: r7 (rsp) ofs 8
  DW_CFA_nop

0000edd8 000000000000001c 0000eddc FDE cie=00000000 pc=0000000000970901..000000000097099c
  DW_CFA_advance_loc: 1 to 0000000000970902
  DW_CFA_def_cfa_offset: 16
  DW_CFA_offset: r6 (rbp) at cfa-16
  DW_CFA_advance_loc: 3 to 0000000000970905
  DW_CFA_def_cfa_register: r6 (rbp)
  DW_CFA_advance_loc1: 150 to 000000000097099b
  DW_CFA_def_cfa: r7 (rsp) ofs 8
  DW_CFA_nop
  DW_CFA_nop

0000edf8 000000000000001c 0000edfc FDE cie=00000000 pc=000000000097099c..0000000000970b55
  DW_CFA_advance_loc: 1 to 000000000097099d
  DW_CFA_def_cfa_offset: 16
  DW_CFA_offset: r6 (rbp) at cfa-16
  DW_CFA_advance_loc: 3 to 00000000009709a0
  DW_CFA_def_cfa_register: r6 (rbp)
  DW_CFA_advance_loc2: 436 to 0000000000970b54
  DW_CFA_def_cfa: r7 (rsp) ofs 8
  DW_CFA_nop

0000ee18 000000000000001c 0000ee1c FDE cie=00000000 pc=0000000000970b55..0000000000970d50
  DW_CFA_advance_loc: 1 to 0000000000970b56
  DW_CFA_def_cfa_offset: 16
  DW_CFA_offset: r6 (rbp) at cfa-16
  DW_CFA_advance_loc: 3 to 0000000000970b59
  DW_CFA_def_cfa_register: r6 (rbp)
  DW_CFA_advance_loc2: 502 to 0000000000970d4f
  DW_CFA_def_cfa: r7 (rsp) ofs 8
  DW_CFA_nop

0000ee38 000000000000001c 0000ee3c FDE cie=00000000 pc=0000000000970d50..0000000000970e09
  DW_CFA_advance_loc: 1 to 0000000000970d51
  DW_CFA_def_cfa_offset: 16
  DW_CFA_offset: r6 (rbp) at cfa-16
  DW_CFA_advance_loc: 3 to 0000000000970d54
  DW_CFA_def_cfa_register: r6 (rbp)
  DW_CFA_advance_loc1: 180 to 0000000000970e08
  DW_CFA_def_cfa: r7 (rsp) ofs 8
  DW_CFA_nop
  DW_CFA_nop

0000ee58 000000000000001c 0000ee5c FDE cie=00000000 pc=0000000000970e09..0000000000970ecd
  DW_CFA_advance_loc: 1 to 0000000000970e0a
  DW_CFA_def_cfa_offset: 16
  DW_CFA_offset: r6 (rbp) at cfa-16
  DW_CFA_advance_loc: 3 to 0000000000970e0d
  DW_CFA_def_cfa_register: r6 (rbp)
  DW_CFA_advance_loc1: 191 to 0000000000970ecc
  DW_CFA_def_cfa: r7 (rsp) ofs 8
  DW_CFA_nop
  DW_CFA_nop

0000ee78 000000000000001c 0000ee7c FDE cie=00000000 pc=0000000000970ecd..0000000000970f30
  DW_CFA_advance_loc: 1 to 0000000000970ece
  DW_CFA_def_cfa_offset: 16
  DW_CFA_offset: r6 (rbp) at cfa-16
  DW_CFA_advance_loc: 3 to 0000000000970ed1
  DW_CFA_def_cfa_register: r6 (rbp)
  DW_CFA_advance_loc1: 94 to 0000000000970f2f
  DW_CFA_def_cfa: r7 (rsp) ofs 8
  DW_CFA_nop
  DW_CFA_nop

0000ee98 000000000000001c 0000ee9c FDE cie=00000000 pc=0000000000970f30..0000000000970f6d
  DW_CFA_advance_loc: 1 to 0000000000970f31
  DW_CFA_def_cfa_offset: 16
  DW_CFA_offset: r6 (rbp) at cfa-16
  DW_CFA_advance_loc: 3 to 0000000000970f34
  DW_CFA_def_cfa_register: r6 (rbp)
  DW_CFA_advance_loc: 56 to 0000000000970f6c
  DW_CFA_def_cfa: r7 (rsp) ofs 8
  DW_CFA_nop
  DW_CFA_nop
  DW_CFA_nop

0000eeb8 000000000000001c 0000eebc FDE cie=00000000 pc=0000000000970f6d..0000000000971517
  DW_CFA_advance_loc: 1 to 0000000000970f6e
  DW_CFA_def_cfa_offset: 16
  DW_CFA_offset: r6 (rbp) at cfa-16
  DW_CFA_advance_loc: 3 to 0000000000970f71
  DW_CFA_def_cfa_register: r6 (rbp)
  DW_CFA_advance_loc2: 1445 to 0000000000971516
  DW_CFA_def_cfa: r7 (rsp) ofs 8
  DW_CFA_nop

0000eed8 000000000000001c 0000eedc FDE cie=00000000 pc=0000000000971517..00000000009716df
  DW_CFA_advance_loc: 1 to 0000000000971518
  DW_CFA_def_cfa_offset: 16
  DW_CFA_offset: r6 (rbp) at cfa-16
  DW_CFA_advance_loc: 3 to 000000000097151b
  DW_CFA_def_cfa_register: r6 (rbp)
  DW_CFA_advance_loc2: 451 to 00000000009716de
  DW_CFA_def_cfa: r7 (rsp) ofs 8
  DW_CFA_nop

0000eef8 000000000000001c 0000eefc FDE cie=00000000 pc=00000000009716df..00000000009718d7
  DW_CFA_advance_loc: 1 to 00000000009716e0
  DW_CFA_def_cfa_offset: 16
  DW_CFA_offset: r6 (rbp) at cfa-16
  DW_CFA_advance_loc: 3 to 00000000009716e3
  DW_CFA_def_cfa_register: r6 (rbp)
  DW_CFA_advance_loc2: 499 to 00000000009718d6
  DW_CFA_def_cfa: r7 (rsp) ofs 8
  DW_CFA_nop

0000ef18 000000000000001c 0000ef1c FDE cie=00000000 pc=00000000009718d7..00000000009718f5
  DW_CFA_advance_loc: 1 to 00000000009718d8
  DW_CFA_def_cfa_offset: 16
  DW_CFA_offset: r6 (rbp) at cfa-16
  DW_CFA_advance_loc: 3 to 00000000009718db
  DW_CFA_def_cfa_register: r6 (rbp)
  DW_CFA_advance_loc: 25 to 00000000009718f4
  DW_CFA_def_cfa: r7 (rsp) ofs 8
  DW_CFA_nop
  DW_CFA_nop
  DW_CFA_nop

0000ef38 000000000000001c 0000ef3c FDE cie=00000000 pc=00000000009718f5..0000000000971922
  DW_CFA_advance_loc: 1 to 00000000009718f6
  DW_CFA_def_cfa_offset: 16
  DW_CFA_offset: r6 (rbp) at cfa-16
  DW_CFA_advance_loc: 3 to 00000000009718f9
  DW_CFA_def_cfa_register: r6 (rbp)
  DW_CFA_advance_loc: 40 to 0000000000971921
  DW_CFA_def_cfa: r7 (rsp) ofs 8
  DW_CFA_nop
  DW_CFA_nop
  DW_CFA_nop

0000ef58 000000000000001c 0000ef5c FDE cie=00000000 pc=0000000000971922..0000000000971941
  DW_CFA_advance_loc: 1 to 0000000000971923
  DW_CFA_def_cfa_offset: 16
  DW_CFA_offset: r6 (rbp) at cfa-16
  DW_CFA_advance_loc: 3 to 0000000000971926
  DW_CFA_def_cfa_register: r6 (rbp)
  DW_CFA_advance_loc: 26 to 0000000000971940
  DW_CFA_def_cfa: r7 (rsp) ofs 8
  DW_CFA_nop
  DW_CFA_nop
  DW_CFA_nop

0000ef78 000000000000001c 0000ef7c FDE cie=00000000 pc=0000000000971941..0000000000971983
  DW_CFA_advance_loc: 1 to 0000000000971942
  DW_CFA_def_cfa_offset: 16
  DW_CFA_offset: r6 (rbp) at cfa-16
  DW_CFA_advance_loc: 3 to 0000000000971945
  DW_CFA_def_cfa_register: r6 (rbp)
  DW_CFA_advance_loc: 61 to 0000000000971982
  DW_CFA_def_cfa: r7 (rsp) ofs 8
  DW_CFA_nop
  DW_CFA_nop
  DW_CFA_nop

0000ef98 000000000000001c 0000ef9c FDE cie=00000000 pc=0000000000971983..0000000000971a05
  DW_CFA_advance_loc: 1 to 0000000000971984
  DW_CFA_def_cfa_offset: 16
  DW_CFA_offset: r6 (rbp) at cfa-16
  DW_CFA_advance_loc: 3 to 0000000000971987
  DW_CFA_def_cfa_register: r6 (rbp)
  DW_CFA_advance_loc1: 125 to 0000000000971a04
  DW_CFA_def_cfa: r7 (rsp) ofs 8
  DW_CFA_nop
  DW_CFA_nop

0000efb8 000000000000001c 0000efbc FDE cie=00000000 pc=0000000000971a05..0000000000971b2c
  DW_CFA_advance_loc: 1 to 0000000000971a06
  DW_CFA_def_cfa_offset: 16
  DW_CFA_offset: r6 (rbp) at cfa-16
  DW_CFA_advance_loc: 3 to 0000000000971a09
  DW_CFA_def_cfa_register: r6 (rbp)
  DW_CFA_advance_loc2: 290 to 0000000000971b2b
  DW_CFA_def_cfa: r7 (rsp) ofs 8
  DW_CFA_nop

0000efd8 000000000000001c 0000efdc FDE cie=00000000 pc=0000000000971b2c..0000000000971b87
  DW_CFA_advance_loc: 1 to 0000000000971b2d
  DW_CFA_def_cfa_offset: 16
  DW_CFA_offset: r6 (rbp) at cfa-16
  DW_CFA_advance_loc: 3 to 0000000000971b30
  DW_CFA_def_cfa_register: r6 (rbp)
  DW_CFA_advance_loc1: 86 to 0000000000971b86
  DW_CFA_def_cfa: r7 (rsp) ofs 8
  DW_CFA_nop
  DW_CFA_nop

0000eff8 000000000000001c 0000effc FDE cie=00000000 pc=0000000000971b87..0000000000971ba2
  DW_CFA_advance_loc: 1 to 0000000000971b88
  DW_CFA_def_cfa_offset: 16
  DW_CFA_offset: r6 (rbp) at cfa-16
  DW_CFA_advance_loc: 3 to 0000000000971b8b
  DW_CFA_def_cfa_register: r6 (rbp)
  DW_CFA_advance_loc: 22 to 0000000000971ba1
  DW_CFA_def_cfa: r7 (rsp) ofs 8
  DW_CFA_nop
  DW_CFA_nop
  DW_CFA_nop

0000f018 000000000000001c 0000f01c FDE cie=00000000 pc=0000000000971ba2..0000000000971c28
  DW_CFA_advance_loc: 1 to 0000000000971ba3
  DW_CFA_def_cfa_offset: 16
  DW_CFA_offset: r6 (rbp) at cfa-16
  DW_CFA_advance_loc: 3 to 0000000000971ba6
  DW_CFA_def_cfa_register: r6 (rbp)
  DW_CFA_advance_loc1: 129 to 0000000000971c27
  DW_CFA_def_cfa: r7 (rsp) ofs 8
  DW_CFA_nop
  DW_CFA_nop

0000f038 000000000000001c 0000f03c FDE cie=00000000 pc=0000000000971c28..0000000000971df3
  DW_CFA_advance_loc: 1 to 0000000000971c29
  DW_CFA_def_cfa_offset: 16
  DW_CFA_offset: r6 (rbp) at cfa-16
  DW_CFA_advance_loc: 3 to 0000000000971c2c
  DW_CFA_def_cfa_register: r6 (rbp)
  DW_CFA_advance_loc2: 454 to 0000000000971df2
  DW_CFA_def_cfa: r7 (rsp) ofs 8
  DW_CFA_nop

0000f058 000000000000001c 0000f05c FDE cie=00000000 pc=0000000000971df3..0000000000971f18
  DW_CFA_advance_loc: 1 to 0000000000971df4
  DW_CFA_def_cfa_offset: 16
  DW_CFA_offset: r6 (rbp) at cfa-16
  DW_CFA_advance_loc: 3 to 0000000000971df7
  DW_CFA_def_cfa_register: r6 (rbp)
  DW_CFA_advance_loc2: 288 to 0000000000971f17
  DW_CFA_def_cfa: r7 (rsp) ofs 8
  DW_CFA_nop

0000f078 000000000000001c 0000f07c FDE cie=00000000 pc=0000000000971f18..0000000000971f8e
  DW_CFA_advance_loc: 1 to 0000000000971f19
  DW_CFA_def_cfa_offset: 16
  DW_CFA_offset: r6 (rbp) at cfa-16
  DW_CFA_advance_loc: 3 to 0000000000971f1c
  DW_CFA_def_cfa_register: r6 (rbp)
  DW_CFA_advance_loc1: 113 to 0000000000971f8d
  DW_CFA_def_cfa: r7 (rsp) ofs 8
  DW_CFA_nop
  DW_CFA_nop

0000f098 000000000000001c 0000f09c FDE cie=00000000 pc=0000000000971f8e..000000000097207c
  DW_CFA_advance_loc: 1 to 0000000000971f8f
  DW_CFA_def_cfa_offset: 16
  DW_CFA_offset: r6 (rbp) at cfa-16
  DW_CFA_advance_loc: 3 to 0000000000971f92
  DW_CFA_def_cfa_register: r6 (rbp)
  DW_CFA_advance_loc1: 233 to 000000000097207b
  DW_CFA_def_cfa: r7 (rsp) ofs 8
  DW_CFA_nop
  DW_CFA_nop

0000f0b8 000000000000001c 0000f0bc FDE cie=00000000 pc=000000000097207c..000000000097214d
  DW_CFA_advance_loc: 1 to 000000000097207d
  DW_CFA_def_cfa_offset: 16
  DW_CFA_offset: r6 (rbp) at cfa-16
  DW_CFA_advance_loc: 3 to 0000000000972080
  DW_CFA_def_cfa_register: r6 (rbp)
  DW_CFA_advance_loc1: 204 to 000000000097214c
  DW_CFA_def_cfa: r7 (rsp) ofs 8
  DW_CFA_nop
  DW_CFA_nop

0000f0d8 000000000000001c 0000f0dc FDE cie=00000000 pc=000000000097214d..0000000000972481
  DW_CFA_advance_loc: 1 to 000000000097214e
  DW_CFA_def_cfa_offset: 16
  DW_CFA_offset: r6 (rbp) at cfa-16
  DW_CFA_advance_loc: 3 to 0000000000972151
  DW_CFA_def_cfa_register: r6 (rbp)
  DW_CFA_advance_loc2: 815 to 0000000000972480
  DW_CFA_def_cfa: r7 (rsp) ofs 8
  DW_CFA_nop

0000f0f8 000000000000001c 0000f0fc FDE cie=00000000 pc=0000000000972481..0000000000972a36
  DW_CFA_advance_loc: 1 to 0000000000972482
  DW_CFA_def_cfa_offset: 16
  DW_CFA_offset: r6 (rbp) at cfa-16
  DW_CFA_advance_loc: 3 to 0000000000972485
  DW_CFA_def_cfa_register: r6 (rbp)
  DW_CFA_advance_loc2: 1456 to 0000000000972a35
  DW_CFA_def_cfa: r7 (rsp) ofs 8
  DW_CFA_nop

0000f118 000000000000001c 0000f11c FDE cie=00000000 pc=0000000000972a36..0000000000972b97
  DW_CFA_advance_loc: 1 to 0000000000972a37
  DW_CFA_def_cfa_offset: 16
  DW_CFA_offset: r6 (rbp) at cfa-16
  DW_CFA_advance_loc: 3 to 0000000000972a3a
  DW_CFA_def_cfa_register: r6 (rbp)
  DW_CFA_advance_loc2: 348 to 0000000000972b96
  DW_CFA_def_cfa: r7 (rsp) ofs 8
  DW_CFA_nop

0000f138 000000000000001c 0000f13c FDE cie=00000000 pc=0000000000972b97..0000000000972e62
  DW_CFA_advance_loc: 1 to 0000000000972b98
  DW_CFA_def_cfa_offset: 16
  DW_CFA_offset: r6 (rbp) at cfa-16
  DW_CFA_advance_loc: 3 to 0000000000972b9b
  DW_CFA_def_cfa_register: r6 (rbp)
  DW_CFA_advance_loc2: 710 to 0000000000972e61
  DW_CFA_def_cfa: r7 (rsp) ofs 8
  DW_CFA_nop

0000f158 000000000000001c 0000f15c FDE cie=00000000 pc=0000000000972e62..00000000009730ca
  DW_CFA_advance_loc: 1 to 0000000000972e63
  DW_CFA_def_cfa_offset: 16
  DW_CFA_offset: r6 (rbp) at cfa-16
  DW_CFA_advance_loc: 3 to 0000000000972e66
  DW_CFA_def_cfa_register: r6 (rbp)
  DW_CFA_advance_loc2: 611 to 00000000009730c9
  DW_CFA_def_cfa: r7 (rsp) ofs 8
  DW_CFA_nop

0000f178 000000000000001c 0000f17c FDE cie=00000000 pc=00000000009730ca..00000000009735c7
  DW_CFA_advance_loc: 1 to 00000000009730cb
  DW_CFA_def_cfa_offset: 16
  DW_CFA_offset: r6 (rbp) at cfa-16
  DW_CFA_advance_loc: 3 to 00000000009730ce
  DW_CFA_def_cfa_register: r6 (rbp)
  DW_CFA_advance_loc2: 1272 to 00000000009735c6
  DW_CFA_def_cfa: r7 (rsp) ofs 8
  DW_CFA_nop

0000f198 000000000000001c 0000f19c FDE cie=00000000 pc=00000000009735c7..000000000097364c
  DW_CFA_advance_loc: 1 to 00000000009735c8
  DW_CFA_def_cfa_offset: 16
  DW_CFA_offset: r6 (rbp) at cfa-16
  DW_CFA_advance_loc: 3 to 00000000009735cb
  DW_CFA_def_cfa_register: r6 (rbp)
  DW_CFA_advance_loc1: 128 to 000000000097364b
  DW_CFA_def_cfa: r7 (rsp) ofs 8
  DW_CFA_nop
  DW_CFA_nop

0000f1b8 000000000000001c 0000f1bc FDE cie=00000000 pc=000000000097364c..0000000000973691
  DW_CFA_advance_loc: 1 to 000000000097364d
  DW_CFA_def_cfa_offset: 16
  DW_CFA_offset: r6 (rbp) at cfa-16
  DW_CFA_advance_loc: 3 to 0000000000973650
  DW_CFA_def_cfa_register: r6 (rbp)
  DW_CFA_advance_loc1: 64 to 0000000000973690
  DW_CFA_def_cfa: r7 (rsp) ofs 8
  DW_CFA_nop
  DW_CFA_nop

0000f1d8 000000000000001c 0000f1dc FDE cie=00000000 pc=0000000000973691..00000000009736c3
  DW_CFA_advance_loc: 1 to 0000000000973692
  DW_CFA_def_cfa_offset: 16
  DW_CFA_offset: r6 (rbp) at cfa-16
  DW_CFA_advance_loc: 3 to 0000000000973695
  DW_CFA_def_cfa_register: r6 (rbp)
  DW_CFA_advance_loc: 45 to 00000000009736c2
  DW_CFA_def_cfa: r7 (rsp) ofs 8
  DW_CFA_nop
  DW_CFA_nop
  DW_CFA_nop

0000f1f8 000000000000001c 0000f1fc FDE cie=00000000 pc=00000000009736c3..00000000009736fa
  DW_CFA_advance_loc: 1 to 00000000009736c4
  DW_CFA_def_cfa_offset: 16
  DW_CFA_offset: r6 (rbp) at cfa-16
  DW_CFA_advance_loc: 3 to 00000000009736c7
  DW_CFA_def_cfa_register: r6 (rbp)
  DW_CFA_advance_loc: 50 to 00000000009736f9
  DW_CFA_def_cfa: r7 (rsp) ofs 8
  DW_CFA_nop
  DW_CFA_nop
  DW_CFA_nop

0000f218 000000000000001c 0000f21c FDE cie=00000000 pc=00000000009736fa..0000000000973896
  DW_CFA_advance_loc: 1 to 00000000009736fb
  DW_CFA_def_cfa_offset: 16
  DW_CFA_offset: r6 (rbp) at cfa-16
  DW_CFA_advance_loc: 3 to 00000000009736fe
  DW_CFA_def_cfa_register: r6 (rbp)
  DW_CFA_advance_loc2: 407 to 0000000000973895
  DW_CFA_def_cfa: r7 (rsp) ofs 8
  DW_CFA_nop

0000f238 000000000000001c 0000f23c FDE cie=00000000 pc=0000000000973896..0000000000973ad8
  DW_CFA_advance_loc: 1 to 0000000000973897
  DW_CFA_def_cfa_offset: 16
  DW_CFA_offset: r6 (rbp) at cfa-16
  DW_CFA_advance_loc: 3 to 000000000097389a
  DW_CFA_def_cfa_register: r6 (rbp)
  DW_CFA_advance_loc2: 573 to 0000000000973ad7
  DW_CFA_def_cfa: r7 (rsp) ofs 8
  DW_CFA_nop

0000f258 000000000000001c 0000f25c FDE cie=00000000 pc=0000000000973ad8..0000000000973cce
  DW_CFA_advance_loc: 1 to 0000000000973ad9
  DW_CFA_def_cfa_offset: 16
  DW_CFA_offset: r6 (rbp) at cfa-16
  DW_CFA_advance_loc: 3 to 0000000000973adc
  DW_CFA_def_cfa_register: r6 (rbp)
  DW_CFA_advance_loc2: 497 to 0000000000973ccd
  DW_CFA_def_cfa: r7 (rsp) ofs 8
  DW_CFA_nop

0000f278 000000000000001c 0000f27c FDE cie=00000000 pc=0000000000973cce..0000000000973d3d
  DW_CFA_advance_loc: 1 to 0000000000973ccf
  DW_CFA_def_cfa_offset: 16
  DW_CFA_offset: r6 (rbp) at cfa-16
  DW_CFA_advance_loc: 3 to 0000000000973cd2
  DW_CFA_def_cfa_register: r6 (rbp)
  DW_CFA_advance_loc1: 106 to 0000000000973d3c
  DW_CFA_def_cfa: r7 (rsp) ofs 8
  DW_CFA_nop
  DW_CFA_nop

0000f298 000000000000001c 0000f29c FDE cie=00000000 pc=0000000000973d3d..0000000000974471
  DW_CFA_advance_loc: 1 to 0000000000973d3e
  DW_CFA_def_cfa_offset: 16
  DW_CFA_offset: r6 (rbp) at cfa-16
  DW_CFA_advance_loc: 3 to 0000000000973d41
  DW_CFA_def_cfa_register: r6 (rbp)
  DW_CFA_advance_loc2: 1839 to 0000000000974470
  DW_CFA_def_cfa: r7 (rsp) ofs 8
  DW_CFA_nop

0000f2b8 0000000000000020 0000f2bc FDE cie=00000000 pc=0000000000974471..00000000009747e5
  DW_CFA_advance_loc: 1 to 0000000000974472
  DW_CFA_def_cfa_offset: 16
  DW_CFA_offset: r6 (rbp) at cfa-16
  DW_CFA_advance_loc: 3 to 0000000000974475
  DW_CFA_def_cfa_register: r6 (rbp)
  DW_CFA_advance_loc: 5 to 000000000097447a
  DW_CFA_offset: r3 (rbx) at cfa-24
  DW_CFA_advance_loc2: 874 to 00000000009747e4
  DW_CFA_def_cfa: r7 (rsp) ofs 8
  DW_CFA_nop
  DW_CFA_nop

0000f2dc 000000000000001c 0000f2e0 FDE cie=00000000 pc=00000000009747e5..000000000097487e
  DW_CFA_advance_loc: 1 to 00000000009747e6
  DW_CFA_def_cfa_offset: 16
  DW_CFA_offset: r6 (rbp) at cfa-16
  DW_CFA_advance_loc: 3 to 00000000009747e9
  DW_CFA_def_cfa_register: r6 (rbp)
  DW_CFA_advance_loc1: 148 to 000000000097487d
  DW_CFA_def_cfa: r7 (rsp) ofs 8
  DW_CFA_nop
  DW_CFA_nop

0000f2fc 000000000000001c 0000f300 FDE cie=00000000 pc=000000000097487e..00000000009748b4
  DW_CFA_advance_loc: 1 to 000000000097487f
  DW_CFA_def_cfa_offset: 16
  DW_CFA_offset: r6 (rbp) at cfa-16
  DW_CFA_advance_loc: 3 to 0000000000974882
  DW_CFA_def_cfa_register: r6 (rbp)
  DW_CFA_advance_loc: 49 to 00000000009748b3
  DW_CFA_def_cfa: r7 (rsp) ofs 8
  DW_CFA_nop
  DW_CFA_nop
  DW_CFA_nop

0000f31c 000000000000001c 0000f320 FDE cie=00000000 pc=00000000009748b4..0000000000974973
  DW_CFA_advance_loc: 1 to 00000000009748b5
  DW_CFA_def_cfa_offset: 16
  DW_CFA_offset: r6 (rbp) at cfa-16
  DW_CFA_advance_loc: 3 to 00000000009748b8
  DW_CFA_def_cfa_register: r6 (rbp)
  DW_CFA_advance_loc1: 186 to 0000000000974972
  DW_CFA_def_cfa: r7 (rsp) ofs 8
  DW_CFA_nop
  DW_CFA_nop

0000f33c 000000000000001c 0000f340 FDE cie=00000000 pc=0000000000974973..00000000009749c9
  DW_CFA_advance_loc: 1 to 0000000000974974
  DW_CFA_def_cfa_offset: 16
  DW_CFA_offset: r6 (rbp) at cfa-16
  DW_CFA_advance_loc: 3 to 0000000000974977
  DW_CFA_def_cfa_register: r6 (rbp)
  DW_CFA_advance_loc1: 81 to 00000000009749c8
  DW_CFA_def_cfa: r7 (rsp) ofs 8
  DW_CFA_nop
  DW_CFA_nop

0000f35c 000000000000001c 0000f360 FDE cie=00000000 pc=00000000009749c9..0000000000974a08
  DW_CFA_advance_loc: 1 to 00000000009749ca
  DW_CFA_def_cfa_offset: 16
  DW_CFA_offset: r6 (rbp) at cfa-16
  DW_CFA_advance_loc: 3 to 00000000009749cd
  DW_CFA_def_cfa_register: r6 (rbp)
  DW_CFA_advance_loc: 58 to 0000000000974a07
  DW_CFA_def_cfa: r7 (rsp) ofs 8
  DW_CFA_nop
  DW_CFA_nop
  DW_CFA_nop

0000f37c 000000000000001c 0000f380 FDE cie=00000000 pc=0000000000974a08..0000000000974a9a
  DW_CFA_advance_loc: 1 to 0000000000974a09
  DW_CFA_def_cfa_offset: 16
  DW_CFA_offset: r6 (rbp) at cfa-16
  DW_CFA_advance_loc: 3 to 0000000000974a0c
  DW_CFA_def_cfa_register: r6 (rbp)
  DW_CFA_advance_loc1: 141 to 0000000000974a99
  DW_CFA_def_cfa: r7 (rsp) ofs 8
  DW_CFA_nop
  DW_CFA_nop

0000f39c 000000000000001c 0000f3a0 FDE cie=00000000 pc=0000000000974a9a..0000000000974af6
  DW_CFA_advance_loc: 1 to 0000000000974a9b
  DW_CFA_def_cfa_offset: 16
  DW_CFA_offset: r6 (rbp) at cfa-16
  DW_CFA_advance_loc: 3 to 0000000000974a9e
  DW_CFA_def_cfa_register: r6 (rbp)
  DW_CFA_advance_loc1: 87 to 0000000000974af5
  DW_CFA_def_cfa: r7 (rsp) ofs 8
  DW_CFA_nop
  DW_CFA_nop

0000f3bc 000000000000001c 0000f3c0 FDE cie=00000000 pc=0000000000974af6..0000000000975280
  DW_CFA_advance_loc: 1 to 0000000000974af7
  DW_CFA_def_cfa_offset: 16
  DW_CFA_offset: r6 (rbp) at cfa-16
  DW_CFA_advance_loc: 3 to 0000000000974afa
  DW_CFA_def_cfa_register: r6 (rbp)
  DW_CFA_advance_loc2: 1925 to 000000000097527f
  DW_CFA_def_cfa: r7 (rsp) ofs 8
  DW_CFA_nop

0000f3dc 000000000000001c 0000f3e0 FDE cie=00000000 pc=0000000000975280..00000000009752c3
  DW_CFA_advance_loc: 1 to 0000000000975281
  DW_CFA_def_cfa_offset: 16
  DW_CFA_offset: r6 (rbp) at cfa-16
  DW_CFA_advance_loc: 3 to 0000000000975284
  DW_CFA_def_cfa_register: r6 (rbp)
  DW_CFA_advance_loc: 62 to 00000000009752c2
  DW_CFA_def_cfa: r7 (rsp) ofs 8
  DW_CFA_nop
  DW_CFA_nop
  DW_CFA_nop

0000f3fc 000000000000001c 0000f400 FDE cie=00000000 pc=00000000009752c3..0000000000975310
  DW_CFA_advance_loc: 1 to 00000000009752c4
  DW_CFA_def_cfa_offset: 16
  DW_CFA_offset: r6 (rbp) at cfa-16
  DW_CFA_advance_loc: 3 to 00000000009752c7
  DW_CFA_def_cfa_register: r6 (rbp)
  DW_CFA_advance_loc1: 72 to 000000000097530f
  DW_CFA_def_cfa: r7 (rsp) ofs 8
  DW_CFA_nop
  DW_CFA_nop

0000f41c 000000000000001c 0000f420 FDE cie=00000000 pc=0000000000975310..000000000097535d
  DW_CFA_advance_loc: 1 to 0000000000975311
  DW_CFA_def_cfa_offset: 16
  DW_CFA_offset: r6 (rbp) at cfa-16
  DW_CFA_advance_loc: 3 to 0000000000975314
  DW_CFA_def_cfa_register: r6 (rbp)
  DW_CFA_advance_loc1: 72 to 000000000097535c
  DW_CFA_def_cfa: r7 (rsp) ofs 8
  DW_CFA_nop
  DW_CFA_nop

0000f43c 000000000000001c 0000f440 FDE cie=00000000 pc=000000000097535d..0000000000975386
  DW_CFA_advance_loc: 1 to 000000000097535e
  DW_CFA_def_cfa_offset: 16
  DW_CFA_offset: r6 (rbp) at cfa-16
  DW_CFA_advance_loc: 3 to 0000000000975361
  DW_CFA_def_cfa_register: r6 (rbp)
  DW_CFA_advance_loc: 36 to 0000000000975385
  DW_CFA_def_cfa: r7 (rsp) ofs 8
  DW_CFA_nop
  DW_CFA_nop
  DW_CFA_nop

0000f45c 000000000000001c 0000f460 FDE cie=00000000 pc=0000000000975386..000000000097548b
  DW_CFA_advance_loc: 1 to 0000000000975387
  DW_CFA_def_cfa_offset: 16
  DW_CFA_offset: r6 (rbp) at cfa-16
  DW_CFA_advance_loc: 3 to 000000000097538a
  DW_CFA_def_cfa_register: r6 (rbp)
  DW_CFA_advance_loc2: 256 to 000000000097548a
  DW_CFA_def_cfa: r7 (rsp) ofs 8
  DW_CFA_nop

0000f47c 000000000000001c 0000f480 FDE cie=00000000 pc=000000000097548b..0000000000975571
  DW_CFA_advance_loc: 1 to 000000000097548c
  DW_CFA_def_cfa_offset: 16
  DW_CFA_offset: r6 (rbp) at cfa-16
  DW_CFA_advance_loc: 3 to 000000000097548f
  DW_CFA_def_cfa_register: r6 (rbp)
  DW_CFA_advance_loc1: 225 to 0000000000975570
  DW_CFA_def_cfa: r7 (rsp) ofs 8
  DW_CFA_nop
  DW_CFA_nop

0000f49c 0000000000000020 0000f4a0 FDE cie=00000000 pc=0000000000975571..0000000000975663
  DW_CFA_advance_loc: 1 to 0000000000975572
  DW_CFA_def_cfa_offset: 16
  DW_CFA_offset: r6 (rbp) at cfa-16
  DW_CFA_advance_loc: 3 to 0000000000975575
  DW_CFA_def_cfa_register: r6 (rbp)
  DW_CFA_advance_loc: 5 to 000000000097557a
  DW_CFA_offset: r3 (rbx) at cfa-24
  DW_CFA_advance_loc1: 232 to 0000000000975662
  DW_CFA_def_cfa: r7 (rsp) ofs 8
  DW_CFA_nop
  DW_CFA_nop
  DW_CFA_nop

0000f4c0 0000000000000020 0000f4c4 FDE cie=00000000 pc=0000000000975663..0000000000975a32
  DW_CFA_advance_loc: 1 to 0000000000975664
  DW_CFA_def_cfa_offset: 16
  DW_CFA_offset: r6 (rbp) at cfa-16
  DW_CFA_advance_loc: 3 to 0000000000975667
  DW_CFA_def_cfa_register: r6 (rbp)
  DW_CFA_advance_loc: 5 to 000000000097566c
  DW_CFA_offset: r3 (rbx) at cfa-24
  DW_CFA_advance_loc2: 965 to 0000000000975a31
  DW_CFA_def_cfa: r7 (rsp) ofs 8
  DW_CFA_nop
  DW_CFA_nop

0000f4e4 000000000000001c 0000f4e8 FDE cie=00000000 pc=0000000000975a32..0000000000975b83
  DW_CFA_advance_loc: 1 to 0000000000975a33
  DW_CFA_def_cfa_offset: 16
  DW_CFA_offset: r6 (rbp) at cfa-16
  DW_CFA_advance_loc: 3 to 0000000000975a36
  DW_CFA_def_cfa_register: r6 (rbp)
  DW_CFA_advance_loc2: 332 to 0000000000975b82
  DW_CFA_def_cfa: r7 (rsp) ofs 8
  DW_CFA_nop

0000f504 000000000000001c 0000f508 FDE cie=00000000 pc=0000000000975b83..0000000000975ee5
  DW_CFA_advance_loc: 1 to 0000000000975b84
  DW_CFA_def_cfa_offset: 16
  DW_CFA_offset: r6 (rbp) at cfa-16
  DW_CFA_advance_loc: 3 to 0000000000975b87
  DW_CFA_def_cfa_register: r6 (rbp)
  DW_CFA_advance_loc2: 861 to 0000000000975ee4
  DW_CFA_def_cfa: r7 (rsp) ofs 8
  DW_CFA_nop

0000f524 000000000000001c 0000f528 FDE cie=00000000 pc=0000000000975ee5..0000000000976034
  DW_CFA_advance_loc: 1 to 0000000000975ee6
  DW_CFA_def_cfa_offset: 16
  DW_CFA_offset: r6 (rbp) at cfa-16
  DW_CFA_advance_loc: 3 to 0000000000975ee9
  DW_CFA_def_cfa_register: r6 (rbp)
  DW_CFA_advance_loc2: 330 to 0000000000976033
  DW_CFA_def_cfa: r7 (rsp) ofs 8
  DW_CFA_nop

0000f544 000000000000001c 0000f548 FDE cie=00000000 pc=0000000000976034..00000000009760b5
  DW_CFA_advance_loc: 1 to 0000000000976035
  DW_CFA_def_cfa_offset: 16
  DW_CFA_offset: r6 (rbp) at cfa-16
  DW_CFA_advance_loc: 3 to 0000000000976038
  DW_CFA_def_cfa_register: r6 (rbp)
  DW_CFA_advance_loc1: 124 to 00000000009760b4
  DW_CFA_def_cfa: r7 (rsp) ofs 8
  DW_CFA_nop
  DW_CFA_nop

0000f564 000000000000001c 0000f568 FDE cie=00000000 pc=00000000009760b5..0000000000976138
  DW_CFA_advance_loc: 1 to 00000000009760b6
  DW_CFA_def_cfa_offset: 16
  DW_CFA_offset: r6 (rbp) at cfa-16
  DW_CFA_advance_loc: 3 to 00000000009760b9
  DW_CFA_def_cfa_register: r6 (rbp)
  DW_CFA_advance_loc1: 126 to 0000000000976137
  DW_CFA_def_cfa: r7 (rsp) ofs 8
  DW_CFA_nop
  DW_CFA_nop

0000f584 000000000000001c 0000f588 FDE cie=00000000 pc=0000000000976138..00000000009761c1
  DW_CFA_advance_loc: 1 to 0000000000976139
  DW_CFA_def_cfa_offset: 16
  DW_CFA_offset: r6 (rbp) at cfa-16
  DW_CFA_advance_loc: 3 to 000000000097613c
  DW_CFA_def_cfa_register: r6 (rbp)
  DW_CFA_advance_loc1: 132 to 00000000009761c0
  DW_CFA_def_cfa: r7 (rsp) ofs 8
  DW_CFA_nop
  DW_CFA_nop

0000f5a4 000000000000001c 0000f5a8 FDE cie=00000000 pc=00000000009761c1..000000000097624a
  DW_CFA_advance_loc: 1 to 00000000009761c2
  DW_CFA_def_cfa_offset: 16
  DW_CFA_offset: r6 (rbp) at cfa-16
  DW_CFA_advance_loc: 3 to 00000000009761c5
  DW_CFA_def_cfa_register: r6 (rbp)
  DW_CFA_advance_loc1: 132 to 0000000000976249
  DW_CFA_def_cfa: r7 (rsp) ofs 8
  DW_CFA_nop
  DW_CFA_nop

0000f5c4 000000000000001c 0000f5c8 FDE cie=00000000 pc=000000000097624a..00000000009762d3
  DW_CFA_advance_loc: 1 to 000000000097624b
  DW_CFA_def_cfa_offset: 16
  DW_CFA_offset: r6 (rbp) at cfa-16
  DW_CFA_advance_loc: 3 to 000000000097624e
  DW_CFA_def_cfa_register: r6 (rbp)
  DW_CFA_advance_loc1: 132 to 00000000009762d2
  DW_CFA_def_cfa: r7 (rsp) ofs 8
  DW_CFA_nop
  DW_CFA_nop

0000f5e4 000000000000001c 0000f5e8 FDE cie=00000000 pc=00000000009762d3..000000000097635c
  DW_CFA_advance_loc: 1 to 00000000009762d4
  DW_CFA_def_cfa_offset: 16
  DW_CFA_offset: r6 (rbp) at cfa-16
  DW_CFA_advance_loc: 3 to 00000000009762d7
  DW_CFA_def_cfa_register: r6 (rbp)
  DW_CFA_advance_loc1: 132 to 000000000097635b
  DW_CFA_def_cfa: r7 (rsp) ofs 8
  DW_CFA_nop
  DW_CFA_nop

0000f604 000000000000001c 0000f608 FDE cie=00000000 pc=000000000097635c..000000000097646f
  DW_CFA_advance_loc: 1 to 000000000097635d
  DW_CFA_def_cfa_offset: 16
  DW_CFA_offset: r6 (rbp) at cfa-16
  DW_CFA_advance_loc: 3 to 0000000000976360
  DW_CFA_def_cfa_register: r6 (rbp)
  DW_CFA_advance_loc2: 270 to 000000000097646e
  DW_CFA_def_cfa: r7 (rsp) ofs 8
  DW_CFA_nop

0000f624 000000000000001c 0000f628 FDE cie=00000000 pc=000000000097646f..0000000000976592
  DW_CFA_advance_loc: 1 to 0000000000976470
  DW_CFA_def_cfa_offset: 16
  DW_CFA_offset: r6 (rbp) at cfa-16
  DW_CFA_advance_loc: 3 to 0000000000976473
  DW_CFA_def_cfa_register: r6 (rbp)
  DW_CFA_advance_loc2: 286 to 0000000000976591
  DW_CFA_def_cfa: r7 (rsp) ofs 8
  DW_CFA_nop

0000f644 000000000000001c 0000f648 FDE cie=00000000 pc=0000000000976592..0000000000976614
  DW_CFA_advance_loc: 1 to 0000000000976593
  DW_CFA_def_cfa_offset: 16
  DW_CFA_offset: r6 (rbp) at cfa-16
  DW_CFA_advance_loc: 3 to 0000000000976596
  DW_CFA_def_cfa_register: r6 (rbp)
  DW_CFA_advance_loc1: 125 to 0000000000976613
  DW_CFA_def_cfa: r7 (rsp) ofs 8
  DW_CFA_nop
  DW_CFA_nop

0000f664 000000000000001c 0000f668 FDE cie=00000000 pc=0000000000976614..000000000097666a
  DW_CFA_advance_loc: 1 to 0000000000976615
  DW_CFA_def_cfa_offset: 16
  DW_CFA_offset: r6 (rbp) at cfa-16
  DW_CFA_advance_loc: 3 to 0000000000976618
  DW_CFA_def_cfa_register: r6 (rbp)
  DW_CFA_advance_loc1: 81 to 0000000000976669
  DW_CFA_def_cfa: r7 (rsp) ofs 8
  DW_CFA_nop
  DW_CFA_nop

0000f684 000000000000001c 0000f688 FDE cie=00000000 pc=000000000097666a..00000000009766f0
  DW_CFA_advance_loc: 1 to 000000000097666b
  DW_CFA_def_cfa_offset: 16
  DW_CFA_offset: r6 (rbp) at cfa-16
  DW_CFA_advance_loc: 3 to 000000000097666e
  DW_CFA_def_cfa_register: r6 (rbp)
  DW_CFA_advance_loc1: 129 to 00000000009766ef
  DW_CFA_def_cfa: r7 (rsp) ofs 8
  DW_CFA_nop
  DW_CFA_nop

0000f6a4 000000000000001c 0000f6a8 FDE cie=00000000 pc=00000000009766f0..00000000009769aa
  DW_CFA_advance_loc: 1 to 00000000009766f1
  DW_CFA_def_cfa_offset: 16
  DW_CFA_offset: r6 (rbp) at cfa-16
  DW_CFA_advance_loc: 3 to 00000000009766f4
  DW_CFA_def_cfa_register: r6 (rbp)
  DW_CFA_advance_loc2: 693 to 00000000009769a9
  DW_CFA_def_cfa: r7 (rsp) ofs 8
  DW_CFA_nop

0000f6c4 000000000000001c 0000f6c8 FDE cie=00000000 pc=00000000009769aa..0000000000976a87
  DW_CFA_advance_loc: 1 to 00000000009769ab
  DW_CFA_def_cfa_offset: 16
  DW_CFA_offset: r6 (rbp) at cfa-16
  DW_CFA_advance_loc: 3 to 00000000009769ae
  DW_CFA_def_cfa_register: r6 (rbp)
  DW_CFA_advance_loc1: 216 to 0000000000976a86
  DW_CFA_def_cfa: r7 (rsp) ofs 8
  DW_CFA_nop
  DW_CFA_nop

0000f6e4 000000000000001c 0000f6e8 FDE cie=00000000 pc=0000000000976a87..0000000000976b5b
  DW_CFA_advance_loc: 1 to 0000000000976a88
  DW_CFA_def_cfa_offset: 16
  DW_CFA_offset: r6 (rbp) at cfa-16
  DW_CFA_advance_loc: 3 to 0000000000976a8b
  DW_CFA_def_cfa_register: r6 (rbp)
  DW_CFA_advance_loc1: 207 to 0000000000976b5a
  DW_CFA_def_cfa: r7 (rsp) ofs 8
  DW_CFA_nop
  DW_CFA_nop

0000f704 000000000000001c 0000f708 FDE cie=00000000 pc=0000000000976b5b..0000000000976c3a
  DW_CFA_advance_loc: 1 to 0000000000976b5c
  DW_CFA_def_cfa_offset: 16
  DW_CFA_offset: r6 (rbp) at cfa-16
  DW_CFA_advance_loc: 3 to 0000000000976b5f
  DW_CFA_def_cfa_register: r6 (rbp)
  DW_CFA_advance_loc1: 218 to 0000000000976c39
  DW_CFA_def_cfa: r7 (rsp) ofs 8
  DW_CFA_nop
  DW_CFA_nop

0000f724 000000000000001c 0000f728 FDE cie=00000000 pc=0000000000976c3a..0000000000976d30
  DW_CFA_advance_loc: 1 to 0000000000976c3b
  DW_CFA_def_cfa_offset: 16
  DW_CFA_offset: r6 (rbp) at cfa-16
  DW_CFA_advance_loc: 3 to 0000000000976c3e
  DW_CFA_def_cfa_register: r6 (rbp)
  DW_CFA_advance_loc1: 241 to 0000000000976d2f
  DW_CFA_def_cfa: r7 (rsp) ofs 8
  DW_CFA_nop
  DW_CFA_nop

0000f744 000000000000001c 0000f748 FDE cie=00000000 pc=0000000000976d30..0000000000976e68
  DW_CFA_advance_loc: 1 to 0000000000976d31
  DW_CFA_def_cfa_offset: 16
  DW_CFA_offset: r6 (rbp) at cfa-16
  DW_CFA_advance_loc: 3 to 0000000000976d34
  DW_CFA_def_cfa_register: r6 (rbp)
  DW_CFA_advance_loc2: 307 to 0000000000976e67
  DW_CFA_def_cfa: r7 (rsp) ofs 8
  DW_CFA_nop

0000f764 000000000000001c 0000f768 FDE cie=00000000 pc=0000000000976e68..0000000000976ef0
  DW_CFA_advance_loc: 1 to 0000000000976e69
  DW_CFA_def_cfa_offset: 16
  DW_CFA_offset: r6 (rbp) at cfa-16
  DW_CFA_advance_loc: 3 to 0000000000976e6c
  DW_CFA_def_cfa_register: r6 (rbp)
  DW_CFA_advance_loc1: 131 to 0000000000976eef
  DW_CFA_def_cfa: r7 (rsp) ofs 8
  DW_CFA_nop
  DW_CFA_nop

0000f784 000000000000001c 0000f788 FDE cie=00000000 pc=0000000000976ef0..0000000000976f39
  DW_CFA_advance_loc: 1 to 0000000000976ef1
  DW_CFA_def_cfa_offset: 16
  DW_CFA_offset: r6 (rbp) at cfa-16
  DW_CFA_advance_loc: 3 to 0000000000976ef4
  DW_CFA_def_cfa_register: r6 (rbp)
  DW_CFA_advance_loc1: 68 to 0000000000976f38
  DW_CFA_def_cfa: r7 (rsp) ofs 8
  DW_CFA_nop
  DW_CFA_nop

0000f7a4 000000000000001c 0000f7a8 FDE cie=00000000 pc=0000000000976f39..0000000000976fad
  DW_CFA_advance_loc: 1 to 0000000000976f3a
  DW_CFA_def_cfa_offset: 16
  DW_CFA_offset: r6 (rbp) at cfa-16
  DW_CFA_advance_loc: 3 to 0000000000976f3d
  DW_CFA_def_cfa_register: r6 (rbp)
  DW_CFA_advance_loc1: 111 to 0000000000976fac
  DW_CFA_def_cfa: r7 (rsp) ofs 8
  DW_CFA_nop
  DW_CFA_nop

0000f7c4 000000000000001c 0000f7c8 FDE cie=00000000 pc=0000000000976fad..0000000000977371
  DW_CFA_advance_loc: 1 to 0000000000976fae
  DW_CFA_def_cfa_offset: 16
  DW_CFA_offset: r6 (rbp) at cfa-16
  DW_CFA_advance_loc: 3 to 0000000000976fb1
  DW_CFA_def_cfa_register: r6 (rbp)
  DW_CFA_advance_loc2: 959 to 0000000000977370
  DW_CFA_def_cfa: r7 (rsp) ofs 8
  DW_CFA_nop

0000f7e4 000000000000001c 0000f7e8 FDE cie=00000000 pc=0000000000977371..000000000097749c
  DW_CFA_advance_loc: 1 to 0000000000977372
  DW_CFA_def_cfa_offset: 16
  DW_CFA_offset: r6 (rbp) at cfa-16
  DW_CFA_advance_loc: 3 to 0000000000977375
  DW_CFA_def_cfa_register: r6 (rbp)
  DW_CFA_advance_loc2: 294 to 000000000097749b
  DW_CFA_def_cfa: r7 (rsp) ofs 8
  DW_CFA_nop

0000f804 000000000000001c 0000f808 FDE cie=00000000 pc=000000000097749c..00000000009775d0
  DW_CFA_advance_loc: 1 to 000000000097749d
  DW_CFA_def_cfa_offset: 16
  DW_CFA_offset: r6 (rbp) at cfa-16
  DW_CFA_advance_loc: 3 to 00000000009774a0
  DW_CFA_def_cfa_register: r6 (rbp)
  DW_CFA_advance_loc2: 303 to 00000000009775cf
  DW_CFA_def_cfa: r7 (rsp) ofs 8
  DW_CFA_nop

0000f824 000000000000001c 0000f828 FDE cie=00000000 pc=00000000009775d0..0000000000977622
  DW_CFA_advance_loc: 1 to 00000000009775d1
  DW_CFA_def_cfa_offset: 16
  DW_CFA_offset: r6 (rbp) at cfa-16
  DW_CFA_advance_loc: 3 to 00000000009775d4
  DW_CFA_def_cfa_register: r6 (rbp)
  DW_CFA_advance_loc1: 77 to 0000000000977621
  DW_CFA_def_cfa: r7 (rsp) ofs 8
  DW_CFA_nop
  DW_CFA_nop

0000f844 000000000000001c 0000f848 FDE cie=00000000 pc=0000000000977622..00000000009776cb
  DW_CFA_advance_loc: 1 to 0000000000977623
  DW_CFA_def_cfa_offset: 16
  DW_CFA_offset: r6 (rbp) at cfa-16
  DW_CFA_advance_loc: 3 to 0000000000977626
  DW_CFA_def_cfa_register: r6 (rbp)
  DW_CFA_advance_loc1: 164 to 00000000009776ca
  DW_CFA_def_cfa: r7 (rsp) ofs 8
  DW_CFA_nop
  DW_CFA_nop

0000f864 0000000000000020 0000f868 FDE cie=00000000 pc=00000000009776cb..0000000000977d4f
  DW_CFA_advance_loc: 1 to 00000000009776cc
  DW_CFA_def_cfa_offset: 16
  DW_CFA_offset: r6 (rbp) at cfa-16
  DW_CFA_advance_loc: 3 to 00000000009776cf
  DW_CFA_def_cfa_register: r6 (rbp)
  DW_CFA_advance_loc: 8 to 00000000009776d7
  DW_CFA_offset: r3 (rbx) at cfa-24
  DW_CFA_advance_loc2: 1655 to 0000000000977d4e
  DW_CFA_def_cfa: r7 (rsp) ofs 8
  DW_CFA_nop
  DW_CFA_nop

0000f888 000000000000001c 0000f88c FDE cie=00000000 pc=0000000000977d4f..000000000097807f
  DW_CFA_advance_loc: 1 to 0000000000977d50
  DW_CFA_def_cfa_offset: 16
  DW_CFA_offset: r6 (rbp) at cfa-16
  DW_CFA_advance_loc: 3 to 0000000000977d53
  DW_CFA_def_cfa_register: r6 (rbp)
  DW_CFA_advance_loc2: 811 to 000000000097807e
  DW_CFA_def_cfa: r7 (rsp) ofs 8
  DW_CFA_nop

0000f8a8 000000000000001c 0000f8ac FDE cie=00000000 pc=000000000097807f..0000000000978407
  DW_CFA_advance_loc: 1 to 0000000000978080
  DW_CFA_def_cfa_offset: 16
  DW_CFA_offset: r6 (rbp) at cfa-16
  DW_CFA_advance_loc: 3 to 0000000000978083
  DW_CFA_def_cfa_register: r6 (rbp)
  DW_CFA_advance_loc2: 899 to 0000000000978406
  DW_CFA_def_cfa: r7 (rsp) ofs 8
  DW_CFA_nop

0000f8c8 000000000000001c 0000f8cc FDE cie=00000000 pc=0000000000978407..0000000000978867
  DW_CFA_advance_loc: 1 to 0000000000978408
  DW_CFA_def_cfa_offset: 16
  DW_CFA_offset: r6 (rbp) at cfa-16
  DW_CFA_advance_loc: 3 to 000000000097840b
  DW_CFA_def_cfa_register: r6 (rbp)
  DW_CFA_advance_loc2: 1115 to 0000000000978866
  DW_CFA_def_cfa: r7 (rsp) ofs 8
  DW_CFA_nop

0000f8e8 000000000000001c 0000f8ec FDE cie=00000000 pc=0000000000978867..0000000000978ae8
  DW_CFA_advance_loc: 1 to 0000000000978868
  DW_CFA_def_cfa_offset: 16
  DW_CFA_offset: r6 (rbp) at cfa-16
  DW_CFA_advance_loc: 3 to 000000000097886b
  DW_CFA_def_cfa_register: r6 (rbp)
  DW_CFA_advance_loc2: 636 to 0000000000978ae7
  DW_CFA_def_cfa: r7 (rsp) ofs 8
  DW_CFA_nop

0000f908 000000000000001c 0000f90c FDE cie=00000000 pc=0000000000978ae8..0000000000978f85
  DW_CFA_advance_loc: 1 to 0000000000978ae9
  DW_CFA_def_cfa_offset: 16
  DW_CFA_offset: r6 (rbp) at cfa-16
  DW_CFA_advance_loc: 3 to 0000000000978aec
  DW_CFA_def_cfa_register: r6 (rbp)
  DW_CFA_advance_loc2: 1176 to 0000000000978f84
  DW_CFA_def_cfa: r7 (rsp) ofs 8
  DW_CFA_nop

0000f928 000000000000001c 0000f92c FDE cie=00000000 pc=0000000000978f85..00000000009795cb
  DW_CFA_advance_loc: 1 to 0000000000978f86
  DW_CFA_def_cfa_offset: 16
  DW_CFA_offset: r6 (rbp) at cfa-16
  DW_CFA_advance_loc: 3 to 0000000000978f89
  DW_CFA_def_cfa_register: r6 (rbp)
  DW_CFA_advance_loc2: 1601 to 00000000009795ca
  DW_CFA_def_cfa: r7 (rsp) ofs 8
  DW_CFA_nop

0000f948 000000000000001c 0000f94c FDE cie=00000000 pc=00000000009795cb..0000000000979618
  DW_CFA_advance_loc: 1 to 00000000009795cc
  DW_CFA_def_cfa_offset: 16
  DW_CFA_offset: r6 (rbp) at cfa-16
  DW_CFA_advance_loc: 3 to 00000000009795cf
  DW_CFA_def_cfa_register: r6 (rbp)
  DW_CFA_advance_loc1: 72 to 0000000000979617
  DW_CFA_def_cfa: r7 (rsp) ofs 8
  DW_CFA_nop
  DW_CFA_nop

0000f968 000000000000001c 0000f96c FDE cie=00000000 pc=0000000000979618..0000000000979642
  DW_CFA_advance_loc: 1 to 0000000000979619
  DW_CFA_def_cfa_offset: 16
  DW_CFA_offset: r6 (rbp) at cfa-16
  DW_CFA_advance_loc: 3 to 000000000097961c
  DW_CFA_def_cfa_register: r6 (rbp)
  DW_CFA_advance_loc: 37 to 0000000000979641
  DW_CFA_def_cfa: r7 (rsp) ofs 8
  DW_CFA_nop
  DW_CFA_nop
  DW_CFA_nop

0000f988 000000000000001c 0000f98c FDE cie=00000000 pc=0000000000979642..00000000009796f0
  DW_CFA_advance_loc: 1 to 0000000000979643
  DW_CFA_def_cfa_offset: 16
  DW_CFA_offset: r6 (rbp) at cfa-16
  DW_CFA_advance_loc: 3 to 0000000000979646
  DW_CFA_def_cfa_register: r6 (rbp)
  DW_CFA_advance_loc1: 169 to 00000000009796ef
  DW_CFA_def_cfa: r7 (rsp) ofs 8
  DW_CFA_nop
  DW_CFA_nop

0000f9a8 000000000000001c 0000f9ac FDE cie=00000000 pc=00000000009796f0..0000000000979820
  DW_CFA_advance_loc: 1 to 00000000009796f1
  DW_CFA_def_cfa_offset: 16
  DW_CFA_offset: r6 (rbp) at cfa-16
  DW_CFA_advance_loc: 3 to 00000000009796f4
  DW_CFA_def_cfa_register: r6 (rbp)
  DW_CFA_advance_loc2: 299 to 000000000097981f
  DW_CFA_def_cfa: r7 (rsp) ofs 8
  DW_CFA_nop

0000f9c8 000000000000001c 0000f9cc FDE cie=00000000 pc=0000000000979820..0000000000979aa8
  DW_CFA_advance_loc: 1 to 0000000000979821
  DW_CFA_def_cfa_offset: 16
  DW_CFA_offset: r6 (rbp) at cfa-16
  DW_CFA_advance_loc: 3 to 0000000000979824
  DW_CFA_def_cfa_register: r6 (rbp)
  DW_CFA_advance_loc2: 643 to 0000000000979aa7
  DW_CFA_def_cfa: r7 (rsp) ofs 8
  DW_CFA_nop

0000f9e8 000000000000001c 0000f9ec FDE cie=00000000 pc=0000000000979aa8..0000000000979d59
  DW_CFA_advance_loc: 1 to 0000000000979aa9
  DW_CFA_def_cfa_offset: 16
  DW_CFA_offset: r6 (rbp) at cfa-16
  DW_CFA_advance_loc: 3 to 0000000000979aac
  DW_CFA_def_cfa_register: r6 (rbp)
  DW_CFA_advance_loc2: 684 to 0000000000979d58
  DW_CFA_def_cfa: r7 (rsp) ofs 8
  DW_CFA_nop

0000fa08 000000000000001c 0000fa0c FDE cie=00000000 pc=0000000000979d59..0000000000979ddf
  DW_CFA_advance_loc: 1 to 0000000000979d5a
  DW_CFA_def_cfa_offset: 16
  DW_CFA_offset: r6 (rbp) at cfa-16
  DW_CFA_advance_loc: 3 to 0000000000979d5d
  DW_CFA_def_cfa_register: r6 (rbp)
  DW_CFA_advance_loc1: 129 to 0000000000979dde
  DW_CFA_def_cfa: r7 (rsp) ofs 8
  DW_CFA_nop
  DW_CFA_nop

0000fa28 000000000000001c 0000fa2c FDE cie=00000000 pc=0000000000979ddf..0000000000979ef7
  DW_CFA_advance_loc: 1 to 0000000000979de0
  DW_CFA_def_cfa_offset: 16
  DW_CFA_offset: r6 (rbp) at cfa-16
  DW_CFA_advance_loc: 3 to 0000000000979de3
  DW_CFA_def_cfa_register: r6 (rbp)
  DW_CFA_advance_loc2: 275 to 0000000000979ef6
  DW_CFA_def_cfa: r7 (rsp) ofs 8
  DW_CFA_nop

0000fa48 000000000000001c 0000fa4c FDE cie=00000000 pc=0000000000979ef7..000000000097a2c0
  DW_CFA_advance_loc: 1 to 0000000000979ef8
  DW_CFA_def_cfa_offset: 16
  DW_CFA_offset: r6 (rbp) at cfa-16
  DW_CFA_advance_loc: 3 to 0000000000979efb
  DW_CFA_def_cfa_register: r6 (rbp)
  DW_CFA_advance_loc2: 964 to 000000000097a2bf
  DW_CFA_def_cfa: r7 (rsp) ofs 8
  DW_CFA_nop

0000fa68 000000000000001c 0000fa6c FDE cie=00000000 pc=000000000097a2c0..000000000097a353
  DW_CFA_advance_loc: 1 to 000000000097a2c1
  DW_CFA_def_cfa_offset: 16
  DW_CFA_offset: r6 (rbp) at cfa-16
  DW_CFA_advance_loc: 3 to 000000000097a2c4
  DW_CFA_def_cfa_register: r6 (rbp)
  DW_CFA_advance_loc1: 142 to 000000000097a352
  DW_CFA_def_cfa: r7 (rsp) ofs 8
  DW_CFA_nop
  DW_CFA_nop

0000fa88 000000000000001c 0000fa8c FDE cie=00000000 pc=000000000097a353..000000000097a38e
  DW_CFA_advance_loc: 1 to 000000000097a354
  DW_CFA_def_cfa_offset: 16
  DW_CFA_offset: r6 (rbp) at cfa-16
  DW_CFA_advance_loc: 3 to 000000000097a357
  DW_CFA_def_cfa_register: r6 (rbp)
  DW_CFA_advance_loc: 54 to 000000000097a38d
  DW_CFA_def_cfa: r7 (rsp) ofs 8
  DW_CFA_nop
  DW_CFA_nop
  DW_CFA_nop

0000faa8 000000000000001c 0000faac FDE cie=00000000 pc=000000000097a38e..000000000097a3b6
  DW_CFA_advance_loc: 1 to 000000000097a38f
  DW_CFA_def_cfa_offset: 16
  DW_CFA_offset: r6 (rbp) at cfa-16
  DW_CFA_advance_loc: 3 to 000000000097a392
  DW_CFA_def_cfa_register: r6 (rbp)
  DW_CFA_advance_loc: 35 to 000000000097a3b5
  DW_CFA_def_cfa: r7 (rsp) ofs 8
  DW_CFA_nop
  DW_CFA_nop
  DW_CFA_nop

0000fac8 000000000000001c 0000facc FDE cie=00000000 pc=000000000097a3b6..000000000097a3e2
  DW_CFA_advance_loc: 1 to 000000000097a3b7
  DW_CFA_def_cfa_offset: 16
  DW_CFA_offset: r6 (rbp) at cfa-16
  DW_CFA_advance_loc: 3 to 000000000097a3ba
  DW_CFA_def_cfa_register: r6 (rbp)
  DW_CFA_advance_loc: 39 to 000000000097a3e1
  DW_CFA_def_cfa: r7 (rsp) ofs 8
  DW_CFA_nop
  DW_CFA_nop
  DW_CFA_nop

0000fae8 000000000000001c 0000faec FDE cie=00000000 pc=000000000097a3e2..000000000097a524
  DW_CFA_advance_loc: 1 to 000000000097a3e3
  DW_CFA_def_cfa_offset: 16
  DW_CFA_offset: r6 (rbp) at cfa-16
  DW_CFA_advance_loc: 3 to 000000000097a3e6
  DW_CFA_def_cfa_register: r6 (rbp)
  DW_CFA_advance_loc2: 317 to 000000000097a523
  DW_CFA_def_cfa: r7 (rsp) ofs 8
  DW_CFA_nop

0000fb08 000000000000001c 0000fb0c FDE cie=00000000 pc=000000000097a524..000000000097a5a0
  DW_CFA_advance_loc: 1 to 000000000097a525
  DW_CFA_def_cfa_offset: 16
  DW_CFA_offset: r6 (rbp) at cfa-16
  DW_CFA_advance_loc: 3 to 000000000097a528
  DW_CFA_def_cfa_register: r6 (rbp)
  DW_CFA_advance_loc1: 119 to 000000000097a59f
  DW_CFA_def_cfa: r7 (rsp) ofs 8
  DW_CFA_nop
  DW_CFA_nop

0000fb28 000000000000001c 0000fb2c FDE cie=00000000 pc=000000000097a5a0..000000000097a5e9
  DW_CFA_advance_loc: 1 to 000000000097a5a1
  DW_CFA_def_cfa_offset: 16
  DW_CFA_offset: r6 (rbp) at cfa-16
  DW_CFA_advance_loc: 3 to 000000000097a5a4
  DW_CFA_def_cfa_register: r6 (rbp)
  DW_CFA_advance_loc1: 68 to 000000000097a5e8
  DW_CFA_def_cfa: r7 (rsp) ofs 8
  DW_CFA_nop
  DW_CFA_nop

0000fb48 000000000000001c 0000fb4c FDE cie=00000000 pc=000000000097a5e9..000000000097a689
  DW_CFA_advance_loc: 1 to 000000000097a5ea
  DW_CFA_def_cfa_offset: 16
  DW_CFA_offset: r6 (rbp) at cfa-16
  DW_CFA_advance_loc: 3 to 000000000097a5ed
  DW_CFA_def_cfa_register: r6 (rbp)
  DW_CFA_advance_loc1: 155 to 000000000097a688
  DW_CFA_def_cfa: r7 (rsp) ofs 8
  DW_CFA_nop
  DW_CFA_nop

0000fb68 000000000000001c 0000fb6c FDE cie=00000000 pc=000000000097a689..000000000097ac42
  DW_CFA_advance_loc: 1 to 000000000097a68a
  DW_CFA_def_cfa_offset: 16
  DW_CFA_offset: r6 (rbp) at cfa-16
  DW_CFA_advance_loc: 3 to 000000000097a68d
  DW_CFA_def_cfa_register: r6 (rbp)
  DW_CFA_advance_loc2: 1460 to 000000000097ac41
  DW_CFA_def_cfa: r7 (rsp) ofs 8
  DW_CFA_nop

0000fb88 000000000000001c 0000fb8c FDE cie=00000000 pc=000000000097ac42..000000000097b083
  DW_CFA_advance_loc: 1 to 000000000097ac43
  DW_CFA_def_cfa_offset: 16
  DW_CFA_offset: r6 (rbp) at cfa-16
  DW_CFA_advance_loc: 3 to 000000000097ac46
  DW_CFA_def_cfa_register: r6 (rbp)
  DW_CFA_advance_loc2: 1084 to 000000000097b082
  DW_CFA_def_cfa: r7 (rsp) ofs 8
  DW_CFA_nop

0000fba8 000000000000001c 0000fbac FDE cie=00000000 pc=000000000097b083..000000000097b162
  DW_CFA_advance_loc: 1 to 000000000097b084
  DW_CFA_def_cfa_offset: 16
  DW_CFA_offset: r6 (rbp) at cfa-16
  DW_CFA_advance_loc: 3 to 000000000097b087
  DW_CFA_def_cfa_register: r6 (rbp)
  DW_CFA_advance_loc1: 218 to 000000000097b161
  DW_CFA_def_cfa: r7 (rsp) ofs 8
  DW_CFA_nop
  DW_CFA_nop

0000fbc8 000000000000001c 0000fbcc FDE cie=00000000 pc=000000000097b162..000000000097b2f1
  DW_CFA_advance_loc: 1 to 000000000097b163
  DW_CFA_def_cfa_offset: 16
  DW_CFA_offset: r6 (rbp) at cfa-16
  DW_CFA_advance_loc: 3 to 000000000097b166
  DW_CFA_def_cfa_register: r6 (rbp)
  DW_CFA_advance_loc2: 394 to 000000000097b2f0
  DW_CFA_def_cfa: r7 (rsp) ofs 8
  DW_CFA_nop

0000fbe8 000000000000001c 0000fbec FDE cie=00000000 pc=000000000097b2f1..000000000097b72a
  DW_CFA_advance_loc: 1 to 000000000097b2f2
  DW_CFA_def_cfa_offset: 16
  DW_CFA_offset: r6 (rbp) at cfa-16
  DW_CFA_advance_loc: 3 to 000000000097b2f5
  DW_CFA_def_cfa_register: r6 (rbp)
  DW_CFA_advance_loc2: 1076 to 000000000097b729
  DW_CFA_def_cfa: r7 (rsp) ofs 8
  DW_CFA_nop

0000fc08 000000000000001c 0000fc0c FDE cie=00000000 pc=000000000097b72a..000000000097b85c
  DW_CFA_advance_loc: 1 to 000000000097b72b
  DW_CFA_def_cfa_offset: 16
  DW_CFA_offset: r6 (rbp) at cfa-16
  DW_CFA_advance_loc: 3 to 000000000097b72e
  DW_CFA_def_cfa_register: r6 (rbp)
  DW_CFA_advance_loc2: 301 to 000000000097b85b
  DW_CFA_def_cfa: r7 (rsp) ofs 8
  DW_CFA_nop

0000fc28 000000000000001c 0000fc2c FDE cie=00000000 pc=000000000097b85c..000000000097ba57
  DW_CFA_advance_loc: 1 to 000000000097b85d
  DW_CFA_def_cfa_offset: 16
  DW_CFA_offset: r6 (rbp) at cfa-16
  DW_CFA_advance_loc: 3 to 000000000097b860
  DW_CFA_def_cfa_register: r6 (rbp)
  DW_CFA_advance_loc2: 502 to 000000000097ba56
  DW_CFA_def_cfa: r7 (rsp) ofs 8
  DW_CFA_nop

0000fc48 000000000000001c 0000fc4c FDE cie=00000000 pc=000000000097ba57..000000000097c5cb
  DW_CFA_advance_loc: 1 to 000000000097ba58
  DW_CFA_def_cfa_offset: 16
  DW_CFA_offset: r6 (rbp) at cfa-16
  DW_CFA_advance_loc: 3 to 000000000097ba5b
  DW_CFA_def_cfa_register: r6 (rbp)
  DW_CFA_advance_loc2: 2927 to 000000000097c5ca
  DW_CFA_def_cfa: r7 (rsp) ofs 8
  DW_CFA_nop

0000fc68 000000000000001c 0000fc6c FDE cie=00000000 pc=000000000097c5cb..000000000097c614
  DW_CFA_advance_loc: 1 to 000000000097c5cc
  DW_CFA_def_cfa_offset: 16
  DW_CFA_offset: r6 (rbp) at cfa-16
  DW_CFA_advance_loc: 3 to 000000000097c5cf
  DW_CFA_def_cfa_register: r6 (rbp)
  DW_CFA_advance_loc1: 68 to 000000000097c613
  DW_CFA_def_cfa: r7 (rsp) ofs 8
  DW_CFA_nop
  DW_CFA_nop

0000fc88 000000000000001c 0000fc8c FDE cie=00000000 pc=000000000097c614..000000000097c6b9
  DW_CFA_advance_loc: 1 to 000000000097c615
  DW_CFA_def_cfa_offset: 16
  DW_CFA_offset: r6 (rbp) at cfa-16
  DW_CFA_advance_loc: 3 to 000000000097c618
  DW_CFA_def_cfa_register: r6 (rbp)
  DW_CFA_advance_loc1: 160 to 000000000097c6b8
  DW_CFA_def_cfa: r7 (rsp) ofs 8
  DW_CFA_nop
  DW_CFA_nop

0000fca8 000000000000001c 0000fcac FDE cie=00000000 pc=000000000097c6b9..000000000097c7ec
  DW_CFA_advance_loc: 1 to 000000000097c6ba
  DW_CFA_def_cfa_offset: 16
  DW_CFA_offset: r6 (rbp) at cfa-16
  DW_CFA_advance_loc: 3 to 000000000097c6bd
  DW_CFA_def_cfa_register: r6 (rbp)
  DW_CFA_advance_loc2: 302 to 000000000097c7eb
  DW_CFA_def_cfa: r7 (rsp) ofs 8
  DW_CFA_nop

0000fcc8 000000000000001c 0000fccc FDE cie=00000000 pc=000000000097c7ec..000000000097c7ff
  DW_CFA_advance_loc: 1 to 000000000097c7ed
  DW_CFA_def_cfa_offset: 16
  DW_CFA_offset: r6 (rbp) at cfa-16
  DW_CFA_advance_loc: 3 to 000000000097c7f0
  DW_CFA_def_cfa_register: r6 (rbp)
  DW_CFA_advance_loc: 14 to 000000000097c7fe
  DW_CFA_def_cfa: r7 (rsp) ofs 8
  DW_CFA_nop
  DW_CFA_nop
  DW_CFA_nop

0000fce8 000000000000001c 0000fcec FDE cie=00000000 pc=000000000097c7ff..000000000097c8ee
  DW_CFA_advance_loc: 1 to 000000000097c800
  DW_CFA_def_cfa_offset: 16
  DW_CFA_offset: r6 (rbp) at cfa-16
  DW_CFA_advance_loc: 3 to 000000000097c803
  DW_CFA_def_cfa_register: r6 (rbp)
  DW_CFA_advance_loc1: 234 to 000000000097c8ed
  DW_CFA_def_cfa: r7 (rsp) ofs 8
  DW_CFA_nop
  DW_CFA_nop

0000fd08 000000000000001c 0000fd0c FDE cie=00000000 pc=000000000097c8ee..000000000097ca48
  DW_CFA_advance_loc: 1 to 000000000097c8ef
  DW_CFA_def_cfa_offset: 16
  DW_CFA_offset: r6 (rbp) at cfa-16
  DW_CFA_advance_loc: 3 to 000000000097c8f2
  DW_CFA_def_cfa_register: r6 (rbp)
  DW_CFA_advance_loc2: 341 to 000000000097ca47
  DW_CFA_def_cfa: r7 (rsp) ofs 8
  DW_CFA_nop

0000fd28 000000000000001c 0000fd2c FDE cie=00000000 pc=000000000097ca48..000000000097cb0d
  DW_CFA_advance_loc: 1 to 000000000097ca49
  DW_CFA_def_cfa_offset: 16
  DW_CFA_offset: r6 (rbp) at cfa-16
  DW_CFA_advance_loc: 3 to 000000000097ca4c
  DW_CFA_def_cfa_register: r6 (rbp)
  DW_CFA_advance_loc1: 192 to 000000000097cb0c
  DW_CFA_def_cfa: r7 (rsp) ofs 8
  DW_CFA_nop
  DW_CFA_nop

0000fd48 000000000000001c 0000fd4c FDE cie=00000000 pc=000000000097cb0d..000000000097cb38
  DW_CFA_advance_loc: 1 to 000000000097cb0e
  DW_CFA_def_cfa_offset: 16
  DW_CFA_offset: r6 (rbp) at cfa-16
  DW_CFA_advance_loc: 3 to 000000000097cb11
  DW_CFA_def_cfa_register: r6 (rbp)
  DW_CFA_advance_loc: 38 to 000000000097cb37
  DW_CFA_def_cfa: r7 (rsp) ofs 8
  DW_CFA_nop
  DW_CFA_nop
  DW_CFA_nop

0000fd68 000000000000001c 0000fd6c FDE cie=00000000 pc=000000000097cb38..000000000097d4ed
  DW_CFA_advance_loc: 1 to 000000000097cb39
  DW_CFA_def_cfa_offset: 16
  DW_CFA_offset: r6 (rbp) at cfa-16
  DW_CFA_advance_loc: 3 to 000000000097cb3c
  DW_CFA_def_cfa_register: r6 (rbp)
  DW_CFA_advance_loc2: 2480 to 000000000097d4ec
  DW_CFA_def_cfa: r7 (rsp) ofs 8
  DW_CFA_nop

0000fd88 000000000000001c 0000fd8c FDE cie=00000000 pc=000000000097d4ed..000000000097da51
  DW_CFA_advance_loc: 1 to 000000000097d4ee
  DW_CFA_def_cfa_offset: 16
  DW_CFA_offset: r6 (rbp) at cfa-16
  DW_CFA_advance_loc: 3 to 000000000097d4f1
  DW_CFA_def_cfa_register: r6 (rbp)
  DW_CFA_advance_loc2: 1375 to 000000000097da50
  DW_CFA_def_cfa: r7 (rsp) ofs 8
  DW_CFA_nop

0000fda8 000000000000001c 0000fdac FDE cie=00000000 pc=000000000097da51..000000000097dd6a
  DW_CFA_advance_loc: 1 to 000000000097da52
  DW_CFA_def_cfa_offset: 16
  DW_CFA_offset: r6 (rbp) at cfa-16
  DW_CFA_advance_loc: 3 to 000000000097da55
  DW_CFA_def_cfa_register: r6 (rbp)
  DW_CFA_advance_loc2: 788 to 000000000097dd69
  DW_CFA_def_cfa: r7 (rsp) ofs 8
  DW_CFA_nop

0000fdc8 000000000000001c 0000fdcc FDE cie=00000000 pc=000000000097dd6a..000000000097ddc2
  DW_CFA_advance_loc: 1 to 000000000097dd6b
  DW_CFA_def_cfa_offset: 16
  DW_CFA_offset: r6 (rbp) at cfa-16
  DW_CFA_advance_loc: 3 to 000000000097dd6e
  DW_CFA_def_cfa_register: r6 (rbp)
  DW_CFA_advance_loc1: 83 to 000000000097ddc1
  DW_CFA_def_cfa: r7 (rsp) ofs 8
  DW_CFA_nop
  DW_CFA_nop

0000fde8 000000000000001c 0000fdec FDE cie=00000000 pc=000000000097ddc2..000000000097de59
  DW_CFA_advance_loc: 1 to 000000000097ddc3
  DW_CFA_def_cfa_offset: 16
  DW_CFA_offset: r6 (rbp) at cfa-16
  DW_CFA_advance_loc: 3 to 000000000097ddc6
  DW_CFA_def_cfa_register: r6 (rbp)
  DW_CFA_advance_loc1: 146 to 000000000097de58
  DW_CFA_def_cfa: r7 (rsp) ofs 8
  DW_CFA_nop
  DW_CFA_nop

0000fe08 000000000000001c 0000fe0c FDE cie=00000000 pc=000000000097de59..000000000097de7b
  DW_CFA_advance_loc: 1 to 000000000097de5a
  DW_CFA_def_cfa_offset: 16
  DW_CFA_offset: r6 (rbp) at cfa-16
  DW_CFA_advance_loc: 3 to 000000000097de5d
  DW_CFA_def_cfa_register: r6 (rbp)
  DW_CFA_advance_loc: 29 to 000000000097de7a
  DW_CFA_def_cfa: r7 (rsp) ofs 8
  DW_CFA_nop
  DW_CFA_nop
  DW_CFA_nop

0000fe28 000000000000001c 0000fe2c FDE cie=00000000 pc=000000000097de7b..000000000097deff
  DW_CFA_advance_loc: 1 to 000000000097de7c
  DW_CFA_def_cfa_offset: 16
  DW_CFA_offset: r6 (rbp) at cfa-16
  DW_CFA_advance_loc: 3 to 000000000097de7f
  DW_CFA_def_cfa_register: r6 (rbp)
  DW_CFA_advance_loc1: 127 to 000000000097defe
  DW_CFA_def_cfa: r7 (rsp) ofs 8
  DW_CFA_nop
  DW_CFA_nop

0000fe48 000000000000001c 0000fe4c FDE cie=00000000 pc=000000000097deff..000000000097dff3
  DW_CFA_advance_loc: 1 to 000000000097df00
  DW_CFA_def_cfa_offset: 16
  DW_CFA_offset: r6 (rbp) at cfa-16
  DW_CFA_advance_loc: 3 to 000000000097df03
  DW_CFA_def_cfa_register: r6 (rbp)
  DW_CFA_advance_loc1: 239 to 000000000097dff2
  DW_CFA_def_cfa: r7 (rsp) ofs 8
  DW_CFA_nop
  DW_CFA_nop

0000fe68 000000000000001c 0000fe6c FDE cie=00000000 pc=000000000097dff3..000000000097e082
  DW_CFA_advance_loc: 1 to 000000000097dff4
  DW_CFA_def_cfa_offset: 16
  DW_CFA_offset: r6 (rbp) at cfa-16
  DW_CFA_advance_loc: 3 to 000000000097dff7
  DW_CFA_def_cfa_register: r6 (rbp)
  DW_CFA_advance_loc1: 138 to 000000000097e081
  DW_CFA_def_cfa: r7 (rsp) ofs 8
  DW_CFA_nop
  DW_CFA_nop

0000fe88 000000000000001c 0000fe8c FDE cie=00000000 pc=000000000097e082..000000000097e757
  DW_CFA_advance_loc: 1 to 000000000097e083
  DW_CFA_def_cfa_offset: 16
  DW_CFA_offset: r6 (rbp) at cfa-16
  DW_CFA_advance_loc: 3 to 000000000097e086
  DW_CFA_def_cfa_register: r6 (rbp)
  DW_CFA_advance_loc2: 1744 to 000000000097e756
  DW_CFA_def_cfa: r7 (rsp) ofs 8
  DW_CFA_nop

0000fea8 000000000000001c 0000feac FDE cie=00000000 pc=000000000097e757..000000000097e79e
  DW_CFA_advance_loc: 1 to 000000000097e758
  DW_CFA_def_cfa_offset: 16
  DW_CFA_offset: r6 (rbp) at cfa-16
  DW_CFA_advance_loc: 3 to 000000000097e75b
  DW_CFA_def_cfa_register: r6 (rbp)
  DW_CFA_advance_loc1: 66 to 000000000097e79d
  DW_CFA_def_cfa: r7 (rsp) ofs 8
  DW_CFA_nop
  DW_CFA_nop

0000fec8 000000000000001c 0000fecc FDE cie=00000000 pc=000000000097e79e..000000000097e7c7
  DW_CFA_advance_loc: 1 to 000000000097e79f
  DW_CFA_def_cfa_offset: 16
  DW_CFA_offset: r6 (rbp) at cfa-16
  DW_CFA_advance_loc: 3 to 000000000097e7a2
  DW_CFA_def_cfa_register: r6 (rbp)
  DW_CFA_advance_loc: 36 to 000000000097e7c6
  DW_CFA_def_cfa: r7 (rsp) ofs 8
  DW_CFA_nop
  DW_CFA_nop
  DW_CFA_nop

0000fee8 0000000000000020 0000feec FDE cie=00000000 pc=000000000097e7c7..000000000097ec7d
  DW_CFA_advance_loc: 1 to 000000000097e7c8
  DW_CFA_def_cfa_offset: 16
  DW_CFA_offset: r6 (rbp) at cfa-16
  DW_CFA_advance_loc: 3 to 000000000097e7cb
  DW_CFA_def_cfa_register: r6 (rbp)
  DW_CFA_advance_loc: 8 to 000000000097e7d3
  DW_CFA_offset: r3 (rbx) at cfa-24
  DW_CFA_advance_loc2: 1193 to 000000000097ec7c
  DW_CFA_def_cfa: r7 (rsp) ofs 8
  DW_CFA_nop
  DW_CFA_nop

0000ff0c 000000000000001c 0000ff10 FDE cie=00000000 pc=000000000097ec7d..000000000097f117
  DW_CFA_advance_loc: 1 to 000000000097ec7e
  DW_CFA_def_cfa_offset: 16
  DW_CFA_offset: r6 (rbp) at cfa-16
  DW_CFA_advance_loc: 3 to 000000000097ec81
  DW_CFA_def_cfa_register: r6 (rbp)
  DW_CFA_advance_loc2: 1173 to 000000000097f116
  DW_CFA_def_cfa: r7 (rsp) ofs 8
  DW_CFA_nop

0000ff2c 000000000000001c 0000ff30 FDE cie=00000000 pc=000000000097f117..000000000097f1e2
  DW_CFA_advance_loc: 1 to 000000000097f118
  DW_CFA_def_cfa_offset: 16
  DW_CFA_offset: r6 (rbp) at cfa-16
  DW_CFA_advance_loc: 3 to 000000000097f11b
  DW_CFA_def_cfa_register: r6 (rbp)
  DW_CFA_advance_loc1: 198 to 000000000097f1e1
  DW_CFA_def_cfa: r7 (rsp) ofs 8
  DW_CFA_nop
  DW_CFA_nop

0000ff4c 000000000000001c 0000ff50 FDE cie=00000000 pc=000000000097f1e2..000000000097f26d
  DW_CFA_advance_loc: 1 to 000000000097f1e3
  DW_CFA_def_cfa_offset: 16
  DW_CFA_offset: r6 (rbp) at cfa-16
  DW_CFA_advance_loc: 3 to 000000000097f1e6
  DW_CFA_def_cfa_register: r6 (rbp)
  DW_CFA_advance_loc1: 134 to 000000000097f26c
  DW_CFA_def_cfa: r7 (rsp) ofs 8
  DW_CFA_nop
  DW_CFA_nop

0000ff6c 000000000000001c 0000ff70 FDE cie=00000000 pc=000000000097f26d..000000000097f368
  DW_CFA_advance_loc: 1 to 000000000097f26e
  DW_CFA_def_cfa_offset: 16
  DW_CFA_offset: r6 (rbp) at cfa-16
  DW_CFA_advance_loc: 3 to 000000000097f271
  DW_CFA_def_cfa_register: r6 (rbp)
  DW_CFA_advance_loc1: 246 to 000000000097f367
  DW_CFA_def_cfa: r7 (rsp) ofs 8
  DW_CFA_nop
  DW_CFA_nop

0000ff8c 000000000000001c 0000ff90 FDE cie=00000000 pc=000000000097f368..000000000097f390
  DW_CFA_advance_loc: 1 to 000000000097f369
  DW_CFA_def_cfa_offset: 16
  DW_CFA_offset: r6 (rbp) at cfa-16
  DW_CFA_advance_loc: 3 to 000000000097f36c
  DW_CFA_def_cfa_register: r6 (rbp)
  DW_CFA_advance_loc: 35 to 000000000097f38f
  DW_CFA_def_cfa: r7 (rsp) ofs 8
  DW_CFA_nop
  DW_CFA_nop
  DW_CFA_nop

0000ffac 000000000000001c 0000ffb0 FDE cie=00000000 pc=000000000097f390..000000000097f433
  DW_CFA_advance_loc: 1 to 000000000097f391
  DW_CFA_def_cfa_offset: 16
  DW_CFA_offset: r6 (rbp) at cfa-16
  DW_CFA_advance_loc: 3 to 000000000097f394
  DW_CFA_def_cfa_register: r6 (rbp)
  DW_CFA_advance_loc1: 158 to 000000000097f432
  DW_CFA_def_cfa: r7 (rsp) ofs 8
  DW_CFA_nop
  DW_CFA_nop

0000ffcc 000000000000001c 0000ffd0 FDE cie=00000000 pc=000000000097f433..000000000097f579
  DW_CFA_advance_loc: 1 to 000000000097f434
  DW_CFA_def_cfa_offset: 16
  DW_CFA_offset: r6 (rbp) at cfa-16
  DW_CFA_advance_loc: 3 to 000000000097f437
  DW_CFA_def_cfa_register: r6 (rbp)
  DW_CFA_advance_loc2: 321 to 000000000097f578
  DW_CFA_def_cfa: r7 (rsp) ofs 8
  DW_CFA_nop

0000ffec 000000000000001c 0000fff0 FDE cie=00000000 pc=000000000097f579..000000000097f729
  DW_CFA_advance_loc: 1 to 000000000097f57a
  DW_CFA_def_cfa_offset: 16
  DW_CFA_offset: r6 (rbp) at cfa-16
  DW_CFA_advance_loc: 3 to 000000000097f57d
  DW_CFA_def_cfa_register: r6 (rbp)
  DW_CFA_advance_loc2: 427 to 000000000097f728
  DW_CFA_def_cfa: r7 (rsp) ofs 8
  DW_CFA_nop

0001000c 000000000000001c 00010010 FDE cie=00000000 pc=000000000097f729..000000000097f874
  DW_CFA_advance_loc: 1 to 000000000097f72a
  DW_CFA_def_cfa_offset: 16
  DW_CFA_offset: r6 (rbp) at cfa-16
  DW_CFA_advance_loc: 3 to 000000000097f72d
  DW_CFA_def_cfa_register: r6 (rbp)
  DW_CFA_advance_loc2: 326 to 000000000097f873
  DW_CFA_def_cfa: r7 (rsp) ofs 8
  DW_CFA_nop

0001002c 000000000000001c 00010030 FDE cie=00000000 pc=000000000097f874..000000000097fa8a
  DW_CFA_advance_loc: 1 to 000000000097f875
  DW_CFA_def_cfa_offset: 16
  DW_CFA_offset: r6 (rbp) at cfa-16
  DW_CFA_advance_loc: 3 to 000000000097f878
  DW_CFA_def_cfa_register: r6 (rbp)
  DW_CFA_advance_loc2: 529 to 000000000097fa89
  DW_CFA_def_cfa: r7 (rsp) ofs 8
  DW_CFA_nop

0001004c 000000000000001c 00010050 FDE cie=00000000 pc=000000000097fa8a..000000000097ffc8
  DW_CFA_advance_loc: 1 to 000000000097fa8b
  DW_CFA_def_cfa_offset: 16
  DW_CFA_offset: r6 (rbp) at cfa-16
  DW_CFA_advance_loc: 3 to 000000000097fa8e
  DW_CFA_def_cfa_register: r6 (rbp)
  DW_CFA_advance_loc2: 1337 to 000000000097ffc7
  DW_CFA_def_cfa: r7 (rsp) ofs 8
  DW_CFA_nop

0001006c 000000000000001c 00010070 FDE cie=00000000 pc=000000000097ffc8..00000000009800b3
  DW_CFA_advance_loc: 1 to 000000000097ffc9
  DW_CFA_def_cfa_offset: 16
  DW_CFA_offset: r6 (rbp) at cfa-16
  DW_CFA_advance_loc: 3 to 000000000097ffcc
  DW_CFA_def_cfa_register: r6 (rbp)
  DW_CFA_advance_loc1: 230 to 00000000009800b2
  DW_CFA_def_cfa: r7 (rsp) ofs 8
  DW_CFA_nop
  DW_CFA_nop

0001008c 000000000000001c 00010090 FDE cie=00000000 pc=00000000009800b3..0000000000980615
  DW_CFA_advance_loc: 1 to 00000000009800b4
  DW_CFA_def_cfa_offset: 16
  DW_CFA_offset: r6 (rbp) at cfa-16
  DW_CFA_advance_loc: 3 to 00000000009800b7
  DW_CFA_def_cfa_register: r6 (rbp)
  DW_CFA_advance_loc2: 1373 to 0000000000980614
  DW_CFA_def_cfa: r7 (rsp) ofs 8
  DW_CFA_nop

000100ac 000000000000001c 000100b0 FDE cie=00000000 pc=0000000000980615..00000000009807c0
  DW_CFA_advance_loc: 1 to 0000000000980616
  DW_CFA_def_cfa_offset: 16
  DW_CFA_offset: r6 (rbp) at cfa-16
  DW_CFA_advance_loc: 3 to 0000000000980619
  DW_CFA_def_cfa_register: r6 (rbp)
  DW_CFA_advance_loc2: 422 to 00000000009807bf
  DW_CFA_def_cfa: r7 (rsp) ofs 8
  DW_CFA_nop

000100cc 000000000000001c 000100d0 FDE cie=00000000 pc=00000000009807c0..0000000000980839
  DW_CFA_advance_loc: 1 to 00000000009807c1
  DW_CFA_def_cfa_offset: 16
  DW_CFA_offset: r6 (rbp) at cfa-16
  DW_CFA_advance_loc: 3 to 00000000009807c4
  DW_CFA_def_cfa_register: r6 (rbp)
  DW_CFA_advance_loc1: 116 to 0000000000980838
  DW_CFA_def_cfa: r7 (rsp) ofs 8
  DW_CFA_nop
  DW_CFA_nop

000100ec 000000000000001c 000100f0 FDE cie=00000000 pc=0000000000980839..0000000000980938
  DW_CFA_advance_loc: 1 to 000000000098083a
  DW_CFA_def_cfa_offset: 16
  DW_CFA_offset: r6 (rbp) at cfa-16
  DW_CFA_advance_loc: 3 to 000000000098083d
  DW_CFA_def_cfa_register: r6 (rbp)
  DW_CFA_advance_loc1: 250 to 0000000000980937
  DW_CFA_def_cfa: r7 (rsp) ofs 8
  DW_CFA_nop
  DW_CFA_nop

0001010c 000000000000001c 00010110 FDE cie=00000000 pc=0000000000980938..0000000000980ae3
  DW_CFA_advance_loc: 1 to 0000000000980939
  DW_CFA_def_cfa_offset: 16
  DW_CFA_offset: r6 (rbp) at cfa-16
  DW_CFA_advance_loc: 3 to 000000000098093c
  DW_CFA_def_cfa_register: r6 (rbp)
  DW_CFA_advance_loc2: 422 to 0000000000980ae2
  DW_CFA_def_cfa: r7 (rsp) ofs 8
  DW_CFA_nop

0001012c 000000000000001c 00010130 FDE cie=00000000 pc=0000000000980ae3..0000000000980be4
  DW_CFA_advance_loc: 1 to 0000000000980ae4
  DW_CFA_def_cfa_offset: 16
  DW_CFA_offset: r6 (rbp) at cfa-16
  DW_CFA_advance_loc: 3 to 0000000000980ae7
  DW_CFA_def_cfa_register: r6 (rbp)
  DW_CFA_advance_loc1: 252 to 0000000000980be3
  DW_CFA_def_cfa: r7 (rsp) ofs 8
  DW_CFA_nop
  DW_CFA_nop

0001014c 000000000000001c 00010150 FDE cie=00000000 pc=0000000000980be4..0000000000980c84
  DW_CFA_advance_loc: 1 to 0000000000980be5
  DW_CFA_def_cfa_offset: 16
  DW_CFA_offset: r6 (rbp) at cfa-16
  DW_CFA_advance_loc: 3 to 0000000000980be8
  DW_CFA_def_cfa_register: r6 (rbp)
  DW_CFA_advance_loc1: 155 to 0000000000980c83
  DW_CFA_def_cfa: r7 (rsp) ofs 8
  DW_CFA_nop
  DW_CFA_nop

0001016c 000000000000001c 00010170 FDE cie=00000000 pc=0000000000980c84..0000000000980cd0
  DW_CFA_advance_loc: 1 to 0000000000980c85
  DW_CFA_def_cfa_offset: 16
  DW_CFA_offset: r6 (rbp) at cfa-16
  DW_CFA_advance_loc: 3 to 0000000000980c88
  DW_CFA_def_cfa_register: r6 (rbp)
  DW_CFA_advance_loc1: 71 to 0000000000980ccf
  DW_CFA_def_cfa: r7 (rsp) ofs 8
  DW_CFA_nop
  DW_CFA_nop

0001018c 000000000000001c 00010190 FDE cie=00000000 pc=0000000000980cd0..0000000000980d97
  DW_CFA_advance_loc: 1 to 0000000000980cd1
  DW_CFA_def_cfa_offset: 16
  DW_CFA_offset: r6 (rbp) at cfa-16
  DW_CFA_advance_loc: 3 to 0000000000980cd4
  DW_CFA_def_cfa_register: r6 (rbp)
  DW_CFA_advance_loc1: 194 to 0000000000980d96
  DW_CFA_def_cfa: r7 (rsp) ofs 8
  DW_CFA_nop
  DW_CFA_nop

000101ac 000000000000001c 000101b0 FDE cie=00000000 pc=0000000000980d97..0000000000980eb0
  DW_CFA_advance_loc: 1 to 0000000000980d98
  DW_CFA_def_cfa_offset: 16
  DW_CFA_offset: r6 (rbp) at cfa-16
  DW_CFA_advance_loc: 3 to 0000000000980d9b
  DW_CFA_def_cfa_register: r6 (rbp)
  DW_CFA_advance_loc2: 276 to 0000000000980eaf
  DW_CFA_def_cfa: r7 (rsp) ofs 8
  DW_CFA_nop

000101cc 000000000000001c 000101d0 FDE cie=00000000 pc=0000000000980eb0..0000000000980fae
  DW_CFA_advance_loc: 1 to 0000000000980eb1
  DW_CFA_def_cfa_offset: 16
  DW_CFA_offset: r6 (rbp) at cfa-16
  DW_CFA_advance_loc: 3 to 0000000000980eb4
  DW_CFA_def_cfa_register: r6 (rbp)
  DW_CFA_advance_loc1: 249 to 0000000000980fad
  DW_CFA_def_cfa: r7 (rsp) ofs 8
  DW_CFA_nop
  DW_CFA_nop

000101ec 000000000000001c 000101f0 FDE cie=00000000 pc=0000000000980fae..00000000009810d9
  DW_CFA_advance_loc: 1 to 0000000000980faf
  DW_CFA_def_cfa_offset: 16
  DW_CFA_offset: r6 (rbp) at cfa-16
  DW_CFA_advance_loc: 3 to 0000000000980fb2
  DW_CFA_def_cfa_register: r6 (rbp)
  DW_CFA_advance_loc2: 294 to 00000000009810d8
  DW_CFA_def_cfa: r7 (rsp) ofs 8
  DW_CFA_nop

0001020c 000000000000001c 00010210 FDE cie=00000000 pc=00000000009810d9..00000000009813a8
  DW_CFA_advance_loc: 1 to 00000000009810da
  DW_CFA_def_cfa_offset: 16
  DW_CFA_offset: r6 (rbp) at cfa-16
  DW_CFA_advance_loc: 3 to 00000000009810dd
  DW_CFA_def_cfa_register: r6 (rbp)
  DW_CFA_advance_loc2: 714 to 00000000009813a7
  DW_CFA_def_cfa: r7 (rsp) ofs 8
  DW_CFA_nop

0001022c 000000000000001c 00010230 FDE cie=00000000 pc=00000000009813a8..00000000009813ce
  DW_CFA_advance_loc: 1 to 00000000009813a9
  DW_CFA_def_cfa_offset: 16
  DW_CFA_offset: r6 (rbp) at cfa-16
  DW_CFA_advance_loc: 3 to 00000000009813ac
  DW_CFA_def_cfa_register: r6 (rbp)
  DW_CFA_advance_loc: 33 to 00000000009813cd
  DW_CFA_def_cfa: r7 (rsp) ofs 8
  DW_CFA_nop
  DW_CFA_nop
  DW_CFA_nop

0001024c 000000000000001c 00010250 FDE cie=00000000 pc=00000000009813ce..0000000000981676
  DW_CFA_advance_loc: 1 to 00000000009813cf
  DW_CFA_def_cfa_offset: 16
  DW_CFA_offset: r6 (rbp) at cfa-16
  DW_CFA_advance_loc: 3 to 00000000009813d2
  DW_CFA_def_cfa_register: r6 (rbp)
  DW_CFA_advance_loc2: 675 to 0000000000981675
  DW_CFA_def_cfa: r7 (rsp) ofs 8
  DW_CFA_nop

0001026c 000000000000001c 00010270 FDE cie=00000000 pc=0000000000981676..00000000009817d8
  DW_CFA_advance_loc: 1 to 0000000000981677
  DW_CFA_def_cfa_offset: 16
  DW_CFA_offset: r6 (rbp) at cfa-16
  DW_CFA_advance_loc: 3 to 000000000098167a
  DW_CFA_def_cfa_register: r6 (rbp)
  DW_CFA_advance_loc2: 349 to 00000000009817d7
  DW_CFA_def_cfa: r7 (rsp) ofs 8
  DW_CFA_nop

0001028c 000000000000001c 00010290 FDE cie=00000000 pc=00000000009817d8..000000000098194c
  DW_CFA_advance_loc: 1 to 00000000009817d9
  DW_CFA_def_cfa_offset: 16
  DW_CFA_offset: r6 (rbp) at cfa-16
  DW_CFA_advance_loc: 3 to 00000000009817dc
  DW_CFA_def_cfa_register: r6 (rbp)
  DW_CFA_advance_loc2: 367 to 000000000098194b
  DW_CFA_def_cfa: r7 (rsp) ofs 8
  DW_CFA_nop

000102ac 0000000000000020 000102b0 FDE cie=00000000 pc=000000000098194c..0000000000981ac5
  DW_CFA_advance_loc: 1 to 000000000098194d
  DW_CFA_def_cfa_offset: 16
  DW_CFA_offset: r6 (rbp) at cfa-16
  DW_CFA_advance_loc: 3 to 0000000000981950
  DW_CFA_def_cfa_register: r6 (rbp)
  DW_CFA_advance_loc: 5 to 0000000000981955
  DW_CFA_offset: r3 (rbx) at cfa-24
  DW_CFA_advance_loc2: 367 to 0000000000981ac4
  DW_CFA_def_cfa: r7 (rsp) ofs 8
  DW_CFA_nop
  DW_CFA_nop

000102d0 000000000000001c 000102d4 FDE cie=00000000 pc=0000000000981ac5..0000000000981ba0
  DW_CFA_advance_loc: 1 to 0000000000981ac6
  DW_CFA_def_cfa_offset: 16
  DW_CFA_offset: r6 (rbp) at cfa-16
  DW_CFA_advance_loc: 3 to 0000000000981ac9
  DW_CFA_def_cfa_register: r6 (rbp)
  DW_CFA_advance_loc1: 214 to 0000000000981b9f
  DW_CFA_def_cfa: r7 (rsp) ofs 8
  DW_CFA_nop
  DW_CFA_nop

000102f0 000000000000001c 000102f4 FDE cie=00000000 pc=0000000000981ba0..00000000009820f6
  DW_CFA_advance_loc: 1 to 0000000000981ba1
  DW_CFA_def_cfa_offset: 16
  DW_CFA_offset: r6 (rbp) at cfa-16
  DW_CFA_advance_loc: 3 to 0000000000981ba4
  DW_CFA_def_cfa_register: r6 (rbp)
  DW_CFA_advance_loc2: 1361 to 00000000009820f5
  DW_CFA_def_cfa: r7 (rsp) ofs 8
  DW_CFA_nop

00010310 0000000000000020 00010314 FDE cie=00000000 pc=00000000009820f6..0000000000982360
  DW_CFA_advance_loc: 1 to 00000000009820f7
  DW_CFA_def_cfa_offset: 16
  DW_CFA_offset: r6 (rbp) at cfa-16
  DW_CFA_advance_loc: 3 to 00000000009820fa
  DW_CFA_def_cfa_register: r6 (rbp)
  DW_CFA_advance_loc: 8 to 0000000000982102
  DW_CFA_offset: r3 (rbx) at cfa-24
  DW_CFA_advance_loc2: 605 to 000000000098235f
  DW_CFA_def_cfa: r7 (rsp) ofs 8
  DW_CFA_nop
  DW_CFA_nop

00010334 000000000000001c 00010338 FDE cie=00000000 pc=0000000000982360..0000000000982393
  DW_CFA_advance_loc: 1 to 0000000000982361
  DW_CFA_def_cfa_offset: 16
  DW_CFA_offset: r6 (rbp) at cfa-16
  DW_CFA_advance_loc: 3 to 0000000000982364
  DW_CFA_def_cfa_register: r6 (rbp)
  DW_CFA_advance_loc: 46 to 0000000000982392
  DW_CFA_def_cfa: r7 (rsp) ofs 8
  DW_CFA_nop
  DW_CFA_nop
  DW_CFA_nop

00010354 000000000000001c 00010358 FDE cie=00000000 pc=0000000000982393..000000000098249c
  DW_CFA_advance_loc: 1 to 0000000000982394
  DW_CFA_def_cfa_offset: 16
  DW_CFA_offset: r6 (rbp) at cfa-16
  DW_CFA_advance_loc: 3 to 0000000000982397
  DW_CFA_def_cfa_register: r6 (rbp)
  DW_CFA_advance_loc2: 260 to 000000000098249b
  DW_CFA_def_cfa: r7 (rsp) ofs 8
  DW_CFA_nop

00010374 000000000000001c 00010378 FDE cie=00000000 pc=000000000098249c..00000000009824d3
  DW_CFA_advance_loc: 1 to 000000000098249d
  DW_CFA_def_cfa_offset: 16
  DW_CFA_offset: r6 (rbp) at cfa-16
  DW_CFA_advance_loc: 3 to 00000000009824a0
  DW_CFA_def_cfa_register: r6 (rbp)
  DW_CFA_advance_loc: 50 to 00000000009824d2
  DW_CFA_def_cfa: r7 (rsp) ofs 8
  DW_CFA_nop
  DW_CFA_nop
  DW_CFA_nop

00010394 000000000000001c 00010398 FDE cie=00000000 pc=00000000009824d3..000000000098250f
  DW_CFA_advance_loc: 1 to 00000000009824d4
  DW_CFA_def_cfa_offset: 16
  DW_CFA_offset: r6 (rbp) at cfa-16
  DW_CFA_advance_loc: 3 to 00000000009824d7
  DW_CFA_def_cfa_register: r6 (rbp)
  DW_CFA_advance_loc: 55 to 000000000098250e
  DW_CFA_def_cfa: r7 (rsp) ofs 8
  DW_CFA_nop
  DW_CFA_nop
  DW_CFA_nop

000103b4 000000000000001c 000103b8 FDE cie=00000000 pc=000000000098250f..0000000000982554
  DW_CFA_advance_loc: 1 to 0000000000982510
  DW_CFA_def_cfa_offset: 16
  DW_CFA_offset: r6 (rbp) at cfa-16
  DW_CFA_advance_loc: 3 to 0000000000982513
  DW_CFA_def_cfa_register: r6 (rbp)
  DW_CFA_advance_loc1: 64 to 0000000000982553
  DW_CFA_def_cfa: r7 (rsp) ofs 8
  DW_CFA_nop
  DW_CFA_nop

000103d4 000000000000001c 000103d8 FDE cie=00000000 pc=0000000000982554..000000000098266e
  DW_CFA_advance_loc: 1 to 0000000000982555
  DW_CFA_def_cfa_offset: 16
  DW_CFA_offset: r6 (rbp) at cfa-16
  DW_CFA_advance_loc: 3 to 0000000000982558
  DW_CFA_def_cfa_register: r6 (rbp)
  DW_CFA_advance_loc2: 277 to 000000000098266d
  DW_CFA_def_cfa: r7 (rsp) ofs 8
  DW_CFA_nop

000103f4 000000000000001c 000103f8 FDE cie=00000000 pc=000000000098266e..0000000000982679
  DW_CFA_advance_loc: 1 to 000000000098266f
  DW_CFA_def_cfa_offset: 16
  DW_CFA_offset: r6 (rbp) at cfa-16
  DW_CFA_advance_loc: 3 to 0000000000982672
  DW_CFA_def_cfa_register: r6 (rbp)
  DW_CFA_advance_loc: 6 to 0000000000982678
  DW_CFA_def_cfa: r7 (rsp) ofs 8
  DW_CFA_nop
  DW_CFA_nop
  DW_CFA_nop

00010414 000000000000001c 00010418 FDE cie=00000000 pc=0000000000982679..000000000098284c
  DW_CFA_advance_loc: 1 to 000000000098267a
  DW_CFA_def_cfa_offset: 16
  DW_CFA_offset: r6 (rbp) at cfa-16
  DW_CFA_advance_loc: 3 to 000000000098267d
  DW_CFA_def_cfa_register: r6 (rbp)
  DW_CFA_advance_loc2: 462 to 000000000098284b
  DW_CFA_def_cfa: r7 (rsp) ofs 8
  DW_CFA_nop

00010434 0000000000000020 00010438 FDE cie=00000000 pc=000000000098284c..00000000009828b1
  DW_CFA_advance_loc: 1 to 000000000098284d
  DW_CFA_def_cfa_offset: 16
  DW_CFA_offset: r6 (rbp) at cfa-16
  DW_CFA_advance_loc: 3 to 0000000000982850
  DW_CFA_def_cfa_register: r6 (rbp)
  DW_CFA_advance_loc: 1 to 0000000000982851
  DW_CFA_offset: r3 (rbx) at cfa-24
  DW_CFA_advance_loc1: 95 to 00000000009828b0
  DW_CFA_def_cfa: r7 (rsp) ofs 8
  DW_CFA_nop
  DW_CFA_nop
  DW_CFA_nop

00010458 000000000000001c 0001045c FDE cie=00000000 pc=00000000009828b1..0000000000982924
  DW_CFA_advance_loc: 1 to 00000000009828b2
  DW_CFA_def_cfa_offset: 16
  DW_CFA_offset: r6 (rbp) at cfa-16
  DW_CFA_advance_loc: 3 to 00000000009828b5
  DW_CFA_def_cfa_register: r6 (rbp)
  DW_CFA_advance_loc1: 110 to 0000000000982923
  DW_CFA_def_cfa: r7 (rsp) ofs 8
  DW_CFA_nop
  DW_CFA_nop

00010478 000000000000001c 0001047c FDE cie=00000000 pc=0000000000982924..00000000009829fb
  DW_CFA_advance_loc: 1 to 0000000000982925
  DW_CFA_def_cfa_offset: 16
  DW_CFA_offset: r6 (rbp) at cfa-16
  DW_CFA_advance_loc: 3 to 0000000000982928
  DW_CFA_def_cfa_register: r6 (rbp)
  DW_CFA_advance_loc1: 210 to 00000000009829fa
  DW_CFA_def_cfa: r7 (rsp) ofs 8
  DW_CFA_nop
  DW_CFA_nop

00010498 000000000000001c 0001049c FDE cie=00000000 pc=00000000009829fb..0000000000982a47
  DW_CFA_advance_loc: 1 to 00000000009829fc
  DW_CFA_def_cfa_offset: 16
  DW_CFA_offset: r6 (rbp) at cfa-16
  DW_CFA_advance_loc: 3 to 00000000009829ff
  DW_CFA_def_cfa_register: r6 (rbp)
  DW_CFA_advance_loc1: 71 to 0000000000982a46
  DW_CFA_def_cfa: r7 (rsp) ofs 8
  DW_CFA_nop
  DW_CFA_nop

000104b8 000000000000001c 000104bc FDE cie=00000000 pc=0000000000982a47..0000000000982b4b
  DW_CFA_advance_loc: 1 to 0000000000982a48
  DW_CFA_def_cfa_offset: 16
  DW_CFA_offset: r6 (rbp) at cfa-16
  DW_CFA_advance_loc: 3 to 0000000000982a4b
  DW_CFA_def_cfa_register: r6 (rbp)
  DW_CFA_advance_loc1: 255 to 0000000000982b4a
  DW_CFA_def_cfa: r7 (rsp) ofs 8
  DW_CFA_nop
  DW_CFA_nop

000104d8 000000000000001c 000104dc FDE cie=00000000 pc=0000000000982b4b..0000000000982bc0
  DW_CFA_advance_loc: 1 to 0000000000982b4c
  DW_CFA_def_cfa_offset: 16
  DW_CFA_offset: r6 (rbp) at cfa-16
  DW_CFA_advance_loc: 3 to 0000000000982b4f
  DW_CFA_def_cfa_register: r6 (rbp)
  DW_CFA_advance_loc1: 112 to 0000000000982bbf
  DW_CFA_def_cfa: r7 (rsp) ofs 8
  DW_CFA_nop
  DW_CFA_nop

000104f8 000000000000001c 000104fc FDE cie=00000000 pc=0000000000982bc0..0000000000982d45
  DW_CFA_advance_loc: 1 to 0000000000982bc1
  DW_CFA_def_cfa_offset: 16
  DW_CFA_offset: r6 (rbp) at cfa-16
  DW_CFA_advance_loc: 3 to 0000000000982bc4
  DW_CFA_def_cfa_register: r6 (rbp)
  DW_CFA_advance_loc2: 384 to 0000000000982d44
  DW_CFA_def_cfa: r7 (rsp) ofs 8
  DW_CFA_nop

00010518 000000000000001c 0001051c FDE cie=00000000 pc=0000000000982d45..0000000000982d85
  DW_CFA_advance_loc: 1 to 0000000000982d46
  DW_CFA_def_cfa_offset: 16
  DW_CFA_offset: r6 (rbp) at cfa-16
  DW_CFA_advance_loc: 3 to 0000000000982d49
  DW_CFA_def_cfa_register: r6 (rbp)
  DW_CFA_advance_loc: 59 to 0000000000982d84
  DW_CFA_def_cfa: r7 (rsp) ofs 8
  DW_CFA_nop
  DW_CFA_nop
  DW_CFA_nop

00010538 000000000000001c 0001053c FDE cie=00000000 pc=0000000000982d85..0000000000982e59
  DW_CFA_advance_loc: 1 to 0000000000982d86
  DW_CFA_def_cfa_offset: 16
  DW_CFA_offset: r6 (rbp) at cfa-16
  DW_CFA_advance_loc: 3 to 0000000000982d89
  DW_CFA_def_cfa_register: r6 (rbp)
  DW_CFA_advance_loc1: 207 to 0000000000982e58
  DW_CFA_def_cfa: r7 (rsp) ofs 8
  DW_CFA_nop
  DW_CFA_nop

00010558 000000000000001c 0001055c FDE cie=00000000 pc=0000000000982e59..00000000009831a8
  DW_CFA_advance_loc: 1 to 0000000000982e5a
  DW_CFA_def_cfa_offset: 16
  DW_CFA_offset: r6 (rbp) at cfa-16
  DW_CFA_advance_loc: 3 to 0000000000982e5d
  DW_CFA_def_cfa_register: r6 (rbp)
  DW_CFA_advance_loc2: 842 to 00000000009831a7
  DW_CFA_def_cfa: r7 (rsp) ofs 8
  DW_CFA_nop

00010578 000000000000001c 0001057c FDE cie=00000000 pc=00000000009831a8..0000000000984d73
  DW_CFA_advance_loc: 1 to 00000000009831a9
  DW_CFA_def_cfa_offset: 16
  DW_CFA_offset: r6 (rbp) at cfa-16
  DW_CFA_advance_loc: 3 to 00000000009831ac
  DW_CFA_def_cfa_register: r6 (rbp)
  DW_CFA_advance_loc2: 7110 to 0000000000984d72
  DW_CFA_def_cfa: r7 (rsp) ofs 8
  DW_CFA_nop

00010598 000000000000001c 0001059c FDE cie=00000000 pc=0000000000984d73..0000000000984d9d
  DW_CFA_advance_loc: 1 to 0000000000984d74
  DW_CFA_def_cfa_offset: 16
  DW_CFA_offset: r6 (rbp) at cfa-16
  DW_CFA_advance_loc: 3 to 0000000000984d77
  DW_CFA_def_cfa_register: r6 (rbp)
  DW_CFA_advance_loc: 37 to 0000000000984d9c
  DW_CFA_def_cfa: r7 (rsp) ofs 8
  DW_CFA_nop
  DW_CFA_nop
  DW_CFA_nop

000105b8 000000000000001c 000105bc FDE cie=00000000 pc=0000000000984d9d..0000000000984f14
  DW_CFA_advance_loc: 1 to 0000000000984d9e
  DW_CFA_def_cfa_offset: 16
  DW_CFA_offset: r6 (rbp) at cfa-16
  DW_CFA_advance_loc: 3 to 0000000000984da1
  DW_CFA_def_cfa_register: r6 (rbp)
  DW_CFA_advance_loc2: 370 to 0000000000984f13
  DW_CFA_def_cfa: r7 (rsp) ofs 8
  DW_CFA_nop

000105d8 000000000000001c 000105dc FDE cie=00000000 pc=0000000000984f14..0000000000984f2f
  DW_CFA_advance_loc: 1 to 0000000000984f15
  DW_CFA_def_cfa_offset: 16
  DW_CFA_offset: r6 (rbp) at cfa-16
  DW_CFA_advance_loc: 3 to 0000000000984f18
  DW_CFA_def_cfa_register: r6 (rbp)
  DW_CFA_advance_loc: 22 to 0000000000984f2e
  DW_CFA_def_cfa: r7 (rsp) ofs 8
  DW_CFA_nop
  DW_CFA_nop
  DW_CFA_nop

000105f8 000000000000001c 000105fc FDE cie=00000000 pc=0000000000984f2f..0000000000984fad
  DW_CFA_advance_loc: 1 to 0000000000984f30
  DW_CFA_def_cfa_offset: 16
  DW_CFA_offset: r6 (rbp) at cfa-16
  DW_CFA_advance_loc: 3 to 0000000000984f33
  DW_CFA_def_cfa_register: r6 (rbp)
  DW_CFA_advance_loc1: 121 to 0000000000984fac
  DW_CFA_def_cfa: r7 (rsp) ofs 8
  DW_CFA_nop
  DW_CFA_nop

00010618 000000000000001c 0001061c FDE cie=00000000 pc=0000000000984fad..0000000000984fe7
  DW_CFA_advance_loc: 1 to 0000000000984fae
  DW_CFA_def_cfa_offset: 16
  DW_CFA_offset: r6 (rbp) at cfa-16
  DW_CFA_advance_loc: 3 to 0000000000984fb1
  DW_CFA_def_cfa_register: r6 (rbp)
  DW_CFA_advance_loc: 53 to 0000000000984fe6
  DW_CFA_def_cfa: r7 (rsp) ofs 8
  DW_CFA_nop
  DW_CFA_nop
  DW_CFA_nop

00010638 000000000000001c 0001063c FDE cie=00000000 pc=0000000000984fe7..00000000009850a6
  DW_CFA_advance_loc: 1 to 0000000000984fe8
  DW_CFA_def_cfa_offset: 16
  DW_CFA_offset: r6 (rbp) at cfa-16
  DW_CFA_advance_loc: 3 to 0000000000984feb
  DW_CFA_def_cfa_register: r6 (rbp)
  DW_CFA_advance_loc1: 186 to 00000000009850a5
  DW_CFA_def_cfa: r7 (rsp) ofs 8
  DW_CFA_nop
  DW_CFA_nop

00010658 000000000000001c 0001065c FDE cie=00000000 pc=00000000009850a6..000000000098510a
  DW_CFA_advance_loc: 1 to 00000000009850a7
  DW_CFA_def_cfa_offset: 16
  DW_CFA_offset: r6 (rbp) at cfa-16
  DW_CFA_advance_loc: 3 to 00000000009850aa
  DW_CFA_def_cfa_register: r6 (rbp)
  DW_CFA_advance_loc1: 95 to 0000000000985109
  DW_CFA_def_cfa: r7 (rsp) ofs 8
  DW_CFA_nop
  DW_CFA_nop

00010678 000000000000001c 0001067c FDE cie=00000000 pc=000000000098510a..000000000098512e
  DW_CFA_advance_loc: 1 to 000000000098510b
  DW_CFA_def_cfa_offset: 16
  DW_CFA_offset: r6 (rbp) at cfa-16
  DW_CFA_advance_loc: 3 to 000000000098510e
  DW_CFA_def_cfa_register: r6 (rbp)
  DW_CFA_advance_loc: 31 to 000000000098512d
  DW_CFA_def_cfa: r7 (rsp) ofs 8
  DW_CFA_nop
  DW_CFA_nop
  DW_CFA_nop

00010698 000000000000001c 0001069c FDE cie=00000000 pc=000000000098512e..0000000000985152
  DW_CFA_advance_loc: 1 to 000000000098512f
  DW_CFA_def_cfa_offset: 16
  DW_CFA_offset: r6 (rbp) at cfa-16
  DW_CFA_advance_loc: 3 to 0000000000985132
  DW_CFA_def_cfa_register: r6 (rbp)
  DW_CFA_advance_loc: 31 to 0000000000985151
  DW_CFA_def_cfa: r7 (rsp) ofs 8
  DW_CFA_nop
  DW_CFA_nop
  DW_CFA_nop

000106b8 000000000000001c 000106bc FDE cie=00000000 pc=0000000000985152..00000000009851b3
  DW_CFA_advance_loc: 1 to 0000000000985153
  DW_CFA_def_cfa_offset: 16
  DW_CFA_offset: r6 (rbp) at cfa-16
  DW_CFA_advance_loc: 3 to 0000000000985156
  DW_CFA_def_cfa_register: r6 (rbp)
  DW_CFA_advance_loc1: 92 to 00000000009851b2
  DW_CFA_def_cfa: r7 (rsp) ofs 8
  DW_CFA_nop
  DW_CFA_nop

000106d8 000000000000001c 000106dc FDE cie=00000000 pc=00000000009851b3..00000000009851e0
  DW_CFA_advance_loc: 1 to 00000000009851b4
  DW_CFA_def_cfa_offset: 16
  DW_CFA_offset: r6 (rbp) at cfa-16
  DW_CFA_advance_loc: 3 to 00000000009851b7
  DW_CFA_def_cfa_register: r6 (rbp)
  DW_CFA_advance_loc: 40 to 00000000009851df
  DW_CFA_def_cfa: r7 (rsp) ofs 8
  DW_CFA_nop
  DW_CFA_nop
  DW_CFA_nop

000106f8 000000000000001c 000106fc FDE cie=00000000 pc=00000000009851e0..0000000000985232
  DW_CFA_advance_loc: 1 to 00000000009851e1
  DW_CFA_def_cfa_offset: 16
  DW_CFA_offset: r6 (rbp) at cfa-16
  DW_CFA_advance_loc: 3 to 00000000009851e4
  DW_CFA_def_cfa_register: r6 (rbp)
  DW_CFA_advance_loc1: 77 to 0000000000985231
  DW_CFA_def_cfa: r7 (rsp) ofs 8
  DW_CFA_nop
  DW_CFA_nop

00010718 000000000000001c 0001071c FDE cie=00000000 pc=0000000000985232..00000000009852bb
  DW_CFA_advance_loc: 1 to 0000000000985233
  DW_CFA_def_cfa_offset: 16
  DW_CFA_offset: r6 (rbp) at cfa-16
  DW_CFA_advance_loc: 3 to 0000000000985236
  DW_CFA_def_cfa_register: r6 (rbp)
  DW_CFA_advance_loc1: 132 to 00000000009852ba
  DW_CFA_def_cfa: r7 (rsp) ofs 8
  DW_CFA_nop
  DW_CFA_nop

00010738 000000000000001c 0001073c FDE cie=00000000 pc=00000000009852bb..00000000009852e0
  DW_CFA_advance_loc: 1 to 00000000009852bc
  DW_CFA_def_cfa_offset: 16
  DW_CFA_offset: r6 (rbp) at cfa-16
  DW_CFA_advance_loc: 3 to 00000000009852bf
  DW_CFA_def_cfa_register: r6 (rbp)
  DW_CFA_advance_loc: 32 to 00000000009852df
  DW_CFA_def_cfa: r7 (rsp) ofs 8
  DW_CFA_nop
  DW_CFA_nop
  DW_CFA_nop

00010758 000000000000001c 0001075c FDE cie=00000000 pc=00000000009852e0..0000000000985352
  DW_CFA_advance_loc: 1 to 00000000009852e1
  DW_CFA_def_cfa_offset: 16
  DW_CFA_offset: r6 (rbp) at cfa-16
  DW_CFA_advance_loc: 3 to 00000000009852e4
  DW_CFA_def_cfa_register: r6 (rbp)
  DW_CFA_advance_loc1: 109 to 0000000000985351
  DW_CFA_def_cfa: r7 (rsp) ofs 8
  DW_CFA_nop
  DW_CFA_nop

00010778 000000000000001c 0001077c FDE cie=00000000 pc=0000000000985352..00000000009853a9
  DW_CFA_advance_loc: 1 to 0000000000985353
  DW_CFA_def_cfa_offset: 16
  DW_CFA_offset: r6 (rbp) at cfa-16
  DW_CFA_advance_loc: 3 to 0000000000985356
  DW_CFA_def_cfa_register: r6 (rbp)
  DW_CFA_advance_loc1: 82 to 00000000009853a8
  DW_CFA_def_cfa: r7 (rsp) ofs 8
  DW_CFA_nop
  DW_CFA_nop

00010798 000000000000001c 0001079c FDE cie=00000000 pc=00000000009853a9..00000000009853ea
  DW_CFA_advance_loc: 1 to 00000000009853aa
  DW_CFA_def_cfa_offset: 16
  DW_CFA_offset: r6 (rbp) at cfa-16
  DW_CFA_advance_loc: 3 to 00000000009853ad
  DW_CFA_def_cfa_register: r6 (rbp)
  DW_CFA_advance_loc: 60 to 00000000009853e9
  DW_CFA_def_cfa: r7 (rsp) ofs 8
  DW_CFA_nop
  DW_CFA_nop
  DW_CFA_nop

000107b8 000000000000001c 000107bc FDE cie=00000000 pc=00000000009853ea..000000000098542e
  DW_CFA_advance_loc: 1 to 00000000009853eb
  DW_CFA_def_cfa_offset: 16
  DW_CFA_offset: r6 (rbp) at cfa-16
  DW_CFA_advance_loc: 3 to 00000000009853ee
  DW_CFA_def_cfa_register: r6 (rbp)
  DW_CFA_advance_loc: 63 to 000000000098542d
  DW_CFA_def_cfa: r7 (rsp) ofs 8
  DW_CFA_nop
  DW_CFA_nop
  DW_CFA_nop

000107d8 000000000000001c 000107dc FDE cie=00000000 pc=000000000098542e..00000000009854df
  DW_CFA_advance_loc: 1 to 000000000098542f
  DW_CFA_def_cfa_offset: 16
  DW_CFA_offset: r6 (rbp) at cfa-16
  DW_CFA_advance_loc: 3 to 0000000000985432
  DW_CFA_def_cfa_register: r6 (rbp)
  DW_CFA_advance_loc1: 172 to 00000000009854de
  DW_CFA_def_cfa: r7 (rsp) ofs 8
  DW_CFA_nop
  DW_CFA_nop

000107f8 000000000000001c 000107fc FDE cie=00000000 pc=00000000009854df..00000000009855a6
  DW_CFA_advance_loc: 1 to 00000000009854e0
  DW_CFA_def_cfa_offset: 16
  DW_CFA_offset: r6 (rbp) at cfa-16
  DW_CFA_advance_loc: 3 to 00000000009854e3
  DW_CFA_def_cfa_register: r6 (rbp)
  DW_CFA_advance_loc1: 194 to 00000000009855a5
  DW_CFA_def_cfa: r7 (rsp) ofs 8
  DW_CFA_nop
  DW_CFA_nop

00010818 000000000000001c 0001081c FDE cie=00000000 pc=00000000009855a6..000000000098564c
  DW_CFA_advance_loc: 1 to 00000000009855a7
  DW_CFA_def_cfa_offset: 16
  DW_CFA_offset: r6 (rbp) at cfa-16
  DW_CFA_advance_loc: 3 to 00000000009855aa
  DW_CFA_def_cfa_register: r6 (rbp)
  DW_CFA_advance_loc1: 161 to 000000000098564b
  DW_CFA_def_cfa: r7 (rsp) ofs 8
  DW_CFA_nop
  DW_CFA_nop

00010838 000000000000001c 0001083c FDE cie=00000000 pc=000000000098564c..00000000009858b5
  DW_CFA_advance_loc: 1 to 000000000098564d
  DW_CFA_def_cfa_offset: 16
  DW_CFA_offset: r6 (rbp) at cfa-16
  DW_CFA_advance_loc: 3 to 0000000000985650
  DW_CFA_def_cfa_register: r6 (rbp)
  DW_CFA_advance_loc2: 612 to 00000000009858b4
  DW_CFA_def_cfa: r7 (rsp) ofs 8
  DW_CFA_nop

00010858 000000000000001c 0001085c FDE cie=00000000 pc=00000000009858b5..00000000009859c4
  DW_CFA_advance_loc: 1 to 00000000009858b6
  DW_CFA_def_cfa_offset: 16
  DW_CFA_offset: r6 (rbp) at cfa-16
  DW_CFA_advance_loc: 3 to 00000000009858b9
  DW_CFA_def_cfa_register: r6 (rbp)
  DW_CFA_advance_loc2: 266 to 00000000009859c3
  DW_CFA_def_cfa: r7 (rsp) ofs 8
  DW_CFA_nop

00010878 000000000000001c 0001087c FDE cie=00000000 pc=00000000009859c4..0000000000985a88
  DW_CFA_advance_loc: 1 to 00000000009859c5
  DW_CFA_def_cfa_offset: 16
  DW_CFA_offset: r6 (rbp) at cfa-16
  DW_CFA_advance_loc: 3 to 00000000009859c8
  DW_CFA_def_cfa_register: r6 (rbp)
  DW_CFA_advance_loc1: 191 to 0000000000985a87
  DW_CFA_def_cfa: r7 (rsp) ofs 8
  DW_CFA_nop
  DW_CFA_nop

00010898 000000000000001c 0001089c FDE cie=00000000 pc=0000000000985a88..0000000000985b6f
  DW_CFA_advance_loc: 1 to 0000000000985a89
  DW_CFA_def_cfa_offset: 16
  DW_CFA_offset: r6 (rbp) at cfa-16
  DW_CFA_advance_loc: 3 to 0000000000985a8c
  DW_CFA_def_cfa_register: r6 (rbp)
  DW_CFA_advance_loc1: 226 to 0000000000985b6e
  DW_CFA_def_cfa: r7 (rsp) ofs 8
  DW_CFA_nop
  DW_CFA_nop

000108b8 000000000000001c 000108bc FDE cie=00000000 pc=0000000000985b6f..0000000000985bac
  DW_CFA_advance_loc: 1 to 0000000000985b70
  DW_CFA_def_cfa_offset: 16
  DW_CFA_offset: r6 (rbp) at cfa-16
  DW_CFA_advance_loc: 3 to 0000000000985b73
  DW_CFA_def_cfa_register: r6 (rbp)
  DW_CFA_advance_loc: 56 to 0000000000985bab
  DW_CFA_def_cfa: r7 (rsp) ofs 8
  DW_CFA_nop
  DW_CFA_nop
  DW_CFA_nop

000108d8 000000000000001c 000108dc FDE cie=00000000 pc=0000000000985bac..0000000000985c1f
  DW_CFA_advance_loc: 1 to 0000000000985bad
  DW_CFA_def_cfa_offset: 16
  DW_CFA_offset: r6 (rbp) at cfa-16
  DW_CFA_advance_loc: 3 to 0000000000985bb0
  DW_CFA_def_cfa_register: r6 (rbp)
  DW_CFA_advance_loc1: 110 to 0000000000985c1e
  DW_CFA_def_cfa: r7 (rsp) ofs 8
  DW_CFA_nop
  DW_CFA_nop

000108f8 000000000000001c 000108fc FDE cie=00000000 pc=0000000000985c1f..0000000000985e98
  DW_CFA_advance_loc: 1 to 0000000000985c20
  DW_CFA_def_cfa_offset: 16
  DW_CFA_offset: r6 (rbp) at cfa-16
  DW_CFA_advance_loc: 3 to 0000000000985c23
  DW_CFA_def_cfa_register: r6 (rbp)
  DW_CFA_advance_loc2: 628 to 0000000000985e97
  DW_CFA_def_cfa: r7 (rsp) ofs 8
  DW_CFA_nop

00010918 000000000000001c 0001091c FDE cie=00000000 pc=0000000000985e98..0000000000985f1b
  DW_CFA_advance_loc: 1 to 0000000000985e99
  DW_CFA_def_cfa_offset: 16
  DW_CFA_offset: r6 (rbp) at cfa-16
  DW_CFA_advance_loc: 3 to 0000000000985e9c
  DW_CFA_def_cfa_register: r6 (rbp)
  DW_CFA_advance_loc1: 126 to 0000000000985f1a
  DW_CFA_def_cfa: r7 (rsp) ofs 8
  DW_CFA_nop
  DW_CFA_nop

00010938 000000000000001c 0001093c FDE cie=00000000 pc=0000000000985f1b..00000000009861ba
  DW_CFA_advance_loc: 1 to 0000000000985f1c
  DW_CFA_def_cfa_offset: 16
  DW_CFA_offset: r6 (rbp) at cfa-16
  DW_CFA_advance_loc: 3 to 0000000000985f1f
  DW_CFA_def_cfa_register: r6 (rbp)
  DW_CFA_advance_loc2: 666 to 00000000009861b9
  DW_CFA_def_cfa: r7 (rsp) ofs 8
  DW_CFA_nop

00010958 000000000000001c 0001095c FDE cie=00000000 pc=00000000009861ba..000000000098629b
  DW_CFA_advance_loc: 1 to 00000000009861bb
  DW_CFA_def_cfa_offset: 16
  DW_CFA_offset: r6 (rbp) at cfa-16
  DW_CFA_advance_loc: 3 to 00000000009861be
  DW_CFA_def_cfa_register: r6 (rbp)
  DW_CFA_advance_loc1: 220 to 000000000098629a
  DW_CFA_def_cfa: r7 (rsp) ofs 8
  DW_CFA_nop
  DW_CFA_nop

00010978 000000000000001c 0001097c FDE cie=00000000 pc=000000000098629b..0000000000986361
  DW_CFA_advance_loc: 1 to 000000000098629c
  DW_CFA_def_cfa_offset: 16
  DW_CFA_offset: r6 (rbp) at cfa-16
  DW_CFA_advance_loc: 3 to 000000000098629f
  DW_CFA_def_cfa_register: r6 (rbp)
  DW_CFA_advance_loc1: 193 to 0000000000986360
  DW_CFA_def_cfa: r7 (rsp) ofs 8
  DW_CFA_nop
  DW_CFA_nop

00010998 000000000000001c 0001099c FDE cie=00000000 pc=0000000000986361..0000000000986712
  DW_CFA_advance_loc: 1 to 0000000000986362
  DW_CFA_def_cfa_offset: 16
  DW_CFA_offset: r6 (rbp) at cfa-16
  DW_CFA_advance_loc: 3 to 0000000000986365
  DW_CFA_def_cfa_register: r6 (rbp)
  DW_CFA_advance_loc2: 940 to 0000000000986711
  DW_CFA_def_cfa: r7 (rsp) ofs 8
  DW_CFA_nop

000109b8 000000000000001c 000109bc FDE cie=00000000 pc=0000000000986712..000000000098685c
  DW_CFA_advance_loc: 1 to 0000000000986713
  DW_CFA_def_cfa_offset: 16
  DW_CFA_offset: r6 (rbp) at cfa-16
  DW_CFA_advance_loc: 3 to 0000000000986716
  DW_CFA_def_cfa_register: r6 (rbp)
  DW_CFA_advance_loc2: 325 to 000000000098685b
  DW_CFA_def_cfa: r7 (rsp) ofs 8
  DW_CFA_nop

000109d8 000000000000001c 000109dc FDE cie=00000000 pc=000000000098685c..00000000009868d3
  DW_CFA_advance_loc: 1 to 000000000098685d
  DW_CFA_def_cfa_offset: 16
  DW_CFA_offset: r6 (rbp) at cfa-16
  DW_CFA_advance_loc: 3 to 0000000000986860
  DW_CFA_def_cfa_register: r6 (rbp)
  DW_CFA_advance_loc1: 114 to 00000000009868d2
  DW_CFA_def_cfa: r7 (rsp) ofs 8
  DW_CFA_nop
  DW_CFA_nop

000109f8 000000000000001c 000109fc FDE cie=00000000 pc=00000000009868d3..0000000000986c05
  DW_CFA_advance_loc: 1 to 00000000009868d4
  DW_CFA_def_cfa_offset: 16
  DW_CFA_offset: r6 (rbp) at cfa-16
  DW_CFA_advance_loc: 3 to 00000000009868d7
  DW_CFA_def_cfa_register: r6 (rbp)
  DW_CFA_advance_loc2: 813 to 0000000000986c04
  DW_CFA_def_cfa: r7 (rsp) ofs 8
  DW_CFA_nop

00010a18 000000000000001c 00010a1c FDE cie=00000000 pc=0000000000986c05..0000000000986d5e
  DW_CFA_advance_loc: 1 to 0000000000986c06
  DW_CFA_def_cfa_offset: 16
  DW_CFA_offset: r6 (rbp) at cfa-16
  DW_CFA_advance_loc: 3 to 0000000000986c09
  DW_CFA_def_cfa_register: r6 (rbp)
  DW_CFA_advance_loc2: 340 to 0000000000986d5d
  DW_CFA_def_cfa: r7 (rsp) ofs 8
  DW_CFA_nop

00010a38 000000000000001c 00010a3c FDE cie=00000000 pc=0000000000986d5e..0000000000986e42
  DW_CFA_advance_loc: 1 to 0000000000986d5f
  DW_CFA_def_cfa_offset: 16
  DW_CFA_offset: r6 (rbp) at cfa-16
  DW_CFA_advance_loc: 3 to 0000000000986d62
  DW_CFA_def_cfa_register: r6 (rbp)
  DW_CFA_advance_loc1: 223 to 0000000000986e41
  DW_CFA_def_cfa: r7 (rsp) ofs 8
  DW_CFA_nop
  DW_CFA_nop

00010a58 000000000000001c 00010a5c FDE cie=00000000 pc=0000000000986e42..0000000000986e8d
  DW_CFA_advance_loc: 1 to 0000000000986e43
  DW_CFA_def_cfa_offset: 16
  DW_CFA_offset: r6 (rbp) at cfa-16
  DW_CFA_advance_loc: 3 to 0000000000986e46
  DW_CFA_def_cfa_register: r6 (rbp)
  DW_CFA_advance_loc1: 70 to 0000000000986e8c
  DW_CFA_def_cfa: r7 (rsp) ofs 8
  DW_CFA_nop
  DW_CFA_nop

00010a78 000000000000001c 00010a7c FDE cie=00000000 pc=0000000000986e8d..0000000000986f50
  DW_CFA_advance_loc: 1 to 0000000000986e8e
  DW_CFA_def_cfa_offset: 16
  DW_CFA_offset: r6 (rbp) at cfa-16
  DW_CFA_advance_loc: 3 to 0000000000986e91
  DW_CFA_def_cfa_register: r6 (rbp)
  DW_CFA_advance_loc1: 190 to 0000000000986f4f
  DW_CFA_def_cfa: r7 (rsp) ofs 8
  DW_CFA_nop
  DW_CFA_nop

00010a98 000000000000001c 00010a9c FDE cie=00000000 pc=0000000000986f50..0000000000987009
  DW_CFA_advance_loc: 1 to 0000000000986f51
  DW_CFA_def_cfa_offset: 16
  DW_CFA_offset: r6 (rbp) at cfa-16
  DW_CFA_advance_loc: 3 to 0000000000986f54
  DW_CFA_def_cfa_register: r6 (rbp)
  DW_CFA_advance_loc1: 180 to 0000000000987008
  DW_CFA_def_cfa: r7 (rsp) ofs 8
  DW_CFA_nop
  DW_CFA_nop

00010ab8 000000000000001c 00010abc FDE cie=00000000 pc=0000000000987009..000000000098705f
  DW_CFA_advance_loc: 1 to 000000000098700a
  DW_CFA_def_cfa_offset: 16
  DW_CFA_offset: r6 (rbp) at cfa-16
  DW_CFA_advance_loc: 3 to 000000000098700d
  DW_CFA_def_cfa_register: r6 (rbp)
  DW_CFA_advance_loc1: 81 to 000000000098705e
  DW_CFA_def_cfa: r7 (rsp) ofs 8
  DW_CFA_nop
  DW_CFA_nop

00010ad8 000000000000001c 00010adc FDE cie=00000000 pc=000000000098705f..0000000000987135
  DW_CFA_advance_loc: 1 to 0000000000987060
  DW_CFA_def_cfa_offset: 16
  DW_CFA_offset: r6 (rbp) at cfa-16
  DW_CFA_advance_loc: 3 to 0000000000987063
  DW_CFA_def_cfa_register: r6 (rbp)
  DW_CFA_advance_loc1: 209 to 0000000000987134
  DW_CFA_def_cfa: r7 (rsp) ofs 8
  DW_CFA_nop
  DW_CFA_nop

00010af8 000000000000001c 00010afc FDE cie=00000000 pc=0000000000987135..0000000000987182
  DW_CFA_advance_loc: 1 to 0000000000987136
  DW_CFA_def_cfa_offset: 16
  DW_CFA_offset: r6 (rbp) at cfa-16
  DW_CFA_advance_loc: 3 to 0000000000987139
  DW_CFA_def_cfa_register: r6 (rbp)
  DW_CFA_advance_loc1: 72 to 0000000000987181
  DW_CFA_def_cfa: r7 (rsp) ofs 8
  DW_CFA_nop
  DW_CFA_nop

00010b18 000000000000001c 00010b1c FDE cie=00000000 pc=0000000000987182..00000000009871dc
  DW_CFA_advance_loc: 1 to 0000000000987183
  DW_CFA_def_cfa_offset: 16
  DW_CFA_offset: r6 (rbp) at cfa-16
  DW_CFA_advance_loc: 3 to 0000000000987186
  DW_CFA_def_cfa_register: r6 (rbp)
  DW_CFA_advance_loc1: 85 to 00000000009871db
  DW_CFA_def_cfa: r7 (rsp) ofs 8
  DW_CFA_nop
  DW_CFA_nop

00010b38 000000000000001c 00010b3c FDE cie=00000000 pc=00000000009871dc..0000000000987280
  DW_CFA_advance_loc: 1 to 00000000009871dd
  DW_CFA_def_cfa_offset: 16
  DW_CFA_offset: r6 (rbp) at cfa-16
  DW_CFA_advance_loc: 3 to 00000000009871e0
  DW_CFA_def_cfa_register: r6 (rbp)
  DW_CFA_advance_loc1: 159 to 000000000098727f
  DW_CFA_def_cfa: r7 (rsp) ofs 8
  DW_CFA_nop
  DW_CFA_nop

00010b58 000000000000001c 00010b5c FDE cie=00000000 pc=0000000000987280..0000000000987305
  DW_CFA_advance_loc: 1 to 0000000000987281
  DW_CFA_def_cfa_offset: 16
  DW_CFA_offset: r6 (rbp) at cfa-16
  DW_CFA_advance_loc: 3 to 0000000000987284
  DW_CFA_def_cfa_register: r6 (rbp)
  DW_CFA_advance_loc1: 128 to 0000000000987304
  DW_CFA_def_cfa: r7 (rsp) ofs 8
  DW_CFA_nop
  DW_CFA_nop

00010b78 000000000000001c 00010b7c FDE cie=00000000 pc=0000000000987305..00000000009873c8
  DW_CFA_advance_loc: 1 to 0000000000987306
  DW_CFA_def_cfa_offset: 16
  DW_CFA_offset: r6 (rbp) at cfa-16
  DW_CFA_advance_loc: 3 to 0000000000987309
  DW_CFA_def_cfa_register: r6 (rbp)
  DW_CFA_advance_loc1: 190 to 00000000009873c7
  DW_CFA_def_cfa: r7 (rsp) ofs 8
  DW_CFA_nop
  DW_CFA_nop

00010b98 000000000000001c 00010b9c FDE cie=00000000 pc=00000000009873c8..0000000000987476
  DW_CFA_advance_loc: 1 to 00000000009873c9
  DW_CFA_def_cfa_offset: 16
  DW_CFA_offset: r6 (rbp) at cfa-16
  DW_CFA_advance_loc: 3 to 00000000009873cc
  DW_CFA_def_cfa_register: r6 (rbp)
  DW_CFA_advance_loc1: 169 to 0000000000987475
  DW_CFA_def_cfa: r7 (rsp) ofs 8
  DW_CFA_nop
  DW_CFA_nop

00010bb8 000000000000001c 00010bbc FDE cie=00000000 pc=0000000000987476..0000000000987516
  DW_CFA_advance_loc: 1 to 0000000000987477
  DW_CFA_def_cfa_offset: 16
  DW_CFA_offset: r6 (rbp) at cfa-16
  DW_CFA_advance_loc: 3 to 000000000098747a
  DW_CFA_def_cfa_register: r6 (rbp)
  DW_CFA_advance_loc1: 155 to 0000000000987515
  DW_CFA_def_cfa: r7 (rsp) ofs 8
  DW_CFA_nop
  DW_CFA_nop

00010bd8 000000000000001c 00010bdc FDE cie=00000000 pc=0000000000987516..000000000098765a
  DW_CFA_advance_loc: 1 to 0000000000987517
  DW_CFA_def_cfa_offset: 16
  DW_CFA_offset: r6 (rbp) at cfa-16
  DW_CFA_advance_loc: 3 to 000000000098751a
  DW_CFA_def_cfa_register: r6 (rbp)
  DW_CFA_advance_loc2: 319 to 0000000000987659
  DW_CFA_def_cfa: r7 (rsp) ofs 8
  DW_CFA_nop

00010bf8 000000000000001c 00010bfc FDE cie=00000000 pc=000000000098765a..000000000098774e
  DW_CFA_advance_loc: 1 to 000000000098765b
  DW_CFA_def_cfa_offset: 16
  DW_CFA_offset: r6 (rbp) at cfa-16
  DW_CFA_advance_loc: 3 to 000000000098765e
  DW_CFA_def_cfa_register: r6 (rbp)
  DW_CFA_advance_loc1: 239 to 000000000098774d
  DW_CFA_def_cfa: r7 (rsp) ofs 8
  DW_CFA_nop
  DW_CFA_nop

00010c18 000000000000001c 00010c1c FDE cie=00000000 pc=000000000098774e..000000000098798f
  DW_CFA_advance_loc: 1 to 000000000098774f
  DW_CFA_def_cfa_offset: 16
  DW_CFA_offset: r6 (rbp) at cfa-16
  DW_CFA_advance_loc: 3 to 0000000000987752
  DW_CFA_def_cfa_register: r6 (rbp)
  DW_CFA_advance_loc2: 572 to 000000000098798e
  DW_CFA_def_cfa: r7 (rsp) ofs 8
  DW_CFA_nop

00010c38 000000000000001c 00010c3c FDE cie=00000000 pc=000000000098798f..0000000000987a1a
  DW_CFA_advance_loc: 1 to 0000000000987990
  DW_CFA_def_cfa_offset: 16
  DW_CFA_offset: r6 (rbp) at cfa-16
  DW_CFA_advance_loc: 3 to 0000000000987993
  DW_CFA_def_cfa_register: r6 (rbp)
  DW_CFA_advance_loc1: 134 to 0000000000987a19
  DW_CFA_def_cfa: r7 (rsp) ofs 8
  DW_CFA_nop
  DW_CFA_nop

00010c58 000000000000001c 00010c5c FDE cie=00000000 pc=0000000000987a1a..0000000000987a6e
  DW_CFA_advance_loc: 1 to 0000000000987a1b
  DW_CFA_def_cfa_offset: 16
  DW_CFA_offset: r6 (rbp) at cfa-16
  DW_CFA_advance_loc: 3 to 0000000000987a1e
  DW_CFA_def_cfa_register: r6 (rbp)
  DW_CFA_advance_loc1: 79 to 0000000000987a6d
  DW_CFA_def_cfa: r7 (rsp) ofs 8
  DW_CFA_nop
  DW_CFA_nop

00010c78 000000000000001c 00010c7c FDE cie=00000000 pc=0000000000987a6e..0000000000987a99
  DW_CFA_advance_loc: 1 to 0000000000987a6f
  DW_CFA_def_cfa_offset: 16
  DW_CFA_offset: r6 (rbp) at cfa-16
  DW_CFA_advance_loc: 3 to 0000000000987a72
  DW_CFA_def_cfa_register: r6 (rbp)
  DW_CFA_advance_loc: 38 to 0000000000987a98
  DW_CFA_def_cfa: r7 (rsp) ofs 8
  DW_CFA_nop
  DW_CFA_nop
  DW_CFA_nop

00010c98 000000000000001c 00010c9c FDE cie=00000000 pc=0000000000987a99..0000000000987ae4
  DW_CFA_advance_loc: 1 to 0000000000987a9a
  DW_CFA_def_cfa_offset: 16
  DW_CFA_offset: r6 (rbp) at cfa-16
  DW_CFA_advance_loc: 3 to 0000000000987a9d
  DW_CFA_def_cfa_register: r6 (rbp)
  DW_CFA_advance_loc1: 70 to 0000000000987ae3
  DW_CFA_def_cfa: r7 (rsp) ofs 8
  DW_CFA_nop
  DW_CFA_nop

00010cb8 000000000000001c 00010cbc FDE cie=00000000 pc=0000000000987ae4..0000000000987b48
  DW_CFA_advance_loc: 1 to 0000000000987ae5
  DW_CFA_def_cfa_offset: 16
  DW_CFA_offset: r6 (rbp) at cfa-16
  DW_CFA_advance_loc: 3 to 0000000000987ae8
  DW_CFA_def_cfa_register: r6 (rbp)
  DW_CFA_advance_loc1: 95 to 0000000000987b47
  DW_CFA_def_cfa: r7 (rsp) ofs 8
  DW_CFA_nop
  DW_CFA_nop

00010cd8 000000000000001c 00010cdc FDE cie=00000000 pc=0000000000987b48..0000000000987bb7
  DW_CFA_advance_loc: 1 to 0000000000987b49
  DW_CFA_def_cfa_offset: 16
  DW_CFA_offset: r6 (rbp) at cfa-16
  DW_CFA_advance_loc: 3 to 0000000000987b4c
  DW_CFA_def_cfa_register: r6 (rbp)
  DW_CFA_advance_loc1: 106 to 0000000000987bb6
  DW_CFA_def_cfa: r7 (rsp) ofs 8
  DW_CFA_nop
  DW_CFA_nop

00010cf8 000000000000001c 00010cfc FDE cie=00000000 pc=0000000000987bb7..0000000000987d29
  DW_CFA_advance_loc: 1 to 0000000000987bb8
  DW_CFA_def_cfa_offset: 16
  DW_CFA_offset: r6 (rbp) at cfa-16
  DW_CFA_advance_loc: 3 to 0000000000987bbb
  DW_CFA_def_cfa_register: r6 (rbp)
  DW_CFA_advance_loc2: 365 to 0000000000987d28
  DW_CFA_def_cfa: r7 (rsp) ofs 8
  DW_CFA_nop

00010d18 000000000000001c 00010d1c FDE cie=00000000 pc=0000000000987d29..0000000000987e7c
  DW_CFA_advance_loc: 1 to 0000000000987d2a
  DW_CFA_def_cfa_offset: 16
  DW_CFA_offset: r6 (rbp) at cfa-16
  DW_CFA_advance_loc: 3 to 0000000000987d2d
  DW_CFA_def_cfa_register: r6 (rbp)
  DW_CFA_advance_loc2: 334 to 0000000000987e7b
  DW_CFA_def_cfa: r7 (rsp) ofs 8
  DW_CFA_nop

00010d38 000000000000001c 00010d3c FDE cie=00000000 pc=0000000000987e7c..0000000000987eb9
  DW_CFA_advance_loc: 1 to 0000000000987e7d
  DW_CFA_def_cfa_offset: 16
  DW_CFA_offset: r6 (rbp) at cfa-16
  DW_CFA_advance_loc: 3 to 0000000000987e80
  DW_CFA_def_cfa_register: r6 (rbp)
  DW_CFA_advance_loc: 56 to 0000000000987eb8
  DW_CFA_def_cfa: r7 (rsp) ofs 8
  DW_CFA_nop
  DW_CFA_nop
  DW_CFA_nop

00010d58 000000000000001c 00010d5c FDE cie=00000000 pc=0000000000987eb9..0000000000987f17
  DW_CFA_advance_loc: 1 to 0000000000987eba
  DW_CFA_def_cfa_offset: 16
  DW_CFA_offset: r6 (rbp) at cfa-16
  DW_CFA_advance_loc: 3 to 0000000000987ebd
  DW_CFA_def_cfa_register: r6 (rbp)
  DW_CFA_advance_loc1: 89 to 0000000000987f16
  DW_CFA_def_cfa: r7 (rsp) ofs 8
  DW_CFA_nop
  DW_CFA_nop

00010d78 000000000000001c 00010d7c FDE cie=00000000 pc=0000000000987f17..0000000000987f4f
  DW_CFA_advance_loc: 1 to 0000000000987f18
  DW_CFA_def_cfa_offset: 16
  DW_CFA_offset: r6 (rbp) at cfa-16
  DW_CFA_advance_loc: 3 to 0000000000987f1b
  DW_CFA_def_cfa_register: r6 (rbp)
  DW_CFA_advance_loc: 51 to 0000000000987f4e
  DW_CFA_def_cfa: r7 (rsp) ofs 8
  DW_CFA_nop
  DW_CFA_nop
  DW_CFA_nop

00010d98 000000000000001c 00010d9c FDE cie=00000000 pc=0000000000987f4f..0000000000987fb9
  DW_CFA_advance_loc: 1 to 0000000000987f50
  DW_CFA_def_cfa_offset: 16
  DW_CFA_offset: r6 (rbp) at cfa-16
  DW_CFA_advance_loc: 3 to 0000000000987f53
  DW_CFA_def_cfa_register: r6 (rbp)
  DW_CFA_advance_loc1: 101 to 0000000000987fb8
  DW_CFA_def_cfa: r7 (rsp) ofs 8
  DW_CFA_nop
  DW_CFA_nop

00010db8 000000000000001c 00010dbc FDE cie=00000000 pc=0000000000987fb9..0000000000988097
  DW_CFA_advance_loc: 1 to 0000000000987fba
  DW_CFA_def_cfa_offset: 16
  DW_CFA_offset: r6 (rbp) at cfa-16
  DW_CFA_advance_loc: 3 to 0000000000987fbd
  DW_CFA_def_cfa_register: r6 (rbp)
  DW_CFA_advance_loc1: 217 to 0000000000988096
  DW_CFA_def_cfa: r7 (rsp) ofs 8
  DW_CFA_nop
  DW_CFA_nop

00010dd8 0000000000000020 00010ddc FDE cie=00000000 pc=0000000000988097..0000000000988201
  DW_CFA_advance_loc: 1 to 0000000000988098
  DW_CFA_def_cfa_offset: 16
  DW_CFA_offset: r6 (rbp) at cfa-16
  DW_CFA_advance_loc: 3 to 000000000098809b
  DW_CFA_def_cfa_register: r6 (rbp)
  DW_CFA_advance_loc: 7 to 00000000009880a2
  DW_CFA_offset: r12 (r12) at cfa-24
  DW_CFA_offset: r3 (rbx) at cfa-32
  DW_CFA_advance_loc2: 350 to 0000000000988200
  DW_CFA_def_cfa: r7 (rsp) ofs 8

00010dfc 000000000000001c 00010e00 FDE cie=00000000 pc=0000000000988201..0000000000988298
  DW_CFA_advance_loc: 1 to 0000000000988202
  DW_CFA_def_cfa_offset: 16
  DW_CFA_offset: r6 (rbp) at cfa-16
  DW_CFA_advance_loc: 3 to 0000000000988205
  DW_CFA_def_cfa_register: r6 (rbp)
  DW_CFA_advance_loc1: 146 to 0000000000988297
  DW_CFA_def_cfa: r7 (rsp) ofs 8
  DW_CFA_nop
  DW_CFA_nop

00010e1c 000000000000001c 00010e20 FDE cie=00000000 pc=0000000000988298..000000000098836c
  DW_CFA_advance_loc: 1 to 0000000000988299
  DW_CFA_def_cfa_offset: 16
  DW_CFA_offset: r6 (rbp) at cfa-16
  DW_CFA_advance_loc: 3 to 000000000098829c
  DW_CFA_def_cfa_register: r6 (rbp)
  DW_CFA_advance_loc1: 207 to 000000000098836b
  DW_CFA_def_cfa: r7 (rsp) ofs 8
  DW_CFA_nop
  DW_CFA_nop

00010e3c 000000000000001c 00010e40 FDE cie=00000000 pc=000000000098836c..000000000098843d
  DW_CFA_advance_loc: 1 to 000000000098836d
  DW_CFA_def_cfa_offset: 16
  DW_CFA_offset: r6 (rbp) at cfa-16
  DW_CFA_advance_loc: 3 to 0000000000988370
  DW_CFA_def_cfa_register: r6 (rbp)
  DW_CFA_advance_loc1: 204 to 000000000098843c
  DW_CFA_def_cfa: r7 (rsp) ofs 8
  DW_CFA_nop
  DW_CFA_nop

00010e5c 000000000000001c 00010e60 FDE cie=00000000 pc=000000000098843d..00000000009884b2
  DW_CFA_advance_loc: 1 to 000000000098843e
  DW_CFA_def_cfa_offset: 16
  DW_CFA_offset: r6 (rbp) at cfa-16
  DW_CFA_advance_loc: 3 to 0000000000988441
  DW_CFA_def_cfa_register: r6 (rbp)
  DW_CFA_advance_loc1: 112 to 00000000009884b1
  DW_CFA_def_cfa: r7 (rsp) ofs 8
  DW_CFA_nop
  DW_CFA_nop

00010e7c 000000000000001c 00010e80 FDE cie=00000000 pc=00000000009884b2..00000000009884d2
  DW_CFA_advance_loc: 1 to 00000000009884b3
  DW_CFA_def_cfa_offset: 16
  DW_CFA_offset: r6 (rbp) at cfa-16
  DW_CFA_advance_loc: 3 to 00000000009884b6
  DW_CFA_def_cfa_register: r6 (rbp)
  DW_CFA_advance_loc: 27 to 00000000009884d1
  DW_CFA_def_cfa: r7 (rsp) ofs 8
  DW_CFA_nop
  DW_CFA_nop
  DW_CFA_nop

00010e9c 000000000000001c 00010ea0 FDE cie=00000000 pc=00000000009884d2..0000000000988558
  DW_CFA_advance_loc: 1 to 00000000009884d3
  DW_CFA_def_cfa_offset: 16
  DW_CFA_offset: r6 (rbp) at cfa-16
  DW_CFA_advance_loc: 3 to 00000000009884d6
  DW_CFA_def_cfa_register: r6 (rbp)
  DW_CFA_advance_loc1: 129 to 0000000000988557
  DW_CFA_def_cfa: r7 (rsp) ofs 8
  DW_CFA_nop
  DW_CFA_nop

00010ebc 000000000000001c 00010ec0 FDE cie=00000000 pc=0000000000988558..00000000009885d7
  DW_CFA_advance_loc: 1 to 0000000000988559
  DW_CFA_def_cfa_offset: 16
  DW_CFA_offset: r6 (rbp) at cfa-16
  DW_CFA_advance_loc: 3 to 000000000098855c
  DW_CFA_def_cfa_register: r6 (rbp)
  DW_CFA_advance_loc1: 122 to 00000000009885d6
  DW_CFA_def_cfa: r7 (rsp) ofs 8
  DW_CFA_nop
  DW_CFA_nop

00010edc 000000000000001c 00010ee0 FDE cie=00000000 pc=00000000009885d7..00000000009885f7
  DW_CFA_advance_loc: 1 to 00000000009885d8
  DW_CFA_def_cfa_offset: 16
  DW_CFA_offset: r6 (rbp) at cfa-16
  DW_CFA_advance_loc: 3 to 00000000009885db
  DW_CFA_def_cfa_register: r6 (rbp)
  DW_CFA_advance_loc: 27 to 00000000009885f6
  DW_CFA_def_cfa: r7 (rsp) ofs 8
  DW_CFA_nop
  DW_CFA_nop
  DW_CFA_nop

00010efc 000000000000001c 00010f00 FDE cie=00000000 pc=00000000009885f7..0000000000988788
  DW_CFA_advance_loc: 1 to 00000000009885f8
  DW_CFA_def_cfa_offset: 16
  DW_CFA_offset: r6 (rbp) at cfa-16
  DW_CFA_advance_loc: 3 to 00000000009885fb
  DW_CFA_def_cfa_register: r6 (rbp)
  DW_CFA_advance_loc2: 396 to 0000000000988787
  DW_CFA_def_cfa: r7 (rsp) ofs 8
  DW_CFA_nop

00010f1c 000000000000001c 00010f20 FDE cie=00000000 pc=0000000000988788..0000000000988807
  DW_CFA_advance_loc: 1 to 0000000000988789
  DW_CFA_def_cfa_offset: 16
  DW_CFA_offset: r6 (rbp) at cfa-16
  DW_CFA_advance_loc: 3 to 000000000098878c
  DW_CFA_def_cfa_register: r6 (rbp)
  DW_CFA_advance_loc1: 122 to 0000000000988806
  DW_CFA_def_cfa: r7 (rsp) ofs 8
  DW_CFA_nop
  DW_CFA_nop

00010f3c 000000000000001c 00010f40 FDE cie=00000000 pc=0000000000988807..0000000000988933
  DW_CFA_advance_loc: 1 to 0000000000988808
  DW_CFA_def_cfa_offset: 16
  DW_CFA_offset: r6 (rbp) at cfa-16
  DW_CFA_advance_loc: 3 to 000000000098880b
  DW_CFA_def_cfa_register: r6 (rbp)
  DW_CFA_advance_loc2: 295 to 0000000000988932
  DW_CFA_def_cfa: r7 (rsp) ofs 8
  DW_CFA_nop

00010f5c 0000000000000020 00010f60 FDE cie=00000000 pc=0000000000988933..0000000000988b20
  DW_CFA_advance_loc: 1 to 0000000000988934
  DW_CFA_def_cfa_offset: 16
  DW_CFA_offset: r6 (rbp) at cfa-16
  DW_CFA_advance_loc: 3 to 0000000000988937
  DW_CFA_def_cfa_register: r6 (rbp)
  DW_CFA_advance_loc: 1 to 0000000000988938
  DW_CFA_offset: r3 (rbx) at cfa-24
  DW_CFA_advance_loc2: 487 to 0000000000988b1f
  DW_CFA_def_cfa: r7 (rsp) ofs 8
  DW_CFA_nop
  DW_CFA_nop

00010f80 000000000000001c 00010f84 FDE cie=00000000 pc=0000000000988b20..0000000000988dec
  DW_CFA_advance_loc: 1 to 0000000000988b21
  DW_CFA_def_cfa_offset: 16
  DW_CFA_offset: r6 (rbp) at cfa-16
  DW_CFA_advance_loc: 3 to 0000000000988b24
  DW_CFA_def_cfa_register: r6 (rbp)
  DW_CFA_advance_loc2: 711 to 0000000000988deb
  DW_CFA_def_cfa: r7 (rsp) ofs 8
  DW_CFA_nop

00010fa0 000000000000001c 00010fa4 FDE cie=00000000 pc=0000000000988dec..000000000098915d
  DW_CFA_advance_loc: 1 to 0000000000988ded
  DW_CFA_def_cfa_offset: 16
  DW_CFA_offset: r6 (rbp) at cfa-16
  DW_CFA_advance_loc: 3 to 0000000000988df0
  DW_CFA_def_cfa_register: r6 (rbp)
  DW_CFA_advance_loc2: 876 to 000000000098915c
  DW_CFA_def_cfa: r7 (rsp) ofs 8
  DW_CFA_nop

00010fc0 000000000000001c 00010fc4 FDE cie=00000000 pc=000000000098915d..0000000000989312
  DW_CFA_advance_loc: 1 to 000000000098915e
  DW_CFA_def_cfa_offset: 16
  DW_CFA_offset: r6 (rbp) at cfa-16
  DW_CFA_advance_loc: 3 to 0000000000989161
  DW_CFA_def_cfa_register: r6 (rbp)
  DW_CFA_advance_loc2: 432 to 0000000000989311
  DW_CFA_def_cfa: r7 (rsp) ofs 8
  DW_CFA_nop

00010fe0 000000000000001c 00010fe4 FDE cie=00000000 pc=0000000000989312..000000000098939f
  DW_CFA_advance_loc: 1 to 0000000000989313
  DW_CFA_def_cfa_offset: 16
  DW_CFA_offset: r6 (rbp) at cfa-16
  DW_CFA_advance_loc: 3 to 0000000000989316
  DW_CFA_def_cfa_register: r6 (rbp)
  DW_CFA_advance_loc1: 136 to 000000000098939e
  DW_CFA_def_cfa: r7 (rsp) ofs 8
  DW_CFA_nop
  DW_CFA_nop

00011000 000000000000001c 00011004 FDE cie=00000000 pc=000000000098939f..000000000098966f
  DW_CFA_advance_loc: 1 to 00000000009893a0
  DW_CFA_def_cfa_offset: 16
  DW_CFA_offset: r6 (rbp) at cfa-16
  DW_CFA_advance_loc: 3 to 00000000009893a3
  DW_CFA_def_cfa_register: r6 (rbp)
  DW_CFA_advance_loc2: 715 to 000000000098966e
  DW_CFA_def_cfa: r7 (rsp) ofs 8
  DW_CFA_nop

00011020 000000000000001c 00011024 FDE cie=00000000 pc=000000000098966f..0000000000989778
  DW_CFA_advance_loc: 1 to 0000000000989670
  DW_CFA_def_cfa_offset: 16
  DW_CFA_offset: r6 (rbp) at cfa-16
  DW_CFA_advance_loc: 3 to 0000000000989673
  DW_CFA_def_cfa_register: r6 (rbp)
  DW_CFA_advance_loc2: 260 to 0000000000989777
  DW_CFA_def_cfa: r7 (rsp) ofs 8
  DW_CFA_nop

00011040 000000000000001c 00011044 FDE cie=00000000 pc=0000000000989778..00000000009897af
  DW_CFA_advance_loc: 1 to 0000000000989779
  DW_CFA_def_cfa_offset: 16
  DW_CFA_offset: r6 (rbp) at cfa-16
  DW_CFA_advance_loc: 3 to 000000000098977c
  DW_CFA_def_cfa_register: r6 (rbp)
  DW_CFA_advance_loc: 50 to 00000000009897ae
  DW_CFA_def_cfa: r7 (rsp) ofs 8
  DW_CFA_nop
  DW_CFA_nop
  DW_CFA_nop

00011060 000000000000001c 00011064 FDE cie=00000000 pc=00000000009897af..00000000009897fe
  DW_CFA_advance_loc: 1 to 00000000009897b0
  DW_CFA_def_cfa_offset: 16
  DW_CFA_offset: r6 (rbp) at cfa-16
  DW_CFA_advance_loc: 3 to 00000000009897b3
  DW_CFA_def_cfa_register: r6 (rbp)
  DW_CFA_advance_loc1: 74 to 00000000009897fd
  DW_CFA_def_cfa: r7 (rsp) ofs 8
  DW_CFA_nop
  DW_CFA_nop

00011080 000000000000001c 00011084 FDE cie=00000000 pc=00000000009897fe..00000000009898b2
  DW_CFA_advance_loc: 1 to 00000000009897ff
  DW_CFA_def_cfa_offset: 16
  DW_CFA_offset: r6 (rbp) at cfa-16
  DW_CFA_advance_loc: 3 to 0000000000989802
  DW_CFA_def_cfa_register: r6 (rbp)
  DW_CFA_advance_loc1: 175 to 00000000009898b1
  DW_CFA_def_cfa: r7 (rsp) ofs 8
  DW_CFA_nop
  DW_CFA_nop

000110a0 000000000000001c 000110a4 FDE cie=00000000 pc=00000000009898b2..0000000000989902
  DW_CFA_advance_loc: 1 to 00000000009898b3
  DW_CFA_def_cfa_offset: 16
  DW_CFA_offset: r6 (rbp) at cfa-16
  DW_CFA_advance_loc: 3 to 00000000009898b6
  DW_CFA_def_cfa_register: r6 (rbp)
  DW_CFA_advance_loc1: 75 to 0000000000989901
  DW_CFA_def_cfa: r7 (rsp) ofs 8
  DW_CFA_nop
  DW_CFA_nop

000110c0 000000000000001c 000110c4 FDE cie=00000000 pc=0000000000989902..0000000000989a0e
  DW_CFA_advance_loc: 1 to 0000000000989903
  DW_CFA_def_cfa_offset: 16
  DW_CFA_offset: r6 (rbp) at cfa-16
  DW_CFA_advance_loc: 3 to 0000000000989906
  DW_CFA_def_cfa_register: r6 (rbp)
  DW_CFA_advance_loc2: 263 to 0000000000989a0d
  DW_CFA_def_cfa: r7 (rsp) ofs 8
  DW_CFA_nop

000110e0 000000000000001c 000110e4 FDE cie=00000000 pc=0000000000989a0e..0000000000989a9a
  DW_CFA_advance_loc: 1 to 0000000000989a0f
  DW_CFA_def_cfa_offset: 16
  DW_CFA_offset: r6 (rbp) at cfa-16
  DW_CFA_advance_loc: 3 to 0000000000989a12
  DW_CFA_def_cfa_register: r6 (rbp)
  DW_CFA_advance_loc1: 135 to 0000000000989a99
  DW_CFA_def_cfa: r7 (rsp) ofs 8
  DW_CFA_nop
  DW_CFA_nop

00011100 000000000000001c 00011104 FDE cie=00000000 pc=0000000000989a9a..0000000000989d1b
  DW_CFA_advance_loc: 1 to 0000000000989a9b
  DW_CFA_def_cfa_offset: 16
  DW_CFA_offset: r6 (rbp) at cfa-16
  DW_CFA_advance_loc: 3 to 0000000000989a9e
  DW_CFA_def_cfa_register: r6 (rbp)
  DW_CFA_advance_loc2: 636 to 0000000000989d1a
  DW_CFA_def_cfa: r7 (rsp) ofs 8
  DW_CFA_nop

00011120 000000000000001c 00011124 FDE cie=00000000 pc=0000000000989d1b..0000000000989ef3
  DW_CFA_advance_loc: 1 to 0000000000989d1c
  DW_CFA_def_cfa_offset: 16
  DW_CFA_offset: r6 (rbp) at cfa-16
  DW_CFA_advance_loc: 3 to 0000000000989d1f
  DW_CFA_def_cfa_register: r6 (rbp)
  DW_CFA_advance_loc2: 467 to 0000000000989ef2
  DW_CFA_def_cfa: r7 (rsp) ofs 8
  DW_CFA_nop

00011140 000000000000001c 00011144 FDE cie=00000000 pc=0000000000989ef3..0000000000989fd5
  DW_CFA_advance_loc: 1 to 0000000000989ef4
  DW_CFA_def_cfa_offset: 16
  DW_CFA_offset: r6 (rbp) at cfa-16
  DW_CFA_advance_loc: 3 to 0000000000989ef7
  DW_CFA_def_cfa_register: r6 (rbp)
  DW_CFA_advance_loc1: 221 to 0000000000989fd4
  DW_CFA_def_cfa: r7 (rsp) ofs 8
  DW_CFA_nop
  DW_CFA_nop

00011160 000000000000001c 00011164 FDE cie=00000000 pc=0000000000989fd5..000000000098a041
  DW_CFA_advance_loc: 1 to 0000000000989fd6
  DW_CFA_def_cfa_offset: 16
  DW_CFA_offset: r6 (rbp) at cfa-16
  DW_CFA_advance_loc: 3 to 0000000000989fd9
  DW_CFA_def_cfa_register: r6 (rbp)
  DW_CFA_advance_loc1: 103 to 000000000098a040
  DW_CFA_def_cfa: r7 (rsp) ofs 8
  DW_CFA_nop
  DW_CFA_nop

00011180 000000000000001c 00011184 FDE cie=00000000 pc=000000000098a041..000000000098a6db
  DW_CFA_advance_loc: 1 to 000000000098a042
  DW_CFA_def_cfa_offset: 16
  DW_CFA_offset: r6 (rbp) at cfa-16
  DW_CFA_advance_loc: 3 to 000000000098a045
  DW_CFA_def_cfa_register: r6 (rbp)
  DW_CFA_advance_loc2: 1685 to 000000000098a6da
  DW_CFA_def_cfa: r7 (rsp) ofs 8
  DW_CFA_nop

000111a0 000000000000001c 000111a4 FDE cie=00000000 pc=000000000098a6db..000000000098a733
  DW_CFA_advance_loc: 1 to 000000000098a6dc
  DW_CFA_def_cfa_offset: 16
  DW_CFA_offset: r6 (rbp) at cfa-16
  DW_CFA_advance_loc: 3 to 000000000098a6df
  DW_CFA_def_cfa_register: r6 (rbp)
  DW_CFA_advance_loc1: 83 to 000000000098a732
  DW_CFA_def_cfa: r7 (rsp) ofs 8
  DW_CFA_nop
  DW_CFA_nop

000111c0 000000000000001c 000111c4 FDE cie=00000000 pc=000000000098a733..000000000098a9c8
  DW_CFA_advance_loc: 1 to 000000000098a734
  DW_CFA_def_cfa_offset: 16
  DW_CFA_offset: r6 (rbp) at cfa-16
  DW_CFA_advance_loc: 3 to 000000000098a737
  DW_CFA_def_cfa_register: r6 (rbp)
  DW_CFA_advance_loc2: 656 to 000000000098a9c7
  DW_CFA_def_cfa: r7 (rsp) ofs 8
  DW_CFA_nop

000111e0 000000000000001c 000111e4 FDE cie=00000000 pc=000000000098a9c8..000000000098aa78
  DW_CFA_advance_loc: 1 to 000000000098a9c9
  DW_CFA_def_cfa_offset: 16
  DW_CFA_offset: r6 (rbp) at cfa-16
  DW_CFA_advance_loc: 3 to 000000000098a9cc
  DW_CFA_def_cfa_register: r6 (rbp)
  DW_CFA_advance_loc1: 171 to 000000000098aa77
  DW_CFA_def_cfa: r7 (rsp) ofs 8
  DW_CFA_nop
  DW_CFA_nop

00011200 000000000000001c 00011204 FDE cie=00000000 pc=000000000098aa78..000000000098ab10
  DW_CFA_advance_loc: 1 to 000000000098aa79
  DW_CFA_def_cfa_offset: 16
  DW_CFA_offset: r6 (rbp) at cfa-16
  DW_CFA_advance_loc: 3 to 000000000098aa7c
  DW_CFA_def_cfa_register: r6 (rbp)
  DW_CFA_advance_loc1: 147 to 000000000098ab0f
  DW_CFA_def_cfa: r7 (rsp) ofs 8
  DW_CFA_nop
  DW_CFA_nop

00011220 000000000000001c 00011224 FDE cie=00000000 pc=000000000098ab10..000000000098abb7
  DW_CFA_advance_loc: 1 to 000000000098ab11
  DW_CFA_def_cfa_offset: 16
  DW_CFA_offset: r6 (rbp) at cfa-16
  DW_CFA_advance_loc: 3 to 000000000098ab14
  DW_CFA_def_cfa_register: r6 (rbp)
  DW_CFA_advance_loc1: 162 to 000000000098abb6
  DW_CFA_def_cfa: r7 (rsp) ofs 8
  DW_CFA_nop
  DW_CFA_nop

00011240 000000000000001c 00011244 FDE cie=00000000 pc=000000000098abb7..000000000098ac92
  DW_CFA_advance_loc: 1 to 000000000098abb8
  DW_CFA_def_cfa_offset: 16
  DW_CFA_offset: r6 (rbp) at cfa-16
  DW_CFA_advance_loc: 3 to 000000000098abbb
  DW_CFA_def_cfa_register: r6 (rbp)
  DW_CFA_advance_loc1: 214 to 000000000098ac91
  DW_CFA_def_cfa: r7 (rsp) ofs 8
  DW_CFA_nop
  DW_CFA_nop

00011260 000000000000001c 00011264 FDE cie=00000000 pc=000000000098ac92..000000000098b2aa
  DW_CFA_advance_loc: 1 to 000000000098ac93
  DW_CFA_def_cfa_offset: 16
  DW_CFA_offset: r6 (rbp) at cfa-16
  DW_CFA_advance_loc: 3 to 000000000098ac96
  DW_CFA_def_cfa_register: r6 (rbp)
  DW_CFA_advance_loc2: 1555 to 000000000098b2a9
  DW_CFA_def_cfa: r7 (rsp) ofs 8
  DW_CFA_nop

00011280 000000000000001c 00011284 FDE cie=00000000 pc=000000000098b2aa..000000000098b56b
  DW_CFA_advance_loc: 1 to 000000000098b2ab
  DW_CFA_def_cfa_offset: 16
  DW_CFA_offset: r6 (rbp) at cfa-16
  DW_CFA_advance_loc: 3 to 000000000098b2ae
  DW_CFA_def_cfa_register: r6 (rbp)
  DW_CFA_advance_loc2: 700 to 000000000098b56a
  DW_CFA_def_cfa: r7 (rsp) ofs 8
  DW_CFA_nop

000112a0 000000000000001c 000112a4 FDE cie=00000000 pc=000000000098b56b..000000000098ba8d
  DW_CFA_advance_loc: 1 to 000000000098b56c
  DW_CFA_def_cfa_offset: 16
  DW_CFA_offset: r6 (rbp) at cfa-16
  DW_CFA_advance_loc: 3 to 000000000098b56f
  DW_CFA_def_cfa_register: r6 (rbp)
  DW_CFA_advance_loc2: 1309 to 000000000098ba8c
  DW_CFA_def_cfa: r7 (rsp) ofs 8
  DW_CFA_nop

000112c0 000000000000001c 000112c4 FDE cie=00000000 pc=000000000098ba8d..000000000098bcd6
  DW_CFA_advance_loc: 1 to 000000000098ba8e
  DW_CFA_def_cfa_offset: 16
  DW_CFA_offset: r6 (rbp) at cfa-16
  DW_CFA_advance_loc: 3 to 000000000098ba91
  DW_CFA_def_cfa_register: r6 (rbp)
  DW_CFA_advance_loc2: 580 to 000000000098bcd5
  DW_CFA_def_cfa: r7 (rsp) ofs 8
  DW_CFA_nop

000112e0 000000000000001c 000112e4 FDE cie=00000000 pc=000000000098bcd6..000000000098bf34
  DW_CFA_advance_loc: 1 to 000000000098bcd7
  DW_CFA_def_cfa_offset: 16
  DW_CFA_offset: r6 (rbp) at cfa-16
  DW_CFA_advance_loc: 3 to 000000000098bcda
  DW_CFA_def_cfa_register: r6 (rbp)
  DW_CFA_advance_loc2: 601 to 000000000098bf33
  DW_CFA_def_cfa: r7 (rsp) ofs 8
  DW_CFA_nop

00011300 0000000000000020 00011304 FDE cie=00000000 pc=000000000098bf34..000000000098c0fd
  DW_CFA_advance_loc: 1 to 000000000098bf35
  DW_CFA_def_cfa_offset: 16
  DW_CFA_offset: r6 (rbp) at cfa-16
  DW_CFA_advance_loc: 3 to 000000000098bf38
  DW_CFA_def_cfa_register: r6 (rbp)
  DW_CFA_advance_loc: 5 to 000000000098bf3d
  DW_CFA_offset: r3 (rbx) at cfa-24
  DW_CFA_advance_loc2: 447 to 000000000098c0fc
  DW_CFA_def_cfa: r7 (rsp) ofs 8
  DW_CFA_nop
  DW_CFA_nop

00011324 0000000000000020 00011328 FDE cie=00000000 pc=000000000098c0fd..000000000098c759
  DW_CFA_advance_loc: 1 to 000000000098c0fe
  DW_CFA_def_cfa_offset: 16
  DW_CFA_offset: r6 (rbp) at cfa-16
  DW_CFA_advance_loc: 3 to 000000000098c101
  DW_CFA_def_cfa_register: r6 (rbp)
  DW_CFA_advance_loc: 8 to 000000000098c109
  DW_CFA_offset: r3 (rbx) at cfa-24
  DW_CFA_advance_loc2: 1615 to 000000000098c758
  DW_CFA_def_cfa: r7 (rsp) ofs 8
  DW_CFA_nop
  DW_CFA_nop

00011348 0000000000000020 0001134c FDE cie=00000000 pc=000000000098c759..000000000098cb10
  DW_CFA_advance_loc: 1 to 000000000098c75a
  DW_CFA_def_cfa_offset: 16
  DW_CFA_offset: r6 (rbp) at cfa-16
  DW_CFA_advance_loc: 3 to 000000000098c75d
  DW_CFA_def_cfa_register: r6 (rbp)
  DW_CFA_advance_loc: 8 to 000000000098c765
  DW_CFA_offset: r3 (rbx) at cfa-24
  DW_CFA_advance_loc2: 938 to 000000000098cb0f
  DW_CFA_def_cfa: r7 (rsp) ofs 8
  DW_CFA_nop
  DW_CFA_nop

0001136c 000000000000001c 00011370 FDE cie=00000000 pc=000000000098cb10..000000000098cf4a
  DW_CFA_advance_loc: 1 to 000000000098cb11
  DW_CFA_def_cfa_offset: 16
  DW_CFA_offset: r6 (rbp) at cfa-16
  DW_CFA_advance_loc: 3 to 000000000098cb14
  DW_CFA_def_cfa_register: r6 (rbp)
  DW_CFA_advance_loc2: 1077 to 000000000098cf49
  DW_CFA_def_cfa: r7 (rsp) ofs 8
  DW_CFA_nop

0001138c 000000000000001c 00011390 FDE cie=00000000 pc=000000000098cf4a..000000000098cf87
  DW_CFA_advance_loc: 1 to 000000000098cf4b
  DW_CFA_def_cfa_offset: 16
  DW_CFA_offset: r6 (rbp) at cfa-16
  DW_CFA_advance_loc: 3 to 000000000098cf4e
  DW_CFA_def_cfa_register: r6 (rbp)
  DW_CFA_advance_loc: 56 to 000000000098cf86
  DW_CFA_def_cfa: r7 (rsp) ofs 8
  DW_CFA_nop
  DW_CFA_nop
  DW_CFA_nop

000113ac 000000000000001c 000113b0 FDE cie=00000000 pc=000000000098cf87..000000000098d01d
  DW_CFA_advance_loc: 1 to 000000000098cf88
  DW_CFA_def_cfa_offset: 16
  DW_CFA_offset: r6 (rbp) at cfa-16
  DW_CFA_advance_loc: 3 to 000000000098cf8b
  DW_CFA_def_cfa_register: r6 (rbp)
  DW_CFA_advance_loc1: 145 to 000000000098d01c
  DW_CFA_def_cfa: r7 (rsp) ofs 8
  DW_CFA_nop
  DW_CFA_nop

000113cc 000000000000001c 000113d0 FDE cie=00000000 pc=000000000098d01d..000000000098d031
  DW_CFA_advance_loc: 1 to 000000000098d01e
  DW_CFA_def_cfa_offset: 16
  DW_CFA_offset: r6 (rbp) at cfa-16
  DW_CFA_advance_loc: 3 to 000000000098d021
  DW_CFA_def_cfa_register: r6 (rbp)
  DW_CFA_advance_loc: 15 to 000000000098d030
  DW_CFA_def_cfa: r7 (rsp) ofs 8
  DW_CFA_nop
  DW_CFA_nop
  DW_CFA_nop

000113ec 000000000000001c 000113f0 FDE cie=00000000 pc=000000000098d031..000000000098d045
  DW_CFA_advance_loc: 1 to 000000000098d032
  DW_CFA_def_cfa_offset: 16
  DW_CFA_offset: r6 (rbp) at cfa-16
  DW_CFA_advance_loc: 3 to 000000000098d035
  DW_CFA_def_cfa_register: r6 (rbp)
  DW_CFA_advance_loc: 15 to 000000000098d044
  DW_CFA_def_cfa: r7 (rsp) ofs 8
  DW_CFA_nop
  DW_CFA_nop
  DW_CFA_nop

0001140c 000000000000001c 00011410 FDE cie=00000000 pc=000000000098d045..000000000098d059
  DW_CFA_advance_loc: 1 to 000000000098d046
  DW_CFA_def_cfa_offset: 16
  DW_CFA_offset: r6 (rbp) at cfa-16
  DW_CFA_advance_loc: 3 to 000000000098d049
  DW_CFA_def_cfa_register: r6 (rbp)
  DW_CFA_advance_loc: 15 to 000000000098d058
  DW_CFA_def_cfa: r7 (rsp) ofs 8
  DW_CFA_nop
  DW_CFA_nop
  DW_CFA_nop

0001142c 000000000000001c 00011430 FDE cie=00000000 pc=000000000098d059..000000000098d29e
  DW_CFA_advance_loc: 1 to 000000000098d05a
  DW_CFA_def_cfa_offset: 16
  DW_CFA_offset: r6 (rbp) at cfa-16
  DW_CFA_advance_loc: 3 to 000000000098d05d
  DW_CFA_def_cfa_register: r6 (rbp)
  DW_CFA_advance_loc2: 576 to 000000000098d29d
  DW_CFA_def_cfa: r7 (rsp) ofs 8
  DW_CFA_nop

0001144c 000000000000001c 00011450 FDE cie=00000000 pc=000000000098d29e..000000000098d4c6
  DW_CFA_advance_loc: 1 to 000000000098d29f
  DW_CFA_def_cfa_offset: 16
  DW_CFA_offset: r6 (rbp) at cfa-16
  DW_CFA_advance_loc: 3 to 000000000098d2a2
  DW_CFA_def_cfa_register: r6 (rbp)
  DW_CFA_advance_loc2: 547 to 000000000098d4c5
  DW_CFA_def_cfa: r7 (rsp) ofs 8
  DW_CFA_nop

0001146c 000000000000001c 00011470 FDE cie=00000000 pc=000000000098d4c6..000000000098d560
  DW_CFA_advance_loc: 1 to 000000000098d4c7
  DW_CFA_def_cfa_offset: 16
  DW_CFA_offset: r6 (rbp) at cfa-16
  DW_CFA_advance_loc: 3 to 000000000098d4ca
  DW_CFA_def_cfa_register: r6 (rbp)
  DW_CFA_advance_loc1: 149 to 000000000098d55f
  DW_CFA_def_cfa: r7 (rsp) ofs 8
  DW_CFA_nop
  DW_CFA_nop

0001148c 000000000000001c 00011490 FDE cie=00000000 pc=000000000098d560..000000000098d613
  DW_CFA_advance_loc: 1 to 000000000098d561
  DW_CFA_def_cfa_offset: 16
  DW_CFA_offset: r6 (rbp) at cfa-16
  DW_CFA_advance_loc: 3 to 000000000098d564
  DW_CFA_def_cfa_register: r6 (rbp)
  DW_CFA_advance_loc1: 174 to 000000000098d612
  DW_CFA_def_cfa: r7 (rsp) ofs 8
  DW_CFA_nop
  DW_CFA_nop

000114ac 000000000000001c 000114b0 FDE cie=00000000 pc=000000000098d613..000000000098d667
  DW_CFA_advance_loc: 1 to 000000000098d614
  DW_CFA_def_cfa_offset: 16
  DW_CFA_offset: r6 (rbp) at cfa-16
  DW_CFA_advance_loc: 3 to 000000000098d617
  DW_CFA_def_cfa_register: r6 (rbp)
  DW_CFA_advance_loc1: 79 to 000000000098d666
  DW_CFA_def_cfa: r7 (rsp) ofs 8
  DW_CFA_nop
  DW_CFA_nop

000114cc 000000000000001c 000114d0 FDE cie=00000000 pc=000000000098d667..000000000098d988
  DW_CFA_advance_loc: 1 to 000000000098d668
  DW_CFA_def_cfa_offset: 16
  DW_CFA_offset: r6 (rbp) at cfa-16
  DW_CFA_advance_loc: 3 to 000000000098d66b
  DW_CFA_def_cfa_register: r6 (rbp)
  DW_CFA_advance_loc2: 796 to 000000000098d987
  DW_CFA_def_cfa: r7 (rsp) ofs 8
  DW_CFA_nop

000114ec 000000000000001c 000114f0 FDE cie=00000000 pc=000000000098d988..000000000098da71
  DW_CFA_advance_loc: 1 to 000000000098d989
  DW_CFA_def_cfa_offset: 16
  DW_CFA_offset: r6 (rbp) at cfa-16
  DW_CFA_advance_loc: 3 to 000000000098d98c
  DW_CFA_def_cfa_register: r6 (rbp)
  DW_CFA_advance_loc1: 228 to 000000000098da70
  DW_CFA_def_cfa: r7 (rsp) ofs 8
  DW_CFA_nop
  DW_CFA_nop

0001150c 000000000000001c 00011510 FDE cie=00000000 pc=000000000098da71..000000000098db85
  DW_CFA_advance_loc: 1 to 000000000098da72
  DW_CFA_def_cfa_offset: 16
  DW_CFA_offset: r6 (rbp) at cfa-16
  DW_CFA_advance_loc: 3 to 000000000098da75
  DW_CFA_def_cfa_register: r6 (rbp)
  DW_CFA_advance_loc2: 271 to 000000000098db84
  DW_CFA_def_cfa: r7 (rsp) ofs 8
  DW_CFA_nop

0001152c 000000000000001c 00011530 FDE cie=00000000 pc=000000000098db85..000000000098dbbe
  DW_CFA_advance_loc: 1 to 000000000098db86
  DW_CFA_def_cfa_offset: 16
  DW_CFA_offset: r6 (rbp) at cfa-16
  DW_CFA_advance_loc: 3 to 000000000098db89
  DW_CFA_def_cfa_register: r6 (rbp)
  DW_CFA_advance_loc: 52 to 000000000098dbbd
  DW_CFA_def_cfa: r7 (rsp) ofs 8
  DW_CFA_nop
  DW_CFA_nop
  DW_CFA_nop

0001154c 000000000000001c 00011550 FDE cie=00000000 pc=000000000098dbbe..000000000098dbf7
  DW_CFA_advance_loc: 1 to 000000000098dbbf
  DW_CFA_def_cfa_offset: 16
  DW_CFA_offset: r6 (rbp) at cfa-16
  DW_CFA_advance_loc: 3 to 000000000098dbc2
  DW_CFA_def_cfa_register: r6 (rbp)
  DW_CFA_advance_loc: 52 to 000000000098dbf6
  DW_CFA_def_cfa: r7 (rsp) ofs 8
  DW_CFA_nop
  DW_CFA_nop
  DW_CFA_nop

0001156c 000000000000001c 00011570 FDE cie=00000000 pc=000000000098dbf7..000000000098dc1f
  DW_CFA_advance_loc: 1 to 000000000098dbf8
  DW_CFA_def_cfa_offset: 16
  DW_CFA_offset: r6 (rbp) at cfa-16
  DW_CFA_advance_loc: 3 to 000000000098dbfb
  DW_CFA_def_cfa_register: r6 (rbp)
  DW_CFA_advance_loc: 35 to 000000000098dc1e
  DW_CFA_def_cfa: r7 (rsp) ofs 8
  DW_CFA_nop
  DW_CFA_nop
  DW_CFA_nop

0001158c 000000000000001c 00011590 FDE cie=00000000 pc=000000000098dc1f..000000000098dcb4
  DW_CFA_advance_loc: 1 to 000000000098dc20
  DW_CFA_def_cfa_offset: 16
  DW_CFA_offset: r6 (rbp) at cfa-16
  DW_CFA_advance_loc: 3 to 000000000098dc23
  DW_CFA_def_cfa_register: r6 (rbp)
  DW_CFA_advance_loc1: 144 to 000000000098dcb3
  DW_CFA_def_cfa: r7 (rsp) ofs 8
  DW_CFA_nop
  DW_CFA_nop

000115ac 000000000000001c 000115b0 FDE cie=00000000 pc=000000000098dcb4..000000000098deae
  DW_CFA_advance_loc: 1 to 000000000098dcb5
  DW_CFA_def_cfa_offset: 16
  DW_CFA_offset: r6 (rbp) at cfa-16
  DW_CFA_advance_loc: 3 to 000000000098dcb8
  DW_CFA_def_cfa_register: r6 (rbp)
  DW_CFA_advance_loc2: 501 to 000000000098dead
  DW_CFA_def_cfa: r7 (rsp) ofs 8
  DW_CFA_nop

000115cc 000000000000001c 000115d0 FDE cie=00000000 pc=000000000098deae..000000000098e03a
  DW_CFA_advance_loc: 1 to 000000000098deaf
