  DW_CFA_advance_loc: 8 to 00000000009d8840
  DW_CFA_remember_state
  DW_CFA_def_cfa_offset: 8
  DW_CFA_advance_loc: 8 to 00000000009d8848
  DW_CFA_restore_state
  DW_CFA_advance_loc: 8 to 00000000009d8850
  DW_CFA_remember_state
  DW_CFA_def_cfa_offset: 8
  DW_CFA_advance_loc: 8 to 00000000009d8858
  DW_CFA_restore_state
  DW_CFA_advance_loc: 8 to 00000000009d8860
  DW_CFA_remember_state
  DW_CFA_def_cfa_offset: 8
  DW_CFA_advance_loc: 8 to 00000000009d8868
  DW_CFA_restore_state
  DW_CFA_advance_loc: 8 to 00000000009d8870
  DW_CFA_remember_state
  DW_CFA_def_cfa_offset: 8
  DW_CFA_advance_loc: 1 to 00000000009d8871
  DW_CFA_restore_state
  DW_CFA_advance_loc: 8 to 00000000009d8879
  DW_CFA_remember_state
  DW_CFA_def_cfa_offset: 8
  DW_CFA_advance_loc: 1 to 00000000009d887a
  DW_CFA_restore_state
  DW_CFA_advance_loc: 8 to 00000000009d8882
  DW_CFA_remember_state
  DW_CFA_def_cfa_offset: 8
  DW_CFA_advance_loc: 1 to 00000000009d8883
  DW_CFA_restore_state
  DW_CFA_advance_loc: 8 to 00000000009d888b
  DW_CFA_remember_state
  DW_CFA_def_cfa_offset: 8
  DW_CFA_advance_loc: 1 to 00000000009d888c
  DW_CFA_restore_state
  DW_CFA_advance_loc: 8 to 00000000009d8894
  DW_CFA_remember_state
  DW_CFA_def_cfa_offset: 8
  DW_CFA_advance_loc: 1 to 00000000009d8895
  DW_CFA_restore_state
  DW_CFA_advance_loc: 8 to 00000000009d889d
  DW_CFA_remember_state
  DW_CFA_def_cfa_offset: 8
  DW_CFA_advance_loc: 1 to 00000000009d889e
  DW_CFA_restore_state
  DW_CFA_advance_loc: 8 to 00000000009d88a6
  DW_CFA_remember_state
  DW_CFA_def_cfa_offset: 8
  DW_CFA_advance_loc: 1 to 00000000009d88a7
  DW_CFA_restore_state
  DW_CFA_advance_loc: 8 to 00000000009d88af
  DW_CFA_remember_state
  DW_CFA_def_cfa_offset: 8
  DW_CFA_advance_loc: 1 to 00000000009d88b0
  DW_CFA_restore_state
  DW_CFA_advance_loc: 8 to 00000000009d88b8
  DW_CFA_remember_state
  DW_CFA_def_cfa_offset: 8
  DW_CFA_advance_loc: 1 to 00000000009d88b9
  DW_CFA_restore_state
  DW_CFA_advance_loc: 8 to 00000000009d88c1
  DW_CFA_remember_state
  DW_CFA_def_cfa_offset: 8
  DW_CFA_advance_loc: 1 to 00000000009d88c2
  DW_CFA_restore_state
  DW_CFA_advance_loc: 8 to 00000000009d88ca
  DW_CFA_remember_state
  DW_CFA_def_cfa_offset: 8
  DW_CFA_advance_loc: 1 to 00000000009d88cb
  DW_CFA_restore_state
  DW_CFA_advance_loc: 8 to 00000000009d88d3
  DW_CFA_remember_state
  DW_CFA_def_cfa_offset: 8
  DW_CFA_advance_loc: 1 to 00000000009d88d4
  DW_CFA_restore_state
  DW_CFA_advance_loc: 8 to 00000000009d88dc
  DW_CFA_remember_state
  DW_CFA_def_cfa_offset: 8
  DW_CFA_advance_loc: 1 to 00000000009d88dd
  DW_CFA_restore_state
  DW_CFA_advance_loc: 8 to 00000000009d88e5
  DW_CFA_remember_state
  DW_CFA_def_cfa_offset: 8
  DW_CFA_advance_loc: 1 to 00000000009d88e6
  DW_CFA_restore_state
  DW_CFA_advance_loc: 8 to 00000000009d88ee
  DW_CFA_remember_state
  DW_CFA_def_cfa_offset: 8
  DW_CFA_advance_loc: 1 to 00000000009d88ef
  DW_CFA_restore_state
  DW_CFA_advance_loc: 8 to 00000000009d88f7
  DW_CFA_remember_state
  DW_CFA_def_cfa_offset: 8
  DW_CFA_advance_loc: 1 to 00000000009d88f8
  DW_CFA_restore_state
  DW_CFA_advance_loc: 8 to 00000000009d8900
  DW_CFA_remember_state
  DW_CFA_def_cfa_offset: 8
  DW_CFA_advance_loc: 1 to 00000000009d8901
  DW_CFA_restore_state
  DW_CFA_advance_loc: 8 to 00000000009d8909
  DW_CFA_remember_state
  DW_CFA_def_cfa_offset: 8
  DW_CFA_advance_loc: 1 to 00000000009d890a
  DW_CFA_restore_state
  DW_CFA_advance_loc: 8 to 00000000009d8912
  DW_CFA_remember_state
  DW_CFA_def_cfa_offset: 8
  DW_CFA_advance_loc: 1 to 00000000009d8913
  DW_CFA_restore_state
  DW_CFA_advance_loc: 8 to 00000000009d891b
  DW_CFA_remember_state
  DW_CFA_def_cfa_offset: 8
  DW_CFA_advance_loc: 1 to 00000000009d891c
  DW_CFA_restore_state
  DW_CFA_advance_loc: 8 to 00000000009d8924
  DW_CFA_remember_state
  DW_CFA_def_cfa_offset: 8
  DW_CFA_advance_loc: 1 to 00000000009d8925
  DW_CFA_restore_state
  DW_CFA_advance_loc: 8 to 00000000009d892d
  DW_CFA_remember_state
  DW_CFA_def_cfa_offset: 8
  DW_CFA_advance_loc: 1 to 00000000009d892e
  DW_CFA_restore_state
  DW_CFA_advance_loc: 8 to 00000000009d8936
  DW_CFA_remember_state
  DW_CFA_def_cfa_offset: 8
  DW_CFA_advance_loc: 1 to 00000000009d8937
  DW_CFA_restore_state
  DW_CFA_advance_loc: 8 to 00000000009d893f
  DW_CFA_remember_state
  DW_CFA_def_cfa_offset: 8
  DW_CFA_advance_loc: 1 to 00000000009d8940
  DW_CFA_restore_state
  DW_CFA_advance_loc: 8 to 00000000009d8948
  DW_CFA_remember_state
  DW_CFA_def_cfa_offset: 8
  DW_CFA_advance_loc: 1 to 00000000009d8949
  DW_CFA_restore_state
  DW_CFA_advance_loc: 8 to 00000000009d8951
  DW_CFA_remember_state
  DW_CFA_def_cfa_offset: 8
  DW_CFA_advance_loc: 1 to 00000000009d8952
  DW_CFA_restore_state
  DW_CFA_advance_loc: 8 to 00000000009d895a
  DW_CFA_remember_state
  DW_CFA_def_cfa_offset: 8
  DW_CFA_advance_loc: 1 to 00000000009d895b
  DW_CFA_restore_state
  DW_CFA_advance_loc: 8 to 00000000009d8963
  DW_CFA_remember_state
  DW_CFA_def_cfa_offset: 8
  DW_CFA_advance_loc: 1 to 00000000009d8964
  DW_CFA_restore_state
  DW_CFA_advance_loc: 8 to 00000000009d896c
  DW_CFA_remember_state
  DW_CFA_def_cfa_offset: 8
  DW_CFA_advance_loc: 1 to 00000000009d896d
  DW_CFA_restore_state
  DW_CFA_advance_loc: 8 to 00000000009d8975
  DW_CFA_remember_state
  DW_CFA_def_cfa_offset: 8
  DW_CFA_advance_loc: 1 to 00000000009d8976
  DW_CFA_restore_state
  DW_CFA_advance_loc: 8 to 00000000009d897e
  DW_CFA_remember_state
  DW_CFA_def_cfa_offset: 8
  DW_CFA_advance_loc: 1 to 00000000009d897f
  DW_CFA_restore_state
  DW_CFA_advance_loc: 8 to 00000000009d8987
  DW_CFA_remember_state
  DW_CFA_def_cfa_offset: 8
  DW_CFA_advance_loc: 1 to 00000000009d8988
  DW_CFA_restore_state
  DW_CFA_advance_loc: 8 to 00000000009d8990
  DW_CFA_remember_state
  DW_CFA_def_cfa_offset: 8
  DW_CFA_advance_loc: 1 to 00000000009d8991
  DW_CFA_restore_state
  DW_CFA_advance_loc: 8 to 00000000009d8999
  DW_CFA_remember_state
  DW_CFA_def_cfa_offset: 8
  DW_CFA_advance_loc: 1 to 00000000009d899a
  DW_CFA_restore_state
  DW_CFA_advance_loc: 8 to 00000000009d89a2
  DW_CFA_remember_state
  DW_CFA_def_cfa_offset: 8
  DW_CFA_advance_loc: 1 to 00000000009d89a3
  DW_CFA_restore_state
  DW_CFA_advance_loc: 8 to 00000000009d89ab
  DW_CFA_remember_state
  DW_CFA_def_cfa_offset: 8
  DW_CFA_advance_loc: 1 to 00000000009d89ac
  DW_CFA_restore_state
  DW_CFA_advance_loc: 8 to 00000000009d89b4
  DW_CFA_remember_state
  DW_CFA_def_cfa_offset: 8
  DW_CFA_advance_loc: 1 to 00000000009d89b5
  DW_CFA_restore_state
  DW_CFA_advance_loc: 8 to 00000000009d89bd
  DW_CFA_remember_state
  DW_CFA_def_cfa_offset: 8
  DW_CFA_advance_loc: 1 to 00000000009d89be
  DW_CFA_restore_state
  DW_CFA_advance_loc: 8 to 00000000009d89c6
  DW_CFA_remember_state
  DW_CFA_def_cfa_offset: 8
  DW_CFA_advance_loc: 1 to 00000000009d89c7
  DW_CFA_restore_state
  DW_CFA_advance_loc: 8 to 00000000009d89cf
  DW_CFA_remember_state
  DW_CFA_def_cfa_offset: 8
  DW_CFA_advance_loc: 1 to 00000000009d89d0
  DW_CFA_restore_state
  DW_CFA_advance_loc: 8 to 00000000009d89d8
  DW_CFA_remember_state
  DW_CFA_def_cfa_offset: 8
  DW_CFA_advance_loc: 1 to 00000000009d89d9
  DW_CFA_restore_state
  DW_CFA_advance_loc: 8 to 00000000009d89e1
  DW_CFA_remember_state
  DW_CFA_def_cfa_offset: 8
  DW_CFA_advance_loc: 1 to 00000000009d89e2
  DW_CFA_restore_state
  DW_CFA_advance_loc: 8 to 00000000009d89ea
  DW_CFA_remember_state
  DW_CFA_def_cfa_offset: 8
  DW_CFA_advance_loc: 1 to 00000000009d89eb
  DW_CFA_restore_state
  DW_CFA_advance_loc: 8 to 00000000009d89f3
  DW_CFA_remember_state
  DW_CFA_def_cfa_offset: 8
  DW_CFA_advance_loc: 1 to 00000000009d89f4
  DW_CFA_restore_state
  DW_CFA_advance_loc: 8 to 00000000009d89fc
  DW_CFA_remember_state
  DW_CFA_def_cfa_offset: 8
  DW_CFA_advance_loc: 1 to 00000000009d89fd
  DW_CFA_restore_state
  DW_CFA_advance_loc: 8 to 00000000009d8a05
  DW_CFA_remember_state
  DW_CFA_def_cfa_offset: 8
  DW_CFA_advance_loc: 1 to 00000000009d8a06
  DW_CFA_restore_state
  DW_CFA_advance_loc: 8 to 00000000009d8a0e
  DW_CFA_remember_state
  DW_CFA_def_cfa_offset: 8
  DW_CFA_advance_loc: 1 to 00000000009d8a0f
  DW_CFA_restore_state
  DW_CFA_advance_loc: 8 to 00000000009d8a17
  DW_CFA_remember_state
  DW_CFA_def_cfa_offset: 8
  DW_CFA_advance_loc: 1 to 00000000009d8a18
  DW_CFA_restore_state
  DW_CFA_advance_loc: 8 to 00000000009d8a20
  DW_CFA_remember_state
  DW_CFA_def_cfa_offset: 8
  DW_CFA_advance_loc: 1 to 00000000009d8a21
  DW_CFA_restore_state
  DW_CFA_advance_loc: 8 to 00000000009d8a29
  DW_CFA_remember_state
  DW_CFA_def_cfa_offset: 8
  DW_CFA_advance_loc: 1 to 00000000009d8a2a
  DW_CFA_restore_state
  DW_CFA_advance_loc: 8 to 00000000009d8a32
  DW_CFA_remember_state
  DW_CFA_def_cfa_offset: 8
  DW_CFA_advance_loc: 1 to 00000000009d8a33
  DW_CFA_restore_state
  DW_CFA_advance_loc: 8 to 00000000009d8a3b
  DW_CFA_remember_state
  DW_CFA_def_cfa_offset: 8
  DW_CFA_advance_loc: 1 to 00000000009d8a3c
  DW_CFA_restore_state
  DW_CFA_advance_loc: 8 to 00000000009d8a44
  DW_CFA_remember_state
  DW_CFA_def_cfa_offset: 8
  DW_CFA_advance_loc: 1 to 00000000009d8a45
  DW_CFA_restore_state
  DW_CFA_advance_loc: 8 to 00000000009d8a4d
  DW_CFA_remember_state
  DW_CFA_def_cfa_offset: 8
  DW_CFA_advance_loc: 1 to 00000000009d8a4e
  DW_CFA_restore_state
  DW_CFA_advance_loc: 8 to 00000000009d8a56
  DW_CFA_remember_state
  DW_CFA_def_cfa_offset: 8
  DW_CFA_advance_loc: 1 to 00000000009d8a57
  DW_CFA_restore_state
  DW_CFA_advance_loc: 8 to 00000000009d8a5f
  DW_CFA_remember_state
  DW_CFA_def_cfa_offset: 8
  DW_CFA_advance_loc: 1 to 00000000009d8a60
  DW_CFA_restore_state
  DW_CFA_advance_loc: 8 to 00000000009d8a68
  DW_CFA_remember_state
  DW_CFA_def_cfa_offset: 8
  DW_CFA_advance_loc: 1 to 00000000009d8a69
  DW_CFA_restore_state
  DW_CFA_advance_loc: 8 to 00000000009d8a71
  DW_CFA_remember_state
  DW_CFA_def_cfa_offset: 8
  DW_CFA_advance_loc: 1 to 00000000009d8a72
  DW_CFA_restore_state
  DW_CFA_advance_loc: 8 to 00000000009d8a7a
  DW_CFA_remember_state
  DW_CFA_def_cfa_offset: 8
  DW_CFA_advance_loc: 1 to 00000000009d8a7b
  DW_CFA_restore_state
  DW_CFA_advance_loc: 8 to 00000000009d8a83
  DW_CFA_remember_state
  DW_CFA_def_cfa_offset: 8
  DW_CFA_advance_loc: 1 to 00000000009d8a84
  DW_CFA_restore_state
  DW_CFA_advance_loc: 8 to 00000000009d8a8c
  DW_CFA_remember_state
  DW_CFA_def_cfa_offset: 8
  DW_CFA_advance_loc: 1 to 00000000009d8a8d
  DW_CFA_restore_state
  DW_CFA_advance_loc: 8 to 00000000009d8a95
  DW_CFA_remember_state
  DW_CFA_def_cfa_offset: 8
  DW_CFA_advance_loc: 1 to 00000000009d8a96
  DW_CFA_restore_state
  DW_CFA_advance_loc: 8 to 00000000009d8a9e
  DW_CFA_remember_state
  DW_CFA_def_cfa_offset: 8
  DW_CFA_advance_loc: 1 to 00000000009d8a9f
  DW_CFA_restore_state
  DW_CFA_advance_loc: 8 to 00000000009d8aa7
  DW_CFA_remember_state
  DW_CFA_def_cfa_offset: 8
  DW_CFA_advance_loc: 1 to 00000000009d8aa8
  DW_CFA_restore_state
  DW_CFA_advance_loc: 8 to 00000000009d8ab0
  DW_CFA_remember_state
  DW_CFA_def_cfa_offset: 8
  DW_CFA_advance_loc: 1 to 00000000009d8ab1
  DW_CFA_restore_state
  DW_CFA_advance_loc: 8 to 00000000009d8ab9
  DW_CFA_remember_state
  DW_CFA_def_cfa_offset: 8
  DW_CFA_advance_loc: 1 to 00000000009d8aba
  DW_CFA_restore_state
  DW_CFA_advance_loc: 8 to 00000000009d8ac2
  DW_CFA_remember_state
  DW_CFA_def_cfa_offset: 8
  DW_CFA_advance_loc: 1 to 00000000009d8ac3
  DW_CFA_restore_state
  DW_CFA_advance_loc: 8 to 00000000009d8acb
  DW_CFA_remember_state
  DW_CFA_def_cfa_offset: 8
  DW_CFA_advance_loc: 1 to 00000000009d8acc
  DW_CFA_restore_state
  DW_CFA_advance_loc: 8 to 00000000009d8ad4
  DW_CFA_remember_state
  DW_CFA_def_cfa_offset: 8
  DW_CFA_advance_loc: 1 to 00000000009d8ad5
  DW_CFA_restore_state
  DW_CFA_advance_loc: 8 to 00000000009d8add
  DW_CFA_remember_state
  DW_CFA_def_cfa_offset: 8
  DW_CFA_advance_loc: 1 to 00000000009d8ade
  DW_CFA_restore_state
  DW_CFA_advance_loc: 8 to 00000000009d8ae6
  DW_CFA_remember_state
  DW_CFA_def_cfa_offset: 8
  DW_CFA_advance_loc: 1 to 00000000009d8ae7
  DW_CFA_restore_state
  DW_CFA_advance_loc: 8 to 00000000009d8aef
  DW_CFA_remember_state
  DW_CFA_def_cfa_offset: 8
  DW_CFA_advance_loc: 1 to 00000000009d8af0
  DW_CFA_restore_state
  DW_CFA_advance_loc: 8 to 00000000009d8af8
  DW_CFA_remember_state
  DW_CFA_def_cfa_offset: 8
  DW_CFA_advance_loc: 1 to 00000000009d8af9
  DW_CFA_restore_state
  DW_CFA_advance_loc: 8 to 00000000009d8b01
  DW_CFA_remember_state
  DW_CFA_def_cfa_offset: 8
  DW_CFA_advance_loc: 1 to 00000000009d8b02
  DW_CFA_restore_state
  DW_CFA_advance_loc: 8 to 00000000009d8b0a
  DW_CFA_remember_state
  DW_CFA_def_cfa_offset: 8
  DW_CFA_advance_loc: 1 to 00000000009d8b0b
  DW_CFA_restore_state
  DW_CFA_advance_loc: 8 to 00000000009d8b13
  DW_CFA_remember_state
  DW_CFA_def_cfa_offset: 8
  DW_CFA_advance_loc: 1 to 00000000009d8b14
  DW_CFA_restore_state
  DW_CFA_advance_loc: 8 to 00000000009d8b1c
  DW_CFA_remember_state
  DW_CFA_def_cfa_offset: 8
  DW_CFA_advance_loc: 1 to 00000000009d8b1d
  DW_CFA_restore_state
  DW_CFA_advance_loc: 8 to 00000000009d8b25
  DW_CFA_remember_state
  DW_CFA_def_cfa_offset: 8
  DW_CFA_advance_loc: 1 to 00000000009d8b26
  DW_CFA_restore_state
  DW_CFA_advance_loc: 8 to 00000000009d8b2e
  DW_CFA_remember_state
  DW_CFA_def_cfa_offset: 8
  DW_CFA_advance_loc: 1 to 00000000009d8b2f
  DW_CFA_restore_state
  DW_CFA_advance_loc: 8 to 00000000009d8b37
  DW_CFA_remember_state
  DW_CFA_def_cfa_offset: 8
  DW_CFA_advance_loc: 1 to 00000000009d8b38
  DW_CFA_restore_state
  DW_CFA_advance_loc: 8 to 00000000009d8b40
  DW_CFA_remember_state
  DW_CFA_def_cfa_offset: 8
  DW_CFA_advance_loc: 1 to 00000000009d8b41
  DW_CFA_restore_state
  DW_CFA_advance_loc: 8 to 00000000009d8b49
  DW_CFA_remember_state
  DW_CFA_def_cfa_offset: 8
  DW_CFA_advance_loc: 1 to 00000000009d8b4a
  DW_CFA_restore_state
  DW_CFA_advance_loc: 8 to 00000000009d8b52
  DW_CFA_remember_state
  DW_CFA_def_cfa_offset: 8
  DW_CFA_advance_loc: 1 to 00000000009d8b53
  DW_CFA_restore_state
  DW_CFA_advance_loc: 8 to 00000000009d8b5b
  DW_CFA_remember_state
  DW_CFA_def_cfa_offset: 8
  DW_CFA_advance_loc: 1 to 00000000009d8b5c
  DW_CFA_restore_state
  DW_CFA_advance_loc: 8 to 00000000009d8b64
  DW_CFA_remember_state
  DW_CFA_def_cfa_offset: 8
  DW_CFA_advance_loc: 1 to 00000000009d8b65
  DW_CFA_restore_state
  DW_CFA_advance_loc: 8 to 00000000009d8b6d
  DW_CFA_remember_state
  DW_CFA_def_cfa_offset: 8
  DW_CFA_advance_loc: 1 to 00000000009d8b6e
  DW_CFA_restore_state
  DW_CFA_advance_loc: 8 to 00000000009d8b76
  DW_CFA_remember_state
  DW_CFA_def_cfa_offset: 8
  DW_CFA_advance_loc: 1 to 00000000009d8b77
  DW_CFA_restore_state
  DW_CFA_advance_loc: 8 to 00000000009d8b7f
  DW_CFA_remember_state
  DW_CFA_def_cfa_offset: 8
  DW_CFA_advance_loc: 1 to 00000000009d8b80
  DW_CFA_restore_state
  DW_CFA_advance_loc: 8 to 00000000009d8b88
  DW_CFA_remember_state
  DW_CFA_def_cfa_offset: 8
  DW_CFA_advance_loc: 1 to 00000000009d8b89
  DW_CFA_restore_state
  DW_CFA_advance_loc: 8 to 00000000009d8b91
  DW_CFA_remember_state
  DW_CFA_def_cfa_offset: 8
  DW_CFA_advance_loc: 1 to 00000000009d8b92
  DW_CFA_restore_state
  DW_CFA_advance_loc: 8 to 00000000009d8b9a
  DW_CFA_remember_state
  DW_CFA_def_cfa_offset: 8
  DW_CFA_advance_loc: 1 to 00000000009d8b9b
  DW_CFA_restore_state
  DW_CFA_advance_loc: 8 to 00000000009d8ba3
  DW_CFA_remember_state
  DW_CFA_def_cfa_offset: 8
  DW_CFA_advance_loc: 1 to 00000000009d8ba4
  DW_CFA_restore_state
  DW_CFA_advance_loc: 8 to 00000000009d8bac
  DW_CFA_remember_state
  DW_CFA_def_cfa_offset: 8
  DW_CFA_advance_loc: 1 to 00000000009d8bad
  DW_CFA_restore_state
  DW_CFA_advance_loc: 8 to 00000000009d8bb5
  DW_CFA_remember_state
  DW_CFA_def_cfa_offset: 8
  DW_CFA_advance_loc: 1 to 00000000009d8bb6
  DW_CFA_restore_state
  DW_CFA_advance_loc: 8 to 00000000009d8bbe
  DW_CFA_remember_state
  DW_CFA_def_cfa_offset: 8
  DW_CFA_advance_loc: 1 to 00000000009d8bbf
  DW_CFA_restore_state
  DW_CFA_advance_loc: 8 to 00000000009d8bc7
  DW_CFA_remember_state
  DW_CFA_def_cfa_offset: 8
  DW_CFA_advance_loc: 1 to 00000000009d8bc8
  DW_CFA_restore_state
  DW_CFA_advance_loc: 8 to 00000000009d8bd0
  DW_CFA_remember_state
  DW_CFA_def_cfa_offset: 8
  DW_CFA_advance_loc: 1 to 00000000009d8bd1
  DW_CFA_restore_state
  DW_CFA_advance_loc: 8 to 00000000009d8bd9
  DW_CFA_remember_state
  DW_CFA_def_cfa_offset: 8
  DW_CFA_advance_loc: 1 to 00000000009d8bda
  DW_CFA_restore_state
  DW_CFA_advance_loc: 8 to 00000000009d8be2
  DW_CFA_remember_state
  DW_CFA_def_cfa_offset: 8
  DW_CFA_advance_loc: 1 to 00000000009d8be3
  DW_CFA_restore_state
  DW_CFA_advance_loc: 8 to 00000000009d8beb
  DW_CFA_remember_state
  DW_CFA_def_cfa_offset: 8
  DW_CFA_advance_loc: 1 to 00000000009d8bec
  DW_CFA_restore_state
  DW_CFA_advance_loc: 8 to 00000000009d8bf4
  DW_CFA_remember_state
  DW_CFA_def_cfa_offset: 8
  DW_CFA_advance_loc: 1 to 00000000009d8bf5
  DW_CFA_restore_state
  DW_CFA_advance_loc: 8 to 00000000009d8bfd
  DW_CFA_remember_state
  DW_CFA_def_cfa_offset: 8
  DW_CFA_advance_loc: 1 to 00000000009d8bfe
  DW_CFA_restore_state
  DW_CFA_advance_loc: 8 to 00000000009d8c06
  DW_CFA_remember_state
  DW_CFA_def_cfa_offset: 8
  DW_CFA_advance_loc: 1 to 00000000009d8c07
  DW_CFA_restore_state
  DW_CFA_advance_loc: 8 to 00000000009d8c0f
  DW_CFA_remember_state
  DW_CFA_def_cfa_offset: 8
  DW_CFA_advance_loc: 1 to 00000000009d8c10
  DW_CFA_restore_state
  DW_CFA_advance_loc: 8 to 00000000009d8c18
  DW_CFA_remember_state
  DW_CFA_def_cfa_offset: 8
  DW_CFA_advance_loc: 1 to 00000000009d8c19
  DW_CFA_restore_state
  DW_CFA_advance_loc: 8 to 00000000009d8c21
  DW_CFA_remember_state
  DW_CFA_def_cfa_offset: 8
  DW_CFA_advance_loc: 1 to 00000000009d8c22
  DW_CFA_restore_state
  DW_CFA_advance_loc: 8 to 00000000009d8c2a
  DW_CFA_remember_state
  DW_CFA_def_cfa_offset: 8
  DW_CFA_advance_loc: 1 to 00000000009d8c2b
  DW_CFA_restore_state
  DW_CFA_advance_loc: 8 to 00000000009d8c33
  DW_CFA_remember_state
  DW_CFA_def_cfa_offset: 8
  DW_CFA_advance_loc: 1 to 00000000009d8c34
  DW_CFA_restore_state
  DW_CFA_advance_loc: 8 to 00000000009d8c3c
  DW_CFA_remember_state
  DW_CFA_def_cfa_offset: 8
  DW_CFA_advance_loc: 1 to 00000000009d8c3d
  DW_CFA_restore_state
  DW_CFA_advance_loc: 8 to 00000000009d8c45
  DW_CFA_remember_state
  DW_CFA_def_cfa_offset: 8
  DW_CFA_advance_loc: 1 to 00000000009d8c46
  DW_CFA_restore_state
  DW_CFA_advance_loc: 8 to 00000000009d8c4e
  DW_CFA_remember_state
  DW_CFA_def_cfa_offset: 8
  DW_CFA_advance_loc: 1 to 00000000009d8c4f
  DW_CFA_restore_state
  DW_CFA_advance_loc: 8 to 00000000009d8c57
  DW_CFA_remember_state
  DW_CFA_def_cfa_offset: 8
  DW_CFA_advance_loc: 1 to 00000000009d8c58
  DW_CFA_restore_state
  DW_CFA_advance_loc: 8 to 00000000009d8c60
  DW_CFA_remember_state
  DW_CFA_def_cfa_offset: 8
  DW_CFA_advance_loc: 1 to 00000000009d8c61
  DW_CFA_restore_state
  DW_CFA_advance_loc: 8 to 00000000009d8c69
  DW_CFA_remember_state
  DW_CFA_def_cfa_offset: 8
  DW_CFA_advance_loc: 1 to 00000000009d8c6a
  DW_CFA_restore_state
  DW_CFA_advance_loc: 8 to 00000000009d8c72
  DW_CFA_remember_state
  DW_CFA_def_cfa_offset: 8
  DW_CFA_advance_loc: 1 to 00000000009d8c73
  DW_CFA_restore_state
  DW_CFA_advance_loc: 8 to 00000000009d8c7b
  DW_CFA_remember_state
  DW_CFA_def_cfa_offset: 8
  DW_CFA_advance_loc: 1 to 00000000009d8c7c
  DW_CFA_restore_state
  DW_CFA_advance_loc: 8 to 00000000009d8c84
  DW_CFA_remember_state
  DW_CFA_def_cfa_offset: 8
  DW_CFA_advance_loc: 1 to 00000000009d8c85
  DW_CFA_restore_state
  DW_CFA_advance_loc: 8 to 00000000009d8c8d
  DW_CFA_remember_state
  DW_CFA_def_cfa_offset: 8
  DW_CFA_advance_loc: 1 to 00000000009d8c8e
  DW_CFA_restore_state
  DW_CFA_advance_loc: 8 to 00000000009d8c96
  DW_CFA_remember_state
  DW_CFA_def_cfa_offset: 8
  DW_CFA_advance_loc: 1 to 00000000009d8c97
  DW_CFA_restore_state
  DW_CFA_advance_loc: 8 to 00000000009d8c9f
  DW_CFA_remember_state
  DW_CFA_def_cfa_offset: 8
  DW_CFA_advance_loc: 1 to 00000000009d8ca0
  DW_CFA_restore_state
  DW_CFA_advance_loc: 8 to 00000000009d8ca8
  DW_CFA_remember_state
  DW_CFA_def_cfa_offset: 8
  DW_CFA_advance_loc: 1 to 00000000009d8ca9
  DW_CFA_restore_state
  DW_CFA_advance_loc: 8 to 00000000009d8cb1
  DW_CFA_remember_state
  DW_CFA_def_cfa_offset: 8
  DW_CFA_advance_loc: 1 to 00000000009d8cb2
  DW_CFA_restore_state
  DW_CFA_advance_loc: 8 to 00000000009d8cba
  DW_CFA_remember_state
  DW_CFA_def_cfa_offset: 8
  DW_CFA_advance_loc: 1 to 00000000009d8cbb
  DW_CFA_restore_state
  DW_CFA_advance_loc: 8 to 00000000009d8cc3
  DW_CFA_remember_state
  DW_CFA_def_cfa_offset: 8
  DW_CFA_advance_loc: 1 to 00000000009d8cc4
  DW_CFA_restore_state
  DW_CFA_advance_loc: 8 to 00000000009d8ccc
  DW_CFA_remember_state
  DW_CFA_def_cfa_offset: 8
  DW_CFA_advance_loc: 1 to 00000000009d8ccd
  DW_CFA_restore_state
  DW_CFA_advance_loc: 8 to 00000000009d8cd5
  DW_CFA_remember_state
  DW_CFA_def_cfa_offset: 8
  DW_CFA_advance_loc: 1 to 00000000009d8cd6
  DW_CFA_restore_state
  DW_CFA_advance_loc: 8 to 00000000009d8cde
  DW_CFA_remember_state
  DW_CFA_def_cfa_offset: 8
  DW_CFA_advance_loc: 1 to 00000000009d8cdf
  DW_CFA_restore_state
  DW_CFA_advance_loc: 8 to 00000000009d8ce7
  DW_CFA_remember_state
  DW_CFA_def_cfa_offset: 8
  DW_CFA_advance_loc: 1 to 00000000009d8ce8
  DW_CFA_restore_state
  DW_CFA_advance_loc: 8 to 00000000009d8cf0
  DW_CFA_remember_state
  DW_CFA_def_cfa_offset: 8
  DW_CFA_advance_loc: 1 to 00000000009d8cf1
  DW_CFA_restore_state
  DW_CFA_advance_loc: 8 to 00000000009d8cf9
  DW_CFA_remember_state
  DW_CFA_def_cfa_offset: 8
  DW_CFA_advance_loc: 1 to 00000000009d8cfa
  DW_CFA_restore_state
  DW_CFA_advance_loc: 8 to 00000000009d8d02
  DW_CFA_remember_state
  DW_CFA_def_cfa_offset: 8
  DW_CFA_advance_loc: 1 to 00000000009d8d03
  DW_CFA_restore_state
  DW_CFA_advance_loc: 8 to 00000000009d8d0b
  DW_CFA_remember_state
  DW_CFA_def_cfa_offset: 8
  DW_CFA_advance_loc: 1 to 00000000009d8d0c
  DW_CFA_restore_state
  DW_CFA_advance_loc: 8 to 00000000009d8d14
  DW_CFA_remember_state
  DW_CFA_def_cfa_offset: 8
  DW_CFA_advance_loc: 1 to 00000000009d8d15
  DW_CFA_restore_state
  DW_CFA_advance_loc: 8 to 00000000009d8d1d
  DW_CFA_remember_state
  DW_CFA_def_cfa_offset: 8
  DW_CFA_advance_loc: 1 to 00000000009d8d1e
  DW_CFA_restore_state
  DW_CFA_advance_loc: 8 to 00000000009d8d26
  DW_CFA_remember_state
  DW_CFA_def_cfa_offset: 8
  DW_CFA_advance_loc: 1 to 00000000009d8d27
  DW_CFA_restore_state
  DW_CFA_advance_loc: 8 to 00000000009d8d2f
  DW_CFA_remember_state
  DW_CFA_def_cfa_offset: 8
  DW_CFA_advance_loc: 1 to 00000000009d8d30
  DW_CFA_restore_state
  DW_CFA_advance_loc: 8 to 00000000009d8d38
  DW_CFA_remember_state
  DW_CFA_def_cfa_offset: 8
  DW_CFA_advance_loc: 1 to 00000000009d8d39
  DW_CFA_restore_state
  DW_CFA_advance_loc: 8 to 00000000009d8d41
  DW_CFA_remember_state
  DW_CFA_def_cfa_offset: 8
  DW_CFA_advance_loc: 1 to 00000000009d8d42
  DW_CFA_restore_state
  DW_CFA_advance_loc: 8 to 00000000009d8d4a
  DW_CFA_remember_state
  DW_CFA_def_cfa_offset: 8
  DW_CFA_advance_loc: 1 to 00000000009d8d4b
  DW_CFA_restore_state
  DW_CFA_advance_loc: 8 to 00000000009d8d53
  DW_CFA_remember_state
  DW_CFA_def_cfa_offset: 8
  DW_CFA_advance_loc: 1 to 00000000009d8d54
  DW_CFA_restore_state
  DW_CFA_advance_loc: 8 to 00000000009d8d5c
  DW_CFA_remember_state
  DW_CFA_def_cfa_offset: 8
  DW_CFA_advance_loc: 1 to 00000000009d8d5d
  DW_CFA_restore_state
  DW_CFA_advance_loc: 8 to 00000000009d8d65
  DW_CFA_remember_state
  DW_CFA_def_cfa_offset: 8
  DW_CFA_advance_loc: 1 to 00000000009d8d66
  DW_CFA_restore_state
  DW_CFA_advance_loc: 8 to 00000000009d8d6e
  DW_CFA_remember_state
  DW_CFA_def_cfa_offset: 8
  DW_CFA_advance_loc: 1 to 00000000009d8d6f
  DW_CFA_restore_state
  DW_CFA_advance_loc: 8 to 00000000009d8d77
  DW_CFA_remember_state
  DW_CFA_def_cfa_offset: 8
  DW_CFA_advance_loc: 1 to 00000000009d8d78
  DW_CFA_restore_state
  DW_CFA_advance_loc: 8 to 00000000009d8d80
  DW_CFA_remember_state
  DW_CFA_def_cfa_offset: 8
  DW_CFA_advance_loc: 1 to 00000000009d8d81
  DW_CFA_restore_state
  DW_CFA_advance_loc: 8 to 00000000009d8d89
  DW_CFA_remember_state
  DW_CFA_def_cfa_offset: 8
  DW_CFA_advance_loc: 1 to 00000000009d8d8a
  DW_CFA_restore_state
  DW_CFA_advance_loc: 8 to 00000000009d8d92
  DW_CFA_remember_state
  DW_CFA_def_cfa_offset: 8
  DW_CFA_advance_loc: 1 to 00000000009d8d93
  DW_CFA_restore_state
  DW_CFA_advance_loc: 8 to 00000000009d8d9b
  DW_CFA_remember_state
  DW_CFA_def_cfa_offset: 8
  DW_CFA_advance_loc: 1 to 00000000009d8d9c
  DW_CFA_restore_state
  DW_CFA_advance_loc: 8 to 00000000009d8da4
  DW_CFA_remember_state
  DW_CFA_def_cfa_offset: 8
  DW_CFA_advance_loc: 1 to 00000000009d8da5
  DW_CFA_restore_state
  DW_CFA_advance_loc: 8 to 00000000009d8dad
  DW_CFA_remember_state
  DW_CFA_def_cfa_offset: 8
  DW_CFA_advance_loc: 1 to 00000000009d8dae
  DW_CFA_restore_state
  DW_CFA_advance_loc: 8 to 00000000009d8db6
  DW_CFA_def_cfa_offset: 8
  DW_CFA_nop

0001871c 0000000000000010 00018720 FDE cie=00000000 pc=00000000009d8dc0..00000000009d8dc5
  DW_CFA_nop
  DW_CFA_nop
  DW_CFA_nop

00018730 0000000000000044 00018734 FDE cie=00000000 pc=00000000009d8dd0..00000000009d8fa4
  DW_CFA_advance_loc: 9 to 00000000009d8dd9
  DW_CFA_def_cfa_offset: 16
  DW_CFA_offset: r12 (r12) at cfa-16
  DW_CFA_advance_loc: 1 to 00000000009d8dda
  DW_CFA_def_cfa_offset: 24
  DW_CFA_offset: r6 (rbp) at cfa-24
  DW_CFA_advance_loc: 4 to 00000000009d8dde
  DW_CFA_def_cfa_offset: 32
  DW_CFA_offset: r3 (rbx) at cfa-32
  DW_CFA_advance_loc2: 282 to 00000000009d8ef8
  DW_CFA_remember_state
  DW_CFA_def_cfa_offset: 24
  DW_CFA_advance_loc: 1 to 00000000009d8ef9
  DW_CFA_def_cfa_offset: 16
  DW_CFA_advance_loc: 2 to 00000000009d8efb
  DW_CFA_def_cfa_offset: 8
  DW_CFA_advance_loc: 5 to 00000000009d8f00
  DW_CFA_restore_state
  DW_CFA_advance_loc: 1 to 00000000009d8f01
  DW_CFA_remember_state
  DW_CFA_def_cfa_offset: 24
  DW_CFA_advance_loc: 1 to 00000000009d8f02
  DW_CFA_def_cfa_offset: 16
  DW_CFA_advance_loc: 2 to 00000000009d8f04
  DW_CFA_def_cfa_offset: 8
  DW_CFA_advance_loc: 4 to 00000000009d8f08
  DW_CFA_restore_state
  DW_CFA_advance_loc: 57 to 00000000009d8f41
  DW_CFA_remember_state
  DW_CFA_def_cfa_offset: 24
  DW_CFA_advance_loc: 11 to 00000000009d8f4c
  DW_CFA_def_cfa_offset: 16
  DW_CFA_advance_loc: 4 to 00000000009d8f50
  DW_CFA_def_cfa_offset: 8
  DW_CFA_advance_loc: 8 to 00000000009d8f58
  DW_CFA_restore_state
  DW_CFA_nop
  DW_CFA_nop

00018778 0000000000000050 0001877c FDE cie=00000000 pc=00000000009d8fb0..00000000009d922c
  DW_CFA_advance_loc: 2 to 00000000009d8fb2
  DW_CFA_def_cfa_offset: 16
  DW_CFA_offset: r12 (r12) at cfa-16
  DW_CFA_advance_loc: 4 to 00000000009d8fb6
  DW_CFA_def_cfa_offset: 24
  DW_CFA_offset: r6 (rbp) at cfa-24
  DW_CFA_advance_loc: 4 to 00000000009d8fba
  DW_CFA_def_cfa_offset: 32
  DW_CFA_offset: r3 (rbx) at cfa-32
  DW_CFA_advance_loc: 4 to 00000000009d8fbe
  DW_CFA_def_cfa_offset: 48
  DW_CFA_advance_loc2: 430 to 00000000009d916c
  DW_CFA_remember_state
  DW_CFA_def_cfa_offset: 32
  DW_CFA_advance_loc: 1 to 00000000009d916d
  DW_CFA_def_cfa_offset: 24
  DW_CFA_advance_loc: 1 to 00000000009d916e
  DW_CFA_def_cfa_offset: 16
  DW_CFA_advance_loc: 2 to 00000000009d9170
  DW_CFA_def_cfa_offset: 8
  DW_CFA_advance_loc: 8 to 00000000009d9178
  DW_CFA_restore_state
  DW_CFA_advance_loc: 4 to 00000000009d917c
  DW_CFA_remember_state
  DW_CFA_def_cfa_offset: 32
  DW_CFA_advance_loc: 1 to 00000000009d917d
  DW_CFA_def_cfa_offset: 24
  DW_CFA_advance_loc: 1 to 00000000009d917e
  DW_CFA_def_cfa_offset: 16
  DW_CFA_advance_loc: 2 to 00000000009d9180
  DW_CFA_def_cfa_offset: 8
  DW_CFA_advance_loc: 8 to 00000000009d9188
  DW_CFA_restore_state
  DW_CFA_advance_loc: 60 to 00000000009d91c4
  DW_CFA_remember_state
  DW_CFA_def_cfa_offset: 32
  DW_CFA_advance_loc: 13 to 00000000009d91d1
  DW_CFA_def_cfa_offset: 24
  DW_CFA_advance_loc: 1 to 00000000009d91d2
  DW_CFA_def_cfa_offset: 16
  DW_CFA_advance_loc: 2 to 00000000009d91d4
  DW_CFA_def_cfa_offset: 8
  DW_CFA_advance_loc: 12 to 00000000009d91e0
  DW_CFA_restore_state
  DW_CFA_nop
  DW_CFA_nop

000187cc 0000000000000034 000187d0 FDE cie=00000000 pc=00000000009d9230..00000000009d938c
  DW_CFA_advance_loc: 1 to 00000000009d9231
  DW_CFA_def_cfa_offset: 16
  DW_CFA_offset: r6 (rbp) at cfa-16
  DW_CFA_advance_loc: 4 to 00000000009d9235
  DW_CFA_def_cfa_offset: 24
  DW_CFA_offset: r3 (rbx) at cfa-24
  DW_CFA_advance_loc: 6 to 00000000009d923b
  DW_CFA_def_cfa_offset: 32
  DW_CFA_advance_loc1: 164 to 00000000009d92df
  DW_CFA_remember_state
  DW_CFA_def_cfa_offset: 24
  DW_CFA_advance_loc: 1 to 00000000009d92e0
  DW_CFA_def_cfa_offset: 16
  DW_CFA_advance_loc: 1 to 00000000009d92e1
  DW_CFA_def_cfa_offset: 8
  DW_CFA_advance_loc: 7 to 00000000009d92e8
  DW_CFA_restore_state
  DW_CFA_advance_loc1: 77 to 00000000009d9335
  DW_CFA_remember_state
  DW_CFA_def_cfa_offset: 24
  DW_CFA_advance_loc: 3 to 00000000009d9338
  DW_CFA_def_cfa_offset: 16
  DW_CFA_advance_loc: 1 to 00000000009d9339
  DW_CFA_def_cfa_offset: 8
  DW_CFA_advance_loc: 7 to 00000000009d9340
  DW_CFA_restore_state

00018804 0000000000000040 00018808 FDE cie=00000000 pc=00000000009d9390..00000000009d952c
  DW_CFA_advance_loc: 1 to 00000000009d9391
  DW_CFA_def_cfa_offset: 16
  DW_CFA_offset: r6 (rbp) at cfa-16
  DW_CFA_advance_loc: 4 to 00000000009d9395
  DW_CFA_def_cfa_offset: 24
  DW_CFA_offset: r3 (rbx) at cfa-24
  DW_CFA_advance_loc: 7 to 00000000009d939c
  DW_CFA_def_cfa_offset: 32
  DW_CFA_advance_loc1: 221 to 00000000009d9479
  DW_CFA_remember_state
  DW_CFA_def_cfa_offset: 24
  DW_CFA_advance_loc: 1 to 00000000009d947a
  DW_CFA_def_cfa_offset: 16
  DW_CFA_advance_loc: 1 to 00000000009d947b
  DW_CFA_def_cfa_offset: 8
  DW_CFA_advance_loc: 5 to 00000000009d9480
  DW_CFA_restore_state
  DW_CFA_advance_loc: 57 to 00000000009d94b9
  DW_CFA_remember_state
  DW_CFA_def_cfa_offset: 24
  DW_CFA_advance_loc: 3 to 00000000009d94bc
  DW_CFA_def_cfa_offset: 16
  DW_CFA_advance_loc: 1 to 00000000009d94bd
  DW_CFA_def_cfa_offset: 8
  DW_CFA_advance_loc: 3 to 00000000009d94c0
  DW_CFA_restore_state
  DW_CFA_advance_loc: 21 to 00000000009d94d5
  DW_CFA_remember_state
  DW_CFA_def_cfa_offset: 24
  DW_CFA_advance_loc: 3 to 00000000009d94d8
  DW_CFA_def_cfa_offset: 16
  DW_CFA_advance_loc: 1 to 00000000009d94d9
  DW_CFA_def_cfa_offset: 8
  DW_CFA_advance_loc: 7 to 00000000009d94e0
  DW_CFA_restore_state
  DW_CFA_nop

00018848 0000000000000020 0001884c FDE cie=00000000 pc=00000000009d9530..00000000009d965c
  DW_CFA_advance_loc: 8 to 00000000009d9538
  DW_CFA_def_cfa_offset: 16
  DW_CFA_offset: r6 (rbp) at cfa-16
  DW_CFA_advance_loc1: 124 to 00000000009d95b4
  DW_CFA_remember_state
  DW_CFA_def_cfa_offset: 8
  DW_CFA_advance_loc: 4 to 00000000009d95b8
  DW_CFA_restore_state
  DW_CFA_advance_loc1: 76 to 00000000009d9604
  DW_CFA_remember_state
  DW_CFA_def_cfa_offset: 8
  DW_CFA_advance_loc: 4 to 00000000009d9608
  DW_CFA_restore_state

0001886c 000000000000004c 00018870 FDE cie=00000000 pc=00000000009d9660..00000000009d97ca
  DW_CFA_advance_loc: 2 to 00000000009d9662
  DW_CFA_def_cfa_offset: 16
  DW_CFA_offset: r13 (r13) at cfa-16
  DW_CFA_advance_loc: 2 to 00000000009d9664
  DW_CFA_def_cfa_offset: 24
  DW_CFA_offset: r12 (r12) at cfa-24
  DW_CFA_advance_loc: 1 to 00000000009d9665
  DW_CFA_def_cfa_offset: 32
  DW_CFA_offset: r6 (rbp) at cfa-32
  DW_CFA_advance_loc: 4 to 00000000009d9669
  DW_CFA_def_cfa_offset: 40
  DW_CFA_offset: r3 (rbx) at cfa-40
  DW_CFA_advance_loc: 7 to 00000000009d9670
  DW_CFA_def_cfa_offset: 48
  DW_CFA_advance_loc2: 259 to 00000000009d9773
  DW_CFA_remember_state
  DW_CFA_def_cfa_offset: 40
  DW_CFA_advance_loc: 1 to 00000000009d9774
  DW_CFA_def_cfa_offset: 32
  DW_CFA_advance_loc: 4 to 00000000009d9778
  DW_CFA_def_cfa_offset: 24
  DW_CFA_advance_loc: 2 to 00000000009d977a
  DW_CFA_def_cfa_offset: 16
  DW_CFA_advance_loc: 2 to 00000000009d977c
  DW_CFA_def_cfa_offset: 8
  DW_CFA_advance_loc: 12 to 00000000009d9788
  DW_CFA_restore_state
  DW_CFA_advance_loc: 4 to 00000000009d978c
  DW_CFA_remember_state
  DW_CFA_def_cfa_offset: 40
  DW_CFA_advance_loc: 1 to 00000000009d978d
  DW_CFA_def_cfa_offset: 32
  DW_CFA_advance_loc: 1 to 00000000009d978e
  DW_CFA_def_cfa_offset: 24
  DW_CFA_advance_loc: 2 to 00000000009d9790
  DW_CFA_def_cfa_offset: 16
  DW_CFA_advance_loc: 2 to 00000000009d9792
  DW_CFA_def_cfa_offset: 8
  DW_CFA_advance_loc: 6 to 00000000009d9798
  DW_CFA_restore_state
  DW_CFA_nop
  DW_CFA_nop

000188bc 0000000000000060 000188c0 FDE cie=00000000 pc=00000000009d97d0..00000000009d998c
  DW_CFA_advance_loc: 2 to 00000000009d97d2
  DW_CFA_def_cfa_offset: 16
  DW_CFA_offset: r15 (r15) at cfa-16
  DW_CFA_advance_loc: 2 to 00000000009d97d4
  DW_CFA_def_cfa_offset: 24
  DW_CFA_offset: r14 (r14) at cfa-24
  DW_CFA_advance_loc: 2 to 00000000009d97d6
  DW_CFA_def_cfa_offset: 32
  DW_CFA_offset: r13 (r13) at cfa-32
  DW_CFA_advance_loc: 2 to 00000000009d97d8
  DW_CFA_def_cfa_offset: 40
  DW_CFA_offset: r12 (r12) at cfa-40
  DW_CFA_advance_loc: 4 to 00000000009d97dc
  DW_CFA_def_cfa_offset: 48
  DW_CFA_offset: r6 (rbp) at cfa-48
  DW_CFA_advance_loc: 4 to 00000000009d97e0
  DW_CFA_def_cfa_offset: 56
  DW_CFA_offset: r3 (rbx) at cfa-56
  DW_CFA_advance_loc: 4 to 00000000009d97e4
  DW_CFA_def_cfa_offset: 80
  DW_CFA_advance_loc2: 285 to 00000000009d9901
  DW_CFA_remember_state
  DW_CFA_def_cfa_offset: 56
  DW_CFA_advance_loc: 1 to 00000000009d9902
  DW_CFA_def_cfa_offset: 48
  DW_CFA_advance_loc: 1 to 00000000009d9903
  DW_CFA_def_cfa_offset: 40
  DW_CFA_advance_loc: 2 to 00000000009d9905
  DW_CFA_def_cfa_offset: 32
  DW_CFA_advance_loc: 2 to 00000000009d9907
  DW_CFA_def_cfa_offset: 24
  DW_CFA_advance_loc: 2 to 00000000009d9909
  DW_CFA_def_cfa_offset: 16
  DW_CFA_advance_loc: 2 to 00000000009d990b
  DW_CFA_def_cfa_offset: 8
  DW_CFA_advance_loc: 1 to 00000000009d990c
  DW_CFA_restore_state
  DW_CFA_advance_loc: 4 to 00000000009d9910
  DW_CFA_remember_state
  DW_CFA_def_cfa_offset: 56
  DW_CFA_advance_loc: 13 to 00000000009d991d
  DW_CFA_def_cfa_offset: 48
  DW_CFA_advance_loc: 1 to 00000000009d991e
  DW_CFA_def_cfa_offset: 40
  DW_CFA_advance_loc: 2 to 00000000009d9920
  DW_CFA_def_cfa_offset: 32
  DW_CFA_advance_loc: 2 to 00000000009d9922
  DW_CFA_def_cfa_offset: 24
  DW_CFA_advance_loc: 2 to 00000000009d9924
  DW_CFA_def_cfa_offset: 16
  DW_CFA_advance_loc: 2 to 00000000009d9926
  DW_CFA_def_cfa_offset: 8
  DW_CFA_advance_loc: 5 to 00000000009d992b
  DW_CFA_restore_state

00018920 0000000000000028 00018924 FDE cie=00000000 pc=00000000009d9990..00000000009d9a3a
  DW_CFA_advance_loc: 1 to 00000000009d9991
  DW_CFA_def_cfa_offset: 16
  DW_CFA_offset: r6 (rbp) at cfa-16
  DW_CFA_advance_loc: 4 to 00000000009d9995
  DW_CFA_def_cfa_offset: 24
  DW_CFA_offset: r3 (rbx) at cfa-24
  DW_CFA_advance_loc: 7 to 00000000009d999c
  DW_CFA_def_cfa_offset: 32
  DW_CFA_advance_loc1: 97 to 00000000009d99fd
  DW_CFA_remember_state
  DW_CFA_def_cfa_offset: 24
  DW_CFA_advance_loc: 4 to 00000000009d9a01
  DW_CFA_def_cfa_offset: 16
  DW_CFA_advance_loc: 1 to 00000000009d9a02
  DW_CFA_def_cfa_offset: 8
  DW_CFA_advance_loc: 6 to 00000000009d9a08
  DW_CFA_restore_state
  DW_CFA_nop

0001894c 0000000000000040 00018950 FDE cie=00000000 pc=00000000009d9a40..00000000009d9b91
  DW_CFA_advance_loc: 1 to 00000000009d9a41
  DW_CFA_def_cfa_offset: 16
  DW_CFA_offset: r6 (rbp) at cfa-16
  DW_CFA_advance_loc: 4 to 00000000009d9a45
  DW_CFA_def_cfa_offset: 24
  DW_CFA_offset: r3 (rbx) at cfa-24
  DW_CFA_advance_loc: 7 to 00000000009d9a4c
  DW_CFA_def_cfa_offset: 32
  DW_CFA_advance_loc1: 193 to 00000000009d9b0d
  DW_CFA_remember_state
  DW_CFA_def_cfa_offset: 24
  DW_CFA_advance_loc: 4 to 00000000009d9b11
  DW_CFA_def_cfa_offset: 16
  DW_CFA_advance_loc: 1 to 00000000009d9b12
  DW_CFA_def_cfa_offset: 8
  DW_CFA_advance_loc: 6 to 00000000009d9b18
  DW_CFA_restore_state
  DW_CFA_advance_loc: 21 to 00000000009d9b2d
  DW_CFA_remember_state
  DW_CFA_def_cfa_offset: 24
  DW_CFA_advance_loc: 7 to 00000000009d9b34
  DW_CFA_def_cfa_offset: 16
  DW_CFA_advance_loc: 1 to 00000000009d9b35
  DW_CFA_def_cfa_offset: 8
  DW_CFA_advance_loc: 11 to 00000000009d9b40
  DW_CFA_restore_state
  DW_CFA_advance_loc: 57 to 00000000009d9b79
  DW_CFA_remember_state
  DW_CFA_def_cfa_offset: 24
  DW_CFA_advance_loc: 7 to 00000000009d9b80
  DW_CFA_def_cfa_offset: 16
  DW_CFA_advance_loc: 1 to 00000000009d9b81
  DW_CFA_def_cfa_offset: 8
  DW_CFA_advance_loc: 7 to 00000000009d9b88
  DW_CFA_restore_state
  DW_CFA_nop

00018990 0000000000000024 00018994 FDE cie=00000000 pc=00000000009d9ba0..00000000009d9c1f
  DW_CFA_advance_loc: 8 to 00000000009d9ba8
  DW_CFA_def_cfa_offset: 16
  DW_CFA_offset: r6 (rbp) at cfa-16
  DW_CFA_advance_loc: 42 to 00000000009d9bd2
  DW_CFA_remember_state
  DW_CFA_def_cfa_offset: 8
  DW_CFA_advance_loc: 6 to 00000000009d9bd8
  DW_CFA_restore_state
  DW_CFA_advance_loc: 22 to 00000000009d9bee
  DW_CFA_remember_state
  DW_CFA_def_cfa_offset: 8
  DW_CFA_advance_loc: 2 to 00000000009d9bf0
  DW_CFA_restore_state
  DW_CFA_nop
  DW_CFA_nop
  DW_CFA_nop
  DW_CFA_nop
  DW_CFA_nop
  DW_CFA_nop

000189b8 0000000000000040 000189bc FDE cie=00000000 pc=00000000009d9c20..00000000009d9de5
  DW_CFA_advance_loc: 2 to 00000000009d9c22
  DW_CFA_def_cfa_offset: 16
  DW_CFA_offset: r15 (r15) at cfa-16
  DW_CFA_advance_loc: 2 to 00000000009d9c24
  DW_CFA_def_cfa_offset: 24
  DW_CFA_offset: r14 (r14) at cfa-24
  DW_CFA_advance_loc: 2 to 00000000009d9c26
  DW_CFA_def_cfa_offset: 32
  DW_CFA_offset: r13 (r13) at cfa-32
  DW_CFA_advance_loc: 2 to 00000000009d9c28
  DW_CFA_def_cfa_offset: 40
  DW_CFA_offset: r12 (r12) at cfa-40
  DW_CFA_advance_loc: 1 to 00000000009d9c29
  DW_CFA_def_cfa_offset: 48
  DW_CFA_offset: r6 (rbp) at cfa-48
  DW_CFA_advance_loc: 7 to 00000000009d9c30
  DW_CFA_def_cfa_offset: 80
  DW_CFA_advance_loc1: 179 to 00000000009d9ce3
  DW_CFA_remember_state
  DW_CFA_def_cfa_offset: 48
  DW_CFA_advance_loc: 1 to 00000000009d9ce4
  DW_CFA_def_cfa_offset: 40
  DW_CFA_advance_loc: 2 to 00000000009d9ce6
  DW_CFA_def_cfa_offset: 32
  DW_CFA_advance_loc: 2 to 00000000009d9ce8
  DW_CFA_def_cfa_offset: 24
  DW_CFA_advance_loc: 2 to 00000000009d9cea
  DW_CFA_def_cfa_offset: 16
  DW_CFA_advance_loc: 2 to 00000000009d9cec
  DW_CFA_def_cfa_offset: 8
  DW_CFA_advance_loc: 4 to 00000000009d9cf0
  DW_CFA_restore_state
  DW_CFA_nop

000189fc 0000000000000028 00018a00 FDE cie=00000000 pc=00000000009d9df0..00000000009d9ea9
  DW_CFA_advance_loc: 4 to 00000000009d9df4
  DW_CFA_def_cfa_offset: 48
  DW_CFA_advance_loc1: 78 to 00000000009d9e42
  DW_CFA_remember_state
  DW_CFA_def_cfa_offset: 8
  DW_CFA_advance_loc: 6 to 00000000009d9e48
  DW_CFA_restore_state
  DW_CFA_advance_loc: 47 to 00000000009d9e77
  DW_CFA_def_cfa_offset: 56
  DW_CFA_advance_loc: 27 to 00000000009d9e92
  DW_CFA_def_cfa_offset: 64
  DW_CFA_advance_loc: 2 to 00000000009d9e94
  DW_CFA_def_cfa_offset: 72
  DW_CFA_advance_loc: 2 to 00000000009d9e96
  DW_CFA_def_cfa_offset: 80
  DW_CFA_advance_loc: 9 to 00000000009d9e9f
  DW_CFA_def_cfa_offset: 48
  DW_CFA_nop
  DW_CFA_nop

00018a28 0000000000000028 00018a2c FDE cie=00000000 pc=00000000009d9eb0..00000000009d9f4a
  DW_CFA_advance_loc: 4 to 00000000009d9eb4
  DW_CFA_def_cfa_offset: 16
  DW_CFA_advance_loc1: 80 to 00000000009d9f04
  DW_CFA_def_cfa_offset: 24
  DW_CFA_advance_loc: 13 to 00000000009d9f11
  DW_CFA_def_cfa_offset: 32
  DW_CFA_advance_loc: 14 to 00000000009d9f1f
  DW_CFA_def_cfa_offset: 40
  DW_CFA_advance_loc: 2 to 00000000009d9f21
  DW_CFA_def_cfa_offset: 48
  DW_CFA_advance_loc: 9 to 00000000009d9f2a
  DW_CFA_def_cfa_offset: 16
  DW_CFA_advance_loc: 4 to 00000000009d9f2e
  DW_CFA_remember_state
  DW_CFA_def_cfa_offset: 8
  DW_CFA_advance_loc: 2 to 00000000009d9f30
  DW_CFA_restore_state
  DW_CFA_nop
  DW_CFA_nop

00018a54 0000000000000040 00018a58 FDE cie=00000000 pc=00000000009d9f50..00000000009d9fff
  DW_CFA_advance_loc: 8 to 00000000009d9f58
  DW_CFA_def_cfa_offset: 16
  DW_CFA_offset: r6 (rbp) at cfa-16
  DW_CFA_advance_loc: 43 to 00000000009d9f83
  DW_CFA_remember_state
  DW_CFA_def_cfa_offset: 8
  DW_CFA_advance_loc: 13 to 00000000009d9f90
  DW_CFA_restore_state
  DW_CFA_advance_loc: 35 to 00000000009d9fb3
  DW_CFA_remember_state
  DW_CFA_def_cfa_offset: 8
  DW_CFA_advance_loc: 5 to 00000000009d9fb8
  DW_CFA_restore_state
  DW_CFA_advance_loc: 7 to 00000000009d9fbf
  DW_CFA_remember_state
  DW_CFA_def_cfa_offset: 8
  DW_CFA_advance_loc: 1 to 00000000009d9fc0
  DW_CFA_restore_state
  DW_CFA_advance_loc: 7 to 00000000009d9fc7
  DW_CFA_remember_state
  DW_CFA_def_cfa_offset: 8
  DW_CFA_advance_loc: 9 to 00000000009d9fd0
  DW_CFA_restore_state
  DW_CFA_advance_loc: 7 to 00000000009d9fd7
  DW_CFA_remember_state
  DW_CFA_def_cfa_offset: 8
  DW_CFA_advance_loc: 9 to 00000000009d9fe0
  DW_CFA_restore_state
  DW_CFA_advance_loc: 7 to 00000000009d9fe7
  DW_CFA_remember_state
  DW_CFA_def_cfa_offset: 8
  DW_CFA_advance_loc: 1 to 00000000009d9fe8
  DW_CFA_restore_state
  DW_CFA_advance_loc: 22 to 00000000009d9ffe
  DW_CFA_def_cfa_offset: 8
  DW_CFA_nop
  DW_CFA_nop
  DW_CFA_nop
  DW_CFA_nop
  DW_CFA_nop
  DW_CFA_nop
  DW_CFA_nop

00018a98 0000000000000048 00018a9c FDE cie=00000000 pc=00000000009da000..00000000009da141
  DW_CFA_advance_loc: 2 to 00000000009da002
  DW_CFA_def_cfa_offset: 16
  DW_CFA_offset: r15 (r15) at cfa-16
  DW_CFA_advance_loc: 2 to 00000000009da004
  DW_CFA_def_cfa_offset: 24
  DW_CFA_offset: r14 (r14) at cfa-24
  DW_CFA_advance_loc: 5 to 00000000009da009
  DW_CFA_def_cfa_offset: 32
  DW_CFA_offset: r13 (r13) at cfa-32
  DW_CFA_advance_loc: 2 to 00000000009da00b
  DW_CFA_def_cfa_offset: 40
  DW_CFA_offset: r12 (r12) at cfa-40
  DW_CFA_advance_loc: 1 to 00000000009da00c
  DW_CFA_def_cfa_offset: 48
  DW_CFA_offset: r6 (rbp) at cfa-48
  DW_CFA_advance_loc: 3 to 00000000009da00f
  DW_CFA_def_cfa_offset: 56
  DW_CFA_offset: r3 (rbx) at cfa-56
  DW_CFA_advance_loc: 7 to 00000000009da016
  DW_CFA_def_cfa_offset: 96
  DW_CFA_advance_loc1: 242 to 00000000009da108
  DW_CFA_remember_state
  DW_CFA_def_cfa_offset: 56
  DW_CFA_advance_loc: 1 to 00000000009da109
  DW_CFA_def_cfa_offset: 48
  DW_CFA_advance_loc: 1 to 00000000009da10a
  DW_CFA_def_cfa_offset: 40
  DW_CFA_advance_loc: 2 to 00000000009da10c
  DW_CFA_def_cfa_offset: 32
  DW_CFA_advance_loc: 2 to 00000000009da10e
  DW_CFA_def_cfa_offset: 24
  DW_CFA_advance_loc: 2 to 00000000009da110
  DW_CFA_def_cfa_offset: 16
  DW_CFA_advance_loc: 2 to 00000000009da112
  DW_CFA_def_cfa_offset: 8
  DW_CFA_advance_loc: 6 to 00000000009da118
  DW_CFA_restore_state
  DW_CFA_nop

00018ae4 0000000000000018 00018ae8 FDE cie=00000000 pc=00000000009da150..00000000009da59e
  DW_CFA_advance_loc: 4 to 00000000009da154
  DW_CFA_def_cfa_offset: 48
  DW_CFA_advance_loc2: 1048 to 00000000009da56c
  DW_CFA_remember_state
  DW_CFA_def_cfa_offset: 8
  DW_CFA_advance_loc: 12 to 00000000009da578
  DW_CFA_restore_state

00018b00 0000000000000018 00018b04 FDE cie=00000000 pc=00000000009da5a0..00000000009da9a6
  DW_CFA_advance_loc: 4 to 00000000009da5a4
  DW_CFA_def_cfa_offset: 48
  DW_CFA_advance_loc2: 973 to 00000000009da971
  DW_CFA_remember_state
  DW_CFA_def_cfa_offset: 8
  DW_CFA_advance_loc: 15 to 00000000009da980
  DW_CFA_restore_state

00018b1c 000000000000004c 00018b20 FDE cie=00000000 pc=00000000009da9b0..00000000009dad90
  DW_CFA_advance_loc: 2 to 00000000009da9b2
  DW_CFA_def_cfa_offset: 16
  DW_CFA_offset: r15 (r15) at cfa-16
  DW_CFA_advance_loc: 5 to 00000000009da9b7
  DW_CFA_def_cfa_offset: 24
  DW_CFA_offset: r14 (r14) at cfa-24
  DW_CFA_advance_loc: 2 to 00000000009da9b9
  DW_CFA_def_cfa_offset: 32
  DW_CFA_offset: r13 (r13) at cfa-32
  DW_CFA_advance_loc: 2 to 00000000009da9bb
  DW_CFA_def_cfa_offset: 40
  DW_CFA_offset: r12 (r12) at cfa-40
  DW_CFA_advance_loc: 1 to 00000000009da9bc
  DW_CFA_def_cfa_offset: 48
  DW_CFA_offset: r6 (rbp) at cfa-48
  DW_CFA_advance_loc: 1 to 00000000009da9bd
  DW_CFA_def_cfa_offset: 56
  DW_CFA_offset: r3 (rbx) at cfa-56
  DW_CFA_advance_loc: 9 to 00000000009da9c6
  DW_CFA_def_cfa_offset: 192
  DW_CFA_advance_loc2: 926 to 00000000009dad64
  DW_CFA_remember_state
  DW_CFA_def_cfa_offset: 56
  DW_CFA_advance_loc: 1 to 00000000009dad65
  DW_CFA_def_cfa_offset: 48
  DW_CFA_advance_loc: 1 to 00000000009dad66
  DW_CFA_def_cfa_offset: 40
  DW_CFA_advance_loc: 2 to 00000000009dad68
  DW_CFA_def_cfa_offset: 32
  DW_CFA_advance_loc: 2 to 00000000009dad6a
  DW_CFA_def_cfa_offset: 24
  DW_CFA_advance_loc: 2 to 00000000009dad6c
  DW_CFA_def_cfa_offset: 16
  DW_CFA_advance_loc: 2 to 00000000009dad6e
  DW_CFA_def_cfa_offset: 8
  DW_CFA_advance_loc: 5 to 00000000009dad73
  DW_CFA_restore_state
  DW_CFA_nop
  DW_CFA_nop
  DW_CFA_nop

00018b6c 000000000000004c 00018b70 FDE cie=00000000 pc=00000000009dad90..00000000009db012
  DW_CFA_advance_loc: 2 to 00000000009dad92
  DW_CFA_def_cfa_offset: 16
  DW_CFA_offset: r15 (r15) at cfa-16
  DW_CFA_advance_loc: 2 to 00000000009dad94
  DW_CFA_def_cfa_offset: 24
  DW_CFA_offset: r14 (r14) at cfa-24
  DW_CFA_advance_loc: 2 to 00000000009dad96
  DW_CFA_def_cfa_offset: 32
  DW_CFA_offset: r13 (r13) at cfa-32
  DW_CFA_advance_loc: 2 to 00000000009dad98
  DW_CFA_def_cfa_offset: 40
  DW_CFA_offset: r12 (r12) at cfa-40
  DW_CFA_advance_loc: 1 to 00000000009dad99
  DW_CFA_def_cfa_offset: 48
  DW_CFA_offset: r6 (rbp) at cfa-48
  DW_CFA_advance_loc: 1 to 00000000009dad9a
  DW_CFA_def_cfa_offset: 56
  DW_CFA_offset: r3 (rbx) at cfa-56
  DW_CFA_advance_loc: 7 to 00000000009dada1
  DW_CFA_def_cfa_offset: 192
  DW_CFA_advance_loc2: 563 to 00000000009dafd4
  DW_CFA_remember_state
  DW_CFA_def_cfa_offset: 56
  DW_CFA_advance_loc: 4 to 00000000009dafd8
  DW_CFA_def_cfa_offset: 48
  DW_CFA_advance_loc: 1 to 00000000009dafd9
  DW_CFA_def_cfa_offset: 40
  DW_CFA_advance_loc: 2 to 00000000009dafdb
  DW_CFA_def_cfa_offset: 32
  DW_CFA_advance_loc: 2 to 00000000009dafdd
  DW_CFA_def_cfa_offset: 24
  DW_CFA_advance_loc: 2 to 00000000009dafdf
  DW_CFA_def_cfa_offset: 16
  DW_CFA_advance_loc: 2 to 00000000009dafe1
  DW_CFA_def_cfa_offset: 8
  DW_CFA_advance_loc: 5 to 00000000009dafe6
  DW_CFA_restore_state
  DW_CFA_nop
  DW_CFA_nop
  DW_CFA_nop

00018bbc 000000000000004c 00018bc0 FDE cie=00000000 pc=00000000009db020..00000000009db46e
  DW_CFA_advance_loc: 2 to 00000000009db022
  DW_CFA_def_cfa_offset: 16
  DW_CFA_offset: r15 (r15) at cfa-16
  DW_CFA_advance_loc: 2 to 00000000009db024
  DW_CFA_def_cfa_offset: 24
  DW_CFA_offset: r14 (r14) at cfa-24
  DW_CFA_advance_loc: 2 to 00000000009db026
  DW_CFA_def_cfa_offset: 32
  DW_CFA_offset: r13 (r13) at cfa-32
  DW_CFA_advance_loc: 5 to 00000000009db02b
  DW_CFA_def_cfa_offset: 40
  DW_CFA_offset: r12 (r12) at cfa-40
  DW_CFA_advance_loc: 1 to 00000000009db02c
  DW_CFA_def_cfa_offset: 48
  DW_CFA_offset: r6 (rbp) at cfa-48
  DW_CFA_advance_loc: 1 to 00000000009db02d
  DW_CFA_def_cfa_offset: 56
  DW_CFA_offset: r3 (rbx) at cfa-56
  DW_CFA_advance_loc: 6 to 00000000009db033
  DW_CFA_def_cfa_offset: 176
  DW_CFA_advance_loc2: 883 to 00000000009db3a6
  DW_CFA_remember_state
  DW_CFA_def_cfa_offset: 56
  DW_CFA_advance_loc: 4 to 00000000009db3aa
  DW_CFA_def_cfa_offset: 48
  DW_CFA_advance_loc: 1 to 00000000009db3ab
  DW_CFA_def_cfa_offset: 40
  DW_CFA_advance_loc: 2 to 00000000009db3ad
  DW_CFA_def_cfa_offset: 32
  DW_CFA_advance_loc: 2 to 00000000009db3af
  DW_CFA_def_cfa_offset: 24
  DW_CFA_advance_loc: 2 to 00000000009db3b1
  DW_CFA_def_cfa_offset: 16
  DW_CFA_advance_loc: 2 to 00000000009db3b3
  DW_CFA_def_cfa_offset: 8
  DW_CFA_advance_loc: 5 to 00000000009db3b8
  DW_CFA_restore_state
  DW_CFA_nop
  DW_CFA_nop
  DW_CFA_nop

00018c0c 000000000000004c 00018c10 FDE cie=00000000 pc=00000000009db470..00000000009db745
  DW_CFA_advance_loc: 2 to 00000000009db472
  DW_CFA_def_cfa_offset: 16
  DW_CFA_offset: r15 (r15) at cfa-16
  DW_CFA_advance_loc: 2 to 00000000009db474
  DW_CFA_def_cfa_offset: 24
  DW_CFA_offset: r14 (r14) at cfa-24
  DW_CFA_advance_loc: 2 to 00000000009db476
  DW_CFA_def_cfa_offset: 32
  DW_CFA_offset: r13 (r13) at cfa-32
  DW_CFA_advance_loc: 5 to 00000000009db47b
  DW_CFA_def_cfa_offset: 40
  DW_CFA_offset: r12 (r12) at cfa-40
  DW_CFA_advance_loc: 1 to 00000000009db47c
  DW_CFA_def_cfa_offset: 48
  DW_CFA_offset: r6 (rbp) at cfa-48
  DW_CFA_advance_loc: 1 to 00000000009db47d
  DW_CFA_def_cfa_offset: 56
  DW_CFA_offset: r3 (rbx) at cfa-56
  DW_CFA_advance_loc: 4 to 00000000009db481
  DW_CFA_def_cfa_offset: 176
  DW_CFA_advance_loc2: 580 to 00000000009db6c5
  DW_CFA_remember_state
  DW_CFA_def_cfa_offset: 56
  DW_CFA_advance_loc: 1 to 00000000009db6c6
  DW_CFA_def_cfa_offset: 48
  DW_CFA_advance_loc: 1 to 00000000009db6c7
  DW_CFA_def_cfa_offset: 40
  DW_CFA_advance_loc: 2 to 00000000009db6c9
  DW_CFA_def_cfa_offset: 32
  DW_CFA_advance_loc: 2 to 00000000009db6cb
  DW_CFA_def_cfa_offset: 24
  DW_CFA_advance_loc: 2 to 00000000009db6cd
  DW_CFA_def_cfa_offset: 16
  DW_CFA_advance_loc: 2 to 00000000009db6cf
  DW_CFA_def_cfa_offset: 8
  DW_CFA_advance_loc: 5 to 00000000009db6d4
  DW_CFA_restore_state
  DW_CFA_nop
  DW_CFA_nop
  DW_CFA_nop

00018c5c 000000000000004c 00018c60 FDE cie=00000000 pc=00000000009db750..00000000009dba43
  DW_CFA_advance_loc: 2 to 00000000009db752
  DW_CFA_def_cfa_offset: 16
  DW_CFA_offset: r15 (r15) at cfa-16
  DW_CFA_advance_loc: 2 to 00000000009db754
  DW_CFA_def_cfa_offset: 24
  DW_CFA_offset: r14 (r14) at cfa-24
  DW_CFA_advance_loc: 5 to 00000000009db759
  DW_CFA_def_cfa_offset: 32
  DW_CFA_offset: r13 (r13) at cfa-32
  DW_CFA_advance_loc: 2 to 00000000009db75b
  DW_CFA_def_cfa_offset: 40
  DW_CFA_offset: r12 (r12) at cfa-40
  DW_CFA_advance_loc: 1 to 00000000009db75c
  DW_CFA_def_cfa_offset: 48
  DW_CFA_offset: r6 (rbp) at cfa-48
  DW_CFA_advance_loc: 1 to 00000000009db75d
  DW_CFA_def_cfa_offset: 56
  DW_CFA_offset: r3 (rbx) at cfa-56
  DW_CFA_advance_loc: 6 to 00000000009db763
  DW_CFA_def_cfa_offset: 144
  DW_CFA_advance_loc2: 617 to 00000000009db9cc
  DW_CFA_remember_state
  DW_CFA_def_cfa_offset: 56
  DW_CFA_advance_loc: 4 to 00000000009db9d0
  DW_CFA_def_cfa_offset: 48
  DW_CFA_advance_loc: 1 to 00000000009db9d1
  DW_CFA_def_cfa_offset: 40
  DW_CFA_advance_loc: 2 to 00000000009db9d3
  DW_CFA_def_cfa_offset: 32
  DW_CFA_advance_loc: 2 to 00000000009db9d5
  DW_CFA_def_cfa_offset: 24
  DW_CFA_advance_loc: 2 to 00000000009db9d7
  DW_CFA_def_cfa_offset: 16
  DW_CFA_advance_loc: 2 to 00000000009db9d9
  DW_CFA_def_cfa_offset: 8
  DW_CFA_advance_loc: 5 to 00000000009db9de
  DW_CFA_restore_state
  DW_CFA_nop
  DW_CFA_nop
  DW_CFA_nop

00018cac 000000000000004c 00018cb0 FDE cie=00000000 pc=00000000009dba50..00000000009dbcae
  DW_CFA_advance_loc: 2 to 00000000009dba52
  DW_CFA_def_cfa_offset: 16
  DW_CFA_offset: r15 (r15) at cfa-16
  DW_CFA_advance_loc: 2 to 00000000009dba54
  DW_CFA_def_cfa_offset: 24
  DW_CFA_offset: r14 (r14) at cfa-24
  DW_CFA_advance_loc: 5 to 00000000009dba59
  DW_CFA_def_cfa_offset: 32
  DW_CFA_offset: r13 (r13) at cfa-32
  DW_CFA_advance_loc: 5 to 00000000009dba5e
  DW_CFA_def_cfa_offset: 40
  DW_CFA_offset: r12 (r12) at cfa-40
  DW_CFA_advance_loc: 4 to 00000000009dba62
  DW_CFA_def_cfa_offset: 48
  DW_CFA_offset: r6 (rbp) at cfa-48
  DW_CFA_advance_loc: 4 to 00000000009dba66
  DW_CFA_def_cfa_offset: 56
  DW_CFA_offset: r3 (rbx) at cfa-56
  DW_CFA_advance_loc: 4 to 00000000009dba6a
  DW_CFA_def_cfa_offset: 144
  DW_CFA_advance_loc2: 451 to 00000000009dbc2d
  DW_CFA_remember_state
  DW_CFA_def_cfa_offset: 56
  DW_CFA_advance_loc: 1 to 00000000009dbc2e
  DW_CFA_def_cfa_offset: 48
  DW_CFA_advance_loc: 1 to 00000000009dbc2f
  DW_CFA_def_cfa_offset: 40
  DW_CFA_advance_loc: 2 to 00000000009dbc31
  DW_CFA_def_cfa_offset: 32
  DW_CFA_advance_loc: 2 to 00000000009dbc33
  DW_CFA_def_cfa_offset: 24
  DW_CFA_advance_loc: 2 to 00000000009dbc35
  DW_CFA_def_cfa_offset: 16
  DW_CFA_advance_loc: 2 to 00000000009dbc37
  DW_CFA_def_cfa_offset: 8
  DW_CFA_advance_loc: 5 to 00000000009dbc3c
  DW_CFA_restore_state
  DW_CFA_nop
  DW_CFA_nop
  DW_CFA_nop

00018cfc 000000000000004c 00018d00 FDE cie=00000000 pc=00000000009dbcb0..00000000009dc024
  DW_CFA_advance_loc: 2 to 00000000009dbcb2
  DW_CFA_def_cfa_offset: 16
  DW_CFA_offset: r15 (r15) at cfa-16
  DW_CFA_advance_loc: 2 to 00000000009dbcb4
  DW_CFA_def_cfa_offset: 24
  DW_CFA_offset: r14 (r14) at cfa-24
  DW_CFA_advance_loc: 2 to 00000000009dbcb6
  DW_CFA_def_cfa_offset: 32
  DW_CFA_offset: r13 (r13) at cfa-32
  DW_CFA_advance_loc: 2 to 00000000009dbcb8
  DW_CFA_def_cfa_offset: 40
  DW_CFA_offset: r12 (r12) at cfa-40
  DW_CFA_advance_loc: 4 to 00000000009dbcbc
  DW_CFA_def_cfa_offset: 48
  DW_CFA_offset: r6 (rbp) at cfa-48
  DW_CFA_advance_loc: 1 to 00000000009dbcbd
  DW_CFA_def_cfa_offset: 56
  DW_CFA_offset: r3 (rbx) at cfa-56
  DW_CFA_advance_loc: 9 to 00000000009dbcc6
  DW_CFA_def_cfa_offset: 208
  DW_CFA_advance_loc2: 821 to 00000000009dbffb
  DW_CFA_remember_state
  DW_CFA_def_cfa_offset: 56
  DW_CFA_advance_loc: 1 to 00000000009dbffc
  DW_CFA_def_cfa_offset: 48
  DW_CFA_advance_loc: 1 to 00000000009dbffd
  DW_CFA_def_cfa_offset: 40
  DW_CFA_advance_loc: 2 to 00000000009dbfff
  DW_CFA_def_cfa_offset: 32
  DW_CFA_advance_loc: 2 to 00000000009dc001
  DW_CFA_def_cfa_offset: 24
  DW_CFA_advance_loc: 2 to 00000000009dc003
  DW_CFA_def_cfa_offset: 16
  DW_CFA_advance_loc: 2 to 00000000009dc005
  DW_CFA_def_cfa_offset: 8
  DW_CFA_advance_loc: 5 to 00000000009dc00a
  DW_CFA_restore_state
  DW_CFA_nop
  DW_CFA_nop
  DW_CFA_nop

00018d4c 000000000000004c 00018d50 FDE cie=00000000 pc=00000000009dc030..00000000009dc357
  DW_CFA_advance_loc: 2 to 00000000009dc032
  DW_CFA_def_cfa_offset: 16
  DW_CFA_offset: r15 (r15) at cfa-16
  DW_CFA_advance_loc: 2 to 00000000009dc034
  DW_CFA_def_cfa_offset: 24
  DW_CFA_offset: r14 (r14) at cfa-24
  DW_CFA_advance_loc: 5 to 00000000009dc039
  DW_CFA_def_cfa_offset: 32
  DW_CFA_offset: r13 (r13) at cfa-32
  DW_CFA_advance_loc: 2 to 00000000009dc03b
  DW_CFA_def_cfa_offset: 40
  DW_CFA_offset: r12 (r12) at cfa-40
  DW_CFA_advance_loc: 1 to 00000000009dc03c
  DW_CFA_def_cfa_offset: 48
  DW_CFA_offset: r6 (rbp) at cfa-48
  DW_CFA_advance_loc: 1 to 00000000009dc03d
  DW_CFA_def_cfa_offset: 56
  DW_CFA_offset: r3 (rbx) at cfa-56
  DW_CFA_advance_loc: 9 to 00000000009dc046
  DW_CFA_def_cfa_offset: 192
  DW_CFA_advance_loc2: 744 to 00000000009dc32e
  DW_CFA_remember_state
  DW_CFA_def_cfa_offset: 56
  DW_CFA_advance_loc: 1 to 00000000009dc32f
  DW_CFA_def_cfa_offset: 48
  DW_CFA_advance_loc: 1 to 00000000009dc330
  DW_CFA_def_cfa_offset: 40
  DW_CFA_advance_loc: 2 to 00000000009dc332
  DW_CFA_def_cfa_offset: 32
  DW_CFA_advance_loc: 2 to 00000000009dc334
  DW_CFA_def_cfa_offset: 24
  DW_CFA_advance_loc: 2 to 00000000009dc336
  DW_CFA_def_cfa_offset: 16
  DW_CFA_advance_loc: 2 to 00000000009dc338
  DW_CFA_def_cfa_offset: 8
  DW_CFA_advance_loc: 5 to 00000000009dc33d
  DW_CFA_restore_state
  DW_CFA_nop
  DW_CFA_nop
  DW_CFA_nop

00018d9c 0000000000000018 00018da0 FDE cie=00000000 pc=00000000009dc360..00000000009dcd9a
  DW_CFA_advance_loc: 4 to 00000000009dc364
  DW_CFA_def_cfa_offset: 16
  DW_CFA_advance_loc2: 2573 to 00000000009dcd71
  DW_CFA_remember_state
  DW_CFA_def_cfa_offset: 8
  DW_CFA_advance_loc: 15 to 00000000009dcd80
  DW_CFA_restore_state

00018db8 0000000000000018 00018dbc FDE cie=00000000 pc=00000000009dcda0..00000000009dd7da
  DW_CFA_advance_loc: 4 to 00000000009dcda4
  DW_CFA_def_cfa_offset: 16
  DW_CFA_advance_loc2: 2573 to 00000000009dd7b1
  DW_CFA_remember_state
  DW_CFA_def_cfa_offset: 8
  DW_CFA_advance_loc: 15 to 00000000009dd7c0
  DW_CFA_restore_state

00018dd4 0000000000000018 00018dd8 FDE cie=00000000 pc=00000000009dd7e0..00000000009ddbda
  DW_CFA_advance_loc: 4 to 00000000009dd7e4
  DW_CFA_def_cfa_offset: 16
  DW_CFA_advance_loc2: 979 to 00000000009ddbb7
  DW_CFA_remember_state
  DW_CFA_def_cfa_offset: 8
  DW_CFA_advance_loc: 9 to 00000000009ddbc0
  DW_CFA_restore_state

00018df0 0000000000000018 00018df4 FDE cie=00000000 pc=00000000009ddbe0..00000000009ddfda
  DW_CFA_advance_loc: 4 to 00000000009ddbe4
  DW_CFA_def_cfa_offset: 16
  DW_CFA_advance_loc2: 979 to 00000000009ddfb7
  DW_CFA_remember_state
  DW_CFA_def_cfa_offset: 8
  DW_CFA_advance_loc: 9 to 00000000009ddfc0
  DW_CFA_restore_state

00018e0c 0000000000000038 00018e10 FDE cie=00000000 pc=00000000009ddfe0..00000000009de16a
  DW_CFA_advance_loc: 2 to 00000000009ddfe2
  DW_CFA_def_cfa_offset: 16
  DW_CFA_offset: r14 (r14) at cfa-16
  DW_CFA_advance_loc: 2 to 00000000009ddfe4
  DW_CFA_def_cfa_offset: 24
  DW_CFA_offset: r13 (r13) at cfa-24
  DW_CFA_advance_loc: 2 to 00000000009ddfe6
  DW_CFA_def_cfa_offset: 32
  DW_CFA_offset: r12 (r12) at cfa-32
  DW_CFA_advance_loc: 1 to 00000000009ddfe7
  DW_CFA_def_cfa_offset: 40
  DW_CFA_offset: r6 (rbp) at cfa-40
  DW_CFA_advance_loc: 4 to 00000000009ddfeb
  DW_CFA_def_cfa_offset: 48
  DW_CFA_advance_loc2: 338 to 00000000009de13d
  DW_CFA_remember_state
  DW_CFA_def_cfa_offset: 40
  DW_CFA_advance_loc: 1 to 00000000009de13e
  DW_CFA_def_cfa_offset: 32
  DW_CFA_advance_loc: 2 to 00000000009de140
  DW_CFA_def_cfa_offset: 24
  DW_CFA_advance_loc: 2 to 00000000009de142
  DW_CFA_def_cfa_offset: 16
  DW_CFA_advance_loc: 2 to 00000000009de144
  DW_CFA_def_cfa_offset: 8
  DW_CFA_advance_loc: 12 to 00000000009de150
  DW_CFA_restore_state

00018e48 0000000000000038 00018e4c FDE cie=00000000 pc=00000000009de170..00000000009de2fa
  DW_CFA_advance_loc: 2 to 00000000009de172
  DW_CFA_def_cfa_offset: 16
  DW_CFA_offset: r14 (r14) at cfa-16
  DW_CFA_advance_loc: 2 to 00000000009de174
  DW_CFA_def_cfa_offset: 24
  DW_CFA_offset: r13 (r13) at cfa-24
  DW_CFA_advance_loc: 2 to 00000000009de176
  DW_CFA_def_cfa_offset: 32
  DW_CFA_offset: r12 (r12) at cfa-32
  DW_CFA_advance_loc: 1 to 00000000009de177
  DW_CFA_def_cfa_offset: 40
  DW_CFA_offset: r6 (rbp) at cfa-40
  DW_CFA_advance_loc: 4 to 00000000009de17b
  DW_CFA_def_cfa_offset: 48
  DW_CFA_advance_loc2: 338 to 00000000009de2cd
  DW_CFA_remember_state
  DW_CFA_def_cfa_offset: 40
  DW_CFA_advance_loc: 1 to 00000000009de2ce
  DW_CFA_def_cfa_offset: 32
  DW_CFA_advance_loc: 2 to 00000000009de2d0
  DW_CFA_def_cfa_offset: 24
  DW_CFA_advance_loc: 2 to 00000000009de2d2
  DW_CFA_def_cfa_offset: 16
  DW_CFA_advance_loc: 2 to 00000000009de2d4
  DW_CFA_def_cfa_offset: 8
  DW_CFA_advance_loc: 12 to 00000000009de2e0
  DW_CFA_restore_state

00018e84 0000000000000048 00018e88 FDE cie=00000000 pc=00000000009de300..00000000009de48d
  DW_CFA_advance_loc: 2 to 00000000009de302
  DW_CFA_def_cfa_offset: 16
  DW_CFA_offset: r15 (r15) at cfa-16
  DW_CFA_advance_loc: 2 to 00000000009de304
  DW_CFA_def_cfa_offset: 24
  DW_CFA_offset: r14 (r14) at cfa-24
  DW_CFA_advance_loc: 2 to 00000000009de306
  DW_CFA_def_cfa_offset: 32
  DW_CFA_offset: r13 (r13) at cfa-32
  DW_CFA_advance_loc: 2 to 00000000009de308
  DW_CFA_def_cfa_offset: 40
  DW_CFA_offset: r12 (r12) at cfa-40
  DW_CFA_advance_loc: 1 to 00000000009de309
  DW_CFA_def_cfa_offset: 48
  DW_CFA_offset: r6 (rbp) at cfa-48
  DW_CFA_advance_loc: 1 to 00000000009de30a
  DW_CFA_def_cfa_offset: 56
  DW_CFA_offset: r3 (rbx) at cfa-56
  DW_CFA_advance_loc: 4 to 00000000009de30e
  DW_CFA_def_cfa_offset: 96
  DW_CFA_advance_loc2: 334 to 00000000009de45c
  DW_CFA_remember_state
  DW_CFA_def_cfa_offset: 56
  DW_CFA_advance_loc: 1 to 00000000009de45d
  DW_CFA_def_cfa_offset: 48
  DW_CFA_advance_loc: 1 to 00000000009de45e
  DW_CFA_def_cfa_offset: 40
  DW_CFA_advance_loc: 2 to 00000000009de460
  DW_CFA_def_cfa_offset: 32
  DW_CFA_advance_loc: 2 to 00000000009de462
  DW_CFA_def_cfa_offset: 24
  DW_CFA_advance_loc: 2 to 00000000009de464
  DW_CFA_def_cfa_offset: 16
  DW_CFA_advance_loc: 2 to 00000000009de466
  DW_CFA_def_cfa_offset: 8
  DW_CFA_advance_loc: 10 to 00000000009de470
  DW_CFA_restore_state

00018ed0 0000000000000048 00018ed4 FDE cie=00000000 pc=00000000009de490..00000000009de615
  DW_CFA_advance_loc: 2 to 00000000009de492
  DW_CFA_def_cfa_offset: 16
  DW_CFA_offset: r15 (r15) at cfa-16
  DW_CFA_advance_loc: 2 to 00000000009de494
  DW_CFA_def_cfa_offset: 24
  DW_CFA_offset: r14 (r14) at cfa-24
  DW_CFA_advance_loc: 2 to 00000000009de496
  DW_CFA_def_cfa_offset: 32
  DW_CFA_offset: r13 (r13) at cfa-32
  DW_CFA_advance_loc: 2 to 00000000009de498
  DW_CFA_def_cfa_offset: 40
  DW_CFA_offset: r12 (r12) at cfa-40
  DW_CFA_advance_loc: 1 to 00000000009de499
  DW_CFA_def_cfa_offset: 48
  DW_CFA_offset: r6 (rbp) at cfa-48
  DW_CFA_advance_loc: 1 to 00000000009de49a
  DW_CFA_def_cfa_offset: 56
  DW_CFA_offset: r3 (rbx) at cfa-56
  DW_CFA_advance_loc: 4 to 00000000009de49e
  DW_CFA_def_cfa_offset: 96
  DW_CFA_advance_loc2: 327 to 00000000009de5e5
  DW_CFA_remember_state
  DW_CFA_def_cfa_offset: 56
  DW_CFA_advance_loc: 1 to 00000000009de5e6
  DW_CFA_def_cfa_offset: 48
  DW_CFA_advance_loc: 1 to 00000000009de5e7
  DW_CFA_def_cfa_offset: 40
  DW_CFA_advance_loc: 2 to 00000000009de5e9
  DW_CFA_def_cfa_offset: 32
  DW_CFA_advance_loc: 2 to 00000000009de5eb
  DW_CFA_def_cfa_offset: 24
  DW_CFA_advance_loc: 2 to 00000000009de5ed
  DW_CFA_def_cfa_offset: 16
  DW_CFA_advance_loc: 2 to 00000000009de5ef
  DW_CFA_def_cfa_offset: 8
  DW_CFA_advance_loc: 9 to 00000000009de5f8
  DW_CFA_restore_state

00018f1c 0000000000000038 00018f20 FDE cie=00000000 pc=00000000009de620..00000000009de6ea
  DW_CFA_advance_loc: 2 to 00000000009de622
  DW_CFA_def_cfa_offset: 16
  DW_CFA_offset: r13 (r13) at cfa-16
  DW_CFA_advance_loc: 2 to 00000000009de624
  DW_CFA_def_cfa_offset: 24
  DW_CFA_offset: r12 (r12) at cfa-24
  DW_CFA_advance_loc: 1 to 00000000009de625
  DW_CFA_def_cfa_offset: 32
  DW_CFA_offset: r6 (rbp) at cfa-32
  DW_CFA_advance_loc: 1 to 00000000009de626
  DW_CFA_def_cfa_offset: 40
  DW_CFA_offset: r3 (rbx) at cfa-40
  DW_CFA_advance_loc: 4 to 00000000009de62a
  DW_CFA_def_cfa_offset: 48
  DW_CFA_advance_loc1: 158 to 00000000009de6c8
  DW_CFA_remember_state
  DW_CFA_def_cfa_offset: 40
  DW_CFA_advance_loc: 1 to 00000000009de6c9
  DW_CFA_def_cfa_offset: 32
  DW_CFA_advance_loc: 1 to 00000000009de6ca
  DW_CFA_def_cfa_offset: 24
  DW_CFA_advance_loc: 2 to 00000000009de6cc
  DW_CFA_def_cfa_offset: 16
  DW_CFA_advance_loc: 2 to 00000000009de6ce
  DW_CFA_def_cfa_offset: 8
  DW_CFA_advance_loc: 2 to 00000000009de6d0
  DW_CFA_restore_state
  DW_CFA_nop

00018f58 0000000000000038 00018f5c FDE cie=00000000 pc=00000000009de6f0..00000000009de7ba
  DW_CFA_advance_loc: 2 to 00000000009de6f2
  DW_CFA_def_cfa_offset: 16
  DW_CFA_offset: r13 (r13) at cfa-16
  DW_CFA_advance_loc: 2 to 00000000009de6f4
  DW_CFA_def_cfa_offset: 24
  DW_CFA_offset: r12 (r12) at cfa-24
  DW_CFA_advance_loc: 1 to 00000000009de6f5
  DW_CFA_def_cfa_offset: 32
  DW_CFA_offset: r6 (rbp) at cfa-32
  DW_CFA_advance_loc: 1 to 00000000009de6f6
  DW_CFA_def_cfa_offset: 40
  DW_CFA_offset: r3 (rbx) at cfa-40
  DW_CFA_advance_loc: 4 to 00000000009de6fa
  DW_CFA_def_cfa_offset: 48
  DW_CFA_advance_loc1: 151 to 00000000009de791
  DW_CFA_remember_state
  DW_CFA_def_cfa_offset: 40
  DW_CFA_advance_loc: 1 to 00000000009de792
  DW_CFA_def_cfa_offset: 32
  DW_CFA_advance_loc: 1 to 00000000009de793
  DW_CFA_def_cfa_offset: 24
  DW_CFA_advance_loc: 2 to 00000000009de795
  DW_CFA_def_cfa_offset: 16
  DW_CFA_advance_loc: 2 to 00000000009de797
  DW_CFA_def_cfa_offset: 8
  DW_CFA_advance_loc: 9 to 00000000009de7a0
  DW_CFA_restore_state
  DW_CFA_nop

00018f94 0000000000000048 00018f98 FDE cie=00000000 pc=00000000009de7c0..00000000009de98d
  DW_CFA_advance_loc: 2 to 00000000009de7c2
  DW_CFA_def_cfa_offset: 16
  DW_CFA_offset: r15 (r15) at cfa-16
  DW_CFA_advance_loc: 2 to 00000000009de7c4
  DW_CFA_def_cfa_offset: 24
  DW_CFA_offset: r14 (r14) at cfa-24
  DW_CFA_advance_loc: 2 to 00000000009de7c6
  DW_CFA_def_cfa_offset: 32
  DW_CFA_offset: r13 (r13) at cfa-32
  DW_CFA_advance_loc: 2 to 00000000009de7c8
  DW_CFA_def_cfa_offset: 40
  DW_CFA_offset: r12 (r12) at cfa-40
  DW_CFA_advance_loc: 4 to 00000000009de7cc
  DW_CFA_def_cfa_offset: 48
  DW_CFA_offset: r6 (rbp) at cfa-48
  DW_CFA_advance_loc: 1 to 00000000009de7cd
  DW_CFA_def_cfa_offset: 56
  DW_CFA_offset: r3 (rbx) at cfa-56
  DW_CFA_advance_loc: 7 to 00000000009de7d4
  DW_CFA_def_cfa_offset: 112
  DW_CFA_advance_loc2: 399 to 00000000009de963
  DW_CFA_remember_state
  DW_CFA_def_cfa_offset: 56
  DW_CFA_advance_loc: 1 to 00000000009de964
  DW_CFA_def_cfa_offset: 48
  DW_CFA_advance_loc: 1 to 00000000009de965
  DW_CFA_def_cfa_offset: 40
  DW_CFA_advance_loc: 2 to 00000000009de967
  DW_CFA_def_cfa_offset: 32
  DW_CFA_advance_loc: 2 to 00000000009de969
  DW_CFA_def_cfa_offset: 24
  DW_CFA_advance_loc: 2 to 00000000009de96b
  DW_CFA_def_cfa_offset: 16
  DW_CFA_advance_loc: 2 to 00000000009de96d
  DW_CFA_def_cfa_offset: 8
  DW_CFA_advance_loc: 3 to 00000000009de970
  DW_CFA_restore_state

00018fe0 0000000000000064 00018fe4 FDE cie=00000000 pc=00000000009de990..00000000009deba0
  DW_CFA_advance_loc: 2 to 00000000009de992
  DW_CFA_def_cfa_offset: 16
  DW_CFA_offset: r15 (r15) at cfa-16
  DW_CFA_advance_loc: 9 to 00000000009de99b
  DW_CFA_def_cfa_offset: 24
  DW_CFA_offset: r14 (r14) at cfa-24
  DW_CFA_advance_loc: 2 to 00000000009de99d
  DW_CFA_def_cfa_offset: 32
  DW_CFA_offset: r13 (r13) at cfa-32
  DW_CFA_advance_loc: 2 to 00000000009de99f
  DW_CFA_def_cfa_offset: 40
  DW_CFA_offset: r12 (r12) at cfa-40
  DW_CFA_advance_loc: 1 to 00000000009de9a0
  DW_CFA_def_cfa_offset: 48
  DW_CFA_offset: r6 (rbp) at cfa-48
  DW_CFA_advance_loc: 3 to 00000000009de9a3
  DW_CFA_def_cfa_offset: 56
  DW_CFA_offset: r3 (rbx) at cfa-56
  DW_CFA_advance_loc: 4 to 00000000009de9a7
  DW_CFA_def_cfa_offset: 112
  DW_CFA_advance_loc1: 186 to 00000000009dea61
  DW_CFA_remember_state
  DW_CFA_def_cfa_offset: 56
  DW_CFA_advance_loc: 1 to 00000000009dea62
  DW_CFA_def_cfa_offset: 48
  DW_CFA_advance_loc: 1 to 00000000009dea63
  DW_CFA_def_cfa_offset: 40
  DW_CFA_advance_loc: 2 to 00000000009dea65
  DW_CFA_def_cfa_offset: 32
  DW_CFA_advance_loc: 2 to 00000000009dea67
  DW_CFA_def_cfa_offset: 24
  DW_CFA_advance_loc: 2 to 00000000009dea69
  DW_CFA_def_cfa_offset: 16
  DW_CFA_advance_loc: 2 to 00000000009dea6b
  DW_CFA_def_cfa_offset: 8
  DW_CFA_advance_loc: 5 to 00000000009dea70
  DW_CFA_restore_state
  DW_CFA_advance_loc2: 284 to 00000000009deb8c
  DW_CFA_remember_state
  DW_CFA_def_cfa_offset: 56
  DW_CFA_advance_loc: 1 to 00000000009deb8d
  DW_CFA_def_cfa_offset: 48
  DW_CFA_advance_loc: 1 to 00000000009deb8e
  DW_CFA_def_cfa_offset: 40
  DW_CFA_advance_loc: 2 to 00000000009deb90
  DW_CFA_def_cfa_offset: 32
  DW_CFA_advance_loc: 2 to 00000000009deb92
  DW_CFA_def_cfa_offset: 24
  DW_CFA_advance_loc: 2 to 00000000009deb94
  DW_CFA_def_cfa_offset: 16
  DW_CFA_advance_loc: 2 to 00000000009deb96
  DW_CFA_def_cfa_offset: 8
  DW_CFA_advance_loc: 5 to 00000000009deb9b
  DW_CFA_restore_state
  DW_CFA_nop
  DW_CFA_nop
  DW_CFA_nop

00019048 0000000000000028 0001904c FDE cie=00000000 pc=00000000009deba0..00000000009dec37
  DW_CFA_advance_loc: 2 to 00000000009deba2
  DW_CFA_def_cfa_offset: 16
  DW_CFA_offset: r12 (r12) at cfa-16
  DW_CFA_advance_loc: 1 to 00000000009deba3
  DW_CFA_def_cfa_offset: 24
  DW_CFA_offset: r6 (rbp) at cfa-24
  DW_CFA_advance_loc: 1 to 00000000009deba4
  DW_CFA_def_cfa_offset: 32
  DW_CFA_offset: r3 (rbx) at cfa-32
  DW_CFA_advance_loc: 51 to 00000000009debd7
  DW_CFA_remember_state
  DW_CFA_def_cfa_offset: 24
  DW_CFA_advance_loc: 1 to 00000000009debd8
  DW_CFA_def_cfa_offset: 16
  DW_CFA_advance_loc: 2 to 00000000009debda
  DW_CFA_def_cfa_offset: 8
  DW_CFA_advance_loc: 6 to 00000000009debe0
  DW_CFA_restore_state

00019074 0000000000000038 00019078 FDE cie=00000000 pc=00000000009dec40..00000000009ded7a
  DW_CFA_advance_loc: 2 to 00000000009dec42
  DW_CFA_def_cfa_offset: 16
  DW_CFA_offset: r13 (r13) at cfa-16
  DW_CFA_advance_loc: 2 to 00000000009dec44
  DW_CFA_def_cfa_offset: 24
  DW_CFA_offset: r12 (r12) at cfa-24
  DW_CFA_advance_loc: 1 to 00000000009dec45
  DW_CFA_def_cfa_offset: 32
  DW_CFA_offset: r6 (rbp) at cfa-32
  DW_CFA_advance_loc: 1 to 00000000009dec46
  DW_CFA_def_cfa_offset: 40
  DW_CFA_offset: r3 (rbx) at cfa-40
  DW_CFA_advance_loc: 4 to 00000000009dec4a
  DW_CFA_def_cfa_offset: 48
  DW_CFA_advance_loc1: 145 to 00000000009decdb
  DW_CFA_remember_state
  DW_CFA_def_cfa_offset: 40
  DW_CFA_advance_loc: 1 to 00000000009decdc
  DW_CFA_def_cfa_offset: 32
  DW_CFA_advance_loc: 1 to 00000000009decdd
  DW_CFA_def_cfa_offset: 24
  DW_CFA_advance_loc: 2 to 00000000009decdf
  DW_CFA_def_cfa_offset: 16
  DW_CFA_advance_loc: 2 to 00000000009dece1
  DW_CFA_def_cfa_offset: 8
  DW_CFA_advance_loc: 7 to 00000000009dece8
  DW_CFA_restore_state
  DW_CFA_nop

000190b0 000000000000001c 000190b4 FDE cie=00000000 pc=00000000009ded80..00000000009dedec
  DW_CFA_advance_loc: 8 to 00000000009ded88
  DW_CFA_def_cfa_offset: 16
  DW_CFA_offset: r3 (rbx) at cfa-16
  DW_CFA_advance_loc: 23 to 00000000009ded9f
  DW_CFA_remember_state
  DW_CFA_def_cfa_offset: 8
  DW_CFA_advance_loc: 1 to 00000000009deda0
  DW_CFA_restore_state
  DW_CFA_advance_loc1: 75 to 00000000009dedeb
  DW_CFA_def_cfa_offset: 8

000190d0 0000000000000024 000190d4 FDE cie=00000000 pc=00000000009dedf0..00000000009dee57
  DW_CFA_advance_loc: 8 to 00000000009dedf8
  DW_CFA_def_cfa_offset: 16
  DW_CFA_offset: r6 (rbp) at cfa-16
  DW_CFA_advance_loc: 25 to 00000000009dee11
  DW_CFA_remember_state
  DW_CFA_def_cfa_offset: 8
  DW_CFA_advance_loc: 7 to 00000000009dee18
  DW_CFA_restore_state
  DW_CFA_advance_loc: 16 to 00000000009dee28
  DW_CFA_remember_state
  DW_CFA_def_cfa_offset: 8
  DW_CFA_advance_loc: 8 to 00000000009dee30
  DW_CFA_restore_state
  DW_CFA_advance_loc: 7 to 00000000009dee37
  DW_CFA_remember_state
  DW_CFA_def_cfa_offset: 8
  DW_CFA_advance_loc: 9 to 00000000009dee40
  DW_CFA_restore_state

000190f8 000000000000001c 000190fc FDE cie=00000000 pc=00000000009dee60..00000000009deed5
  DW_CFA_advance_loc: 59 to 00000000009dee9b
  DW_CFA_def_cfa_offset: 16
  DW_CFA_advance_loc: 40 to 00000000009deec3
  DW_CFA_remember_state
  DW_CFA_def_cfa_offset: 8
  DW_CFA_advance_loc: 13 to 00000000009deed0
  DW_CFA_restore_state
  DW_CFA_advance_loc: 4 to 00000000009deed4
  DW_CFA_def_cfa_offset: 8
  DW_CFA_nop
  DW_CFA_nop
  DW_CFA_nop

00019118 0000000000000010 0001911c FDE cie=00000000 pc=00000000009deee0..00000000009def05
  DW_CFA_nop
  DW_CFA_nop
  DW_CFA_nop

0001912c 0000000000000014 00019130 FDE cie=00000000 pc=00000000009def10..00000000009def42
  DW_CFA_advance_loc: 20 to 00000000009def24
  DW_CFA_def_cfa_offset: 16
  DW_CFA_advance_loc: 29 to 00000000009def41
  DW_CFA_def_cfa_offset: 8
  DW_CFA_nop

00019144 0000000000000010 00019148 FDE cie=00000000 pc=00000000009def50..00000000009def75
  DW_CFA_nop
  DW_CFA_nop
  DW_CFA_nop

00019158 0000000000000010 0001915c FDE cie=00000000 pc=00000000009def80..00000000009def81
  DW_CFA_nop
  DW_CFA_nop
  DW_CFA_nop

0001916c 0000000000000010 00019170 FDE cie=00000000 pc=00000000009def90..00000000009def91
  DW_CFA_nop
  DW_CFA_nop
  DW_CFA_nop

00019180 0000000000000010 00019184 FDE cie=00000000 pc=00000000009defa0..00000000009defa1
  DW_CFA_nop
  DW_CFA_nop
  DW_CFA_nop

00019194 0000000000000010 00019198 FDE cie=00000000 pc=00000000009defb0..00000000009defb1
  DW_CFA_nop
  DW_CFA_nop
  DW_CFA_nop

000191a8 0000000000000010 000191ac FDE cie=00000000 pc=00000000009defc0..00000000009defc1
  DW_CFA_nop
  DW_CFA_nop
  DW_CFA_nop

000191bc 0000000000000010 000191c0 FDE cie=00000000 pc=00000000009defd0..00000000009defd1
  DW_CFA_nop
  DW_CFA_nop
  DW_CFA_nop

000191d0 0000000000000014 000191d4 FDE cie=00000000 pc=00000000009defe0..00000000009defe1
  DW_CFA_nop
  DW_CFA_nop
  DW_CFA_nop
  DW_CFA_nop
  DW_CFA_nop
  DW_CFA_nop
  DW_CFA_nop

000191e8 0000000000000010 000191ec FDE cie=00000000 pc=00000000009deff0..00000000009deff3
  DW_CFA_nop
  DW_CFA_nop
  DW_CFA_nop

000191fc 0000000000000010 00019200 FDE cie=00000000 pc=00000000009df000..00000000009df001
  DW_CFA_nop
  DW_CFA_nop
  DW_CFA_nop

00019210 0000000000000010 00019214 FDE cie=00000000 pc=00000000009df010..00000000009df011
  DW_CFA_nop
  DW_CFA_nop
  DW_CFA_nop

00019224 0000000000000010 00019228 FDE cie=00000000 pc=00000000009df020..00000000009df021
  DW_CFA_nop
  DW_CFA_nop
  DW_CFA_nop

00019238 0000000000000014 0001923c FDE cie=00000000 pc=00000000009df030..00000000009df031
  DW_CFA_nop
  DW_CFA_nop
  DW_CFA_nop
  DW_CFA_nop
  DW_CFA_nop
  DW_CFA_nop
  DW_CFA_nop

00019250 0000000000000044 00019254 FDE cie=00000000 pc=00000000009df040..00000000009df0a5
  DW_CFA_advance_loc: 6 to 00000000009df046
  DW_CFA_def_cfa_offset: 16
  DW_CFA_offset: r15 (r15) at cfa-16
  DW_CFA_advance_loc: 9 to 00000000009df04f
  DW_CFA_def_cfa_offset: 24
  DW_CFA_offset: r14 (r14) at cfa-24
  DW_CFA_advance_loc: 5 to 00000000009df054
  DW_CFA_def_cfa_offset: 32
  DW_CFA_offset: r13 (r13) at cfa-32
  DW_CFA_advance_loc: 5 to 00000000009df059
  DW_CFA_def_cfa_offset: 40
  DW_CFA_offset: r12 (r12) at cfa-40
  DW_CFA_advance_loc: 4 to 00000000009df05d
  DW_CFA_def_cfa_offset: 48
  DW_CFA_offset: r6 (rbp) at cfa-48
  DW_CFA_advance_loc: 8 to 00000000009df065
  DW_CFA_def_cfa_offset: 56
  DW_CFA_offset: r3 (rbx) at cfa-56
  DW_CFA_advance_loc: 7 to 00000000009df06c
  DW_CFA_def_cfa_offset: 64
  DW_CFA_advance_loc: 46 to 00000000009df09a
  DW_CFA_def_cfa_offset: 56
  DW_CFA_advance_loc: 1 to 00000000009df09b
  DW_CFA_def_cfa_offset: 48
  DW_CFA_advance_loc: 1 to 00000000009df09c
  DW_CFA_def_cfa_offset: 40
  DW_CFA_advance_loc: 2 to 00000000009df09e
  DW_CFA_def_cfa_offset: 32
  DW_CFA_advance_loc: 2 to 00000000009df0a0
  DW_CFA_def_cfa_offset: 24
  DW_CFA_advance_loc: 2 to 00000000009df0a2
  DW_CFA_def_cfa_offset: 16
  DW_CFA_advance_loc: 2 to 00000000009df0a4
  DW_CFA_def_cfa_offset: 8
  DW_CFA_nop

00019298 0000000000000014 0001929c FDE cie=00000000 pc=00000000009df0b0..00000000009df0b5
  DW_CFA_nop
  DW_CFA_nop
  DW_CFA_nop
  DW_CFA_nop
  DW_CFA_nop
  DW_CFA_nop
  DW_CFA_nop

000192b0 0000000000000010 000192b4 FDE cie=00000000 pc=00000000009df0c0..00000000009df0d2
  DW_CFA_nop
  DW_CFA_nop
  DW_CFA_nop

000192c4 ZERO terminator


Contents of the .debug_aranges section (loaded from qb64):

  Length:                   476
  Version:                  2
  Offset into .debug_info:  0x0
  Pointer Size:             8
  Segment Size:             0

    Address            Length
    0000000000406206 000000000049dd1a 
    00000000008a3f20 0000000000000015 
    00000000008a3f35 0000000000000015 
    00000000008a3f4a 0000000000000015 
    00000000008a3f5f 0000000000000022 
    00000000008a3f81 0000000000000015 
    00000000008a3f96 000000000000001b 
    00000000008a3fb1 000000000000001f 
    00000000008a3fd0 0000000000000063 
    00000000008a4033 0000000000000022 
    00000000008a4055 0000000000000015 
    00000000008a406a 0000000000000015 
    00000000008a407f 000000000000002d 
    00000000008a40ac 0000000000000015 
    00000000008a40c1 0000000000000015 
    00000000008a40d6 000000000000001b 
    00000000008a40f1 0000000000000018 
    00000000008a4109 0000000000000013 
    00000000008a411c 0000000000000018 
    00000000008a4134 0000000000000031 
    00000000008a4165 0000000000000028 
    00000000008a418d 000000000000003a 
    00000000008a41c7 0000000000000080 
    00000000008a4247 00000000000000a3 
    00000000008a42ea 000000000000000f 
    00000000008a42f9 0000000000000012 
    00000000008a430b 0000000000000012 
    00000000008a431d 000000000000000f 
    0000000000000000 0000000000000000 
  Length:                   252
  Version:                  2
  Offset into .debug_info:  0x7973c
  Pointer Size:             8
  Segment Size:             0

    Address            Length
    00000000008a432c 0000000000093ec3 
    00000000009381ef 0000000000000026 
    00000000008a3f5f 0000000000000022 
    0000000000938215 0000000000000015 
    00000000008a4033 0000000000000022 
    000000000093822a 000000000000001b 
    0000000000938245 0000000000000012 
    0000000000938257 000000000000002f 
    0000000000938286 0000000000000011 
    0000000000938297 000000000000000e 
    00000000009382a5 0000000000000072 
    0000000000938317 000000000000000e 
    0000000000938325 000000000000006f 
    0000000000938394 0000000000000030 
    0000000000000000 0000000000000000 
  Length:                   60
  Version:                  2
  Offset into .debug_info:  0xc6e03
  Pointer Size:             8
  Segment Size:             0

    Address            Length
    00000000009ce4f0 0000000000000c47 
    00000000004060e0 0000000000000018 
    0000000000000000 0000000000000000 
  Length:                   44
  Version:                  2
  Offset into .debug_info:  0xc876b
  Pointer Size:             8
  Segment Size:             0

    Address            Length
    00000000009cf140 000000000000033e 
    0000000000000000 0000000000000000 
  Length:                   44
  Version:                  2
  Offset into .debug_info:  0xc980b
  Pointer Size:             8
  Segment Size:             0

    Address            Length
    00000000009cf480 00000000000001e7 
    0000000000000000 0000000000000000 
  Length:                   44
  Version:                  2
  Offset into .debug_info:  0xca6af
  Pointer Size:             8
  Segment Size:             0

    Address            Length
    00000000009cf670 0000000000000cf8 
    0000000000000000 0000000000000000 
  Length:                   44
  Version:                  2
  Offset into .debug_info:  0xccd08
  Pointer Size:             8
  Segment Size:             0

    Address            Length
    00000000009d0370 00000000000004af 
    0000000000000000 0000000000000000 
  Length:                   44
  Version:                  2
  Offset into .debug_info:  0xce180
  Pointer Size:             8
  Segment Size:             0

    Address            Length
    00000000009d0820 0000000000000b87 
    0000000000000000 0000000000000000 
  Length:                   44
  Version:                  2
  Offset into .debug_info:  0xcfbb9
  Pointer Size:             8
  Segment Size:             0

    Address            Length
    00000000009d13b0 0000000000001070 
    0000000000000000 0000000000000000 
  Length:                   60
  Version:                  2
  Offset into .debug_info:  0xd3c3e
  Pointer Size:             8
  Segment Size:             0

    Address            Length
    00000000009d2420 00000000000015b2 
    00000000004060f8 0000000000000026 
    0000000000000000 0000000000000000 
  Length:                   44
  Version:                  2
  Offset into .debug_info:  0xd6901
  Pointer Size:             8
  Segment Size:             0

    Address            Length
    00000000009d39e0 00000000000007ab 
    0000000000000000 0000000000000000 
  Length:                   44
  Version:                  2
  Offset into .debug_info:  0xd9cd6
  Pointer Size:             8
  Segment Size:             0

    Address            Length
    00000000009d4190 0000000000000e6d 
    0000000000000000 0000000000000000 
  Length:                   44
  Version:                  2
  Offset into .debug_info:  0xdbb68
  Pointer Size:             8
  Segment Size:             0

    Address            Length
    00000000009d5000 0000000000000e75 
    0000000000000000 0000000000000000 
  Length:                   44
  Version:                  2
  Offset into .debug_info:  0xddb6d
  Pointer Size:             8
  Segment Size:             0

    Address            Length
    00000000009d5e80 0000000000001a95 
    0000000000000000 0000000000000000 
  Length:                   44
  Version:                  2
  Offset into .debug_info:  0xe236c
  Pointer Size:             8
  Segment Size:             0

    Address            Length
    00000000009d7920 00000000000014a5 
    0000000000000000 0000000000000000 
  Length:                   44
  Version:                  2
  Offset into .debug_info:  0xe4d62
  Pointer Size:             8
  Segment Size:             0

    Address            Length
    00000000009d8dd0 0000000000000e4f 
    0000000000000000 0000000000000000 
  Length:                   28
  Version:                  2
  Offset into .debug_info:  0xe62a6
  Pointer Size:             8
  Segment Size:             0

    Address            Length
    0000000000000000 0000000000000000 
  Length:                   44
  Version:                  2
  Offset into .debug_info:  0xf3e54
  Pointer Size:             8
  Segment Size:             0

    Address            Length
    00000000009d9c20 00000000000003df 
    0000000000000000 0000000000000000 
  Length:                   44
  Version:                  2
  Offset into .debug_info:  0xf4f8f
  Pointer Size:             8
  Segment Size:             0

    Address            Length
    00000000009da000 0000000000004ba0 
    0000000000000000 0000000000000000 
  Length:                   28
  Version:                  2
  Offset into .debug_info:  0xfc333
  Pointer Size:             8
  Segment Size:             0

    Address            Length
    0000000000000000 0000000000000000 
  Length:                   44
  Version:                  2
  Offset into .debug_info:  0xfc5bf
  Pointer Size:             8
  Segment Size:             0

    Address            Length
    00000000009deba0 00000000000003d5 
    0000000000000000 0000000000000000 
  Length:                   44
  Version:                  2
  Offset into .debug_info:  0xfd51d
  Pointer Size:             8
  Segment Size:             0

    Address            Length
    00000000009def80 0000000000000061 
    0000000000000000 0000000000000000 
  Length:                   28
  Version:                  2
  Offset into .debug_info:  0xfd647
  Pointer Size:             8
  Segment Size:             0

    Address            Length
    0000000000000000 0000000000000000 
  Length:                   28
  Version:                  2
  Offset into .debug_info:  0xffb96
  Pointer Size:             8
  Segment Size:             0

    Address            Length
    0000000000000000 0000000000000000 
  Length:                   44
  Version:                  2
  Offset into .debug_info:  0x1020e5
  Pointer Size:             8
  Segment Size:             0

    Address            Length
    00000000009deff0 0000000000000041 
    0000000000000000 0000000000000000 

Contents of the .debug_info section (loaded from qb64):

  Compilation Unit @ offset 0x0:
   Length:        0x79738 (32-bit)
   Version:       5
   Unit Type:     DW_UT_compile (1)
   Abbrev Offset: 0x0
   Pointer Size:  8
 <0><c>: Abbrev Number: 97 (DW_TAG_compile_unit)
    <d>   DW_AT_producer    : (indirect string, offset: 0x263c3): GNU C++17 11.1.0 -mtune=generic -march=x86-64 -g
    <11>   DW_AT_language    : 33	(C++14)
    <12>   DW_AT_name        : (indirect line string, offset: 0x1b): qbx.cpp
    <16>   DW_AT_comp_dir    : (indirect line string, offset: 0x0): /home/main/qb64/internal/c
    <1a>   DW_AT_ranges      : 0x1f
    <1e>   DW_AT_low_pc      : 0x0
    <26>   DW_AT_stmt_list   : 0x0
 <1><2a>: Abbrev Number: 33 (DW_TAG_base_type)
    <2b>   DW_AT_byte_size   : 8
    <2c>   DW_AT_encoding    : 5	(signed)
    <2d>   DW_AT_name        : (indirect string, offset: 0x1d563): long int
 <1><31>: Abbrev Number: 22 (DW_TAG_typedef)
    <32>   DW_AT_name        : (indirect string, offset: 0x79343): size_t
    <36>   DW_AT_decl_file   : 409
    <38>   DW_AT_decl_line   : 209
    <39>   DW_AT_decl_column : 23
    <3a>   DW_AT_type        : <0x3e>
 <1><3e>: Abbrev Number: 33 (DW_TAG_base_type)
    <3f>   DW_AT_byte_size   : 8
    <40>   DW_AT_encoding    : 7	(unsigned)
    <41>   DW_AT_name        : (indirect string, offset: 0x21681): long unsigned int
 <1><45>: Abbrev Number: 33 (DW_TAG_base_type)
    <46>   DW_AT_byte_size   : 8
    <47>   DW_AT_encoding    : 5	(signed)
    <48>   DW_AT_name        : (indirect string, offset: 0x1d55e): long long int
 <1><4c>: Abbrev Number: 33 (DW_TAG_base_type)
    <4d>   DW_AT_byte_size   : 16
    <4e>   DW_AT_encoding    : 4	(float)
    <4f>   DW_AT_name        : (indirect string, offset: 0x2d22d): long double
 <1><53>: Abbrev Number: 98 (DW_TAG_unspecified_type)
    <54>   DW_AT_name        : (indirect string, offset: 0xfab5): decltype(nullptr)
 <1><58>: Abbrev Number: 33 (DW_TAG_base_type)
    <59>   DW_AT_byte_size   : 1
    <5a>   DW_AT_encoding    : 8	(unsigned char)
    <5b>   DW_AT_name        : (indirect string, offset: 0x26886): unsigned char
 <1><5f>: Abbrev Number: 33 (DW_TAG_base_type)
    <60>   DW_AT_byte_size   : 2
    <61>   DW_AT_encoding    : 7	(unsigned)
    <62>   DW_AT_name        : (indirect string, offset: 0x1a101): short unsigned int
 <1><66>: Abbrev Number: 33 (DW_TAG_base_type)
    <67>   DW_AT_byte_size   : 4
    <68>   DW_AT_encoding    : 7	(unsigned)
    <69>   DW_AT_name        : (indirect string, offset: 0x21686): unsigned int
 <1><6d>: Abbrev Number: 22 (DW_TAG_typedef)
    <6e>   DW_AT_name        : (indirect string, offset: 0x34e21): __int8_t
    <72>   DW_AT_decl_file   : 410
    <74>   DW_AT_decl_line   : 37
    <75>   DW_AT_decl_column : 21
    <76>   DW_AT_type        : <0x7a>
 <1><7a>: Abbrev Number: 33 (DW_TAG_base_type)
    <7b>   DW_AT_byte_size   : 1
    <7c>   DW_AT_encoding    : 6	(signed char)
    <7d>   DW_AT_name        : (indirect string, offset: 0x26888): signed char
 <1><81>: Abbrev Number: 22 (DW_TAG_typedef)
    <82>   DW_AT_name        : (indirect string, offset: 0x32c77): __uint8_t
    <86>   DW_AT_decl_file   : 410
    <88>   DW_AT_decl_line   : 38
    <89>   DW_AT_decl_column : 23
    <8a>   DW_AT_type        : <0x58>
 <1><8e>: Abbrev Number: 22 (DW_TAG_typedef)
    <8f>   DW_AT_name        : (indirect string, offset: 0x35bb2): __int16_t
    <93>   DW_AT_decl_file   : 410
    <95>   DW_AT_decl_line   : 39
    <96>   DW_AT_decl_column : 26
    <97>   DW_AT_type        : <0x9b>
 <1><9b>: Abbrev Number: 33 (DW_TAG_base_type)
    <9c>   DW_AT_byte_size   : 2
    <9d>   DW_AT_encoding    : 5	(signed)
    <9e>   DW_AT_name        : (indirect string, offset: 0x4cc6f): short int
 <1><a2>: Abbrev Number: 22 (DW_TAG_typedef)
    <a3>   DW_AT_name        : (indirect string, offset: 0x17b8): __uint16_t
    <a7>   DW_AT_decl_file   : 410
    <a9>   DW_AT_decl_line   : 40
    <aa>   DW_AT_decl_column : 28
    <ab>   DW_AT_type        : <0x5f>
 <1><af>: Abbrev Number: 22 (DW_TAG_typedef)
    <b0>   DW_AT_name        : (indirect string, offset: 0x2d739): __int32_t
    <b4>   DW_AT_decl_file   : 410
    <b6>   DW_AT_decl_line   : 41
    <b7>   DW_AT_decl_column : 20
    <b8>   DW_AT_type        : <0xc1>
 <1><bc>: Abbrev Number: 42 (DW_TAG_const_type)
    <bd>   DW_AT_type        : <0xaf>
 <1><c1>: Abbrev Number: 99 (DW_TAG_base_type)
    <c2>   DW_AT_byte_size   : 4
    <c3>   DW_AT_encoding    : 5	(signed)
    <c4>   DW_AT_name        : int
 <1><c8>: Abbrev Number: 22 (DW_TAG_typedef)
    <c9>   DW_AT_name        : (indirect string, offset: 0x56848): __uint32_t
    <cd>   DW_AT_decl_file   : 410
    <cf>   DW_AT_decl_line   : 42
    <d0>   DW_AT_decl_column : 22
    <d1>   DW_AT_type        : <0x66>
 <1><d5>: Abbrev Number: 22 (DW_TAG_typedef)
    <d6>   DW_AT_name        : (indirect string, offset: 0x24995): __int64_t
    <da>   DW_AT_decl_file   : 410
    <dc>   DW_AT_decl_line   : 44
    <dd>   DW_AT_decl_column : 25
    <de>   DW_AT_type        : <0x2a>
 <1><e2>: Abbrev Number: 22 (DW_TAG_typedef)
    <e3>   DW_AT_name        : (indirect string, offset: 0x4de4e): __uint64_t
    <e7>   DW_AT_decl_file   : 410
    <e9>   DW_AT_decl_line   : 45
    <ea>   DW_AT_decl_column : 27
    <eb>   DW_AT_type        : <0x3e>
 <1><ef>: Abbrev Number: 22 (DW_TAG_typedef)
    <f0>   DW_AT_name        : (indirect string, offset: 0x42205): __int_least8_t
    <f4>   DW_AT_decl_file   : 410
    <f6>   DW_AT_decl_line   : 52
    <f7>   DW_AT_decl_column : 18
    <f8>   DW_AT_type        : <0x6d>
 <1><fc>: Abbrev Number: 22 (DW_TAG_typedef)
    <fd>   DW_AT_name        : (indirect string, offset: 0xdac5): __uint_least8_t
    <101>   DW_AT_decl_file   : 410
    <103>   DW_AT_decl_line   : 53
    <104>   DW_AT_decl_column : 19
    <105>   DW_AT_type        : <0x81>
 <1><109>: Abbrev Number: 22 (DW_TAG_typedef)
    <10a>   DW_AT_name        : (indirect string, offset: 0x5752c): __int_least16_t
    <10e>   DW_AT_decl_file   : 410
    <110>   DW_AT_decl_line   : 54
    <111>   DW_AT_decl_column : 19
    <112>   DW_AT_type        : <0x8e>
 <1><116>: Abbrev Number: 22 (DW_TAG_typedef)
    <117>   DW_AT_name        : (indirect string, offset: 0x32bd9): __uint_least16_t
    <11b>   DW_AT_decl_file   : 410
    <11d>   DW_AT_decl_line   : 55
    <11e>   DW_AT_decl_column : 20
    <11f>   DW_AT_type        : <0xa2>
 <1><123>: Abbrev Number: 22 (DW_TAG_typedef)
    <124>   DW_AT_name        : (indirect string, offset: 0x4e7a2): __int_least32_t
    <128>   DW_AT_decl_file   : 410
    <12a>   DW_AT_decl_line   : 56
    <12b>   DW_AT_decl_column : 19
    <12c>   DW_AT_type        : <0xaf>
 <1><130>: Abbrev Number: 22 (DW_TAG_typedef)
    <131>   DW_AT_name        : (indirect string, offset: 0x2a3b1): __uint_least32_t
    <135>   DW_AT_decl_file   : 410
    <137>   DW_AT_decl_line   : 57
    <138>   DW_AT_decl_column : 20
    <139>   DW_AT_type        : <0xc8>
 <1><13d>: Abbrev Number: 22 (DW_TAG_typedef)
    <13e>   DW_AT_name        : (indirect string, offset: 0x46376): __int_least64_t
    <142>   DW_AT_decl_file   : 410
    <144>   DW_AT_decl_line   : 58
    <145>   DW_AT_decl_column : 19
    <146>   DW_AT_type        : <0xd5>
 <1><14a>: Abbrev Number: 22 (DW_TAG_typedef)
    <14b>   DW_AT_name        : (indirect string, offset: 0x21844): __uint_least64_t
    <14f>   DW_AT_decl_file   : 410
    <151>   DW_AT_decl_line   : 59
    <152>   DW_AT_decl_column : 20
    <153>   DW_AT_type        : <0xe2>
 <1><157>: Abbrev Number: 22 (DW_TAG_typedef)
    <158>   DW_AT_name        : (indirect string, offset: 0x2d469): __intmax_t
    <15c>   DW_AT_decl_file   : 410
    <15e>   DW_AT_decl_line   : 72
    <15f>   DW_AT_decl_column : 18
    <160>   DW_AT_type        : <0x2a>
 <1><164>: Abbrev Number: 22 (DW_TAG_typedef)
    <165>   DW_AT_name        : (indirect string, offset: 0x9b28): __uintmax_t
    <169>   DW_AT_decl_file   : 410
    <16b>   DW_AT_decl_line   : 73
    <16c>   DW_AT_decl_column : 27
    <16d>   DW_AT_type        : <0x3e>
 <1><171>: Abbrev Number: 22 (DW_TAG_typedef)
    <172>   DW_AT_name        : (indirect string, offset: 0x2b9d3): __uid_t
    <176>   DW_AT_decl_file   : 410
    <178>   DW_AT_decl_line   : 146
    <179>   DW_AT_decl_column : 25
    <17a>   DW_AT_type        : <0x66>
 <1><17e>: Abbrev Number: 22 (DW_TAG_typedef)
    <17f>   DW_AT_name        : (indirect string, offset: 0x310b5): __off_t
    <183>   DW_AT_decl_file   : 410
    <185>   DW_AT_decl_line   : 152
    <186>   DW_AT_decl_column : 25
    <187>   DW_AT_type        : <0x2a>
 <1><18b>: Abbrev Number: 22 (DW_TAG_typedef)
    <18c>   DW_AT_name        : (indirect string, offset: 0x30472): __off64_t
    <190>   DW_AT_decl_file   : 410
    <192>   DW_AT_decl_line   : 153
    <193>   DW_AT_decl_column : 27
    <194>   DW_AT_type        : <0x2a>
 <1><198>: Abbrev Number: 22 (DW_TAG_typedef)
    <199>   DW_AT_name        : (indirect string, offset: 0x422d5): __pid_t
    <19d>   DW_AT_decl_file   : 410
    <19f>   DW_AT_decl_line   : 154
    <1a0>   DW_AT_decl_column : 25
    <1a1>   DW_AT_type        : <0xc1>
 <1><1a5>: Abbrev Number: 22 (DW_TAG_typedef)
    <1a6>   DW_AT_name        : (indirect string, offset: 0x13dad): __clock_t
    <1aa>   DW_AT_decl_file   : 410
    <1ac>   DW_AT_decl_line   : 156
    <1ad>   DW_AT_decl_column : 27
    <1ae>   DW_AT_type        : <0x2a>
 <1><1b2>: Abbrev Number: 100 (DW_TAG_pointer_type)
    <1b3>   DW_AT_byte_size   : 8
 <1><1b4>: Abbrev Number: 25 (DW_TAG_pointer_type)
    <1b5>   DW_AT_byte_size   : 8
    <1b5>   DW_AT_type        : <0x1b9>
 <1><1b9>: Abbrev Number: 33 (DW_TAG_base_type)
    <1ba>   DW_AT_byte_size   : 1
    <1bb>   DW_AT_encoding    : 6	(signed char)
    <1bc>   DW_AT_name        : (indirect string, offset: 0x2688f): char
 <1><1c0>: Abbrev Number: 42 (DW_TAG_const_type)
    <1c1>   DW_AT_type        : <0x1b9>
 <1><1c5>: Abbrev Number: 22 (DW_TAG_typedef)
    <1c6>   DW_AT_name        : (indirect string, offset: 0x34e23): int8_t
    <1ca>   DW_AT_decl_file   : 411
    <1cc>   DW_AT_decl_line   : 24
    <1cd>   DW_AT_decl_column : 18
    <1ce>   DW_AT_type        : <0x6d>
 <1><1d2>: Abbrev Number: 22 (DW_TAG_typedef)
    <1d3>   DW_AT_name        : (indirect string, offset: 0x35bb4): int16_t
    <1d7>   DW_AT_decl_file   : 411
    <1d9>   DW_AT_decl_line   : 25
    <1da>   DW_AT_decl_column : 19
    <1db>   DW_AT_type        : <0x8e>
 <1><1df>: Abbrev Number: 22 (DW_TAG_typedef)
    <1e0>   DW_AT_name        : (indirect string, offset: 0x2d73b): int32_t
    <1e4>   DW_AT_decl_file   : 411
    <1e6>   DW_AT_decl_line   : 26
    <1e7>   DW_AT_decl_column : 19
    <1e8>   DW_AT_type        : <0xaf>
 <1><1ec>: Abbrev Number: 22 (DW_TAG_typedef)
    <1ed>   DW_AT_name        : (indirect string, offset: 0x24997): int64_t
    <1f1>   DW_AT_decl_file   : 411
    <1f3>   DW_AT_decl_line   : 27
    <1f4>   DW_AT_decl_column : 19
    <1f5>   DW_AT_type        : <0xd5>
 <1><1f9>: Abbrev Number: 22 (DW_TAG_typedef)
    <1fa>   DW_AT_name        : (indirect string, offset: 0x32c79): uint8_t
    <1fe>   DW_AT_decl_file   : 412
    <200>   DW_AT_decl_line   : 24
    <201>   DW_AT_decl_column : 19
    <202>   DW_AT_type        : <0x81>
 <1><206>: Abbrev Number: 22 (DW_TAG_typedef)
    <207>   DW_AT_name        : (indirect string, offset: 0x17ba): uint16_t
    <20b>   DW_AT_decl_file   : 412
    <20d>   DW_AT_decl_line   : 25
    <20e>   DW_AT_decl_column : 20
    <20f>   DW_AT_type        : <0xa2>
 <1><213>: Abbrev Number: 22 (DW_TAG_typedef)
    <214>   DW_AT_name        : (indirect string, offset: 0x5684a): uint32_t
    <218>   DW_AT_decl_file   : 412
    <21a>   DW_AT_decl_line   : 26
    <21b>   DW_AT_decl_column : 20
    <21c>   DW_AT_type        : <0xc8>
 <1><220>: Abbrev Number: 22 (DW_TAG_typedef)
    <221>   DW_AT_name        : (indirect string, offset: 0x4de50): uint64_t
    <225>   DW_AT_decl_file   : 412
    <227>   DW_AT_decl_line   : 27
    <228>   DW_AT_decl_column : 20
    <229>   DW_AT_type        : <0xe2>
 <1><22d>: Abbrev Number: 22 (DW_TAG_typedef)
    <22e>   DW_AT_name        : (indirect string, offset: 0x42207): int_least8_t
    <232>   DW_AT_decl_file   : 413
    <234>   DW_AT_decl_line   : 43
    <235>   DW_AT_decl_column : 24
    <236>   DW_AT_type        : <0xef>
 <1><23a>: Abbrev Number: 22 (DW_TAG_typedef)
    <23b>   DW_AT_name        : (indirect string, offset: 0x5752e): int_least16_t
    <23f>   DW_AT_decl_file   : 413
    <241>   DW_AT_decl_line   : 44
    <242>   DW_AT_decl_column : 25
    <243>   DW_AT_type        : <0x109>
 <1><247>: Abbrev Number: 22 (DW_TAG_typedef)
    <248>   DW_AT_name        : (indirect string, offset: 0x4e7a4): int_least32_t
    <24c>   DW_AT_decl_file   : 413
    <24e>   DW_AT_decl_line   : 45
    <24f>   DW_AT_decl_column : 25
    <250>   DW_AT_type        : <0x123>
 <1><254>: Abbrev Number: 22 (DW_TAG_typedef)
    <255>   DW_AT_name        : (indirect string, offset: 0x46378): int_least64_t
    <259>   DW_AT_decl_file   : 413
    <25b>   DW_AT_decl_line   : 46
    <25c>   DW_AT_decl_column : 25
    <25d>   DW_AT_type        : <0x13d>
 <1><261>: Abbrev Number: 22 (DW_TAG_typedef)
    <262>   DW_AT_name        : (indirect string, offset: 0xdac7): uint_least8_t
    <266>   DW_AT_decl_file   : 413
    <268>   DW_AT_decl_line   : 49
    <269>   DW_AT_decl_column : 25
    <26a>   DW_AT_type        : <0xfc>
 <1><26e>: Abbrev Number: 22 (DW_TAG_typedef)
    <26f>   DW_AT_name        : (indirect string, offset: 0x32bdb): uint_least16_t
    <273>   DW_AT_decl_file   : 413
    <275>   DW_AT_decl_line   : 50
    <276>   DW_AT_decl_column : 26
    <277>   DW_AT_type        : <0x116>
 <1><27b>: Abbrev Number: 22 (DW_TAG_typedef)
    <27c>   DW_AT_name        : (indirect string, offset: 0x2a3b3): uint_least32_t
    <280>   DW_AT_decl_file   : 413
    <282>   DW_AT_decl_line   : 51
    <283>   DW_AT_decl_column : 26
    <284>   DW_AT_type        : <0x130>
 <1><288>: Abbrev Number: 22 (DW_TAG_typedef)
    <289>   DW_AT_name        : (indirect string, offset: 0x21846): uint_least64_t
    <28d>   DW_AT_decl_file   : 413
    <28f>   DW_AT_decl_line   : 52
    <290>   DW_AT_decl_column : 26
    <291>   DW_AT_type        : <0x14a>
 <1><295>: Abbrev Number: 22 (DW_TAG_typedef)
    <296>   DW_AT_name        : (indirect string, offset: 0x1d706): int_fast8_t
    <29a>   DW_AT_decl_file   : 413
    <29c>   DW_AT_decl_line   : 58
    <29d>   DW_AT_decl_column : 22
    <29e>   DW_AT_type        : <0x7a>
 <1><2a2>: Abbrev Number: 22 (DW_TAG_typedef)
    <2a3>   DW_AT_name        : (indirect string, offset: 0x46585): int_fast16_t
    <2a7>   DW_AT_decl_file   : 413
    <2a9>   DW_AT_decl_line   : 60
    <2aa>   DW_AT_decl_column : 19
    <2ab>   DW_AT_type        : <0x2a>
 <1><2af>: Abbrev Number: 22 (DW_TAG_typedef)
    <2b0>   DW_AT_name        : (indirect string, offset: 0x3da8f): int_fast32_t
    <2b4>   DW_AT_decl_file   : 413
    <2b6>   DW_AT_decl_line   : 61
    <2b7>   DW_AT_decl_column : 19
    <2b8>   DW_AT_type        : <0x2a>
 <1><2bc>: Abbrev Number: 22 (DW_TAG_typedef)
    <2bd>   DW_AT_name        : (indirect string, offset: 0x34ec3): int_fast64_t
    <2c1>   DW_AT_decl_file   : 413
    <2c3>   DW_AT_decl_line   : 62
    <2c4>   DW_AT_decl_column : 19
    <2c5>   DW_AT_type        : <0x2a>
 <1><2c9>: Abbrev Number: 22 (DW_TAG_typedef)
    <2ca>   DW_AT_name        : (indirect string, offset: 0x1d705): uint_fast8_t
    <2ce>   DW_AT_decl_file   : 413
    <2d0>   DW_AT_decl_line   : 71
    <2d1>   DW_AT_decl_column : 24
    <2d2>   DW_AT_type        : <0x58>
 <1><2d6>: Abbrev Number: 22 (DW_TAG_typedef)
    <2d7>   DW_AT_name        : (indirect string, offset: 0x46584): uint_fast16_t
    <2db>   DW_AT_decl_file   : 413
    <2dd>   DW_AT_decl_line   : 73
    <2de>   DW_AT_decl_column : 27
    <2df>   DW_AT_type        : <0x3e>
 <1><2e3>: Abbrev Number: 22 (DW_TAG_typedef)
    <2e4>   DW_AT_name        : (indirect string, offset: 0x3da8e): uint_fast32_t
    <2e8>   DW_AT_decl_file   : 413
    <2ea>   DW_AT_decl_line   : 74
    <2eb>   DW_AT_decl_column : 27
    <2ec>   DW_AT_type        : <0x3e>
 <1><2f0>: Abbrev Number: 22 (DW_TAG_typedef)
    <2f1>   DW_AT_name        : (indirect string, offset: 0x34ec2): uint_fast64_t
    <2f5>   DW_AT_decl_file   : 413
    <2f7>   DW_AT_decl_line   : 75
    <2f8>   DW_AT_decl_column : 27
    <2f9>   DW_AT_type        : <0x3e>
 <1><2fd>: Abbrev Number: 22 (DW_TAG_typedef)
    <2fe>   DW_AT_name        : (indirect string, offset: 0x5efe): intptr_t
    <302>   DW_AT_decl_file   : 413
    <304>   DW_AT_decl_line   : 87
    <305>   DW_AT_decl_column : 19
    <306>   DW_AT_type        : <0x2a>
 <1><30a>: Abbrev Number: 22 (DW_TAG_typedef)
    <30b>   DW_AT_name        : (indirect string, offset: 0x5efd): uintptr_t
    <30f>   DW_AT_decl_file   : 413
    <311>   DW_AT_decl_line   : 90
    <312>   DW_AT_decl_column : 27
    <313>   DW_AT_type        : <0x3e>
 <1><317>: Abbrev Number: 22 (DW_TAG_typedef)
    <318>   DW_AT_name        : (indirect string, offset: 0x2d46b): intmax_t
    <31c>   DW_AT_decl_file   : 413
    <31e>   DW_AT_decl_line   : 101
    <31f>   DW_AT_decl_column : 21
    <320>   DW_AT_type        : <0x157>
 <1><324>: Abbrev Number: 22 (DW_TAG_typedef)
    <325>   DW_AT_name        : (indirect string, offset: 0x9b2a): uintmax_t
    <329>   DW_AT_decl_file   : 413
    <32b>   DW_AT_decl_line   : 102
    <32c>   DW_AT_decl_column : 22
    <32d>   DW_AT_type        : <0x164>
 <1><331>: Abbrev Number: 33 (DW_TAG_base_type)
    <332>   DW_AT_byte_size   : 4
    <333>   DW_AT_encoding    : 4	(float)
    <334>   DW_AT_name        : (indirect string, offset: 0x75b47): float
 <1><338>: Abbrev Number: 33 (DW_TAG_base_type)
    <339>   DW_AT_byte_size   : 8
    <33a>   DW_AT_encoding    : 4	(float)
    <33b>   DW_AT_name        : (indirect string, offset: 0x2d232): double
 <1><33f>: Abbrev Number: 25 (DW_TAG_pointer_type)
    <340>   DW_AT_byte_size   : 8
    <340>   DW_AT_type        : <0x344>
 <1><344>: Abbrev Number: 101 (DW_TAG_subroutine_type)
 <1><345>: Abbrev Number: 25 (DW_TAG_pointer_type)
    <346>   DW_AT_byte_size   : 8
    <346>   DW_AT_type        : <0x34a>
 <1><34a>: Abbrev Number: 102 (DW_TAG_const_type)
 <1><34b>: Abbrev Number: 33 (DW_TAG_base_type)
    <34c>   DW_AT_byte_size   : 32
    <34d>   DW_AT_encoding    : 3	(complex float)
    <34e>   DW_AT_name        : (indirect string, offset: 0x26ec8): __unknown__
 <1><352>: Abbrev Number: 33 (DW_TAG_base_type)
    <353>   DW_AT_byte_size   : 16
    <354>   DW_AT_encoding    : 4	(float)
    <355>   DW_AT_name        : (indirect string, offset: 0x24756): __float128
 <1><359>: Abbrev Number: 58 (DW_TAG_structure_type)
    <35a>   DW_AT_byte_size   : 8
    <35b>   DW_AT_decl_file   : 414
    <35d>   DW_AT_decl_line   : 59
    <35e>   DW_AT_decl_column : 3
    <35f>   DW_AT_linkage_name: (indirect string, offset: 0x5279): 5div_t
    <363>   DW_AT_sibling     : <0x384>
 <2><367>: Abbrev Number: 15 (DW_TAG_member)
    <368>   DW_AT_name        : (indirect string, offset: 0x198f8): quot
    <36c>   DW_AT_decl_file   : 414
    <36e>   DW_AT_decl_line   : 60
    <36f>   DW_AT_decl_column : 9
    <370>   DW_AT_type        : <0xc1>
    <374>   DW_AT_data_member_location: 0
 <2><375>: Abbrev Number: 46 (DW_TAG_member)
    <376>   DW_AT_name        : rem
    <37a>   DW_AT_decl_file   : 414
    <37c>   DW_AT_decl_line   : 61
    <37d>   DW_AT_decl_column : 9
    <37e>   DW_AT_type        : <0xc1>
    <382>   DW_AT_data_member_location: 4
 <2><383>: Abbrev Number: 0
 <1><384>: Abbrev Number: 22 (DW_TAG_typedef)
    <385>   DW_AT_name        : (indirect string, offset: 0x527a): div_t
    <389>   DW_AT_decl_file   : 414
    <38b>   DW_AT_decl_line   : 62
    <38c>   DW_AT_decl_column : 5
    <38d>   DW_AT_type        : <0x359>
 <1><391>: Abbrev Number: 58 (DW_TAG_structure_type)
    <392>   DW_AT_byte_size   : 16
    <393>   DW_AT_decl_file   : 414
    <395>   DW_AT_decl_line   : 67
    <396>   DW_AT_decl_column : 3
    <397>   DW_AT_linkage_name: (indirect string, offset: 0x8a39): 6ldiv_t
    <39b>   DW_AT_sibling     : <0x3bc>
 <2><39f>: Abbrev Number: 15 (DW_TAG_member)
    <3a0>   DW_AT_name        : (indirect string, offset: 0x198f8): quot
    <3a4>   DW_AT_decl_file   : 414
    <3a6>   DW_AT_decl_line   : 68
    <3a7>   DW_AT_decl_column : 14
    <3a8>   DW_AT_type        : <0x2a>
    <3ac>   DW_AT_data_member_location: 0
 <2><3ad>: Abbrev Number: 46 (DW_TAG_member)
    <3ae>   DW_AT_name        : rem
    <3b2>   DW_AT_decl_file   : 414
    <3b4>   DW_AT_decl_line   : 69
    <3b5>   DW_AT_decl_column : 14
    <3b6>   DW_AT_type        : <0x2a>
    <3ba>   DW_AT_data_member_location: 8
 <2><3bb>: Abbrev Number: 0
 <1><3bc>: Abbrev Number: 22 (DW_TAG_typedef)
    <3bd>   DW_AT_name        : (indirect string, offset: 0x8a3a): ldiv_t
    <3c1>   DW_AT_decl_file   : 414
    <3c3>   DW_AT_decl_line   : 70
    <3c4>   DW_AT_decl_column : 5
    <3c5>   DW_AT_type        : <0x391>
 <1><3c9>: Abbrev Number: 58 (DW_TAG_structure_type)
    <3ca>   DW_AT_byte_size   : 16
    <3cb>   DW_AT_decl_file   : 414
    <3cd>   DW_AT_decl_line   : 77
    <3ce>   DW_AT_decl_column : 3
    <3cf>   DW_AT_linkage_name: (indirect string, offset: 0x4aa60): 7lldiv_t
    <3d3>   DW_AT_sibling     : <0x3f4>
 <2><3d7>: Abbrev Number: 15 (DW_TAG_member)
    <3d8>   DW_AT_name        : (indirect string, offset: 0x198f8): quot
    <3dc>   DW_AT_decl_file   : 414
    <3de>   DW_AT_decl_line   : 78
    <3df>   DW_AT_decl_column : 19
    <3e0>   DW_AT_type        : <0x45>
    <3e4>   DW_AT_data_member_location: 0
 <2><3e5>: Abbrev Number: 46 (DW_TAG_member)
    <3e6>   DW_AT_name        : rem
    <3ea>   DW_AT_decl_file   : 414
    <3ec>   DW_AT_decl_line   : 79
    <3ed>   DW_AT_decl_column : 19
    <3ee>   DW_AT_type        : <0x45>
    <3f2>   DW_AT_data_member_location: 8
 <2><3f3>: Abbrev Number: 0
 <1><3f4>: Abbrev Number: 22 (DW_TAG_typedef)
    <3f5>   DW_AT_name        : (indirect string, offset: 0x4aa61): lldiv_t
    <3f9>   DW_AT_decl_file   : 414
    <3fb>   DW_AT_decl_line   : 80
    <3fc>   DW_AT_decl_column : 5
    <3fd>   DW_AT_type        : <0x3c9>
 <1><401>: Abbrev Number: 25 (DW_TAG_pointer_type)
    <402>   DW_AT_byte_size   : 8
    <402>   DW_AT_type        : <0x1c0>
 <1><406>: Abbrev Number: 58 (DW_TAG_structure_type)
    <407>   DW_AT_byte_size   : 128
    <408>   DW_AT_decl_file   : 415
    <40a>   DW_AT_decl_line   : 6
    <40b>   DW_AT_decl_column : 1
    <40c>   DW_AT_linkage_name: (indirect string, offset: 0x13b7b): 10__sigset_t
    <410>   DW_AT_sibling     : <0x423>
 <2><414>: Abbrev Number: 15 (DW_TAG_member)
    <415>   DW_AT_name        : (indirect string, offset: 0x484ac): __val
    <419>   DW_AT_decl_file   : 415
    <41b>   DW_AT_decl_line   : 7
    <41c>   DW_AT_decl_column : 21
    <41d>   DW_AT_type        : <0x423>
    <421>   DW_AT_data_member_location: 0
 <2><422>: Abbrev Number: 0
 <1><423>: Abbrev Number: 43 (DW_TAG_array_type)
    <424>   DW_AT_type        : <0x3e>
    <428>   DW_AT_sibling     : <0x433>
 <2><42c>: Abbrev Number: 53 (DW_TAG_subrange_type)
    <42d>   DW_AT_type        : <0x3e>
    <431>   DW_AT_upper_bound : 15
 <2><432>: Abbrev Number: 0
 <1><433>: Abbrev Number: 22 (DW_TAG_typedef)
    <434>   DW_AT_name        : (indirect string, offset: 0x13b7d): __sigset_t
    <438>   DW_AT_decl_file   : 415
    <43a>   DW_AT_decl_line   : 8
    <43b>   DW_AT_decl_column : 3
    <43c>   DW_AT_type        : <0x406>
 <1><440>: Abbrev Number: 22 (DW_TAG_typedef)
    <441>   DW_AT_name        : (indirect string, offset: 0x13b7f): sigset_t
    <445>   DW_AT_decl_file   : 416
    <447>   DW_AT_decl_line   : 7
    <448>   DW_AT_decl_column : 20
    <449>   DW_AT_type        : <0x433>
 <1><44d>: Abbrev Number: 33 (DW_TAG_base_type)
    <44e>   DW_AT_byte_size   : 8
    <44f>   DW_AT_encoding    : 7	(unsigned)
    <450>   DW_AT_name        : (indirect string, offset: 0x2167c): long long unsigned int
 <1><454>: Abbrev Number: 43 (DW_TAG_array_type)
    <455>   DW_AT_type        : <0x1b9>
    <459>   DW_AT_sibling     : <0x464>
 <2><45d>: Abbrev Number: 53 (DW_TAG_subrange_type)
    <45e>   DW_AT_type        : <0x3e>
    <462>   DW_AT_upper_bound : 3
 <2><463>: Abbrev Number: 0
 <1><464>: Abbrev Number: 25 (DW_TAG_pointer_type)
    <465>   DW_AT_byte_size   : 8
    <465>   DW_AT_type        : <0x1df>
 <1><469>: Abbrev Number: 79 (DW_TAG_typedef)
    <46a>   DW_AT_name        : (indirect string, offset: 0x8240): __compar_fn_t
    <46e>   DW_AT_decl_file   : 414
    <470>   DW_AT_decl_line   : 808
    <472>   DW_AT_decl_column : 15
    <473>   DW_AT_type        : <0x477>
 <1><477>: Abbrev Number: 25 (DW_TAG_pointer_type)
    <478>   DW_AT_byte_size   : 8
    <478>   DW_AT_type        : <0x47c>
 <1><47c>: Abbrev Number: 103 (DW_TAG_subroutine_type)
    <47d>   DW_AT_type        : <0xc1>
    <481>   DW_AT_sibling     : <0x490>
 <2><485>: Abbrev Number: 8 (DW_TAG_formal_parameter)
    <486>   DW_AT_type        : <0x345>
 <2><48a>: Abbrev Number: 8 (DW_TAG_formal_parameter)
    <48b>   DW_AT_type        : <0x345>
 <2><48f>: Abbrev Number: 0
 <1><490>: Abbrev Number: 104 (DW_TAG_namespace)
    <491>   DW_AT_name        : std
    <495>   DW_AT_decl_file   : 423
    <497>   DW_AT_decl_line   : 278
    <499>   DW_AT_decl_column : 11
    <49a>   DW_AT_sibling     : <0xf78>
 <2><49e>: Abbrev Number: 14 (DW_TAG_imported_declaration)
    <49f>   DW_AT_decl_file   : 417
    <4a1>   DW_AT_decl_line   : 127
    <4a2>   DW_AT_decl_column : 11
    <4a3>   DW_AT_import      : <0x384>	[Abbrev Number: 22 (DW_TAG_typedef)]
 <2><4a7>: Abbrev Number: 14 (DW_TAG_imported_declaration)
    <4a8>   DW_AT_decl_file   : 417
    <4aa>   DW_AT_decl_line   : 128
    <4ab>   DW_AT_decl_column : 11
    <4ac>   DW_AT_import      : <0x3bc>	[Abbrev Number: 22 (DW_TAG_typedef)]
 <2><4b0>: Abbrev Number: 14 (DW_TAG_imported_declaration)
    <4b1>   DW_AT_decl_file   : 417
    <4b3>   DW_AT_decl_line   : 134
    <4b4>   DW_AT_decl_column : 11
    <4b5>   DW_AT_import      : <0xf78>	[Abbrev Number: 24 (DW_TAG_subprogram)]
 <2><4b9>: Abbrev Number: 14 (DW_TAG_imported_declaration)
    <4ba>   DW_AT_decl_file   : 417
    <4bc>   DW_AT_decl_line   : 137
    <4bd>   DW_AT_decl_column : 11
    <4be>   DW_AT_import      : <0xf90>	[Abbrev Number: 54 (DW_TAG_subprogram)]
 <2><4c2>: Abbrev Number: 14 (DW_TAG_imported_declaration)
    <4c3>   DW_AT_decl_file   : 417
    <4c5>   DW_AT_decl_line   : 140
    <4c6>   DW_AT_decl_column : 11
    <4c7>   DW_AT_import      : <0xfac>	[Abbrev Number: 28 (DW_TAG_subprogram)]
 <2><4cb>: Abbrev Number: 14 (DW_TAG_imported_declaration)
    <4cc>   DW_AT_decl_file   : 417
    <4ce>   DW_AT_decl_line   : 141
    <4cf>   DW_AT_decl_column : 11
    <4d0>   DW_AT_import      : <0xfc3>	[Abbrev Number: 28 (DW_TAG_subprogram)]
 <2><4d4>: Abbrev Number: 14 (DW_TAG_imported_declaration)
    <4d5>   DW_AT_decl_file   : 417
    <4d7>   DW_AT_decl_line   : 142
    <4d8>   DW_AT_decl_column : 11
    <4d9>   DW_AT_import      : <0xfda>	[Abbrev Number: 28 (DW_TAG_subprogram)]
 <2><4dd>: Abbrev Number: 14 (DW_TAG_imported_declaration)
    <4de>   DW_AT_decl_file   : 417
    <4e0>   DW_AT_decl_line   : 143
    <4e1>   DW_AT_decl_column : 11
    <4e2>   DW_AT_import      : <0xff1>	[Abbrev Number: 24 (DW_TAG_subprogram)]
 <2><4e6>: Abbrev Number: 14 (DW_TAG_imported_declaration)
    <4e7>   DW_AT_decl_file   : 417
    <4e9>   DW_AT_decl_line   : 145
    <4ea>   DW_AT_decl_column : 11
    <4eb>   DW_AT_import      : <0x101d>	[Abbrev Number: 121 (DW_TAG_subprogram)]
 <2><4ef>: Abbrev Number: 14 (DW_TAG_imported_declaration)
    <4f0>   DW_AT_decl_file   : 417
    <4f2>   DW_AT_decl_line   : 148
    <4f3>   DW_AT_decl_column : 11
    <4f4>   DW_AT_import      : <0x103a>	[Abbrev Number: 24 (DW_TAG_subprogram)]
 <2><4f8>: Abbrev Number: 14 (DW_TAG_imported_declaration)
    <4f9>   DW_AT_decl_file   : 417
    <4fb>   DW_AT_decl_line   : 150
    <4fc>   DW_AT_decl_column : 11
    <4fd>   DW_AT_import      : <0x1052>	[Abbrev Number: 24 (DW_TAG_subprogram)]
 <2><501>: Abbrev Number: 14 (DW_TAG_imported_declaration)
    <502>   DW_AT_decl_file   : 417
    <504>   DW_AT_decl_line   : 153
    <505>   DW_AT_decl_column : 11
    <506>   DW_AT_import      : <0x106f>	[Abbrev Number: 24 (DW_TAG_subprogram)]
 <2><50a>: Abbrev Number: 14 (DW_TAG_imported_declaration)
    <50b>   DW_AT_decl_file   : 417
    <50d>   DW_AT_decl_line   : 154
    <50e>   DW_AT_decl_column : 11
    <50f>   DW_AT_import      : <0x108c>	[Abbrev Number: 24 (DW_TAG_subprogram)]
 <2><513>: Abbrev Number: 14 (DW_TAG_imported_declaration)
    <514>   DW_AT_decl_file   : 417
    <516>   DW_AT_decl_line   : 155
    <517>   DW_AT_decl_column : 11
    <518>   DW_AT_import      : <0x10bf>	[Abbrev Number: 24 (DW_TAG_subprogram)]
 <2><51c>: Abbrev Number: 14 (DW_TAG_imported_declaration)
    <51d>   DW_AT_decl_file   : 417
    <51f>   DW_AT_decl_line   : 157
    <520>   DW_AT_decl_column : 11
    <521>   DW_AT_import      : <0x10e1>	[Abbrev Number: 55 (DW_TAG_subprogram)]
 <2><525>: Abbrev Number: 14 (DW_TAG_imported_declaration)
    <526>   DW_AT_decl_file   : 417
    <528>   DW_AT_decl_line   : 160
    <529>   DW_AT_decl_column : 11
    <52a>   DW_AT_import      : <0x1103>	[Abbrev Number: 86 (DW_TAG_subprogram)]
 <2><52e>: Abbrev Number: 14 (DW_TAG_imported_declaration)
    <52f>   DW_AT_decl_file   : 417
    <531>   DW_AT_decl_line   : 163
    <532>   DW_AT_decl_column : 11
    <533>   DW_AT_import      : <0x1114>	[Abbrev Number: 66 (DW_TAG_subprogram)]
 <2><537>: Abbrev Number: 14 (DW_TAG_imported_declaration)
    <538>   DW_AT_decl_file   : 417
    <53a>   DW_AT_decl_line   : 165
    <53b>   DW_AT_decl_column : 11
    <53c>   DW_AT_import      : <0x1122>	[Abbrev Number: 55 (DW_TAG_subprogram)]
 <2><540>: Abbrev Number: 14 (DW_TAG_imported_declaration)
    <541>   DW_AT_decl_file   : 417
    <543>   DW_AT_decl_line   : 166
    <544>   DW_AT_decl_column : 11
    <545>   DW_AT_import      : <0x1135>	[Abbrev Number: 28 (DW_TAG_subprogram)]
 <2><549>: Abbrev Number: 14 (DW_TAG_imported_declaration)
    <54a>   DW_AT_decl_file   : 417
    <54c>   DW_AT_decl_line   : 167
    <54d>   DW_AT_decl_column : 11
    <54e>   DW_AT_import      : <0x1156>	[Abbrev Number: 28 (DW_TAG_subprogram)]
 <2><552>: Abbrev Number: 14 (DW_TAG_imported_declaration)
    <553>   DW_AT_decl_file   : 417
    <555>   DW_AT_decl_line   : 168
    <556>   DW_AT_decl_column : 11
    <557>   DW_AT_import      : <0x1177>	[Abbrev Number: 28 (DW_TAG_subprogram)]
 <2><55b>: Abbrev Number: 14 (DW_TAG_imported_declaration)
    <55c>   DW_AT_decl_file   : 417
    <55e>   DW_AT_decl_line   : 169
    <55f>   DW_AT_decl_column : 11
    <560>   DW_AT_import      : <0x1198>	[Abbrev Number: 24 (DW_TAG_subprogram)]
 <2><564>: Abbrev Number: 14 (DW_TAG_imported_declaration)
    <565>   DW_AT_decl_file   : 417
    <567>   DW_AT_decl_line   : 171
    <568>   DW_AT_decl_column : 11
    <569>   DW_AT_import      : <0x11b0>	[Abbrev Number: 24 (DW_TAG_subprogram)]
 <2><56d>: Abbrev Number: 14 (DW_TAG_imported_declaration)
    <56e>   DW_AT_decl_file   : 417
    <570>   DW_AT_decl_line   : 172
    <571>   DW_AT_decl_column : 11
    <572>   DW_AT_import      : <0x11d7>	[Abbrev Number: 24 (DW_TAG_subprogram)]
 <2><576>: Abbrev Number: 14 (DW_TAG_imported_declaration)
    <577>   DW_AT_decl_file   : 417
    <579>   DW_AT_decl_line   : 240
    <57a>   DW_AT_decl_column : 22
    <57b>   DW_AT_import      : <0x3f4>	[Abbrev Number: 22 (DW_TAG_typedef)]
 <2><57f>: Abbrev Number: 14 (DW_TAG_imported_declaration)
    <580>   DW_AT_decl_file   : 417
    <582>   DW_AT_decl_line   : 245
    <583>   DW_AT_decl_column : 22
    <584>   DW_AT_import      : <0x1241>	[Abbrev Number: 47 (DW_TAG_subprogram)]
 <2><588>: Abbrev Number: 14 (DW_TAG_imported_declaration)
    <589>   DW_AT_decl_file   : 417
    <58b>   DW_AT_decl_line   : 246
    <58c>   DW_AT_decl_column : 22
    <58d>   DW_AT_import      : <0x1283>	[Abbrev Number: 24 (DW_TAG_subprogram)]
 <2><591>: Abbrev Number: 14 (DW_TAG_imported_declaration)
    <592>   DW_AT_decl_file   : 417
    <594>   DW_AT_decl_line   : 248
    <595>   DW_AT_decl_column : 22
    <596>   DW_AT_import      : <0x12a0>	[Abbrev Number: 28 (DW_TAG_subprogram)]
 <2><59a>: Abbrev Number: 14 (DW_TAG_imported_declaration)
    <59b>   DW_AT_decl_file   : 417
    <59d>   DW_AT_decl_line   : 249
    <59e>   DW_AT_decl_column : 22
    <59f>   DW_AT_import      : <0x12f9>	[Abbrev Number: 28 (DW_TAG_subprogram)]
 <2><5a3>: Abbrev Number: 14 (DW_TAG_imported_declaration)
    <5a4>   DW_AT_decl_file   : 417
    <5a6>   DW_AT_decl_line   : 250
    <5a7>   DW_AT_decl_column : 22
    <5a8>   DW_AT_import      : <0x12b7>	[Abbrev Number: 28 (DW_TAG_subprogram)]
 <2><5ac>: Abbrev Number: 14 (DW_TAG_imported_declaration)
    <5ad>   DW_AT_decl_file   : 417
    <5af>   DW_AT_decl_line   : 251
    <5b0>   DW_AT_decl_column : 22
    <5b1>   DW_AT_import      : <0x12d8>	[Abbrev Number: 28 (DW_TAG_subprogram)]
 <2><5b5>: Abbrev Number: 14 (DW_TAG_imported_declaration)
    <5b6>   DW_AT_decl_file   : 417
    <5b8>   DW_AT_decl_line   : 252
    <5b9>   DW_AT_decl_column : 22
    <5ba>   DW_AT_import      : <0x1315>	[Abbrev Number: 28 (DW_TAG_subprogram)]
 <2><5be>: Abbrev Number: 47 (DW_TAG_subprogram)
    <5bf>   DW_AT_external    : 1
    <5bf>   DW_AT_name        : abs
    <5c3>   DW_AT_decl_file   : 418
    <5c5>   DW_AT_decl_line   : 103
    <5c6>   DW_AT_decl_column : 3
    <5c6>   DW_AT_linkage_name: (indirect string, offset: 0x49f39): _ZSt3absg
    <5ca>   DW_AT_type        : <0x352>
    <5ce>   DW_AT_declaration : 1
    <5ce>   DW_AT_sibling     : <0x5d8>
 <3><5d2>: Abbrev Number: 8 (DW_TAG_formal_parameter)
    <5d3>   DW_AT_type        : <0x352>
 <3><5d7>: Abbrev Number: 0
 <2><5d8>: Abbrev Number: 47 (DW_TAG_subprogram)
    <5d9>   DW_AT_external    : 1
    <5d9>   DW_AT_name        : abs
    <5dd>   DW_AT_decl_file   : 418
    <5df>   DW_AT_decl_line   : 85
    <5e0>   DW_AT_decl_column : 3
    <5e0>   DW_AT_linkage_name: (indirect string, offset: 0x49f74): _ZSt3absn
    <5e4>   DW_AT_type        : <0x1367>
    <5e8>   DW_AT_declaration : 1
    <5e8>   DW_AT_sibling     : <0x5f2>
 <3><5ec>: Abbrev Number: 8 (DW_TAG_formal_parameter)
    <5ed>   DW_AT_type        : <0x1367>
 <3><5f1>: Abbrev Number: 0
 <2><5f2>: Abbrev Number: 47 (DW_TAG_subprogram)
    <5f3>   DW_AT_external    : 1
    <5f3>   DW_AT_name        : abs
    <5f7>   DW_AT_decl_file   : 418
    <5f9>   DW_AT_decl_line   : 79
    <5fa>   DW_AT_decl_column : 3
    <5fa>   DW_AT_linkage_name: (indirect string, offset: 0x49f25): _ZSt3abse
    <5fe>   DW_AT_type        : <0x4c>
    <602>   DW_AT_declaration : 1
    <602>   DW_AT_sibling     : <0x60c>
 <3><606>: Abbrev Number: 8 (DW_TAG_formal_parameter)
    <607>   DW_AT_type        : <0x4c>
 <3><60b>: Abbrev Number: 0
 <2><60c>: Abbrev Number: 47 (DW_TAG_subprogram)
    <60d>   DW_AT_external    : 1
    <60d>   DW_AT_name        : abs
    <611>   DW_AT_decl_file   : 418
    <613>   DW_AT_decl_line   : 75
    <614>   DW_AT_decl_column : 3
    <614>   DW_AT_linkage_name: (indirect string, offset: 0x49f2f): _ZSt3absf
    <618>   DW_AT_type        : <0x331>
    <61c>   DW_AT_declaration : 1
    <61c>   DW_AT_sibling     : <0x626>
 <3><620>: Abbrev Number: 8 (DW_TAG_formal_parameter)
    <621>   DW_AT_type        : <0x331>
 <3><625>: Abbrev Number: 0
 <2><626>: Abbrev Number: 47 (DW_TAG_subprogram)
    <627>   DW_AT_external    : 1
    <627>   DW_AT_name        : abs
    <62b>   DW_AT_decl_file   : 418
    <62d>   DW_AT_decl_line   : 71
    <62e>   DW_AT_decl_column : 3
    <62e>   DW_AT_linkage_name: (indirect string, offset: 0x49f1b): _ZSt3absd
    <632>   DW_AT_type        : <0x338>
    <636>   DW_AT_declaration : 1
    <636>   DW_AT_sibling     : <0x640>
 <3><63a>: Abbrev Number: 8 (DW_TAG_formal_parameter)
    <63b>   DW_AT_type        : <0x338>
 <3><63f>: Abbrev Number: 0
 <2><640>: Abbrev Number: 47 (DW_TAG_subprogram)
    <641>   DW_AT_external    : 1
    <641>   DW_AT_name        : abs
    <645>   DW_AT_decl_file   : 418
    <647>   DW_AT_decl_line   : 61
    <648>   DW_AT_decl_column : 3
    <648>   DW_AT_linkage_name: (indirect string, offset: 0x49fa9): _ZSt3absx
    <64c>   DW_AT_type        : <0x45>
    <650>   DW_AT_declaration : 1
    <650>   DW_AT_sibling     : <0x65a>
 <3><654>: Abbrev Number: 8 (DW_TAG_formal_parameter)
    <655>   DW_AT_type        : <0x45>
 <3><659>: Abbrev Number: 0
 <2><65a>: Abbrev Number: 47 (DW_TAG_subprogram)
    <65b>   DW_AT_external    : 1
    <65b>   DW_AT_name        : abs
    <65f>   DW_AT_decl_file   : 418
    <661>   DW_AT_decl_line   : 56
    <662>   DW_AT_decl_column : 3
    <662>   DW_AT_linkage_name: (indirect string, offset: 0x49f62): _ZSt3absl
    <666>   DW_AT_type        : <0x2a>
    <66a>   DW_AT_declaration : 1
    <66a>   DW_AT_sibling     : <0x674>
 <3><66e>: Abbrev Number: 8 (DW_TAG_formal_parameter)
    <66f>   DW_AT_type        : <0x2a>
 <3><673>: Abbrev Number: 0
 <2><674>: Abbrev Number: 47 (DW_TAG_subprogram)
    <675>   DW_AT_external    : 1
    <675>   DW_AT_name        : div
    <679>   DW_AT_decl_file   : 417
    <67b>   DW_AT_decl_line   : 177
    <67c>   DW_AT_decl_column : 3
    <67c>   DW_AT_linkage_name: (indirect string, offset: 0x372ba): _ZSt3divll
    <680>   DW_AT_type        : <0x3bc>
    <684>   DW_AT_declaration : 1
    <684>   DW_AT_sibling     : <0x693>
 <3><688>: Abbrev Number: 8 (DW_TAG_formal_parameter)
    <689>   DW_AT_type        : <0x2a>
 <3><68d>: Abbrev Number: 8 (DW_TAG_formal_parameter)
    <68e>   DW_AT_type        : <0x2a>
 <3><692>: Abbrev Number: 0
 <2><693>: Abbrev Number: 80 (DW_TAG_imported_declaration)
    <694>   DW_AT_decl_file   : 1
    <694>   DW_AT_decl_line   : 1065
    <696>   DW_AT_decl_column : 11
    <696>   DW_AT_import      : <0x1767>	[Abbrev Number: 22 (DW_TAG_typedef)]
 <2><69a>: Abbrev Number: 80 (DW_TAG_imported_declaration)
    <69b>   DW_AT_decl_file   : 1
    <69b>   DW_AT_decl_line   : 1066
    <69d>   DW_AT_decl_column : 11
    <69d>   DW_AT_import      : <0x175a>	[Abbrev Number: 22 (DW_TAG_typedef)]
 <2><6a1>: Abbrev Number: 70 (DW_TAG_namespace)
    <6a2>   DW_AT_name        : (indirect string, offset: 0x14db1): __swappable_details
    <6a6>   DW_AT_decl_file   : 419
    <6a8>   DW_AT_decl_line   : 2624
    <6aa>   DW_AT_decl_column : 13
 <2><6aa>: Abbrev Number: 70 (DW_TAG_namespace)
    <6ab>   DW_AT_name        : (indirect string, offset: 0x3cb81): __swappable_with_details
    <6af>   DW_AT_decl_file   : 419
    <6b1>   DW_AT_decl_line   : 2708
    <6b3>   DW_AT_decl_column : 13
 <2><6b3>: Abbrev Number: 81 (DW_TAG_namespace)
    <6b4>   DW_AT_name        : (indirect string, offset: 0x386d2): __debug
    <6b8>   DW_AT_decl_file   : 420
    <6ba>   DW_AT_decl_line   : 50
    <6bb>   DW_AT_decl_column : 13
 <2><6bc>: Abbrev Number: 14 (DW_TAG_imported_declaration)
    <6bd>   DW_AT_decl_file   : 421
    <6bf>   DW_AT_decl_line   : 64
    <6c0>   DW_AT_decl_column : 11
    <6c1>   DW_AT_import      : <0x1859>	[Abbrev Number: 22 (DW_TAG_typedef)]
 <2><6c5>: Abbrev Number: 14 (DW_TAG_imported_declaration)
    <6c6>   DW_AT_decl_file   : 421
    <6c8>   DW_AT_decl_line   : 141
    <6c9>   DW_AT_decl_column : 11
    <6ca>   DW_AT_import      : <0x184c>	[Abbrev Number: 22 (DW_TAG_typedef)]
 <2><6ce>: Abbrev Number: 14 (DW_TAG_imported_declaration)
    <6cf>   DW_AT_decl_file   : 421
    <6d1>   DW_AT_decl_line   : 143
    <6d2>   DW_AT_decl_column : 11
    <6d3>   DW_AT_import      : <0x186b>	[Abbrev Number: 24 (DW_TAG_subprogram)]
 <2><6d7>: Abbrev Number: 14 (DW_TAG_imported_declaration)
    <6d8>   DW_AT_decl_file   : 421
    <6da>   DW_AT_decl_line   : 144
    <6db>   DW_AT_decl_column : 11
    <6dc>   DW_AT_import      : <0x1883>	[Abbrev Number: 24 (DW_TAG_subprogram)]
 <2><6e0>: Abbrev Number: 14 (DW_TAG_imported_declaration)
    <6e1>   DW_AT_decl_file   : 421
    <6e3>   DW_AT_decl_line   : 145
    <6e4>   DW_AT_decl_column : 11
    <6e5>   DW_AT_import      : <0x18a0>	[Abbrev Number: 24 (DW_TAG_subprogram)]
 <2><6e9>: Abbrev Number: 14 (DW_TAG_imported_declaration)
    <6ea>   DW_AT_decl_file   : 421
    <6ec>   DW_AT_decl_line   : 146
    <6ed>   DW_AT_decl_column : 11
    <6ee>   DW_AT_import      : <0x18c2>	[Abbrev Number: 24 (DW_TAG_subprogram)]
 <2><6f2>: Abbrev Number: 14 (DW_TAG_imported_declaration)
    <6f3>   DW_AT_decl_file   : 421
    <6f5>   DW_AT_decl_line   : 147
    <6f6>   DW_AT_decl_column : 11
    <6f7>   DW_AT_import      : <0x18df>	[Abbrev Number: 24 (DW_TAG_subprogram)]
 <2><6fb>: Abbrev Number: 14 (DW_TAG_imported_declaration)
    <6fc>   DW_AT_decl_file   : 421
    <6fe>   DW_AT_decl_line   : 148
    <6ff>   DW_AT_decl_column : 11
    <700>   DW_AT_import      : <0x18fc>	[Abbrev Number: 24 (DW_TAG_subprogram)]
 <2><704>: Abbrev Number: 14 (DW_TAG_imported_declaration)
    <705>   DW_AT_decl_file   : 421
    <707>   DW_AT_decl_line   : 149
    <708>   DW_AT_decl_column : 11
    <709>   DW_AT_import      : <0x1919>	[Abbrev Number: 24 (DW_TAG_subprogram)]
 <2><70d>: Abbrev Number: 14 (DW_TAG_imported_declaration)
    <70e>   DW_AT_decl_file   : 421
    <710>   DW_AT_decl_line   : 150
    <711>   DW_AT_decl_column : 11
    <712>   DW_AT_import      : <0x1937>	[Abbrev Number: 54 (DW_TAG_subprogram)]
 <2><716>: Abbrev Number: 14 (DW_TAG_imported_declaration)
    <717>   DW_AT_decl_file   : 421
    <719>   DW_AT_decl_line   : 151
    <71a>   DW_AT_decl_column : 11
    <71b>   DW_AT_import      : <0x1959>	[Abbrev Number: 24 (DW_TAG_subprogram)]
 <2><71f>: Abbrev Number: 14 (DW_TAG_imported_declaration)
    <720>   DW_AT_decl_file   : 421
    <722>   DW_AT_decl_line   : 152
    <723>   DW_AT_decl_column : 11
    <724>   DW_AT_import      : <0x1971>	[Abbrev Number: 66 (DW_TAG_subprogram)]
 <2><728>: Abbrev Number: 14 (DW_TAG_imported_declaration)
    <729>   DW_AT_decl_file   : 421
    <72b>   DW_AT_decl_line   : 153
    <72c>   DW_AT_decl_column : 11
    <72d>   DW_AT_import      : <0x197f>	[Abbrev Number: 24 (DW_TAG_subprogram)]
 <2><731>: Abbrev Number: 14 (DW_TAG_imported_declaration)
    <732>   DW_AT_decl_file   : 421
    <734>   DW_AT_decl_line   : 154
    <735>   DW_AT_decl_column : 11
    <736>   DW_AT_import      : <0x19a6>	[Abbrev Number: 24 (DW_TAG_subprogram)]
 <2><73a>: Abbrev Number: 14 (DW_TAG_imported_declaration)
    <73b>   DW_AT_decl_file   : 421
    <73d>   DW_AT_decl_line   : 155
    <73e>   DW_AT_decl_column : 11
    <73f>   DW_AT_import      : <0x19cd>	[Abbrev Number: 24 (DW_TAG_subprogram)]
 <2><743>: Abbrev Number: 14 (DW_TAG_imported_declaration)
    <744>   DW_AT_decl_file   : 421
    <746>   DW_AT_decl_line   : 156
    <747>   DW_AT_decl_column : 11
    <748>   DW_AT_import      : <0x19ea>	[Abbrev Number: 24 (DW_TAG_subprogram)]
 <2><74c>: Abbrev Number: 14 (DW_TAG_imported_declaration)
    <74d>   DW_AT_decl_file   : 421
    <74f>   DW_AT_decl_line   : 157
    <750>   DW_AT_decl_column : 11
    <751>   DW_AT_import      : <0x1a16>	[Abbrev Number: 24 (DW_TAG_subprogram)]
 <2><755>: Abbrev Number: 14 (DW_TAG_imported_declaration)
    <756>   DW_AT_decl_file   : 421
    <758>   DW_AT_decl_line   : 158
    <759>   DW_AT_decl_column : 11
    <75a>   DW_AT_import      : <0x1a33>	[Abbrev Number: 24 (DW_TAG_subprogram)]
 <2><75e>: Abbrev Number: 14 (DW_TAG_imported_declaration)
    <75f>   DW_AT_decl_file   : 421
    <761>   DW_AT_decl_line   : 160
    <762>   DW_AT_decl_column : 11
    <763>   DW_AT_import      : <0x1a4b>	[Abbrev Number: 24 (DW_TAG_subprogram)]
 <2><767>: Abbrev Number: 14 (DW_TAG_imported_declaration)
    <768>   DW_AT_decl_file   : 421
    <76a>   DW_AT_decl_line   : 162
    <76b>   DW_AT_decl_column : 11
    <76c>   DW_AT_import      : <0x1a6e>	[Abbrev Number: 54 (DW_TAG_subprogram)]
 <2><770>: Abbrev Number: 14 (DW_TAG_imported_declaration)
    <771>   DW_AT_decl_file   : 421
    <773>   DW_AT_decl_line   : 163
    <774>   DW_AT_decl_column : 11
    <775>   DW_AT_import      : <0x1a90>	[Abbrev Number: 24 (DW_TAG_subprogram)]
 <2><779>: Abbrev Number: 14 (DW_TAG_imported_declaration)
    <77a>   DW_AT_decl_file   : 421
    <77c>   DW_AT_decl_line   : 164
    <77d>   DW_AT_decl_column : 11
    <77e>   DW_AT_import      : <0x1aad>	[Abbrev Number: 24 (DW_TAG_subprogram)]
 <2><782>: Abbrev Number: 14 (DW_TAG_imported_declaration)
    <783>   DW_AT_decl_file   : 421
    <785>   DW_AT_decl_line   : 166
    <786>   DW_AT_decl_column : 11
    <787>   DW_AT_import      : <0x1ad4>	[Abbrev Number: 54 (DW_TAG_subprogram)]
 <2><78b>: Abbrev Number: 14 (DW_TAG_imported_declaration)
    <78c>   DW_AT_decl_file   : 421
    <78e>   DW_AT_decl_line   : 169
    <78f>   DW_AT_decl_column : 11
    <790>   DW_AT_import      : <0x1afa>	[Abbrev Number: 24 (DW_TAG_subprogram)]
 <2><794>: Abbrev Number: 14 (DW_TAG_imported_declaration)
    <795>   DW_AT_decl_file   : 421
    <797>   DW_AT_decl_line   : 172
    <798>   DW_AT_decl_column : 11
    <799>   DW_AT_import      : <0x1b21>	[Abbrev Number: 54 (DW_TAG_subprogram)]
 <2><79d>: Abbrev Number: 14 (DW_TAG_imported_declaration)
    <79e>   DW_AT_decl_file   : 421
    <7a0>   DW_AT_decl_line   : 174
    <7a1>   DW_AT_decl_column : 11
    <7a2>   DW_AT_import      : <0x1b47>	[Abbrev Number: 24 (DW_TAG_subprogram)]
 <2><7a6>: Abbrev Number: 14 (DW_TAG_imported_declaration)
    <7a7>   DW_AT_decl_file   : 421
    <7a9>   DW_AT_decl_line   : 176
    <7aa>   DW_AT_decl_column : 11
    <7ab>   DW_AT_import      : <0x1b64>	[Abbrev Number: 54 (DW_TAG_subprogram)]
 <2><7af>: Abbrev Number: 14 (DW_TAG_imported_declaration)
    <7b0>   DW_AT_decl_file   : 421
    <7b2>   DW_AT_decl_line   : 178
    <7b3>   DW_AT_decl_column : 11
    <7b4>   DW_AT_import      : <0x1b85>	[Abbrev Number: 24 (DW_TAG_subprogram)]
 <2><7b8>: Abbrev Number: 14 (DW_TAG_imported_declaration)
    <7b9>   DW_AT_decl_file   : 421
    <7bb>   DW_AT_decl_line   : 179
    <7bc>   DW_AT_decl_column : 11
    <7bd>   DW_AT_import      : <0x1ba7>	[Abbrev Number: 28 (DW_TAG_subprogram)]
 <2><7c1>: Abbrev Number: 14 (DW_TAG_imported_declaration)
    <7c2>   DW_AT_decl_file   : 421
    <7c4>   DW_AT_decl_line   : 180
    <7c5>   DW_AT_decl_column : 11
    <7c6>   DW_AT_import      : <0x1bc3>	[Abbrev Number: 28 (DW_TAG_subprogram)]
 <2><7ca>: Abbrev Number: 14 (DW_TAG_imported_declaration)
    <7cb>   DW_AT_decl_file   : 421
    <7cd>   DW_AT_decl_line   : 181
    <7ce>   DW_AT_decl_column : 11
    <7cf>   DW_AT_import      : <0x1bdf>	[Abbrev Number: 28 (DW_TAG_subprogram)]
 <2><7d3>: Abbrev Number: 14 (DW_TAG_imported_declaration)
    <7d4>   DW_AT_decl_file   : 421
    <7d6>   DW_AT_decl_line   : 182
    <7d7>   DW_AT_decl_column : 11
    <7d8>   DW_AT_import      : <0x1bfb>	[Abbrev Number: 28 (DW_TAG_subprogram)]
 <2><7dc>: Abbrev Number: 14 (DW_TAG_imported_declaration)
    <7dd>   DW_AT_decl_file   : 421
    <7df>   DW_AT_decl_line   : 183
    <7e0>   DW_AT_decl_column : 11
    <7e1>   DW_AT_import      : <0x1c17>	[Abbrev Number: 28 (DW_TAG_subprogram)]
 <2><7e5>: Abbrev Number: 14 (DW_TAG_imported_declaration)
    <7e6>   DW_AT_decl_file   : 421
    <7e8>   DW_AT_decl_line   : 184
    <7e9>   DW_AT_decl_column : 11
    <7ea>   DW_AT_import      : <0x1c33>	[Abbrev Number: 24 (DW_TAG_subprogram)]
 <2><7ee>: Abbrev Number: 14 (DW_TAG_imported_declaration)
    <7ef>   DW_AT_decl_file   : 421
    <7f1>   DW_AT_decl_line   : 185
    <7f2>   DW_AT_decl_column : 11
    <7f3>   DW_AT_import      : <0x1c5f>	[Abbrev Number: 28 (DW_TAG_subprogram)]
 <2><7f7>: Abbrev Number: 14 (DW_TAG_imported_declaration)
    <7f8>   DW_AT_decl_file   : 421
    <7fa>   DW_AT_decl_line   : 186
    <7fb>   DW_AT_decl_column : 11
    <7fc>   DW_AT_import      : <0x1c76>	[Abbrev Number: 28 (DW_TAG_subprogram)]
 <2><800>: Abbrev Number: 14 (DW_TAG_imported_declaration)
    <801>   DW_AT_decl_file   : 421
    <803>   DW_AT_decl_line   : 187
    <804>   DW_AT_decl_column : 11
    <805>   DW_AT_import      : <0x1c97>	[Abbrev Number: 28 (DW_TAG_subprogram)]
 <2><809>: Abbrev Number: 14 (DW_TAG_imported_declaration)
    <80a>   DW_AT_decl_file   : 421
    <80c>   DW_AT_decl_line   : 188
    <80d>   DW_AT_decl_column : 11
    <80e>   DW_AT_import      : <0x1cb8>	[Abbrev Number: 28 (DW_TAG_subprogram)]
 <2><812>: Abbrev Number: 14 (DW_TAG_imported_declaration)
    <813>   DW_AT_decl_file   : 421
    <815>   DW_AT_decl_line   : 189
    <816>   DW_AT_decl_column : 11
    <817>   DW_AT_import      : <0x1cd9>	[Abbrev Number: 24 (DW_TAG_subprogram)]
 <2><81b>: Abbrev Number: 14 (DW_TAG_imported_declaration)
    <81c>   DW_AT_decl_file   : 421
    <81e>   DW_AT_decl_line   : 190
    <81f>   DW_AT_decl_column : 11
    <820>   DW_AT_import      : <0x1d05>	[Abbrev Number: 28 (DW_TAG_subprogram)]
 <2><824>: Abbrev Number: 14 (DW_TAG_imported_declaration)
    <825>   DW_AT_decl_file   : 421
    <827>   DW_AT_decl_line   : 191
    <828>   DW_AT_decl_column : 11
    <829>   DW_AT_import      : <0x1d21>	[Abbrev Number: 24 (DW_TAG_subprogram)]
 <2><82d>: Abbrev Number: 14 (DW_TAG_imported_declaration)
    <82e>   DW_AT_decl_file   : 421
    <830>   DW_AT_decl_line   : 193
    <831>   DW_AT_decl_column : 11
    <832>   DW_AT_import      : <0x1d43>	[Abbrev Number: 24 (DW_TAG_subprogram)]
 <2><836>: Abbrev Number: 14 (DW_TAG_imported_declaration)
    <837>   DW_AT_decl_file   : 421
    <839>   DW_AT_decl_line   : 195
    <83a>   DW_AT_decl_column : 11
    <83b>   DW_AT_import      : <0x1d60>	[Abbrev Number: 28 (DW_TAG_subprogram)]
 <2><83f>: Abbrev Number: 14 (DW_TAG_imported_declaration)
    <840>   DW_AT_decl_file   : 421
    <842>   DW_AT_decl_line   : 196
    <843>   DW_AT_decl_column : 11
    <844>   DW_AT_import      : <0x1d81>	[Abbrev Number: 24 (DW_TAG_subprogram)]
 <2><848>: Abbrev Number: 14 (DW_TAG_imported_declaration)
    <849>   DW_AT_decl_file   : 421
    <84b>   DW_AT_decl_line   : 197
    <84c>   DW_AT_decl_column : 11
    <84d>   DW_AT_import      : <0x1da3>	[Abbrev Number: 24 (DW_TAG_subprogram)]
 <2><851>: Abbrev Number: 14 (DW_TAG_imported_declaration)
    <852>   DW_AT_decl_file   : 421
    <854>   DW_AT_decl_line   : 198
    <855>   DW_AT_decl_column : 11
    <856>   DW_AT_import      : <0x1dc5>	[Abbrev Number: 28 (DW_TAG_subprogram)]
 <2><85a>: Abbrev Number: 14 (DW_TAG_imported_declaration)
    <85b>   DW_AT_decl_file   : 421
    <85d>   DW_AT_decl_line   : 199
    <85e>   DW_AT_decl_column : 11
    <85f>   DW_AT_import      : <0x1de6>	[Abbrev Number: 24 (DW_TAG_subprogram)]
 <2><863>: Abbrev Number: 14 (DW_TAG_imported_declaration)
    <864>   DW_AT_decl_file   : 421
    <866>   DW_AT_decl_line   : 200
    <867>   DW_AT_decl_column : 11
    <868>   DW_AT_import      : <0x1dfe>	[Abbrev Number: 24 (DW_TAG_subprogram)]
 <2><86c>: Abbrev Number: 14 (DW_TAG_imported_declaration)
    <86d>   DW_AT_decl_file   : 421
    <86f>   DW_AT_decl_line   : 201
    <870>   DW_AT_decl_column : 11
    <871>   DW_AT_import      : <0x1e20>	[Abbrev Number: 24 (DW_TAG_subprogram)]
 <2><875>: Abbrev Number: 14 (DW_TAG_imported_declaration)
    <876>   DW_AT_decl_file   : 421
    <878>   DW_AT_decl_line   : 202
    <879>   DW_AT_decl_column : 11
    <87a>   DW_AT_import      : <0x1e42>	[Abbrev Number: 24 (DW_TAG_subprogram)]
 <2><87e>: Abbrev Number: 14 (DW_TAG_imported_declaration)
    <87f>   DW_AT_decl_file   : 421
    <881>   DW_AT_decl_line   : 203
    <882>   DW_AT_decl_column : 11
    <883>   DW_AT_import      : <0x1e64>	[Abbrev Number: 24 (DW_TAG_subprogram)]
 <2><887>: Abbrev Number: 14 (DW_TAG_imported_declaration)
    <888>   DW_AT_decl_file   : 421
    <88a>   DW_AT_decl_line   : 204
    <88b>   DW_AT_decl_column : 11
    <88c>   DW_AT_import      : <0x1e86>	[Abbrev Number: 24 (DW_TAG_subprogram)]
 <2><890>: Abbrev Number: 14 (DW_TAG_imported_declaration)
    <891>   DW_AT_decl_file   : 421
    <893>   DW_AT_decl_line   : 205
    <894>   DW_AT_decl_column : 11
    <895>   DW_AT_import      : <0x1e9f>	[Abbrev Number: 54 (DW_TAG_subprogram)]
 <2><899>: Abbrev Number: 14 (DW_TAG_imported_declaration)
    <89a>   DW_AT_decl_file   : 421
    <89c>   DW_AT_decl_line   : 206
    <89d>   DW_AT_decl_column : 11
    <89e>   DW_AT_import      : <0x1ebc>	[Abbrev Number: 45 (DW_TAG_subprogram)]
 <2><8a2>: Abbrev Number: 14 (DW_TAG_imported_declaration)
    <8a3>   DW_AT_decl_file   : 421
    <8a5>   DW_AT_decl_line   : 206
    <8a6>   DW_AT_decl_column : 11
    <8a7>   DW_AT_import      : <0x1eda>	[Abbrev Number: 45 (DW_TAG_subprogram)]
 <2><8ab>: Abbrev Number: 14 (DW_TAG_imported_declaration)
    <8ac>   DW_AT_decl_file   : 421
    <8ae>   DW_AT_decl_line   : 207
    <8af>   DW_AT_decl_column : 11
    <8b0>   DW_AT_import      : <0x1ef8>	[Abbrev Number: 45 (DW_TAG_subprogram)]
 <2><8b4>: Abbrev Number: 14 (DW_TAG_imported_declaration)
    <8b5>   DW_AT_decl_file   : 421
    <8b7>   DW_AT_decl_line   : 207
    <8b8>   DW_AT_decl_column : 11
    <8b9>   DW_AT_import      : <0x1f16>	[Abbrev Number: 45 (DW_TAG_subprogram)]
 <2><8bd>: Abbrev Number: 14 (DW_TAG_imported_declaration)
    <8be>   DW_AT_decl_file   : 421
    <8c0>   DW_AT_decl_line   : 208
    <8c1>   DW_AT_decl_column : 11
    <8c2>   DW_AT_import      : <0x1f34>	[Abbrev Number: 45 (DW_TAG_subprogram)]
 <2><8c6>: Abbrev Number: 14 (DW_TAG_imported_declaration)
    <8c7>   DW_AT_decl_file   : 421
    <8c9>   DW_AT_decl_line   : 208
    <8ca>   DW_AT_decl_column : 11
    <8cb>   DW_AT_import      : <0x1f52>	[Abbrev Number: 45 (DW_TAG_subprogram)]
 <2><8cf>: Abbrev Number: 14 (DW_TAG_imported_declaration)
    <8d0>   DW_AT_decl_file   : 421
    <8d2>   DW_AT_decl_line   : 209
    <8d3>   DW_AT_decl_column : 11
    <8d4>   DW_AT_import      : <0x1f70>	[Abbrev Number: 45 (DW_TAG_subprogram)]
 <2><8d8>: Abbrev Number: 14 (DW_TAG_imported_declaration)
    <8d9>   DW_AT_decl_file   : 421
    <8db>   DW_AT_decl_line   : 209
    <8dc>   DW_AT_decl_column : 11
    <8dd>   DW_AT_import      : <0x1f8e>	[Abbrev Number: 45 (DW_TAG_subprogram)]
 <2><8e1>: Abbrev Number: 14 (DW_TAG_imported_declaration)
    <8e2>   DW_AT_decl_file   : 421
    <8e4>   DW_AT_decl_line   : 210
    <8e5>   DW_AT_decl_column : 11
    <8e6>   DW_AT_import      : <0x1fac>	[Abbrev Number: 45 (DW_TAG_subprogram)]
 <2><8ea>: Abbrev Number: 14 (DW_TAG_imported_declaration)
    <8eb>   DW_AT_decl_file   : 421
    <8ed>   DW_AT_decl_line   : 210
    <8ee>   DW_AT_decl_column : 11
    <8ef>   DW_AT_import      : <0x1fcf>	[Abbrev Number: 45 (DW_TAG_subprogram)]
 <2><8f3>: Abbrev Number: 41 (DW_TAG_imported_declaration)
    <8f4>   DW_AT_decl_file   : 421
    <8f4>   DW_AT_decl_line   : 267
    <8f6>   DW_AT_decl_column : 22
    <8f7>   DW_AT_import      : <0x1ff2>	[Abbrev Number: 24 (DW_TAG_subprogram)]
 <2><8fb>: Abbrev Number: 41 (DW_TAG_imported_declaration)
    <8fc>   DW_AT_decl_file   : 421
    <8fc>   DW_AT_decl_line   : 268
    <8fe>   DW_AT_decl_column : 22
    <8ff>   DW_AT_import      : <0x200f>	[Abbrev Number: 24 (DW_TAG_subprogram)]
 <2><903>: Abbrev Number: 41 (DW_TAG_imported_declaration)
    <904>   DW_AT_decl_file   : 421
    <904>   DW_AT_decl_line   : 269
    <906>   DW_AT_decl_column : 22
    <907>   DW_AT_import      : <0x2031>	[Abbrev Number: 24 (DW_TAG_subprogram)]
 <2><90b>: Abbrev Number: 41 (DW_TAG_imported_declaration)
    <90c>   DW_AT_decl_file   : 421
    <90c>   DW_AT_decl_line   : 283
    <90e>   DW_AT_decl_column : 14
    <90f>   DW_AT_import      : <0x1d43>	[Abbrev Number: 24 (DW_TAG_subprogram)]
 <2><913>: Abbrev Number: 41 (DW_TAG_imported_declaration)
    <914>   DW_AT_decl_file   : 421
    <914>   DW_AT_decl_line   : 286
    <916>   DW_AT_decl_column : 14
    <917>   DW_AT_import      : <0x1ad4>	[Abbrev Number: 54 (DW_TAG_subprogram)]
 <2><91b>: Abbrev Number: 41 (DW_TAG_imported_declaration)
    <91c>   DW_AT_decl_file   : 421
    <91c>   DW_AT_decl_line   : 289
    <91e>   DW_AT_decl_column : 14
    <91f>   DW_AT_import      : <0x1b21>	[Abbrev Number: 54 (DW_TAG_subprogram)]
 <2><923>: Abbrev Number: 41 (DW_TAG_imported_declaration)
    <924>   DW_AT_decl_file   : 421
    <924>   DW_AT_decl_line   : 292
    <926>   DW_AT_decl_column : 14
    <927>   DW_AT_import      : <0x1b64>	[Abbrev Number: 54 (DW_TAG_subprogram)]
 <2><92b>: Abbrev Number: 41 (DW_TAG_imported_declaration)
    <92c>   DW_AT_decl_file   : 421
    <92c>   DW_AT_decl_line   : 296
    <92e>   DW_AT_decl_column : 14
    <92f>   DW_AT_import      : <0x1ff2>	[Abbrev Number: 24 (DW_TAG_subprogram)]
 <2><933>: Abbrev Number: 41 (DW_TAG_imported_declaration)
    <934>   DW_AT_decl_file   : 421
    <934>   DW_AT_decl_line   : 297
    <936>   DW_AT_decl_column : 14
    <937>   DW_AT_import      : <0x200f>	[Abbrev Number: 24 (DW_TAG_subprogram)]
 <2><93b>: Abbrev Number: 41 (DW_TAG_imported_declaration)
    <93c>   DW_AT_decl_file   : 421
    <93c>   DW_AT_decl_line   : 298
    <93e>   DW_AT_decl_column : 14
    <93f>   DW_AT_import      : <0x2031>	[Abbrev Number: 24 (DW_TAG_subprogram)]
 <2><943>: Abbrev Number: 82 (DW_TAG_namespace)
    <944>   DW_AT_name        : (indirect string, offset: 0x2a0f8): __exception_ptr
    <948>   DW_AT_decl_file   : 422
    <94a>   DW_AT_decl_line   : 59
    <94b>   DW_AT_decl_column : 13
    <94c>   DW_AT_sibling     : <0xb12>
 <3><950>: Abbrev Number: 105 (DW_TAG_class_type)
    <951>   DW_AT_name        : (indirect string, offset: 0x2a0fa): exception_ptr
    <955>   DW_AT_byte_size   : 8
    <956>   DW_AT_decl_file   : 422
    <958>   DW_AT_decl_line   : 86
    <959>   DW_AT_decl_column : 11
    <95a>   DW_AT_sibling     : <0xb03>
 <4><95e>: Abbrev Number: 15 (DW_TAG_member)
    <95f>   DW_AT_name        : (indirect string, offset: 0x45403): _M_exception_object
    <963>   DW_AT_decl_file   : 422
    <965>   DW_AT_decl_line   : 88
    <966>   DW_AT_decl_column : 13
    <967>   DW_AT_type        : <0x1b2>
    <96b>   DW_AT_data_member_location: 0
 <4><96c>: Abbrev Number: 106 (DW_TAG_subprogram)
    <96d>   DW_AT_external    : 1
    <96d>   DW_AT_name        : (indirect string, offset: 0x2a0fa): exception_ptr
    <971>   DW_AT_decl_file   : 422
    <973>   DW_AT_decl_line   : 90
    <974>   DW_AT_decl_column : 16
    <975>   DW_AT_linkage_name: (indirect string, offset: 0x28c83): _ZNSt15__exception_ptr13exception_ptrC4EPv
    <979>   DW_AT_declaration : 1
    <979>   DW_AT_explicit    : 1
    <979>   DW_AT_object_pointer: <0x981>
    <97d>   DW_AT_sibling     : <0x98c>
 <5><981>: Abbrev Number: 34 (DW_TAG_formal_parameter)
    <982>   DW_AT_type        : <0x2053>
    <986>   DW_AT_artificial  : 1
 <5><986>: Abbrev Number: 8 (DW_TAG_formal_parameter)
    <987>   DW_AT_type        : <0x1b2>
 <5><98b>: Abbrev Number: 0
 <4><98c>: Abbrev Number: 83 (DW_TAG_subprogram)
    <98d>   DW_AT_external    : 1
    <98d>   DW_AT_name        : (indirect string, offset: 0x45f0e): _M_addref
    <991>   DW_AT_decl_file   : 422
    <991>   DW_AT_decl_line   : 92
    <992>   DW_AT_decl_column : 12
    <992>   DW_AT_linkage_name: (indirect string, offset: 0x1d9e): _ZNSt15__exception_ptr13exception_ptr9_M_addrefEv
    <996>   DW_AT_declaration : 1
    <996>   DW_AT_object_pointer: <0x99e>
    <99a>   DW_AT_sibling     : <0x9a4>
 <5><99e>: Abbrev Number: 34 (DW_TAG_formal_parameter)
    <99f>   DW_AT_type        : <0x2053>
    <9a3>   DW_AT_artificial  : 1
 <5><9a3>: Abbrev Number: 0
 <4><9a4>: Abbrev Number: 83 (DW_TAG_subprogram)
    <9a5>   DW_AT_external    : 1
    <9a5>   DW_AT_name        : (indirect string, offset: 0xa9aa): _M_release
    <9a9>   DW_AT_decl_file   : 422
    <9a9>   DW_AT_decl_line   : 93
    <9aa>   DW_AT_decl_column : 12
    <9aa>   DW_AT_linkage_name: (indirect string, offset: 0x3bcb6): _ZNSt15__exception_ptr13exception_ptr10_M_releaseEv
    <9ae>   DW_AT_declaration : 1
    <9ae>   DW_AT_object_pointer: <0x9b6>
    <9b2>   DW_AT_sibling     : <0x9bc>
 <5><9b6>: Abbrev Number: 34 (DW_TAG_formal_parameter)
    <9b7>   DW_AT_type        : <0x2053>
    <9bb>   DW_AT_artificial  : 1
 <5><9bb>: Abbrev Number: 0
 <4><9bc>: Abbrev Number: 107 (DW_TAG_subprogram)
    <9bd>   DW_AT_external    : 1
    <9bd>   DW_AT_name        : (indirect string, offset: 0x5cb8d): _M_get
    <9c1>   DW_AT_decl_file   : 422
    <9c3>   DW_AT_decl_line   : 95
    <9c4>   DW_AT_decl_column : 13
    <9c5>   DW_AT_linkage_name: (indirect string, offset: 0x6196): _ZNKSt15__exception_ptr13exception_ptr6_M_getEv
    <9c9>   DW_AT_type        : <0x1b2>
    <9cd>   DW_AT_declaration : 1
    <9cd>   DW_AT_object_pointer: <0x9d5>
    <9d1>   DW_AT_sibling     : <0x9db>
 <5><9d5>: Abbrev Number: 34 (DW_TAG_formal_parameter)
    <9d6>   DW_AT_type        : <0x2058>
    <9da>   DW_AT_artificial  : 1
 <5><9da>: Abbrev Number: 0
 <4><9db>: Abbrev Number: 59 (DW_TAG_subprogram)
    <9dc>   DW_AT_external    : 1
    <9dc>   DW_AT_name        : (indirect string, offset: 0x2a0fa): exception_ptr
    <9e0>   DW_AT_decl_file   : 422
    <9e0>   DW_AT_decl_line   : 103
    <9e1>   DW_AT_decl_column : 7
    <9e1>   DW_AT_linkage_name: (indirect string, offset: 0x31f69): _ZNSt15__exception_ptr13exception_ptrC4Ev
    <9e5>   DW_AT_accessibility: 1	(unknown accessibility)
    <9e5>   DW_AT_declaration : 1
    <9e5>   DW_AT_object_pointer: <0x9ed>
    <9e9>   DW_AT_sibling     : <0x9f3>
 <5><9ed>: Abbrev Number: 34 (DW_TAG_formal_parameter)
    <9ee>   DW_AT_type        : <0x2053>
    <9f2>   DW_AT_artificial  : 1
 <5><9f2>: Abbrev Number: 0
 <4><9f3>: Abbrev Number: 59 (DW_TAG_subprogram)
    <9f4>   DW_AT_external    : 1
    <9f4>   DW_AT_name        : (indirect string, offset: 0x2a0fa): exception_ptr
    <9f8>   DW_AT_decl_file   : 422
    <9f8>   DW_AT_decl_line   : 105
    <9f9>   DW_AT_decl_column : 7
    <9f9>   DW_AT_linkage_name: (indirect string, offset: 0x44f22): _ZNSt15__exception_ptr13exception_ptrC4ERKS0_
    <9fd>   DW_AT_accessibility: 1	(unknown accessibility)
    <9fd>   DW_AT_declaration : 1
    <9fd>   DW_AT_object_pointer: <0xa05>
    <a01>   DW_AT_sibling     : <0xa10>
 <5><a05>: Abbrev Number: 34 (DW_TAG_formal_parameter)
    <a06>   DW_AT_type        : <0x2053>
    <a0a>   DW_AT_artificial  : 1
 <5><a0a>: Abbrev Number: 8 (DW_TAG_formal_parameter)
    <a0b>   DW_AT_type        : <0x205d>
 <5><a0f>: Abbrev Number: 0
 <4><a10>: Abbrev Number: 59 (DW_TAG_subprogram)
    <a11>   DW_AT_external    : 1
    <a11>   DW_AT_name        : (indirect string, offset: 0x2a0fa): exception_ptr
    <a15>   DW_AT_decl_file   : 422
    <a15>   DW_AT_decl_line   : 108
    <a16>   DW_AT_decl_column : 7
    <a16>   DW_AT_linkage_name: (indirect string, offset: 0x27be7): _ZNSt15__exception_ptr13exception_ptrC4EDn
    <a1a>   DW_AT_accessibility: 1	(unknown accessibility)
    <a1a>   DW_AT_declaration : 1
    <a1a>   DW_AT_object_pointer: <0xa22>
    <a1e>   DW_AT_sibling     : <0xa2d>
 <5><a22>: Abbrev Number: 34 (DW_TAG_formal_parameter)
    <a23>   DW_AT_type        : <0x2053>
    <a27>   DW_AT_artificial  : 1
 <5><a27>: Abbrev Number: 8 (DW_TAG_formal_parameter)
    <a28>   DW_AT_type        : <0xb32>
 <5><a2c>: Abbrev Number: 0
 <4><a2d>: Abbrev Number: 59 (DW_TAG_subprogram)
    <a2e>   DW_AT_external    : 1
    <a2e>   DW_AT_name        : (indirect string, offset: 0x2a0fa): exception_ptr
    <a32>   DW_AT_decl_file   : 422
    <a32>   DW_AT_decl_line   : 112
    <a33>   DW_AT_decl_column : 7
    <a33>   DW_AT_linkage_name: (indirect string, offset: 0x4c9e6): _ZNSt15__exception_ptr13exception_ptrC4EOS0_
    <a37>   DW_AT_accessibility: 1	(unknown accessibility)
    <a37>   DW_AT_declaration : 1
    <a37>   DW_AT_object_pointer: <0xa3f>
    <a3b>   DW_AT_sibling     : <0xa4a>
 <5><a3f>: Abbrev Number: 34 (DW_TAG_formal_parameter)
    <a40>   DW_AT_type        : <0x2053>
    <a44>   DW_AT_artificial  : 1
 <5><a44>: Abbrev Number: 8 (DW_TAG_formal_parameter)
    <a45>   DW_AT_type        : <0x2062>
 <5><a49>: Abbrev Number: 0
 <4><a4a>: Abbrev Number: 84 (DW_TAG_subprogram)
    <a4b>   DW_AT_external    : 1
    <a4b>   DW_AT_name        : (indirect string, offset: 0x3fabb): operator=
    <a4f>   DW_AT_decl_file   : 422
    <a4f>   DW_AT_decl_line   : 125
    <a50>   DW_AT_decl_column : 7
    <a50>   DW_AT_linkage_name: (indirect string, offset: 0x14be5): _ZNSt15__exception_ptr13exception_ptraSERKS0_
    <a54>   DW_AT_type        : <0x2068>
    <a58>   DW_AT_accessibility: 1	(unknown accessibility)
    <a58>   DW_AT_declaration : 1
    <a58>   DW_AT_object_pointer: <0xa60>
    <a5c>   DW_AT_sibling     : <0xa6b>
 <5><a60>: Abbrev Number: 34 (DW_TAG_formal_parameter)
    <a61>   DW_AT_type        : <0x2053>
    <a65>   DW_AT_artificial  : 1
 <5><a65>: Abbrev Number: 8 (DW_TAG_formal_parameter)
    <a66>   DW_AT_type        : <0x205d>
 <5><a6a>: Abbrev Number: 0
 <4><a6b>: Abbrev Number: 84 (DW_TAG_subprogram)
    <a6c>   DW_AT_external    : 1
    <a6c>   DW_AT_name        : (indirect string, offset: 0x3fabb): operator=
    <a70>   DW_AT_decl_file   : 422
    <a70>   DW_AT_decl_line   : 129
    <a71>   DW_AT_decl_column : 7
    <a71>   DW_AT_linkage_name: (indirect string, offset: 0x1f37b): _ZNSt15__exception_ptr13exception_ptraSEOS0_
    <a75>   DW_AT_type        : <0x2068>
    <a79>   DW_AT_accessibility: 1	(unknown accessibility)
    <a79>   DW_AT_declaration : 1
    <a79>   DW_AT_object_pointer: <0xa81>
    <a7d>   DW_AT_sibling     : <0xa8c>
 <5><a81>: Abbrev Number: 34 (DW_TAG_formal_parameter)
    <a82>   DW_AT_type        : <0x2053>
    <a86>   DW_AT_artificial  : 1
 <5><a86>: Abbrev Number: 8 (DW_TAG_formal_parameter)
    <a87>   DW_AT_type        : <0x2062>
 <5><a8b>: Abbrev Number: 0
 <4><a8c>: Abbrev Number: 59 (DW_TAG_subprogram)
    <a8d>   DW_AT_external    : 1
    <a8d>   DW_AT_name        : (indirect string, offset: 0x23b30): ~exception_ptr
    <a91>   DW_AT_decl_file   : 422
    <a91>   DW_AT_decl_line   : 136
    <a92>   DW_AT_decl_column : 7
    <a92>   DW_AT_linkage_name: (indirect string, offset: 0xb4cc): _ZNSt15__exception_ptr13exception_ptrD4Ev
    <a96>   DW_AT_accessibility: 1	(unknown accessibility)
    <a96>   DW_AT_declaration : 1
    <a96>   DW_AT_object_pointer: <0xa9e>
    <a9a>   DW_AT_sibling     : <0xaa9>
 <5><a9e>: Abbrev Number: 34 (DW_TAG_formal_parameter)
    <a9f>   DW_AT_type        : <0x2053>
    <aa3>   DW_AT_artificial  : 1
 <5><aa3>: Abbrev Number: 34 (DW_TAG_formal_parameter)
    <aa4>   DW_AT_type        : <0xc1>
    <aa8>   DW_AT_artificial  : 1
 <5><aa8>: Abbrev Number: 0
 <4><aa9>: Abbrev Number: 59 (DW_TAG_subprogram)
    <aaa>   DW_AT_external    : 1
    <aaa>   DW_AT_name        : (indirect string, offset: 0x360bc): swap
    <aae>   DW_AT_decl_file   : 422
    <aae>   DW_AT_decl_line   : 139
    <aaf>   DW_AT_decl_column : 7
    <aaf>   DW_AT_linkage_name: (indirect string, offset: 0x340ee): _ZNSt15__exception_ptr13exception_ptr4swapERS0_
    <ab3>   DW_AT_accessibility: 1	(unknown accessibility)
    <ab3>   DW_AT_declaration : 1
    <ab3>   DW_AT_object_pointer: <0xabb>
    <ab7>   DW_AT_sibling     : <0xac6>
 <5><abb>: Abbrev Number: 34 (DW_TAG_formal_parameter)
    <abc>   DW_AT_type        : <0x2053>
    <ac0>   DW_AT_artificial  : 1
 <5><ac0>: Abbrev Number: 8 (DW_TAG_formal_parameter)
    <ac1>   DW_AT_type        : <0x2068>
 <5><ac5>: Abbrev Number: 0
 <4><ac6>: Abbrev Number: 108 (DW_TAG_subprogram)
    <ac7>   DW_AT_external    : 1
    <ac7>   DW_AT_name        : (indirect string, offset: 0x23d4f): operator bool
    <acb>   DW_AT_decl_file   : 422
    <acd>   DW_AT_decl_line   : 151
    <ace>   DW_AT_decl_column : 16
    <acf>   DW_AT_linkage_name: (indirect string, offset: 0x5a34e): _ZNKSt15__exception_ptr13exception_ptrcvbEv
    <ad3>   DW_AT_type        : <0x1753>
    <ad7>   DW_AT_accessibility: 1	(public)
    <ad8>   DW_AT_declaration : 1
    <ad8>   DW_AT_explicit    : 1
    <ad8>   DW_AT_object_pointer: <0xae0>
    <adc>   DW_AT_sibling     : <0xae6>
 <5><ae0>: Abbrev Number: 34 (DW_TAG_formal_parameter)
    <ae1>   DW_AT_type        : <0x2058>
    <ae5>   DW_AT_artificial  : 1
 <5><ae5>: Abbrev Number: 0
 <4><ae6>: Abbrev Number: 109 (DW_TAG_subprogram)
    <ae7>   DW_AT_external    : 1
    <ae7>   DW_AT_name        : (indirect string, offset: 0x503e8): __cxa_exception_type
    <aeb>   DW_AT_decl_file   : 422
    <aed>   DW_AT_decl_line   : 172
    <aee>   DW_AT_decl_column : 7
    <aef>   DW_AT_linkage_name: (indirect string, offset: 0x243ea): _ZNKSt15__exception_ptr13exception_ptr20__cxa_exception_typeEv
    <af3>   DW_AT_type        : <0x206d>
    <af7>   DW_AT_accessibility: 1	(public)
    <af8>   DW_AT_declaration : 1
    <af8>   DW_AT_object_pointer: <0xafc>
 <5><afc>: Abbrev Number: 34 (DW_TAG_formal_parameter)
    <afd>   DW_AT_type        : <0x2058>
    <b01>   DW_AT_artificial  : 1
 <5><b01>: Abbrev Number: 0
 <4><b02>: Abbrev Number: 0
 <3><b03>: Abbrev Number: 42 (DW_TAG_const_type)
    <b04>   DW_AT_type        : <0x950>
 <3><b08>: Abbrev Number: 14 (DW_TAG_imported_declaration)
    <b09>   DW_AT_decl_file   : 422
    <b0b>   DW_AT_decl_line   : 80
    <b0c>   DW_AT_decl_column : 16
    <b0d>   DW_AT_import      : <0xb1b>	[Abbrev Number: 110 (DW_TAG_subprogram)]
 <3><b11>: Abbrev Number: 0
 <2><b12>: Abbrev Number: 14 (DW_TAG_imported_declaration)
    <b13>   DW_AT_decl_file   : 422
    <b15>   DW_AT_decl_line   : 64
    <b16>   DW_AT_decl_column : 26
    <b17>   DW_AT_import      : <0x950>	[Abbrev Number: 105 (DW_TAG_class_type)]
 <2><b1b>: Abbrev Number: 110 (DW_TAG_subprogram)
    <b1c>   DW_AT_external    : 1
    <b1c>   DW_AT_name        : (indirect string, offset: 0x419c6): rethrow_exception
    <b20>   DW_AT_decl_file   : 422
    <b22>   DW_AT_decl_line   : 76
    <b23>   DW_AT_decl_column : 8
    <b24>   DW_AT_linkage_name: (indirect string, offset: 0x51125): _ZSt17rethrow_exceptionNSt15__exception_ptr13exception_ptrE
    <b28>   DW_AT_noreturn    : 1
    <b28>   DW_AT_declaration : 1
    <b28>   DW_AT_sibling     : <0xb32>
 <3><b2c>: Abbrev Number: 8 (DW_TAG_formal_parameter)
    <b2d>   DW_AT_type        : <0x950>
 <3><b31>: Abbrev Number: 0
 <2><b32>: Abbrev Number: 79 (DW_TAG_typedef)
    <b33>   DW_AT_name        : (indirect string, offset: 0x77ca): nullptr_t
    <b37>   DW_AT_decl_file   : 423
    <b39>   DW_AT_decl_line   : 284
    <b3b>   DW_AT_decl_column : 29
    <b3c>   DW_AT_type        : <0x53>
 <2><b40>: Abbrev Number: 111 (DW_TAG_class_type)
    <b41>   DW_AT_name        : (indirect string, offset: 0x3ea93): type_info
    <b45>   DW_AT_declaration : 1
 <2><b45>: Abbrev Number: 42 (DW_TAG_const_type)
    <b46>   DW_AT_type        : <0xb40>
 <2><b4a>: Abbrev Number: 14 (DW_TAG_imported_declaration)
    <b4b>   DW_AT_decl_file   : 424
    <b4d>   DW_AT_decl_line   : 47
    <b4e>   DW_AT_decl_column : 11
    <b4f>   DW_AT_import      : <0x1c5>	[Abbrev Number: 22 (DW_TAG_typedef)]
 <2><b53>: Abbrev Number: 14 (DW_TAG_imported_declaration)
    <b54>   DW_AT_decl_file   : 424
    <b56>   DW_AT_decl_line   : 48
    <b57>   DW_AT_decl_column : 11
    <b58>   DW_AT_import      : <0x1d2>	[Abbrev Number: 22 (DW_TAG_typedef)]
 <2><b5c>: Abbrev Number: 14 (DW_TAG_imported_declaration)
    <b5d>   DW_AT_decl_file   : 424
    <b5f>   DW_AT_decl_line   : 49
    <b60>   DW_AT_decl_column : 11
    <b61>   DW_AT_import      : <0x1df>	[Abbrev Number: 22 (DW_TAG_typedef)]
 <2><b65>: Abbrev Number: 14 (DW_TAG_imported_declaration)
    <b66>   DW_AT_decl_file   : 424
    <b68>   DW_AT_decl_line   : 50
    <b69>   DW_AT_decl_column : 11
    <b6a>   DW_AT_import      : <0x1ec>	[Abbrev Number: 22 (DW_TAG_typedef)]
 <2><b6e>: Abbrev Number: 14 (DW_TAG_imported_declaration)
    <b6f>   DW_AT_decl_file   : 424
    <b71>   DW_AT_decl_line   : 52
    <b72>   DW_AT_decl_column : 11
    <b73>   DW_AT_import      : <0x295>	[Abbrev Number: 22 (DW_TAG_typedef)]
 <2><b77>: Abbrev Number: 14 (DW_TAG_imported_declaration)
    <b78>   DW_AT_decl_file   : 424
    <b7a>   DW_AT_decl_line   : 53
    <b7b>   DW_AT_decl_column : 11
    <b7c>   DW_AT_import      : <0x2a2>	[Abbrev Number: 22 (DW_TAG_typedef)]
 <2><b80>: Abbrev Number: 14 (DW_TAG_imported_declaration)
    <b81>   DW_AT_decl_file   : 424
    <b83>   DW_AT_decl_line   : 54
    <b84>   DW_AT_decl_column : 11
    <b85>   DW_AT_import      : <0x2af>	[Abbrev Number: 22 (DW_TAG_typedef)]
 <2><b89>: Abbrev Number: 14 (DW_TAG_imported_declaration)
    <b8a>   DW_AT_decl_file   : 424
    <b8c>   DW_AT_decl_line   : 55
    <b8d>   DW_AT_decl_column : 11
    <b8e>   DW_AT_import      : <0x2bc>	[Abbrev Number: 22 (DW_TAG_typedef)]
 <2><b92>: Abbrev Number: 14 (DW_TAG_imported_declaration)
    <b93>   DW_AT_decl_file   : 424
    <b95>   DW_AT_decl_line   : 57
    <b96>   DW_AT_decl_column : 11
    <b97>   DW_AT_import      : <0x22d>	[Abbrev Number: 22 (DW_TAG_typedef)]
 <2><b9b>: Abbrev Number: 14 (DW_TAG_imported_declaration)
    <b9c>   DW_AT_decl_file   : 424
    <b9e>   DW_AT_decl_line   : 58
    <b9f>   DW_AT_decl_column : 11
    <ba0>   DW_AT_import      : <0x23a>	[Abbrev Number: 22 (DW_TAG_typedef)]
 <2><ba4>: Abbrev Number: 14 (DW_TAG_imported_declaration)
    <ba5>   DW_AT_decl_file   : 424
    <ba7>   DW_AT_decl_line   : 59
    <ba8>   DW_AT_decl_column : 11
    <ba9>   DW_AT_import      : <0x247>	[Abbrev Number: 22 (DW_TAG_typedef)]
 <2><bad>: Abbrev Number: 14 (DW_TAG_imported_declaration)
    <bae>   DW_AT_decl_file   : 424
    <bb0>   DW_AT_decl_line   : 60
    <bb1>   DW_AT_decl_column : 11
    <bb2>   DW_AT_import      : <0x254>	[Abbrev Number: 22 (DW_TAG_typedef)]
 <2><bb6>: Abbrev Number: 14 (DW_TAG_imported_declaration)
    <bb7>   DW_AT_decl_file   : 424
    <bb9>   DW_AT_decl_line   : 62
    <bba>   DW_AT_decl_column : 11
    <bbb>   DW_AT_import      : <0x317>	[Abbrev Number: 22 (DW_TAG_typedef)]
 <2><bbf>: Abbrev Number: 14 (DW_TAG_imported_declaration)
    <bc0>   DW_AT_decl_file   : 424
    <bc2>   DW_AT_decl_line   : 63
    <bc3>   DW_AT_decl_column : 11
    <bc4>   DW_AT_import      : <0x2fd>	[Abbrev Number: 22 (DW_TAG_typedef)]
 <2><bc8>: Abbrev Number: 14 (DW_TAG_imported_declaration)
    <bc9>   DW_AT_decl_file   : 424
    <bcb>   DW_AT_decl_line   : 65
    <bcc>   DW_AT_decl_column : 11
    <bcd>   DW_AT_import      : <0x1f9>	[Abbrev Number: 22 (DW_TAG_typedef)]
 <2><bd1>: Abbrev Number: 14 (DW_TAG_imported_declaration)
    <bd2>   DW_AT_decl_file   : 424
    <bd4>   DW_AT_decl_line   : 66
    <bd5>   DW_AT_decl_column : 11
    <bd6>   DW_AT_import      : <0x206>	[Abbrev Number: 22 (DW_TAG_typedef)]
 <2><bda>: Abbrev Number: 14 (DW_TAG_imported_declaration)
    <bdb>   DW_AT_decl_file   : 424
    <bdd>   DW_AT_decl_line   : 67
    <bde>   DW_AT_decl_column : 11
    <bdf>   DW_AT_import      : <0x213>	[Abbrev Number: 22 (DW_TAG_typedef)]
 <2><be3>: Abbrev Number: 14 (DW_TAG_imported_declaration)
    <be4>   DW_AT_decl_file   : 424
    <be6>   DW_AT_decl_line   : 68
    <be7>   DW_AT_decl_column : 11
    <be8>   DW_AT_import      : <0x220>	[Abbrev Number: 22 (DW_TAG_typedef)]
 <2><bec>: Abbrev Number: 14 (DW_TAG_imported_declaration)
    <bed>   DW_AT_decl_file   : 424
    <bef>   DW_AT_decl_line   : 70
    <bf0>   DW_AT_decl_column : 11
    <bf1>   DW_AT_import      : <0x2c9>	[Abbrev Number: 22 (DW_TAG_typedef)]
 <2><bf5>: Abbrev Number: 14 (DW_TAG_imported_declaration)
    <bf6>   DW_AT_decl_file   : 424
    <bf8>   DW_AT_decl_line   : 71
    <bf9>   DW_AT_decl_column : 11
    <bfa>   DW_AT_import      : <0x2d6>	[Abbrev Number: 22 (DW_TAG_typedef)]
 <2><bfe>: Abbrev Number: 14 (DW_TAG_imported_declaration)
    <bff>   DW_AT_decl_file   : 424
    <c01>   DW_AT_decl_line   : 72
    <c02>   DW_AT_decl_column : 11
    <c03>   DW_AT_import      : <0x2e3>	[Abbrev Number: 22 (DW_TAG_typedef)]
 <2><c07>: Abbrev Number: 14 (DW_TAG_imported_declaration)
    <c08>   DW_AT_decl_file   : 424
    <c0a>   DW_AT_decl_line   : 73
    <c0b>   DW_AT_decl_column : 11
    <c0c>   DW_AT_import      : <0x2f0>	[Abbrev Number: 22 (DW_TAG_typedef)]
 <2><c10>: Abbrev Number: 14 (DW_TAG_imported_declaration)
    <c11>   DW_AT_decl_file   : 424
    <c13>   DW_AT_decl_line   : 75
    <c14>   DW_AT_decl_column : 11
    <c15>   DW_AT_import      : <0x261>	[Abbrev Number: 22 (DW_TAG_typedef)]
 <2><c19>: Abbrev Number: 14 (DW_TAG_imported_declaration)
    <c1a>   DW_AT_decl_file   : 424
    <c1c>   DW_AT_decl_line   : 76
    <c1d>   DW_AT_decl_column : 11
    <c1e>   DW_AT_import      : <0x26e>	[Abbrev Number: 22 (DW_TAG_typedef)]
 <2><c22>: Abbrev Number: 14 (DW_TAG_imported_declaration)
    <c23>   DW_AT_decl_file   : 424
    <c25>   DW_AT_decl_line   : 77
    <c26>   DW_AT_decl_column : 11
    <c27>   DW_AT_import      : <0x27b>	[Abbrev Number: 22 (DW_TAG_typedef)]
 <2><c2b>: Abbrev Number: 14 (DW_TAG_imported_declaration)
    <c2c>   DW_AT_decl_file   : 424
    <c2e>   DW_AT_decl_line   : 78
    <c2f>   DW_AT_decl_column : 11
    <c30>   DW_AT_import      : <0x288>	[Abbrev Number: 22 (DW_TAG_typedef)]
 <2><c34>: Abbrev Number: 14 (DW_TAG_imported_declaration)
    <c35>   DW_AT_decl_file   : 424
    <c37>   DW_AT_decl_line   : 80
    <c38>   DW_AT_decl_column : 11
    <c39>   DW_AT_import      : <0x324>	[Abbrev Number: 22 (DW_TAG_typedef)]
 <2><c3d>: Abbrev Number: 14 (DW_TAG_imported_declaration)
    <c3e>   DW_AT_decl_file   : 424
    <c40>   DW_AT_decl_line   : 81
    <c41>   DW_AT_decl_column : 11
    <c42>   DW_AT_import      : <0x30a>	[Abbrev Number: 22 (DW_TAG_typedef)]
 <2><c46>: Abbrev Number: 14 (DW_TAG_imported_declaration)
    <c47>   DW_AT_decl_file   : 425
    <c49>   DW_AT_decl_line   : 53
    <c4a>   DW_AT_decl_column : 11
    <c4b>   DW_AT_import      : <0x2072>	[Abbrev Number: 48 (DW_TAG_structure_type)]
 <2><c4f>: Abbrev Number: 14 (DW_TAG_imported_declaration)
    <c50>   DW_AT_decl_file   : 425
    <c52>   DW_AT_decl_line   : 54
    <c53>   DW_AT_decl_column : 11
    <c54>   DW_AT_import      : <0x21d1>	[Abbrev Number: 28 (DW_TAG_subprogram)]
 <2><c58>: Abbrev Number: 14 (DW_TAG_imported_declaration)
    <c59>   DW_AT_decl_file   : 425
    <c5b>   DW_AT_decl_line   : 55
    <c5c>   DW_AT_decl_column : 11
    <c5d>   DW_AT_import      : <0x21ed>	[Abbrev Number: 89 (DW_TAG_subprogram)]
 <2><c61>: Abbrev Number: 14 (DW_TAG_imported_declaration)
    <c62>   DW_AT_decl_file   : 426
    <c64>   DW_AT_decl_line   : 98
    <c65>   DW_AT_decl_column : 11
    <c66>   DW_AT_import      : <0x16de>	[Abbrev Number: 22 (DW_TAG_typedef)]
 <2><c6a>: Abbrev Number: 14 (DW_TAG_imported_declaration)
    <c6b>   DW_AT_decl_file   : 426
    <c6d>   DW_AT_decl_line   : 99
    <c6e>   DW_AT_decl_column : 11
    <c6f>   DW_AT_import      : <0x173c>	[Abbrev Number: 22 (DW_TAG_typedef)]
 <2><c73>: Abbrev Number: 14 (DW_TAG_imported_declaration)
    <c74>   DW_AT_decl_file   : 426
    <c76>   DW_AT_decl_line   : 101
    <c77>   DW_AT_decl_column : 11
    <c78>   DW_AT_import      : <0x21ff>	[Abbrev Number: 55 (DW_TAG_subprogram)]
 <2><c7c>: Abbrev Number: 14 (DW_TAG_imported_declaration)
    <c7d>   DW_AT_decl_file   : 426
    <c7f>   DW_AT_decl_line   : 102
    <c80>   DW_AT_decl_column : 11
    <c81>   DW_AT_import      : <0x2212>	[Abbrev Number: 28 (DW_TAG_subprogram)]
 <2><c85>: Abbrev Number: 14 (DW_TAG_imported_declaration)
    <c86>   DW_AT_decl_file   : 426
    <c88>   DW_AT_decl_line   : 103
    <c89>   DW_AT_decl_column : 11
    <c8a>   DW_AT_import      : <0x2229>	[Abbrev Number: 24 (DW_TAG_subprogram)]
 <2><c8e>: Abbrev Number: 14 (DW_TAG_imported_declaration)
    <c8f>   DW_AT_decl_file   : 426
    <c91>   DW_AT_decl_line   : 104
    <c92>   DW_AT_decl_column : 11
    <c93>   DW_AT_import      : <0x2241>	[Abbrev Number: 24 (DW_TAG_subprogram)]
 <2><c97>: Abbrev Number: 14 (DW_TAG_imported_declaration)
    <c98>   DW_AT_decl_file   : 426
    <c9a>   DW_AT_decl_line   : 105
    <c9b>   DW_AT_decl_column : 11
    <c9c>   DW_AT_import      : <0x2259>	[Abbrev Number: 28 (DW_TAG_subprogram)]
 <2><ca0>: Abbrev Number: 14 (DW_TAG_imported_declaration)
    <ca1>   DW_AT_decl_file   : 426
    <ca3>   DW_AT_decl_line   : 106
    <ca4>   DW_AT_decl_column : 11
    <ca5>   DW_AT_import      : <0x2270>	[Abbrev Number: 24 (DW_TAG_subprogram)]
 <2><ca9>: Abbrev Number: 14 (DW_TAG_imported_declaration)
    <caa>   DW_AT_decl_file   : 426
    <cac>   DW_AT_decl_line   : 107
    <cad>   DW_AT_decl_column : 11
    <cae>   DW_AT_import      : <0x2288>	[Abbrev Number: 24 (DW_TAG_subprogram)]
 <2><cb2>: Abbrev Number: 14 (DW_TAG_imported_declaration)
    <cb3>   DW_AT_decl_file   : 426
    <cb5>   DW_AT_decl_line   : 108
    <cb6>   DW_AT_decl_column : 11
    <cb7>   DW_AT_import      : <0x22aa>	[Abbrev Number: 24 (DW_TAG_subprogram)]
 <2><cbb>: Abbrev Number: 14 (DW_TAG_imported_declaration)
    <cbc>   DW_AT_decl_file   : 426
    <cbe>   DW_AT_decl_line   : 109
    <cbf>   DW_AT_decl_column : 11
    <cc0>   DW_AT_import      : <0x22cc>	[Abbrev Number: 28 (DW_TAG_subprogram)]
 <2><cc4>: Abbrev Number: 14 (DW_TAG_imported_declaration)
    <cc5>   DW_AT_decl_file   : 426
    <cc7>   DW_AT_decl_line   : 113
    <cc8>   DW_AT_decl_column : 11
    <cc9>   DW_AT_import      : <0x22e8>	[Abbrev Number: 24 (DW_TAG_subprogram)]
 <2><ccd>: Abbrev Number: 14 (DW_TAG_imported_declaration)
    <cce>   DW_AT_decl_file   : 426
    <cd0>   DW_AT_decl_line   : 114
    <cd1>   DW_AT_decl_column : 11
    <cd2>   DW_AT_import      : <0x230f>	[Abbrev Number: 28 (DW_TAG_subprogram)]
 <2><cd6>: Abbrev Number: 14 (DW_TAG_imported_declaration)
    <cd7>   DW_AT_decl_file   : 426
    <cd9>   DW_AT_decl_line   : 116
    <cda>   DW_AT_decl_column : 11
    <cdb>   DW_AT_import      : <0x2330>	[Abbrev Number: 24 (DW_TAG_subprogram)]
 <2><cdf>: Abbrev Number: 14 (DW_TAG_imported_declaration)
    <ce0>   DW_AT_decl_file   : 426
    <ce2>   DW_AT_decl_line   : 117
    <ce3>   DW_AT_decl_column : 11
    <ce4>   DW_AT_import      : <0x2352>	[Abbrev Number: 24 (DW_TAG_subprogram)]
 <2><ce8>: Abbrev Number: 14 (DW_TAG_imported_declaration)
    <ce9>   DW_AT_decl_file   : 426
    <ceb>   DW_AT_decl_line   : 118
    <cec>   DW_AT_decl_column : 11
    <ced>   DW_AT_import      : <0x2374>	[Abbrev Number: 24 (DW_TAG_subprogram)]
 <2><cf1>: Abbrev Number: 14 (DW_TAG_imported_declaration)
    <cf2>   DW_AT_decl_file   : 426
    <cf4>   DW_AT_decl_line   : 120
    <cf5>   DW_AT_decl_column : 11
    <cf6>   DW_AT_import      : <0x238c>	[Abbrev Number: 24 (DW_TAG_subprogram)]
 <2><cfa>: Abbrev Number: 14 (DW_TAG_imported_declaration)
    <cfb>   DW_AT_decl_file   : 426
    <cfd>   DW_AT_decl_line   : 121
    <cfe>   DW_AT_decl_column : 11
    <cff>   DW_AT_import      : <0x23a4>	[Abbrev Number: 66 (DW_TAG_subprogram)]
 <2><d03>: Abbrev Number: 14 (DW_TAG_imported_declaration)
    <d04>   DW_AT_decl_file   : 426
    <d06>   DW_AT_decl_line   : 126
    <d07>   DW_AT_decl_column : 11
    <d08>   DW_AT_import      : <0x23b2>	[Abbrev Number: 55 (DW_TAG_subprogram)]
 <2><d0c>: Abbrev Number: 14 (DW_TAG_imported_declaration)
    <d0d>   DW_AT_decl_file   : 426
    <d0f>   DW_AT_decl_line   : 131
    <d10>   DW_AT_decl_column : 11
    <d11>   DW_AT_import      : <0x23c5>	[Abbrev Number: 28 (DW_TAG_subprogram)]
 <2><d15>: Abbrev Number: 14 (DW_TAG_imported_declaration)
    <d16>   DW_AT_decl_file   : 426
    <d18>   DW_AT_decl_line   : 132
    <d19>   DW_AT_decl_column : 11
    <d1a>   DW_AT_import      : <0x23dc>	[Abbrev Number: 28 (DW_TAG_subprogram)]
 <2><d1e>: Abbrev Number: 14 (DW_TAG_imported_declaration)
    <d1f>   DW_AT_decl_file   : 426
    <d21>   DW_AT_decl_line   : 133
    <d22>   DW_AT_decl_column : 11
    <d23>   DW_AT_import      : <0x23f8>	[Abbrev Number: 55 (DW_TAG_subprogram)]
 <2><d27>: Abbrev Number: 14 (DW_TAG_imported_declaration)
    <d28>   DW_AT_decl_file   : 426
    <d2a>   DW_AT_decl_line   : 135
    <d2b>   DW_AT_decl_column : 11
    <d2c>   DW_AT_import      : <0x240b>	[Abbrev Number: 55 (DW_TAG_subprogram)]
 <2><d30>: Abbrev Number: 14 (DW_TAG_imported_declaration)
    <d31>   DW_AT_decl_file   : 426
    <d33>   DW_AT_decl_line   : 136
    <d34>   DW_AT_decl_column : 11
    <d35>   DW_AT_import      : <0x2423>	[Abbrev Number: 24 (DW_TAG_subprogram)]
 <2><d39>: Abbrev Number: 14 (DW_TAG_imported_declaration)
    <d3a>   DW_AT_decl_file   : 426
    <d3c>   DW_AT_decl_line   : 139
    <d3d>   DW_AT_decl_column : 11
    <d3e>   DW_AT_import      : <0x244a>	[Abbrev Number: 89 (DW_TAG_subprogram)]
 <2><d42>: Abbrev Number: 14 (DW_TAG_imported_declaration)
    <d43>   DW_AT_decl_file   : 426
    <d45>   DW_AT_decl_line   : 141
    <d46>   DW_AT_decl_column : 11
    <d47>   DW_AT_import      : <0x2457>	[Abbrev Number: 28 (DW_TAG_subprogram)]
 <2><d4b>: Abbrev Number: 14 (DW_TAG_imported_declaration)
    <d4c>   DW_AT_decl_file   : 426
    <d4e>   DW_AT_decl_line   : 143
    <d4f>   DW_AT_decl_column : 11
    <d50>   DW_AT_import      : <0x246e>	[Abbrev Number: 24 (DW_TAG_subprogram)]
 <2><d54>: Abbrev Number: 112 (DW_TAG_namespace)
    <d55>   DW_AT_name        : (indirect string, offset: 0x422b4): __cxx11
    <d59>   DW_AT_decl_file   : 423
    <d5b>   DW_AT_decl_line   : 302
    <d5d>   DW_AT_decl_column : 65
    <d5e>   DW_AT_export_symbols: 1
 <2><d5e>: Abbrev Number: 113 (DW_TAG_namespace)
    <d5f>   DW_AT_name        : _V2
    <d63>   DW_AT_decl_file   : 454
    <d65>   DW_AT_decl_line   : 78
    <d66>   DW_AT_decl_column : 20
    <d67>   DW_AT_export_symbols: 1
 <2><d67>: Abbrev Number: 114 (DW_TAG_class_type)
    <d68>   DW_AT_name        : (indirect string, offset: 0x33447): ios_base
    <d6c>   DW_AT_declaration : 1
    <d6c>   DW_AT_sibling     : <0xe04>
 <3><d70>: Abbrev Number: 115 (DW_TAG_class_type)
    <d71>   DW_AT_name        : (indirect string, offset: 0x8f3c3): Init
    <d75>   DW_AT_byte_size   : 1
    <d76>   DW_AT_decl_file   : 427
    <d78>   DW_AT_decl_line   : 626
    <d7a>   DW_AT_decl_column : 11
    <d7b>   DW_AT_accessibility: 1	(public)
    <d7c>   DW_AT_sibling     : <0xdfe>
 <4><d80>: Abbrev Number: 85 (DW_TAG_subprogram)
    <d81>   DW_AT_external    : 1
    <d81>   DW_AT_name        : (indirect string, offset: 0x8f3c3): Init
    <d85>   DW_AT_decl_file   : 427
    <d85>   DW_AT_decl_line   : 630
    <d87>   DW_AT_decl_column : 7
    <d87>   DW_AT_linkage_name: (indirect string, offset: 0x21b65): _ZNSt8ios_base4InitC4Ev
    <d8b>   DW_AT_accessibility: 1	(unknown accessibility)
    <d8b>   DW_AT_declaration : 1
    <d8b>   DW_AT_object_pointer: <0xd93>
    <d8f>   DW_AT_inline      : 0	(not inlined)
    <d8f>   DW_AT_sibling     : <0xd99>
 <5><d93>: Abbrev Number: 34 (DW_TAG_formal_parameter)
    <d94>   DW_AT_type        : <0x248b>
    <d98>   DW_AT_artificial  : 1
 <5><d98>: Abbrev Number: 0
 <4><d99>: Abbrev Number: 85 (DW_TAG_subprogram)
    <d9a>   DW_AT_external    : 1
    <d9a>   DW_AT_name        : (indirect string, offset: 0x21441): ~Init
    <d9e>   DW_AT_decl_file   : 427
    <d9e>   DW_AT_decl_line   : 631
    <da0>   DW_AT_decl_column : 7
    <da0>   DW_AT_linkage_name: (indirect string, offset: 0x587ad): _ZNSt8ios_base4InitD4Ev
    <da4>   DW_AT_accessibility: 1	(unknown accessibility)
    <da4>   DW_AT_declaration : 1
    <da4>   DW_AT_object_pointer: <0xdac>
    <da8>   DW_AT_inline      : 0	(not inlined)
    <da8>   DW_AT_sibling     : <0xdb7>
 <5><dac>: Abbrev Number: 34 (DW_TAG_formal_parameter)
    <dad>   DW_AT_type        : <0x248b>
    <db1>   DW_AT_artificial  : 1
 <5><db1>: Abbrev Number: 34 (DW_TAG_formal_parameter)
    <db2>   DW_AT_type        : <0xc1>
    <db6>   DW_AT_artificial  : 1
 <5><db6>: Abbrev Number: 0
 <4><db7>: Abbrev Number: 116 (DW_TAG_subprogram)
    <db8>   DW_AT_external    : 1
    <db8>   DW_AT_name        : (indirect string, offset: 0x8f3c3): Init
    <dbc>   DW_AT_decl_file   : 427
    <dbe>   DW_AT_decl_line   : 634
    <dc0>   DW_AT_decl_column : 7
    <dc1>   DW_AT_linkage_name: (indirect string, offset: 0x2f811): _ZNSt8ios_base4InitC4ERKS0_
    <dc5>   DW_AT_accessibility: 1	(public)
    <dc6>   DW_AT_declaration : 1
    <dc6>   DW_AT_defaulted   : 1	(in class)
    <dc7>   DW_AT_object_pointer: <0xdcf>
    <dcb>   DW_AT_sibling     : <0xdda>
 <5><dcf>: Abbrev Number: 34 (DW_TAG_formal_parameter)
    <dd0>   DW_AT_type        : <0x248b>
    <dd4>   DW_AT_artificial  : 1
 <5><dd4>: Abbrev Number: 8 (DW_TAG_formal_parameter)
    <dd5>   DW_AT_type        : <0x2495>
 <5><dd9>: Abbrev Number: 0
 <4><dda>: Abbrev Number: 117 (DW_TAG_subprogram)
    <ddb>   DW_AT_external    : 1
    <ddb>   DW_AT_name        : (indirect string, offset: 0x3fabb): operator=
    <ddf>   DW_AT_decl_file   : 427
    <de1>   DW_AT_decl_line   : 635
    <de3>   DW_AT_decl_column : 13
    <de4>   DW_AT_linkage_name: (indirect string, offset: 0x5cd15): _ZNSt8ios_base4InitaSERKS0_
    <de8>   DW_AT_type        : <0x249a>
    <dec>   DW_AT_accessibility: 1	(public)
    <ded>   DW_AT_declaration : 1
    <ded>   DW_AT_defaulted   : 1	(in class)
    <dee>   DW_AT_object_pointer: <0xdf2>
 <5><df2>: Abbrev Number: 34 (DW_TAG_formal_parameter)
    <df3>   DW_AT_type        : <0x248b>
    <df7>   DW_AT_artificial  : 1
 <5><df7>: Abbrev Number: 8 (DW_TAG_formal_parameter)
    <df8>   DW_AT_type        : <0x2495>
 <5><dfc>: Abbrev Number: 0
 <4><dfd>: Abbrev Number: 0
 <3><dfe>: Abbrev Number: 42 (DW_TAG_const_type)
    <dff>   DW_AT_type        : <0xd70>
 <3><e03>: Abbrev Number: 0
 <2><e04>: Abbrev Number: 14 (DW_TAG_imported_declaration)
    <e05>   DW_AT_decl_file   : 428
    <e07>   DW_AT_decl_line   : 82
    <e08>   DW_AT_decl_column : 11
    <e09>   DW_AT_import      : <0x24ac>	[Abbrev Number: 22 (DW_TAG_typedef)]
 <2><e0d>: Abbrev Number: 14 (DW_TAG_imported_declaration)
    <e0e>   DW_AT_decl_file   : 428
    <e10>   DW_AT_decl_line   : 83
    <e11>   DW_AT_decl_column : 11
    <e12>   DW_AT_import      : <0x249f>	[Abbrev Number: 22 (DW_TAG_typedef)]
 <2><e16>: Abbrev Number: 14 (DW_TAG_imported_declaration)
    <e17>   DW_AT_decl_file   : 428
    <e19>   DW_AT_decl_line   : 84
    <e1a>   DW_AT_decl_column : 11
    <e1b>   DW_AT_import      : <0x184c>	[Abbrev Number: 22 (DW_TAG_typedef)]
 <2><e1f>: Abbrev Number: 14 (DW_TAG_imported_declaration)
    <e20>   DW_AT_decl_file   : 428
    <e22>   DW_AT_decl_line   : 92
    <e23>   DW_AT_decl_column : 11
    <e24>   DW_AT_import      : <0x24be>	[Abbrev Number: 28 (DW_TAG_subprogram)]
 <2><e28>: Abbrev Number: 14 (DW_TAG_imported_declaration)
    <e29>   DW_AT_decl_file   : 428
    <e2b>   DW_AT_decl_line   : 101
    <e2c>   DW_AT_decl_column : 11
    <e2d>   DW_AT_import      : <0x24da>	[Abbrev Number: 28 (DW_TAG_subprogram)]
 <2><e31>: Abbrev Number: 14 (DW_TAG_imported_declaration)
    <e32>   DW_AT_decl_file   : 428
    <e34>   DW_AT_decl_line   : 104
    <e35>   DW_AT_decl_column : 11
    <e36>   DW_AT_import      : <0x24f6>	[Abbrev Number: 28 (DW_TAG_subprogram)]
 <2><e3a>: Abbrev Number: 14 (DW_TAG_imported_declaration)
    <e3b>   DW_AT_decl_file   : 428
    <e3d>   DW_AT_decl_line   : 105
    <e3e>   DW_AT_decl_column : 11
    <e3f>   DW_AT_import      : <0x250d>	[Abbrev Number: 28 (DW_TAG_subprogram)]
 <2><e43>: Abbrev Number: 118 (DW_TAG_variable)
    <e44>   DW_AT_name        : (indirect string, offset: 0x1f436): __ioinit
    <e48>   DW_AT_decl_file   : 407
    <e4a>   DW_AT_decl_line   : 74
    <e4b>   DW_AT_decl_column : 25
    <e4c>   DW_AT_type        : <0xd70>
    <e50>   DW_AT_declaration : 1
 <2><e50>: Abbrev Number: 70 (DW_TAG_namespace)
    <e51>   DW_AT_name        : (indirect string, offset: 0x2bf56): __detail
    <e55>   DW_AT_decl_file   : 429
    <e57>   DW_AT_decl_line   : 1305
    <e59>   DW_AT_decl_column : 13
 <2><e59>: Abbrev Number: 71 (DW_TAG_subprogram)
    <e5a>   DW_AT_external    : 1
    <e5a>   DW_AT_name        : tan
    <e5e>   DW_AT_decl_file   : 1
    <e5f>   DW_AT_decl_line   : 486
    <e61>   DW_AT_decl_column : 3
    <e62>   DW_AT_linkage_name: (indirect string, offset: 0x571c6): _ZSt3tane
    <e66>   DW_AT_type        : <0x4c>
    <e6a>   DW_AT_declaration : 1
    <e6a>   DW_AT_sibling     : <0xe74>
 <3><e6e>: Abbrev Number: 8 (DW_TAG_formal_parameter)
    <e6f>   DW_AT_type        : <0x4c>
 <3><e73>: Abbrev Number: 0
 <2><e74>: Abbrev Number: 71 (DW_TAG_subprogram)
    <e75>   DW_AT_external    : 1
    <e75>   DW_AT_name        : sin
    <e79>   DW_AT_decl_file   : 1
    <e7a>   DW_AT_decl_line   : 429
    <e7c>   DW_AT_decl_column : 3
    <e7d>   DW_AT_linkage_name: (indirect string, offset: 0x530ac): _ZSt3sine
    <e81>   DW_AT_type        : <0x4c>
    <e85>   DW_AT_declaration : 1
    <e85>   DW_AT_sibling     : <0xe8f>
 <3><e89>: Abbrev Number: 8 (DW_TAG_formal_parameter)
    <e8a>   DW_AT_type        : <0x4c>
 <3><e8e>: Abbrev Number: 0
 <2><e8f>: Abbrev Number: 17 (DW_TAG_subprogram)
    <e90>   DW_AT_external    : 1
    <e90>   DW_AT_name        : (indirect string, offset: 0x4ead3): floor
    <e94>   DW_AT_decl_file   : 1
    <e95>   DW_AT_decl_line   : 264
    <e97>   DW_AT_decl_column : 3
    <e98>   DW_AT_linkage_name: (indirect string, offset: 0x237c4): _ZSt5floore
    <e9c>   DW_AT_type        : <0x4c>
    <ea0>   DW_AT_declaration : 1
    <ea0>   DW_AT_sibling     : <0xeaa>
 <3><ea4>: Abbrev Number: 8 (DW_TAG_formal_parameter)
    <ea5>   DW_AT_type        : <0x4c>
 <3><ea9>: Abbrev Number: 0
 <2><eaa>: Abbrev Number: 17 (DW_TAG_subprogram)
    <eab>   DW_AT_external    : 1
    <eab>   DW_AT_name        : (indirect string, offset: 0x4ead3): floor
    <eaf>   DW_AT_decl_file   : 1
    <eb0>   DW_AT_decl_line   : 260
    <eb2>   DW_AT_decl_column : 3
    <eb3>   DW_AT_linkage_name: (indirect string, offset: 0x237d0): _ZSt5floorf
    <eb7>   DW_AT_type        : <0x331>
    <ebb>   DW_AT_declaration : 1
    <ebb>   DW_AT_sibling     : <0xec5>
 <3><ebf>: Abbrev Number: 8 (DW_TAG_formal_parameter)
    <ec0>   DW_AT_type        : <0x331>
 <3><ec4>: Abbrev Number: 0
 <2><ec5>: Abbrev Number: 44 (DW_TAG_subprogram)
    <ec6>   DW_AT_external    : 1
    <ec6>   DW_AT_name        : (indirect string, offset: 0x25ad9): fabs
    <eca>   DW_AT_decl_file   : 1
    <ecb>   DW_AT_decl_line   : 245
    <ecc>   DW_AT_decl_column : 3
    <ecd>   DW_AT_linkage_name: (indirect string, offset: 0x37d71): _ZSt4fabse
    <ed1>   DW_AT_type        : <0x4c>
    <ed5>   DW_AT_declaration : 1
    <ed5>   DW_AT_sibling     : <0xedf>
 <3><ed9>: Abbrev Number: 8 (DW_TAG_formal_parameter)
    <eda>   DW_AT_type        : <0x4c>
 <3><ede>: Abbrev Number: 0
 <2><edf>: Abbrev Number: 44 (DW_TAG_subprogram)
    <ee0>   DW_AT_external    : 1
    <ee0>   DW_AT_name        : (indirect string, offset: 0x25ad9): fabs
    <ee4>   DW_AT_decl_file   : 1
    <ee5>   DW_AT_decl_line   : 241
    <ee6>   DW_AT_decl_column : 3
    <ee7>   DW_AT_linkage_name: (indirect string, offset: 0x37d7c): _ZSt4fabsf
    <eeb>   DW_AT_type        : <0x331>
    <eef>   DW_AT_declaration : 1
    <eef>   DW_AT_sibling     : <0xef9>
 <3><ef3>: Abbrev Number: 8 (DW_TAG_formal_parameter)
    <ef4>   DW_AT_type        : <0x331>
 <3><ef8>: Abbrev Number: 0
 <2><ef9>: Abbrev Number: 119 (DW_TAG_subprogram)
    <efa>   DW_AT_external    : 1
    <efa>   DW_AT_name        : cos
    <efe>   DW_AT_decl_file   : 1
    <eff>   DW_AT_decl_line   : 188
    <f00>   DW_AT_decl_column : 3
    <f01>   DW_AT_linkage_name: (indirect string, offset: 0x5074c): _ZSt3cose
    <f05>   DW_AT_type        : <0x4c>
    <f09>   DW_AT_declaration : 1
    <f09>   DW_AT_sibling     : <0xf13>
 <3><f0d>: Abbrev Number: 8 (DW_TAG_formal_parameter)
    <f0e>   DW_AT_type        : <0x4c>
 <3><f12>: Abbrev Number: 0
 <2><f13>: Abbrev Number: 44 (DW_TAG_subprogram)
    <f14>   DW_AT_external    : 1
    <f14>   DW_AT_name        : (indirect string, offset: 0x551df): ceil
    <f18>   DW_AT_decl_file   : 1
    <f19>   DW_AT_decl_line   : 169
    <f1a>   DW_AT_decl_column : 3
    <f1b>   DW_AT_linkage_name: (indirect string, offset: 0x48b2b): _ZSt4ceile
    <f1f>   DW_AT_type        : <0x4c>
    <f23>   DW_AT_declaration : 1
    <f23>   DW_AT_sibling     : <0xf2d>
 <3><f27>: Abbrev Number: 8 (DW_TAG_formal_parameter)
    <f28>   DW_AT_type        : <0x4c>
 <3><f2c>: Abbrev Number: 0
 <2><f2d>: Abbrev Number: 44 (DW_TAG_subprogram)
    <f2e>   DW_AT_external    : 1
    <f2e>   DW_AT_name        : (indirect string, offset: 0x46601): atan
    <f32>   DW_AT_decl_file   : 1
    <f33>   DW_AT_decl_line   : 129
    <f34>   DW_AT_decl_column : 3
    <f35>   DW_AT_linkage_name: (indirect string, offset: 0x5b20e): _ZSt4atane
    <f39>   DW_AT_type        : <0x4c>
    <f3d>   DW_AT_declaration : 1
    <f3d>   DW_AT_sibling     : <0xf47>
 <3><f41>: Abbrev Number: 8 (DW_TAG_formal_parameter)
    <f42>   DW_AT_type        : <0x4c>
 <3><f46>: Abbrev Number: 0
 <2><f47>: Abbrev Number: 44 (DW_TAG_subprogram)
    <f48>   DW_AT_external    : 1
    <f48>   DW_AT_name        : (indirect string, offset: 0x40a5b): asin
    <f4c>   DW_AT_decl_file   : 1
    <f4d>   DW_AT_decl_line   : 110
    <f4e>   DW_AT_decl_column : 3
    <f4f>   DW_AT_linkage_name: (indirect string, offset: 0x578a1): _ZSt4asine
    <f53>   DW_AT_type        : <0x4c>
    <f57>   DW_AT_declaration : 1
    <f57>   DW_AT_sibling     : <0xf61>
 <3><f5b>: Abbrev Number: 8 (DW_TAG_formal_parameter)
    <f5c>   DW_AT_type        : <0x4c>
 <3><f60>: Abbrev Number: 0
 <2><f61>: Abbrev Number: 120 (DW_TAG_subprogram)
    <f62>   DW_AT_external    : 1
    <f62>   DW_AT_name        : (indirect string, offset: 0x38174): acos
    <f66>   DW_AT_decl_file   : 1
    <f67>   DW_AT_decl_line   : 91
    <f68>   DW_AT_decl_column : 3
    <f69>   DW_AT_linkage_name: (indirect string, offset: 0x54d92): _ZSt4acose
    <f6d>   DW_AT_type        : <0x4c>
    <f71>   DW_AT_declaration : 1
 <3><f71>: Abbrev Number: 8 (DW_TAG_formal_parameter)
    <f72>   DW_AT_type        : <0x4c>
 <3><f76>: Abbrev Number: 0
 <2><f77>: Abbrev Number: 0
 <1><f78>: Abbrev Number: 24 (DW_TAG_subprogram)
    <f79>   DW_AT_external    : 1
    <f79>   DW_AT_name        : (indirect string, offset: 0x14243): atexit
    <f7d>   DW_AT_decl_file   : 414
    <f7f>   DW_AT_decl_line   : 595
    <f81>   DW_AT_decl_column : 12
    <f82>   DW_AT_type        : <0xc1>
    <f86>   DW_AT_declaration : 1
    <f86>   DW_AT_sibling     : <0xf90>
 <2><f8a>: Abbrev Number: 8 (DW_TAG_formal_parameter)
    <f8b>   DW_AT_type        : <0x33f>
 <2><f8f>: Abbrev Number: 0
 <1><f90>: Abbrev Number: 54 (DW_TAG_subprogram)
    <f91>   DW_AT_external    : 1
    <f91>   DW_AT_name        : (indirect string, offset: 0x1e5e9): at_quick_exit
    <f95>   DW_AT_decl_file   : 414
    <f97>   DW_AT_decl_line   : 600
    <f99>   DW_AT_decl_column : 18
    <f9a>   DW_AT_linkage_name: (indirect string, offset: 0x1e5e9): at_quick_exit
    <f9e>   DW_AT_type        : <0xc1>
    <fa2>   DW_AT_declaration : 1
    <fa2>   DW_AT_sibling     : <0xfac>
 <2><fa6>: Abbrev Number: 8 (DW_TAG_formal_parameter)
    <fa7>   DW_AT_type        : <0x33f>
 <2><fab>: Abbrev Number: 0
 <1><fac>: Abbrev Number: 28 (DW_TAG_subprogram)
    <fad>   DW_AT_external    : 1
    <fad>   DW_AT_name        : (indirect string, offset: 0x47e3f): atof
    <fb1>   DW_AT_decl_file   : 414
    <fb3>   DW_AT_decl_line   : 101
    <fb4>   DW_AT_decl_column : 15
    <fb5>   DW_AT_type        : <0x338>
    <fb9>   DW_AT_declaration : 1
    <fb9>   DW_AT_sibling     : <0xfc3>
 <2><fbd>: Abbrev Number: 8 (DW_TAG_formal_parameter)
    <fbe>   DW_AT_type        : <0x401>
 <2><fc2>: Abbrev Number: 0
 <1><fc3>: Abbrev Number: 28 (DW_TAG_subprogram)
    <fc4>   DW_AT_external    : 1
    <fc4>   DW_AT_name        : (indirect string, offset: 0x47e44): atoi
    <fc8>   DW_AT_decl_file   : 414
    <fca>   DW_AT_decl_line   : 104
    <fcb>   DW_AT_decl_column : 12
    <fcc>   DW_AT_type        : <0xc1>
    <fd0>   DW_AT_declaration : 1
    <fd0>   DW_AT_sibling     : <0xfda>
 <2><fd4>: Abbrev Number: 8 (DW_TAG_formal_parameter)
    <fd5>   DW_AT_type        : <0x401>
 <2><fd9>: Abbrev Number: 0
 <1><fda>: Abbrev Number: 28 (DW_TAG_subprogram)
    <fdb>   DW_AT_external    : 1
    <fdb>   DW_AT_name        : (indirect string, offset: 0x47e63): atol
    <fdf>   DW_AT_decl_file   : 414
    <fe1>   DW_AT_decl_line   : 107
    <fe2>   DW_AT_decl_column : 17
    <fe3>   DW_AT_type        : <0x2a>
    <fe7>   DW_AT_declaration : 1
    <fe7>   DW_AT_sibling     : <0xff1>
 <2><feb>: Abbrev Number: 8 (DW_TAG_formal_parameter)
    <fec>   DW_AT_type        : <0x401>
 <2><ff0>: Abbrev Number: 0
 <1><ff1>: Abbrev Number: 24 (DW_TAG_subprogram)
    <ff2>   DW_AT_external    : 1
    <ff2>   DW_AT_name        : (indirect string, offset: 0x334ce): bsearch
    <ff6>   DW_AT_decl_file   : 414
    <ff8>   DW_AT_decl_line   : 820
    <ffa>   DW_AT_decl_column : 14
    <ffb>   DW_AT_type        : <0x1b2>
    <fff>   DW_AT_declaration : 1
    <fff>   DW_AT_sibling     : <0x101d>
 <2><1003>: Abbrev Number: 8 (DW_TAG_formal_parameter)
    <1004>   DW_AT_type        : <0x345>
 <2><1008>: Abbrev Number: 8 (DW_TAG_formal_parameter)
    <1009>   DW_AT_type        : <0x345>
 <2><100d>: Abbrev Number: 8 (DW_TAG_formal_parameter)
    <100e>   DW_AT_type        : <0x31>
 <2><1012>: Abbrev Number: 8 (DW_TAG_formal_parameter)
    <1013>   DW_AT_type        : <0x31>
 <2><1017>: Abbrev Number: 8 (DW_TAG_formal_parameter)
    <1018>   DW_AT_type        : <0x469>
 <2><101c>: Abbrev Number: 0
 <1><101d>: Abbrev Number: 121 (DW_TAG_subprogram)
    <101e>   DW_AT_external    : 1
    <101e>   DW_AT_name        : div
    <1022>   DW_AT_decl_file   : 414
    <1024>   DW_AT_decl_line   : 852
    <1026>   DW_AT_decl_column : 14
    <1027>   DW_AT_type        : <0x384>
    <102b>   DW_AT_declaration : 1
    <102b>   DW_AT_sibling     : <0x103a>
 <2><102f>: Abbrev Number: 8 (DW_TAG_formal_parameter)
    <1030>   DW_AT_type        : <0xc1>
 <2><1034>: Abbrev Number: 8 (DW_TAG_formal_parameter)
    <1035>   DW_AT_type        : <0xc1>
 <2><1039>: Abbrev Number: 0
 <1><103a>: Abbrev Number: 24 (DW_TAG_subprogram)
    <103b>   DW_AT_external    : 1
    <103b>   DW_AT_name        : (indirect string, offset: 0x28b7b): getenv
    <103f>   DW_AT_decl_file   : 414
    <1041>   DW_AT_decl_line   : 634
    <1043>   DW_AT_decl_column : 14
    <1044>   DW_AT_type        : <0x1b4>
    <1048>   DW_AT_declaration : 1
    <1048>   DW_AT_sibling     : <0x1052>
 <2><104c>: Abbrev Number: 8 (DW_TAG_formal_parameter)
    <104d>   DW_AT_type        : <0x401>
 <2><1051>: Abbrev Number: 0
 <1><1052>: Abbrev Number: 24 (DW_TAG_subprogram)
    <1053>   DW_AT_external    : 1
    <1053>   DW_AT_name        : (indirect string, offset: 0x24f83): ldiv
    <1057>   DW_AT_decl_file   : 414
    <1059>   DW_AT_decl_line   : 854
    <105b>   DW_AT_decl_column : 15
    <105c>   DW_AT_type        : <0x3bc>
    <1060>   DW_AT_declaration : 1
    <1060>   DW_AT_sibling     : <0x106f>
 <2><1064>: Abbrev Number: 8 (DW_TAG_formal_parameter)
    <1065>   DW_AT_type        : <0x2a>
 <2><1069>: Abbrev Number: 8 (DW_TAG_formal_parameter)
    <106a>   DW_AT_type        : <0x2a>
 <2><106e>: Abbrev Number: 0
 <1><106f>: Abbrev Number: 24 (DW_TAG_subprogram)
    <1070>   DW_AT_external    : 1
    <1070>   DW_AT_name        : (indirect string, offset: 0x372c5): mblen
    <1074>   DW_AT_decl_file   : 414
    <1076>   DW_AT_decl_line   : 922
    <1078>   DW_AT_decl_column : 12
    <1079>   DW_AT_type        : <0xc1>
    <107d>   DW_AT_declaration : 1
    <107d>   DW_AT_sibling     : <0x108c>
 <2><1081>: Abbrev Number: 8 (DW_TAG_formal_parameter)
    <1082>   DW_AT_type        : <0x401>
 <2><1086>: Abbrev Number: 8 (DW_TAG_formal_parameter)
    <1087>   DW_AT_type        : <0x31>
 <2><108b>: Abbrev Number: 0
 <1><108c>: Abbrev Number: 24 (DW_TAG_subprogram)
    <108d>   DW_AT_external    : 1
    <108d>   DW_AT_name        : (indirect string, offset: 0x2acb0): mbstowcs
    <1091>   DW_AT_decl_file   : 414
    <1093>   DW_AT_decl_line   : 933
    <1095>   DW_AT_decl_column : 15
    <1096>   DW_AT_type        : <0x31>
    <109a>   DW_AT_declaration : 1
    <109a>   DW_AT_sibling     : <0x10ae>
 <2><109e>: Abbrev Number: 8 (DW_TAG_formal_parameter)
    <109f>   DW_AT_type        : <0x10ae>
 <2><10a3>: Abbrev Number: 8 (DW_TAG_formal_parameter)
    <10a4>   DW_AT_type        : <0x401>
 <2><10a8>: Abbrev Number: 8 (DW_TAG_formal_parameter)
    <10a9>   DW_AT_type        : <0x31>
 <2><10ad>: Abbrev Number: 0
 <1><10ae>: Abbrev Number: 25 (DW_TAG_pointer_type)
    <10af>   DW_AT_byte_size   : 8
    <10af>   DW_AT_type        : <0x10b3>
 <1><10b3>: Abbrev Number: 33 (DW_TAG_base_type)
    <10b4>   DW_AT_byte_size   : 4
    <10b5>   DW_AT_encoding    : 5	(signed)
    <10b6>   DW_AT_name        : (indirect string, offset: 0x345b1): wchar_t
 <1><10ba>: Abbrev Number: 42 (DW_TAG_const_type)
    <10bb>   DW_AT_type        : <0x10b3>
 <1><10bf>: Abbrev Number: 24 (DW_TAG_subprogram)
    <10c0>   DW_AT_external    : 1
    <10c0>   DW_AT_name        : (indirect string, offset: 0x26418): mbtowc
    <10c4>   DW_AT_decl_file   : 414
    <10c6>   DW_AT_decl_line   : 925
    <10c8>   DW_AT_decl_column : 12
    <10c9>   DW_AT_type        : <0xc1>
    <10cd>   DW_AT_declaration : 1
    <10cd>   DW_AT_sibling     : <0x10e1>
 <2><10d1>: Abbrev Number: 8 (DW_TAG_formal_parameter)
    <10d2>   DW_AT_type        : <0x10ae>
 <2><10d6>: Abbrev Number: 8 (DW_TAG_formal_parameter)
    <10d7>   DW_AT_type        : <0x401>
 <2><10db>: Abbrev Number: 8 (DW_TAG_formal_parameter)
    <10dc>   DW_AT_type        : <0x31>
 <2><10e0>: Abbrev Number: 0
 <1><10e1>: Abbrev Number: 55 (DW_TAG_subprogram)
    <10e2>   DW_AT_external    : 1
    <10e2>   DW_AT_name        : (indirect string, offset: 0x41a9): qsort
    <10e6>   DW_AT_decl_file   : 414
    <10e8>   DW_AT_decl_line   : 830
    <10ea>   DW_AT_decl_column : 13
    <10ea>   DW_AT_declaration : 1
    <10ea>   DW_AT_sibling     : <0x1103>
 <2><10ee>: Abbrev Number: 8 (DW_TAG_formal_parameter)
    <10ef>   DW_AT_type        : <0x1b2>
 <2><10f3>: Abbrev Number: 8 (DW_TAG_formal_parameter)
    <10f4>   DW_AT_type        : <0x31>
 <2><10f8>: Abbrev Number: 8 (DW_TAG_formal_parameter)
    <10f9>   DW_AT_type        : <0x31>
 <2><10fd>: Abbrev Number: 8 (DW_TAG_formal_parameter)
    <10fe>   DW_AT_type        : <0x469>
 <2><1102>: Abbrev Number: 0
 <1><1103>: Abbrev Number: 86 (DW_TAG_subprogram)
    <1104>   DW_AT_external    : 1
    <1104>   DW_AT_name        : (indirect string, offset: 0x1e5ec): quick_exit
    <1108>   DW_AT_decl_file   : 414
    <1108>   DW_AT_decl_line   : 623
    <110a>   DW_AT_decl_column : 13
    <110a>   DW_AT_noreturn    : 1
    <110a>   DW_AT_declaration : 1
    <110a>   DW_AT_sibling     : <0x1114>
 <2><110e>: Abbrev Number: 8 (DW_TAG_formal_parameter)
    <110f>   DW_AT_type        : <0xc1>
 <2><1113>: Abbrev Number: 0
 <1><1114>: Abbrev Number: 66 (DW_TAG_subprogram)
    <1115>   DW_AT_external    : 1
    <1115>   DW_AT_name        : (indirect string, offset: 0x37ec6): rand
    <1119>   DW_AT_decl_file   : 414
    <111b>   DW_AT_decl_line   : 453
    <111d>   DW_AT_decl_column : 12
    <111e>   DW_AT_type        : <0xc1>
    <1122>   DW_AT_declaration : 1
 <1><1122>: Abbrev Number: 55 (DW_TAG_subprogram)
    <1123>   DW_AT_external    : 1
    <1123>   DW_AT_name        : (indirect string, offset: 0x37ec5): srand
    <1127>   DW_AT_decl_file   : 414
    <1129>   DW_AT_decl_line   : 455
    <112b>   DW_AT_decl_column : 13
    <112b>   DW_AT_declaration : 1
    <112b>   DW_AT_sibling     : <0x1135>
 <2><112f>: Abbrev Number: 8 (DW_TAG_formal_parameter)
    <1130>   DW_AT_type        : <0x66>
 <2><1134>: Abbrev Number: 0
 <1><1135>: Abbrev Number: 28 (DW_TAG_subprogram)
    <1136>   DW_AT_external    : 1
    <1136>   DW_AT_name        : (indirect string, offset: 0x28cca): strtod
    <113a>   DW_AT_decl_file   : 414
    <113c>   DW_AT_decl_line   : 117
    <113d>   DW_AT_decl_column : 15
    <113e>   DW_AT_type        : <0x338>
    <1142>   DW_AT_declaration : 1
    <1142>   DW_AT_sibling     : <0x1151>
 <2><1146>: Abbrev Number: 8 (DW_TAG_formal_parameter)
    <1147>   DW_AT_type        : <0x401>
 <2><114b>: Abbrev Number: 8 (DW_TAG_formal_parameter)
    <114c>   DW_AT_type        : <0x1151>
 <2><1150>: Abbrev Number: 0
 <1><1151>: Abbrev Number: 25 (DW_TAG_pointer_type)
    <1152>   DW_AT_byte_size   : 8
    <1152>   DW_AT_type        : <0x1b4>
 <1><1156>: Abbrev Number: 28 (DW_TAG_subprogram)
    <1157>   DW_AT_external    : 1
    <1157>   DW_AT_name        : (indirect string, offset: 0x28d1d): strtol
    <115b>   DW_AT_decl_file   : 414
    <115d>   DW_AT_decl_line   : 176
    <115e>   DW_AT_decl_column : 17
    <115f>   DW_AT_type        : <0x2a>
    <1163>   DW_AT_declaration : 1
    <1163>   DW_AT_sibling     : <0x1177>
 <2><1167>: Abbrev Number: 8 (DW_TAG_formal_parameter)
    <1168>   DW_AT_type        : <0x401>
 <2><116c>: Abbrev Number: 8 (DW_TAG_formal_parameter)
    <116d>   DW_AT_type        : <0x1151>
 <2><1171>: Abbrev Number: 8 (DW_TAG_formal_parameter)
    <1172>   DW_AT_type        : <0xc1>
 <2><1176>: Abbrev Number: 0
 <1><1177>: Abbrev Number: 28 (DW_TAG_subprogram)
    <1178>   DW_AT_external    : 1
    <1178>   DW_AT_name        : (indirect string, offset: 0x46750): strtoul
    <117c>   DW_AT_decl_file   : 414
    <117e>   DW_AT_decl_line   : 180
    <117f>   DW_AT_decl_column : 26
    <1180>   DW_AT_type        : <0x3e>
    <1184>   DW_AT_declaration : 1
    <1184>   DW_AT_sibling     : <0x1198>
 <2><1188>: Abbrev Number: 8 (DW_TAG_formal_parameter)
    <1189>   DW_AT_type        : <0x401>
 <2><118d>: Abbrev Number: 8 (DW_TAG_formal_parameter)
    <118e>   DW_AT_type        : <0x1151>
 <2><1192>: Abbrev Number: 8 (DW_TAG_formal_parameter)
    <1193>   DW_AT_type        : <0xc1>
 <2><1197>: Abbrev Number: 0
 <1><1198>: Abbrev Number: 24 (DW_TAG_subprogram)
    <1199>   DW_AT_external    : 1
    <1199>   DW_AT_name        : (indirect string, offset: 0x6c86a): system
    <119d>   DW_AT_decl_file   : 414
    <119f>   DW_AT_decl_line   : 784
    <11a1>   DW_AT_decl_column : 12
    <11a2>   DW_AT_type        : <0xc1>
    <11a6>   DW_AT_declaration : 1
    <11a6>   DW_AT_sibling     : <0x11b0>
 <2><11aa>: Abbrev Number: 8 (DW_TAG_formal_parameter)
    <11ab>   DW_AT_type        : <0x401>
 <2><11af>: Abbrev Number: 0
 <1><11b0>: Abbrev Number: 24 (DW_TAG_subprogram)
    <11b1>   DW_AT_external    : 1
    <11b1>   DW_AT_name        : (indirect string, offset: 0x30701): wcstombs
    <11b5>   DW_AT_decl_file   : 414
    <11b7>   DW_AT_decl_line   : 937
    <11b9>   DW_AT_decl_column : 15
    <11ba>   DW_AT_type        : <0x31>
    <11be>   DW_AT_declaration : 1
    <11be>   DW_AT_sibling     : <0x11d2>
 <2><11c2>: Abbrev Number: 8 (DW_TAG_formal_parameter)
    <11c3>   DW_AT_type        : <0x1b4>
 <2><11c7>: Abbrev Number: 8 (DW_TAG_formal_parameter)
    <11c8>   DW_AT_type        : <0x11d2>
 <2><11cc>: Abbrev Number: 8 (DW_TAG_formal_parameter)
    <11cd>   DW_AT_type        : <0x31>
 <2><11d1>: Abbrev Number: 0
 <1><11d2>: Abbrev Number: 25 (DW_TAG_pointer_type)
    <11d3>   DW_AT_byte_size   : 8
    <11d3>   DW_AT_type        : <0x10ba>
 <1><11d7>: Abbrev Number: 24 (DW_TAG_subprogram)
    <11d8>   DW_AT_external    : 1
    <11d8>   DW_AT_name        : (indirect string, offset: 0x4eb54): wctomb
    <11dc>   DW_AT_decl_file   : 414
    <11de>   DW_AT_decl_line   : 929
    <11e0>   DW_AT_decl_column : 12
    <11e1>   DW_AT_type        : <0xc1>
    <11e5>   DW_AT_declaration : 1
    <11e5>   DW_AT_sibling     : <0x11f4>
 <2><11e9>: Abbrev Number: 8 (DW_TAG_formal_parameter)
    <11ea>   DW_AT_type        : <0x1b4>
 <2><11ee>: Abbrev Number: 8 (DW_TAG_formal_parameter)
    <11ef>   DW_AT_type        : <0x10b3>
 <2><11f3>: Abbrev Number: 0
 <1><11f4>: Abbrev Number: 122 (DW_TAG_namespace)
    <11f5>   DW_AT_name        : (indirect string, offset: 0x4b138): __gnu_cxx
    <11f9>   DW_AT_decl_file   : 423
    <11fb>   DW_AT_decl_line   : 304
    <11fd>   DW_AT_decl_column : 11
    <11fe>   DW_AT_sibling     : <0x1283>
 <2><1202>: Abbrev Number: 14 (DW_TAG_imported_declaration)
    <1203>   DW_AT_decl_file   : 417
    <1205>   DW_AT_decl_line   : 200
    <1206>   DW_AT_decl_column : 11
    <1207>   DW_AT_import      : <0x3f4>	[Abbrev Number: 22 (DW_TAG_typedef)]
 <2><120b>: Abbrev Number: 14 (DW_TAG_imported_declaration)
    <120c>   DW_AT_decl_file   : 417
    <120e>   DW_AT_decl_line   : 216
    <120f>   DW_AT_decl_column : 11
    <1210>   DW_AT_import      : <0x1283>	[Abbrev Number: 24 (DW_TAG_subprogram)]
 <2><1214>: Abbrev Number: 14 (DW_TAG_imported_declaration)
    <1215>   DW_AT_decl_file   : 417
    <1217>   DW_AT_decl_line   : 227
    <1218>   DW_AT_decl_column : 11
    <1219>   DW_AT_import      : <0x12a0>	[Abbrev Number: 28 (DW_TAG_subprogram)]
 <2><121d>: Abbrev Number: 14 (DW_TAG_imported_declaration)
    <121e>   DW_AT_decl_file   : 417
    <1220>   DW_AT_decl_line   : 228
    <1221>   DW_AT_decl_column : 11
    <1222>   DW_AT_import      : <0x12b7>	[Abbrev Number: 28 (DW_TAG_subprogram)]
 <2><1226>: Abbrev Number: 14 (DW_TAG_imported_declaration)
    <1227>   DW_AT_decl_file   : 417
    <1229>   DW_AT_decl_line   : 229
    <122a>   DW_AT_decl_column : 11
    <122b>   DW_AT_import      : <0x12d8>	[Abbrev Number: 28 (DW_TAG_subprogram)]
 <2><122f>: Abbrev Number: 14 (DW_TAG_imported_declaration)
    <1230>   DW_AT_decl_file   : 417
    <1232>   DW_AT_decl_line   : 231
    <1233>   DW_AT_decl_column : 11
    <1234>   DW_AT_import      : <0x12f9>	[Abbrev Number: 28 (DW_TAG_subprogram)]
 <2><1238>: Abbrev Number: 14 (DW_TAG_imported_declaration)
    <1239>   DW_AT_decl_file   : 417
    <123b>   DW_AT_decl_line   : 232
    <123c>   DW_AT_decl_column : 11
    <123d>   DW_AT_import      : <0x1315>	[Abbrev Number: 28 (DW_TAG_subprogram)]
 <2><1241>: Abbrev Number: 47 (DW_TAG_subprogram)
    <1242>   DW_AT_external    : 1
    <1242>   DW_AT_name        : div
    <1246>   DW_AT_decl_file   : 417
    <1248>   DW_AT_decl_line   : 213
    <1249>   DW_AT_decl_column : 3
    <1249>   DW_AT_linkage_name: (indirect string, offset: 0x8fd2): _ZN9__gnu_cxx3divExx
    <124d>   DW_AT_type        : <0x3f4>
    <1251>   DW_AT_declaration : 1
    <1251>   DW_AT_sibling     : <0x1260>
 <3><1255>: Abbrev Number: 8 (DW_TAG_formal_parameter)
    <1256>   DW_AT_type        : <0x45>
 <3><125a>: Abbrev Number: 8 (DW_TAG_formal_parameter)
    <125b>   DW_AT_type        : <0x45>
 <3><125f>: Abbrev Number: 0
 <2><1260>: Abbrev Number: 81 (DW_TAG_namespace)
    <1261>   DW_AT_name        : (indirect string, offset: 0x1c778): __ops
    <1265>   DW_AT_decl_file   : 430
    <1267>   DW_AT_decl_line   : 37
    <1268>   DW_AT_decl_column : 11
 <2><1269>: Abbrev Number: 14 (DW_TAG_imported_declaration)
    <126a>   DW_AT_decl_file   : 421
    <126c>   DW_AT_decl_line   : 251
    <126d>   DW_AT_decl_column : 11
    <126e>   DW_AT_import      : <0x1ff2>	[Abbrev Number: 24 (DW_TAG_subprogram)]
 <2><1272>: Abbrev Number: 41 (DW_TAG_imported_declaration)
    <1273>   DW_AT_decl_file   : 421
    <1273>   DW_AT_decl_line   : 260
    <1275>   DW_AT_decl_column : 11
    <1276>   DW_AT_import      : <0x200f>	[Abbrev Number: 24 (DW_TAG_subprogram)]
 <2><127a>: Abbrev Number: 41 (DW_TAG_imported_declaration)
    <127b>   DW_AT_decl_file   : 421
    <127b>   DW_AT_decl_line   : 261
    <127d>   DW_AT_decl_column : 11
    <127e>   DW_AT_import      : <0x2031>	[Abbrev Number: 24 (DW_TAG_subprogram)]
 <2><1282>: Abbrev Number: 0
 <1><1283>: Abbrev Number: 24 (DW_TAG_subprogram)
    <1284>   DW_AT_external    : 1
    <1284>   DW_AT_name        : (indirect string, offset: 0x24f82): lldiv
    <1288>   DW_AT_decl_file   : 414
    <128a>   DW_AT_decl_line   : 858
    <128c>   DW_AT_decl_column : 30
    <128d>   DW_AT_type        : <0x3f4>
    <1291>   DW_AT_declaration : 1
    <1291>   DW_AT_sibling     : <0x12a0>
 <2><1295>: Abbrev Number: 8 (DW_TAG_formal_parameter)
    <1296>   DW_AT_type        : <0x45>
 <2><129a>: Abbrev Number: 8 (DW_TAG_formal_parameter)
    <129b>   DW_AT_type        : <0x45>
 <2><129f>: Abbrev Number: 0
 <1><12a0>: Abbrev Number: 28 (DW_TAG_subprogram)
    <12a1>   DW_AT_external    : 1
    <12a1>   DW_AT_name        : (indirect string, offset: 0x4b0cf): atoll
    <12a5>   DW_AT_decl_file   : 414
    <12a7>   DW_AT_decl_line   : 112
    <12a8>   DW_AT_decl_column : 36
    <12a9>   DW_AT_type        : <0x45>
    <12ad>   DW_AT_declaration : 1
    <12ad>   DW_AT_sibling     : <0x12b7>
 <2><12b1>: Abbrev Number: 8 (DW_TAG_formal_parameter)
    <12b2>   DW_AT_type        : <0x401>
 <2><12b6>: Abbrev Number: 0
 <1><12b7>: Abbrev Number: 28 (DW_TAG_subprogram)
    <12b8>   DW_AT_external    : 1
    <12b8>   DW_AT_name        : (indirect string, offset: 0x45978): strtoll
    <12bc>   DW_AT_decl_file   : 414
    <12be>   DW_AT_decl_line   : 200
    <12bf>   DW_AT_decl_column : 22
    <12c0>   DW_AT_type        : <0x45>
    <12c4>   DW_AT_declaration : 1
    <12c4>   DW_AT_sibling     : <0x12d8>
 <2><12c8>: Abbrev Number: 8 (DW_TAG_formal_parameter)
    <12c9>   DW_AT_type        : <0x401>
 <2><12cd>: Abbrev Number: 8 (DW_TAG_formal_parameter)
    <12ce>   DW_AT_type        : <0x1151>
 <2><12d2>: Abbrev Number: 8 (DW_TAG_formal_parameter)
    <12d3>   DW_AT_type        : <0xc1>
 <2><12d7>: Abbrev Number: 0
 <1><12d8>: Abbrev Number: 28 (DW_TAG_subprogram)
    <12d9>   DW_AT_external    : 1
    <12d9>   DW_AT_name        : (indirect string, offset: 0xa779): strtoull
    <12dd>   DW_AT_decl_file   : 414
    <12df>   DW_AT_decl_line   : 205
    <12e0>   DW_AT_decl_column : 31
    <12e1>   DW_AT_type        : <0x44d>
    <12e5>   DW_AT_declaration : 1
    <12e5>   DW_AT_sibling     : <0x12f9>
 <2><12e9>: Abbrev Number: 8 (DW_TAG_formal_parameter)
    <12ea>   DW_AT_type        : <0x401>
 <2><12ee>: Abbrev Number: 8 (DW_TAG_formal_parameter)
    <12ef>   DW_AT_type        : <0x1151>
 <2><12f3>: Abbrev Number: 8 (DW_TAG_formal_parameter)
    <12f4>   DW_AT_type        : <0xc1>
 <2><12f8>: Abbrev Number: 0
 <1><12f9>: Abbrev Number: 28 (DW_TAG_subprogram)
    <12fa>   DW_AT_external    : 1
    <12fa>   DW_AT_name        : (indirect string, offset: 0x28cd1): strtof
    <12fe>   DW_AT_decl_file   : 414
    <1300>   DW_AT_decl_line   : 123
    <1301>   DW_AT_decl_column : 14
    <1302>   DW_AT_type        : <0x331>
    <1306>   DW_AT_declaration : 1
    <1306>   DW_AT_sibling     : <0x1315>
 <2><130a>: Abbrev Number: 8 (DW_TAG_formal_parameter)
    <130b>   DW_AT_type        : <0x401>
 <2><130f>: Abbrev Number: 8 (DW_TAG_formal_parameter)
    <1310>   DW_AT_type        : <0x1151>
 <2><1314>: Abbrev Number: 0
 <1><1315>: Abbrev Number: 28 (DW_TAG_subprogram)
    <1316>   DW_AT_external    : 1
    <1316>   DW_AT_name        : (indirect string, offset: 0x45922): strtold
    <131a>   DW_AT_decl_file   : 414
    <131c>   DW_AT_decl_line   : 126
    <131d>   DW_AT_decl_column : 20
    <131e>   DW_AT_type        : <0x4c>
    <1322>   DW_AT_declaration : 1
    <1322>   DW_AT_sibling     : <0x1331>
 <2><1326>: Abbrev Number: 8 (DW_TAG_formal_parameter)
    <1327>   DW_AT_type        : <0x401>
 <2><132b>: Abbrev Number: 8 (DW_TAG_formal_parameter)
    <132c>   DW_AT_type        : <0x1151>
 <2><1330>: Abbrev Number: 0
 <1><1331>: Abbrev Number: 14 (DW_TAG_imported_declaration)
    <1332>   DW_AT_decl_file   : 431
    <1334>   DW_AT_decl_line   : 39
    <1335>   DW_AT_decl_column : 12
    <1336>   DW_AT_import      : <0xf78>	[Abbrev Number: 24 (DW_TAG_subprogram)]
 <1><133a>: Abbrev Number: 14 (DW_TAG_imported_declaration)
    <133b>   DW_AT_decl_file   : 431
    <133d>   DW_AT_decl_line   : 43
    <133e>   DW_AT_decl_column : 14
    <133f>   DW_AT_import      : <0xf90>	[Abbrev Number: 54 (DW_TAG_subprogram)]
 <1><1343>: Abbrev Number: 14 (DW_TAG_imported_declaration)
    <1344>   DW_AT_decl_file   : 431
    <1346>   DW_AT_decl_line   : 46
    <1347>   DW_AT_decl_column : 14
    <1348>   DW_AT_import      : <0x1103>	[Abbrev Number: 86 (DW_TAG_subprogram)]
 <1><134c>: Abbrev Number: 14 (DW_TAG_imported_declaration)
    <134d>   DW_AT_decl_file   : 431
    <134f>   DW_AT_decl_line   : 51
    <1350>   DW_AT_decl_column : 12
    <1351>   DW_AT_import      : <0x384>	[Abbrev Number: 22 (DW_TAG_typedef)]
 <1><1355>: Abbrev Number: 14 (DW_TAG_imported_declaration)
    <1356>   DW_AT_decl_file   : 431
    <1358>   DW_AT_decl_line   : 52
    <1359>   DW_AT_decl_column : 12
    <135a>   DW_AT_import      : <0x3bc>	[Abbrev Number: 22 (DW_TAG_typedef)]
 <1><135e>: Abbrev Number: 14 (DW_TAG_imported_declaration)
    <135f>   DW_AT_decl_file   : 431
    <1361>   DW_AT_decl_line   : 54
    <1362>   DW_AT_decl_column : 12
    <1363>   DW_AT_import      : <0x5be>	[Abbrev Number: 47 (DW_TAG_subprogram)]
 <1><1367>: Abbrev Number: 33 (DW_TAG_base_type)
    <1368>   DW_AT_byte_size   : 16
    <1369>   DW_AT_encoding    : 5	(signed)
    <136a>   DW_AT_name        : (indirect string, offset: 0x34d4): __int128
 <1><136e>: Abbrev Number: 14 (DW_TAG_imported_declaration)
    <136f>   DW_AT_decl_file   : 431
    <1371>   DW_AT_decl_line   : 54
    <1372>   DW_AT_decl_column : 12
    <1373>   DW_AT_import      : <0x5d8>	[Abbrev Number: 47 (DW_TAG_subprogram)]
 <1><1377>: Abbrev Number: 14 (DW_TAG_imported_declaration)
    <1378>   DW_AT_decl_file   : 431
    <137a>   DW_AT_decl_line   : 54
    <137b>   DW_AT_decl_column : 12
    <137c>   DW_AT_import      : <0x5f2>	[Abbrev Number: 47 (DW_TAG_subprogram)]
 <1><1380>: Abbrev Number: 14 (DW_TAG_imported_declaration)
    <1381>   DW_AT_decl_file   : 431
    <1383>   DW_AT_decl_line   : 54
    <1384>   DW_AT_decl_column : 12
    <1385>   DW_AT_import      : <0x60c>	[Abbrev Number: 47 (DW_TAG_subprogram)]
 <1><1389>: Abbrev Number: 14 (DW_TAG_imported_declaration)
    <138a>   DW_AT_decl_file   : 431
    <138c>   DW_AT_decl_line   : 54
    <138d>   DW_AT_decl_column : 12
    <138e>   DW_AT_import      : <0x626>	[Abbrev Number: 47 (DW_TAG_subprogram)]
 <1><1392>: Abbrev Number: 14 (DW_TAG_imported_declaration)
    <1393>   DW_AT_decl_file   : 431
    <1395>   DW_AT_decl_line   : 54
    <1396>   DW_AT_decl_column : 12
    <1397>   DW_AT_import      : <0x640>	[Abbrev Number: 47 (DW_TAG_subprogram)]
 <1><139b>: Abbrev Number: 14 (DW_TAG_imported_declaration)
    <139c>   DW_AT_decl_file   : 431
    <139e>   DW_AT_decl_line   : 54
    <139f>   DW_AT_decl_column : 12
    <13a0>   DW_AT_import      : <0x65a>	[Abbrev Number: 47 (DW_TAG_subprogram)]
 <1><13a4>: Abbrev Number: 14 (DW_TAG_imported_declaration)
    <13a5>   DW_AT_decl_file   : 431
    <13a7>   DW_AT_decl_line   : 55
    <13a8>   DW_AT_decl_column : 12
    <13a9>   DW_AT_import      : <0xfac>	[Abbrev Number: 28 (DW_TAG_subprogram)]
 <1><13ad>: Abbrev Number: 14 (DW_TAG_imported_declaration)
    <13ae>   DW_AT_decl_file   : 431
    <13b0>   DW_AT_decl_line   : 56
    <13b1>   DW_AT_decl_column : 12
    <13b2>   DW_AT_import      : <0xfc3>	[Abbrev Number: 28 (DW_TAG_subprogram)]
 <1><13b6>: Abbrev Number: 14 (DW_TAG_imported_declaration)
    <13b7>   DW_AT_decl_file   : 431
    <13b9>   DW_AT_decl_line   : 57
    <13ba>   DW_AT_decl_column : 12
    <13bb>   DW_AT_import      : <0xfda>	[Abbrev Number: 28 (DW_TAG_subprogram)]
 <1><13bf>: Abbrev Number: 14 (DW_TAG_imported_declaration)
    <13c0>   DW_AT_decl_file   : 431
    <13c2>   DW_AT_decl_line   : 58
    <13c3>   DW_AT_decl_column : 12
    <13c4>   DW_AT_import      : <0xff1>	[Abbrev Number: 24 (DW_TAG_subprogram)]
 <1><13c8>: Abbrev Number: 14 (DW_TAG_imported_declaration)
    <13c9>   DW_AT_decl_file   : 431
    <13cb>   DW_AT_decl_line   : 60
    <13cc>   DW_AT_decl_column : 12
    <13cd>   DW_AT_import      : <0x1241>	[Abbrev Number: 47 (DW_TAG_subprogram)]
 <1><13d1>: Abbrev Number: 14 (DW_TAG_imported_declaration)
    <13d2>   DW_AT_decl_file   : 431
    <13d4>   DW_AT_decl_line   : 60
    <13d5>   DW_AT_decl_column : 12
    <13d6>   DW_AT_import      : <0x674>	[Abbrev Number: 47 (DW_TAG_subprogram)]
 <1><13da>: Abbrev Number: 14 (DW_TAG_imported_declaration)
    <13db>   DW_AT_decl_file   : 431
    <13dd>   DW_AT_decl_line   : 60
    <13de>   DW_AT_decl_column : 12
    <13df>   DW_AT_import      : <0x101d>	[Abbrev Number: 121 (DW_TAG_subprogram)]
 <1><13e3>: Abbrev Number: 14 (DW_TAG_imported_declaration)
    <13e4>   DW_AT_decl_file   : 431
    <13e6>   DW_AT_decl_line   : 62
    <13e7>   DW_AT_decl_column : 12
    <13e8>   DW_AT_import      : <0x103a>	[Abbrev Number: 24 (DW_TAG_subprogram)]
 <1><13ec>: Abbrev Number: 14 (DW_TAG_imported_declaration)
    <13ed>   DW_AT_decl_file   : 431
    <13ef>   DW_AT_decl_line   : 64
    <13f0>   DW_AT_decl_column : 12
    <13f1>   DW_AT_import      : <0x1052>	[Abbrev Number: 24 (DW_TAG_subprogram)]
 <1><13f5>: Abbrev Number: 14 (DW_TAG_imported_declaration)
    <13f6>   DW_AT_decl_file   : 431
    <13f8>   DW_AT_decl_line   : 67
    <13f9>   DW_AT_decl_column : 12
    <13fa>   DW_AT_import      : <0x106f>	[Abbrev Number: 24 (DW_TAG_subprogram)]
 <1><13fe>: Abbrev Number: 14 (DW_TAG_imported_declaration)
    <13ff>   DW_AT_decl_file   : 431
    <1401>   DW_AT_decl_line   : 68
    <1402>   DW_AT_decl_column : 12
    <1403>   DW_AT_import      : <0x108c>	[Abbrev Number: 24 (DW_TAG_subprogram)]
 <1><1407>: Abbrev Number: 14 (DW_TAG_imported_declaration)
    <1408>   DW_AT_decl_file   : 431
    <140a>   DW_AT_decl_line   : 69
    <140b>   DW_AT_decl_column : 12
    <140c>   DW_AT_import      : <0x10bf>	[Abbrev Number: 24 (DW_TAG_subprogram)]
 <1><1410>: Abbrev Number: 14 (DW_TAG_imported_declaration)
    <1411>   DW_AT_decl_file   : 431
    <1413>   DW_AT_decl_line   : 71
    <1414>   DW_AT_decl_column : 12
    <1415>   DW_AT_import      : <0x10e1>	[Abbrev Number: 55 (DW_TAG_subprogram)]
 <1><1419>: Abbrev Number: 14 (DW_TAG_imported_declaration)
    <141a>   DW_AT_decl_file   : 431
    <141c>   DW_AT_decl_line   : 72
    <141d>   DW_AT_decl_column : 12
    <141e>   DW_AT_import      : <0x1114>	[Abbrev Number: 66 (DW_TAG_subprogram)]
 <1><1422>: Abbrev Number: 14 (DW_TAG_imported_declaration)
    <1423>   DW_AT_decl_file   : 431
    <1425>   DW_AT_decl_line   : 74
    <1426>   DW_AT_decl_column : 12
    <1427>   DW_AT_import      : <0x1122>	[Abbrev Number: 55 (DW_TAG_subprogram)]
 <1><142b>: Abbrev Number: 14 (DW_TAG_imported_declaration)
    <142c>   DW_AT_decl_file   : 431
    <142e>   DW_AT_decl_line   : 75
    <142f>   DW_AT_decl_column : 12
    <1430>   DW_AT_import      : <0x1135>	[Abbrev Number: 28 (DW_TAG_subprogram)]
 <1><1434>: Abbrev Number: 14 (DW_TAG_imported_declaration)
    <1435>   DW_AT_decl_file   : 431
    <1437>   DW_AT_decl_line   : 76
    <1438>   DW_AT_decl_column : 12
    <1439>   DW_AT_import      : <0x1156>	[Abbrev Number: 28 (DW_TAG_subprogram)]
 <1><143d>: Abbrev Number: 14 (DW_TAG_imported_declaration)
    <143e>   DW_AT_decl_file   : 431
    <1440>   DW_AT_decl_line   : 77
    <1441>   DW_AT_decl_column : 12
    <1442>   DW_AT_import      : <0x1177>	[Abbrev Number: 28 (DW_TAG_subprogram)]
 <1><1446>: Abbrev Number: 14 (DW_TAG_imported_declaration)
    <1447>   DW_AT_decl_file   : 431
    <1449>   DW_AT_decl_line   : 78
    <144a>   DW_AT_decl_column : 12
    <144b>   DW_AT_import      : <0x1198>	[Abbrev Number: 24 (DW_TAG_subprogram)]
 <1><144f>: Abbrev Number: 14 (DW_TAG_imported_declaration)
    <1450>   DW_AT_decl_file   : 431
    <1452>   DW_AT_decl_line   : 80
    <1453>   DW_AT_decl_column : 12
    <1454>   DW_AT_import      : <0x11b0>	[Abbrev Number: 24 (DW_TAG_subprogram)]
 <1><1458>: Abbrev Number: 14 (DW_TAG_imported_declaration)
    <1459>   DW_AT_decl_file   : 431
    <145b>   DW_AT_decl_line   : 81
    <145c>   DW_AT_decl_column : 12
    <145d>   DW_AT_import      : <0x11d7>	[Abbrev Number: 24 (DW_TAG_subprogram)]
 <1><1461>: Abbrev Number: 123 (DW_TAG_structure_type)
    <1462>   DW_AT_name        : (indirect string, offset: 0x52c51): typedef __va_list_tag __va_list_tag
    <1466>   DW_AT_byte_size   : 24
    <1467>   DW_AT_decl_file   : 432
    <1469>   DW_AT_decl_line   : 0
    <146a>   DW_AT_sibling     : <0x1497>
 <2><146e>: Abbrev Number: 67 (DW_TAG_member)
    <146f>   DW_AT_name        : (indirect string, offset: 0x63d8c): gp_offset
    <1473>   DW_AT_decl_file   : 432
    <1473>   DW_AT_decl_line   : 0
    <1473>   DW_AT_type        : <0x66>
    <1477>   DW_AT_data_member_location: 0
 <2><1478>: Abbrev Number: 67 (DW_TAG_member)
    <1479>   DW_AT_name        : (indirect string, offset: 0x29f3e): fp_offset
    <147d>   DW_AT_decl_file   : 432
    <147d>   DW_AT_decl_line   : 0
    <147d>   DW_AT_type        : <0x66>
    <1481>   DW_AT_data_member_location: 4
 <2><1482>: Abbrev Number: 67 (DW_TAG_member)
    <1483>   DW_AT_name        : (indirect string, offset: 0x2ad47): overflow_arg_area
    <1487>   DW_AT_decl_file   : 432
    <1487>   DW_AT_decl_line   : 0
    <1487>   DW_AT_type        : <0x1b2>
    <148b>   DW_AT_data_member_location: 8
 <2><148c>: Abbrev Number: 67 (DW_TAG_member)
